GAS LISTING /tmp/ccc9f5bX.s 			page 1


   1              		.file	"c_console.cpp"
   2              		.option pic
   3              		.option norelax
   4              		.text
   5              	.Ltext0:
   6              		.align	2
   7              		.globl	_Z5printPKc
   9              	_Z5printPKc:
  10              	.LFB53:
  11              		.file 1 "src/c_console.cpp"
   1:src/c_console.cpp **** #include "../h/c_semaphore.hpp"
   2:src/c_console.cpp **** #include "../h/c_console.hpp"
   3:src/c_console.cpp **** #include "../h/cpp_semaphores.hpp"
   4:src/c_console.cpp **** #include "../h/string.hpp"
   5:src/c_console.cpp **** 
   6:src/c_console.cpp **** IOBuffer IO::Input{};
   7:src/c_console.cpp **** IOBuffer IO::Output{};
   8:src/c_console.cpp **** extern OwnedMutex *printer;
   9:src/c_console.cpp **** 
  10:src/c_console.cpp **** void IOBuffer::init() {
  11:src/c_console.cpp ****     this->buffer.init();
  12:src/c_console.cpp ****     sem_open(&this->empty, 0);
  13:src/c_console.cpp **** }
  14:src/c_console.cpp **** 
  15:src/c_console.cpp **** void IOBuffer::put(char c) {
  16:src/c_console.cpp ****     this->buffer.put(c);
  17:src/c_console.cpp ****     Sem::_sem_signal(this->empty);
  18:src/c_console.cpp **** }
  19:src/c_console.cpp **** 
  20:src/c_console.cpp **** char IOBuffer::get() {
  21:src/c_console.cpp ****     Sem::_sem_wait(this->empty);
  22:src/c_console.cpp ****     char ret = this->buffer.get();
  23:src/c_console.cpp ****     return ret;
  24:src/c_console.cpp **** }
  25:src/c_console.cpp **** 
  26:src/c_console.cpp **** void IO::init() {
  27:src/c_console.cpp ****     Input.init();
  28:src/c_console.cpp ****     Output.init();
  29:src/c_console.cpp **** }
  30:src/c_console.cpp **** 
  31:src/c_console.cpp **** char IO::_getc() {
  32:src/c_console.cpp ****     return Input.get();
  33:src/c_console.cpp **** }
  34:src/c_console.cpp **** 
  35:src/c_console.cpp **** void IO::_putc(char c) {
  36:src/c_console.cpp ****     if (c == 127) {
  37:src/c_console.cpp ****         Output.put(8);
  38:src/c_console.cpp ****         Output.put(' ');
  39:src/c_console.cpp ****         Output.put(8);
  40:src/c_console.cpp ****     } else {
  41:src/c_console.cpp ****         Output.put(c);
  42:src/c_console.cpp ****     }
  43:src/c_console.cpp **** }
  44:src/c_console.cpp **** 
  45:src/c_console.cpp **** void print(const char *str) {
  12              		.loc 1 45 29
  13              		.cfi_startproc
GAS LISTING /tmp/ccc9f5bX.s 			page 2


  14              	.LVL0:
  15 0000 130101FE 		addi	sp,sp,-32
  16              		.cfi_def_cfa_offset 32
  17 0004 233C1100 		sd	ra,24(sp)
  18 0008 23388100 		sd	s0,16(sp)
  19 000c 23349100 		sd	s1,8(sp)
  20 0010 23302101 		sd	s2,0(sp)
  21              		.cfi_offset 1, -8
  22              		.cfi_offset 8, -16
  23              		.cfi_offset 9, -24
  24              		.cfi_offset 18, -32
  25 0014 13040102 		addi	s0,sp,32
  26              		.cfi_def_cfa 8, 0
  27 0018 13090500 		mv	s2,a0
  46:src/c_console.cpp ****     int i = 0;
  28              		.loc 1 46 5
  29              	.LVL1:
  47:src/c_console.cpp ****     printer->wait();
  30              		.loc 1 47 5
  31              		.loc 1 47 18 is_stmt 0
  32 001c 97070000 		la	a5,printer
  32      83B70700 
  33 0024 03B50700 		ld	a0,0(a5)
  34              	.LVL2:
  35              		.loc 1 47 19
  36 0028 83370500 		ld	a5,0(a0)
  37 002c 83B70701 		ld	a5,16(a5)
  38              		.loc 1 47 18
  39 0030 E7800700 		jalr	a5
  40              	.LVL3:
  46:src/c_console.cpp ****     int i = 0;
  41              		.loc 1 46 9
  42 0034 93040000 		li	s1,0
  43              	.LVL4:
  44              	.L3:
  48:src/c_console.cpp ****     while (str[i]) {
  45              		.loc 1 48 5 is_stmt 1
  46              		.loc 1 48 17
  47 0038 B3079900 		add	a5,s2,s1
  48 003c 03C50700 		lbu	a0,0(a5)
  49 0040 630A0500 		beqz	a0,.L2
  49:src/c_console.cpp ****         putc(str[i++]);
  50              		.loc 1 49 9
  51              		.loc 1 49 19 is_stmt 0
  52 0044 9B841400 		addiw	s1,s1,1
  53              	.LVL5:
  54              		.loc 1 49 13
  55 0048 97000000 		call	_Z4putcc@plt
  55      E7800000 
  56              	.LVL6:
  48:src/c_console.cpp ****     while (str[i]) {
  57              		.loc 1 48 5
  58 0050 6FF09FFE 		j	.L3
  59              	.LVL7:
  60              	.L2:
  50:src/c_console.cpp ****     }
  51:src/c_console.cpp ****     printer->signal();
GAS LISTING /tmp/ccc9f5bX.s 			page 3


  61              		.loc 1 51 5 is_stmt 1
  62              		.loc 1 51 20 is_stmt 0
  63 0054 97070000 		la	a5,printer
  63      83B70700 
  64 005c 03B50700 		ld	a0,0(a5)
  65              		.loc 1 51 21
  66 0060 83370500 		ld	a5,0(a0)
  67 0064 83B78701 		ld	a5,24(a5)
  68              		.loc 1 51 20
  69 0068 E7800700 		jalr	a5
  70              	.LVL8:
  52:src/c_console.cpp **** }
  71              		.loc 1 52 1
  72 006c 83308101 		ld	ra,24(sp)
  73              		.cfi_restore 1
  74 0070 03340101 		ld	s0,16(sp)
  75              		.cfi_restore 8
  76              		.cfi_def_cfa 2, 32
  77 0074 83348100 		ld	s1,8(sp)
  78              		.cfi_restore 9
  79              	.LVL9:
  80 0078 03390100 		ld	s2,0(sp)
  81              		.cfi_restore 18
  82              	.LVL10:
  83 007c 13010102 		addi	sp,sp,32
  84              		.cfi_def_cfa_offset 0
  85 0080 67800000 		jr	ra
  86              		.cfi_endproc
  87              	.LFE53:
  89              		.align	2
  90              		.globl	_Z14dramatic_printPKc
  92              	_Z14dramatic_printPKc:
  93              	.LFB54:
  53:src/c_console.cpp **** 
  54:src/c_console.cpp **** void dramatic_print(const char *str) {
  94              		.loc 1 54 38 is_stmt 1
  95              		.cfi_startproc
  96              	.LVL11:
  97 0084 130101FE 		addi	sp,sp,-32
  98              		.cfi_def_cfa_offset 32
  99 0088 233C1100 		sd	ra,24(sp)
 100 008c 23388100 		sd	s0,16(sp)
 101 0090 23349100 		sd	s1,8(sp)
 102 0094 23302101 		sd	s2,0(sp)
 103              		.cfi_offset 1, -8
 104              		.cfi_offset 8, -16
 105              		.cfi_offset 9, -24
 106              		.cfi_offset 18, -32
 107 0098 13040102 		addi	s0,sp,32
 108              		.cfi_def_cfa 8, 0
 109 009c 13090500 		mv	s2,a0
  55:src/c_console.cpp ****     int i = 0;
 110              		.loc 1 55 5
 111              	.LVL12:
  56:src/c_console.cpp ****     printer->wait();
 112              		.loc 1 56 5
 113              		.loc 1 56 18 is_stmt 0
GAS LISTING /tmp/ccc9f5bX.s 			page 4


 114 00a0 97070000 		la	a5,printer
 114      83B70700 
 115 00a8 03B50700 		ld	a0,0(a5)
 116              	.LVL13:
 117              		.loc 1 56 19
 118 00ac 83370500 		ld	a5,0(a0)
 119 00b0 83B70701 		ld	a5,16(a5)
 120              		.loc 1 56 18
 121 00b4 E7800700 		jalr	a5
 122              	.LVL14:
  55:src/c_console.cpp ****     int i = 0;
 123              		.loc 1 55 9
 124 00b8 93040000 		li	s1,0
 125              	.LVL15:
 126              	.L7:
  57:src/c_console.cpp ****     while (str[i]) {
 127              		.loc 1 57 5 is_stmt 1
 128              		.loc 1 57 17
 129 00bc B3079900 		add	a5,s2,s1
 130 00c0 03C50700 		lbu	a0,0(a5)
 131 00c4 63000502 		beqz	a0,.L6
  58:src/c_console.cpp ****         putc(str[i++]);
 132              		.loc 1 58 9
 133              		.loc 1 58 19 is_stmt 0
 134 00c8 9B841400 		addiw	s1,s1,1
 135              	.LVL16:
 136              		.loc 1 58 13
 137 00cc 97000000 		call	_Z4putcc@plt
 137      E7800000 
 138              	.LVL17:
  59:src/c_console.cpp ****         time_sleep(1);
 139              		.loc 1 59 9 is_stmt 1
 140              		.loc 1 59 19 is_stmt 0
 141 00d4 13051000 		li	a0,1
 142 00d8 97000000 		call	_Z10time_sleepm@plt
 142      E7800000 
 143              	.LVL18:
  57:src/c_console.cpp ****     while (str[i]) {
 144              		.loc 1 57 5
 145 00e0 6FF0DFFD 		j	.L7
 146              	.LVL19:
 147              	.L6:
  60:src/c_console.cpp ****     }
  61:src/c_console.cpp ****     printer->signal();
 148              		.loc 1 61 5 is_stmt 1
 149              		.loc 1 61 20 is_stmt 0
 150 00e4 97070000 		la	a5,printer
 150      83B70700 
 151 00ec 03B50700 		ld	a0,0(a5)
 152              		.loc 1 61 21
 153 00f0 83370500 		ld	a5,0(a0)
 154 00f4 83B78701 		ld	a5,24(a5)
 155              		.loc 1 61 20
 156 00f8 E7800700 		jalr	a5
 157              	.LVL20:
  62:src/c_console.cpp **** }
 158              		.loc 1 62 1
GAS LISTING /tmp/ccc9f5bX.s 			page 5


 159 00fc 83308101 		ld	ra,24(sp)
 160              		.cfi_restore 1
 161 0100 03340101 		ld	s0,16(sp)
 162              		.cfi_restore 8
 163              		.cfi_def_cfa 2, 32
 164 0104 83348100 		ld	s1,8(sp)
 165              		.cfi_restore 9
 166              	.LVL21:
 167 0108 03390100 		ld	s2,0(sp)
 168              		.cfi_restore 18
 169              	.LVL22:
 170 010c 13010102 		addi	sp,sp,32
 171              		.cfi_def_cfa_offset 0
 172 0110 67800000 		jr	ra
 173              		.cfi_endproc
 174              	.LFE54:
 176              		.align	2
 177              		.globl	_Z5printx
 179              	_Z5printx:
 180              	.LFB55:
  63:src/c_console.cpp **** 
  64:src/c_console.cpp **** void print(long long number) {
 181              		.loc 1 64 30 is_stmt 1
 182              		.cfi_startproc
 183              	.LVL23:
 184 0114 130101FD 		addi	sp,sp,-48
 185              		.cfi_def_cfa_offset 48
 186 0118 23341102 		sd	ra,40(sp)
 187 011c 23308102 		sd	s0,32(sp)
 188              		.cfi_offset 1, -8
 189              		.cfi_offset 8, -16
 190 0120 13040103 		addi	s0,sp,48
 191              		.cfi_def_cfa 8, 0
  65:src/c_console.cpp ****     char buff[25] = {};
 192              		.loc 1 65 5
 193              		.loc 1 65 10 is_stmt 0
 194 0124 233804FC 		sd	zero,-48(s0)
 195 0128 233C04FC 		sd	zero,-40(s0)
 196 012c 233004FE 		sd	zero,-32(s0)
 197 0130 230404FE 		sb	zero,-24(s0)
  66:src/c_console.cpp ****     print(stm::ntos(number, buff, 10));
 198              		.loc 1 66 5 is_stmt 1
 199              		.loc 1 66 20 is_stmt 0
 200 0134 1306A000 		li	a2,10
 201 0138 930504FD 		addi	a1,s0,-48
 202 013c 97000000 		call	_ZN3stm4ntosExPci@plt
 202      E7800000 
 203              	.LVL24:
 204              		.loc 1 66 10
 205 0144 97000000 		call	_Z5printPKc
 205      E7800000 
 206              	.LVL25:
  67:src/c_console.cpp **** }
 207              		.loc 1 67 1
 208 014c 83308102 		ld	ra,40(sp)
 209              		.cfi_restore 1
 210 0150 03340102 		ld	s0,32(sp)
GAS LISTING /tmp/ccc9f5bX.s 			page 6


 211              		.cfi_restore 8
 212              		.cfi_def_cfa 2, 48
 213 0154 13010103 		addi	sp,sp,48
 214              		.cfi_def_cfa_offset 0
 215 0158 67800000 		jr	ra
 216              		.cfi_endproc
 217              	.LFE55:
 219              		.align	2
 220              		.globl	_Z5printi
 222              	_Z5printi:
 223              	.LFB56:
  68:src/c_console.cpp **** 
  69:src/c_console.cpp **** void print(int number) {
 224              		.loc 1 69 24 is_stmt 1
 225              		.cfi_startproc
 226              	.LVL26:
 227 015c 130101FF 		addi	sp,sp,-16
 228              		.cfi_def_cfa_offset 16
 229 0160 23341100 		sd	ra,8(sp)
 230 0164 23308100 		sd	s0,0(sp)
 231              		.cfi_offset 1, -8
 232              		.cfi_offset 8, -16
 233 0168 13040101 		addi	s0,sp,16
 234              		.cfi_def_cfa 8, 0
  70:src/c_console.cpp ****     print((long long) number);
 235              		.loc 1 70 5
 236              		.loc 1 70 10 is_stmt 0
 237 016c 97000000 		call	_Z5printx
 237      E7800000 
 238              	.LVL27:
  71:src/c_console.cpp **** }
 239              		.loc 1 71 1
 240 0174 83308100 		ld	ra,8(sp)
 241              		.cfi_restore 1
 242 0178 03340100 		ld	s0,0(sp)
 243              		.cfi_restore 8
 244              		.cfi_def_cfa 2, 16
 245 017c 13010101 		addi	sp,sp,16
 246              		.cfi_def_cfa_offset 0
 247 0180 67800000 		jr	ra
 248              		.cfi_endproc
 249              	.LFE56:
 251              		.align	2
 252              		.globl	_Z5printm
 254              	_Z5printm:
 255              	.LFB57:
  72:src/c_console.cpp **** 
  73:src/c_console.cpp **** void print(uint64 number) {
 256              		.loc 1 73 27 is_stmt 1
 257              		.cfi_startproc
 258              	.LVL28:
 259 0184 130101FD 		addi	sp,sp,-48
 260              		.cfi_def_cfa_offset 48
 261 0188 23341102 		sd	ra,40(sp)
 262 018c 23308102 		sd	s0,32(sp)
 263              		.cfi_offset 1, -8
 264              		.cfi_offset 8, -16
GAS LISTING /tmp/ccc9f5bX.s 			page 7


 265 0190 13040103 		addi	s0,sp,48
 266              		.cfi_def_cfa 8, 0
  74:src/c_console.cpp ****     char buff[25] = {};
 267              		.loc 1 74 5
 268              		.loc 1 74 10 is_stmt 0
 269 0194 233804FC 		sd	zero,-48(s0)
 270 0198 233C04FC 		sd	zero,-40(s0)
 271 019c 233004FE 		sd	zero,-32(s0)
 272 01a0 230404FE 		sb	zero,-24(s0)
  75:src/c_console.cpp ****     print(stm::utos(number, buff, 10));
 273              		.loc 1 75 5 is_stmt 1
 274              		.loc 1 75 20 is_stmt 0
 275 01a4 1306A000 		li	a2,10
 276 01a8 930504FD 		addi	a1,s0,-48
 277 01ac 97000000 		call	_ZN3stm4utosEmPci@plt
 277      E7800000 
 278              	.LVL29:
 279              		.loc 1 75 10
 280 01b4 97000000 		call	_Z5printPKc
 280      E7800000 
 281              	.LVL30:
  76:src/c_console.cpp **** }
 282              		.loc 1 76 1
 283 01bc 83308102 		ld	ra,40(sp)
 284              		.cfi_restore 1
 285 01c0 03340102 		ld	s0,32(sp)
 286              		.cfi_restore 8
 287              		.cfi_def_cfa 2, 48
 288 01c4 13010103 		addi	sp,sp,48
 289              		.cfi_def_cfa_offset 0
 290 01c8 67800000 		jr	ra
 291              		.cfi_endproc
 292              	.LFE57:
 294              		.align	2
 295              		.globl	_Z7print_hm
 297              	_Z7print_hm:
 298              	.LFB58:
  77:src/c_console.cpp **** 
  78:src/c_console.cpp **** void print_h(uint64 number) {
 299              		.loc 1 78 29 is_stmt 1
 300              		.cfi_startproc
 301              	.LVL31:
 302 01cc 130101FD 		addi	sp,sp,-48
 303              		.cfi_def_cfa_offset 48
 304 01d0 23341102 		sd	ra,40(sp)
 305 01d4 23308102 		sd	s0,32(sp)
 306              		.cfi_offset 1, -8
 307              		.cfi_offset 8, -16
 308 01d8 13040103 		addi	s0,sp,48
 309              		.cfi_def_cfa 8, 0
  79:src/c_console.cpp ****     char buff[25] = {};
 310              		.loc 1 79 5
 311              		.loc 1 79 10 is_stmt 0
 312 01dc 233804FC 		sd	zero,-48(s0)
 313 01e0 233C04FC 		sd	zero,-40(s0)
 314 01e4 233004FE 		sd	zero,-32(s0)
 315 01e8 230404FE 		sb	zero,-24(s0)
GAS LISTING /tmp/ccc9f5bX.s 			page 8


  80:src/c_console.cpp ****     print(stm::utos(number, buff, 16));
 316              		.loc 1 80 5 is_stmt 1
 317              		.loc 1 80 20 is_stmt 0
 318 01ec 13060001 		li	a2,16
 319 01f0 930504FD 		addi	a1,s0,-48
 320 01f4 97000000 		call	_ZN3stm4utosEmPci@plt
 320      E7800000 
 321              	.LVL32:
 322              		.loc 1 80 10
 323 01fc 97000000 		call	_Z5printPKc
 323      E7800000 
 324              	.LVL33:
  81:src/c_console.cpp **** }...
 325              		.loc 1 81 1
 326 0204 83308102 		ld	ra,40(sp)
 327              		.cfi_restore 1
 328 0208 03340102 		ld	s0,32(sp)
 329              		.cfi_restore 8
 330              		.cfi_def_cfa 2, 48
 331 020c 13010103 		addi	sp,sp,48
 332              		.cfi_def_cfa_offset 0
 333 0210 67800000 		jr	ra
 334              		.cfi_endproc
 335              	.LFE58:
 337              		.section	.text._ZN3stm14CircularBufferIcE4initEv,"axG",@progbits,_ZN3stm14CircularBufferIcE4initEv
 338              		.align	2
 339              		.weak	_ZN3stm14CircularBufferIcE4initEv
 341              	_ZN3stm14CircularBufferIcE4initEv:
 342              	.LFB60:
 343              		.file 2 "src/../h/circular_buffer.hpp"
   1:src/../h/circular_buffer.hpp **** #ifndef PROJECT_BASE_CIRCULAR_BUFFER_HPP
   2:src/../h/circular_buffer.hpp **** #define PROJECT_BASE_CIRCULAR_BUFFER_HPP
   3:src/../h/circular_buffer.hpp **** 
   4:src/../h/circular_buffer.hpp **** #include "syscall_c.hpp"
   5:src/../h/circular_buffer.hpp **** #include "c_memory.hpp"
   6:src/../h/circular_buffer.hpp **** 
   7:src/../h/circular_buffer.hpp **** namespace stm {
   8:src/../h/circular_buffer.hpp ****     template<typename T>
   9:src/../h/circular_buffer.hpp ****     class CircularBuffer {
  10:src/../h/circular_buffer.hpp ****     public:
  11:src/../h/circular_buffer.hpp **** 
  12:src/../h/circular_buffer.hpp ****         void init();
  13:src/../h/circular_buffer.hpp **** 
  14:src/../h/circular_buffer.hpp ****         void put(T);
  15:src/../h/circular_buffer.hpp **** 
  16:src/../h/circular_buffer.hpp ****         T get();
  17:src/../h/circular_buffer.hpp **** 
  18:src/../h/circular_buffer.hpp ****         T &peek();
  19:src/../h/circular_buffer.hpp **** 
  20:src/../h/circular_buffer.hpp ****         inline bool is_empty() const { return this->size == 0; }
  21:src/../h/circular_buffer.hpp **** 
  22:src/../h/circular_buffer.hpp ****         void destroy();
  23:src/../h/circular_buffer.hpp **** 
  24:src/../h/circular_buffer.hpp ****     private:
  25:src/../h/circular_buffer.hpp **** 
  26:src/../h/circular_buffer.hpp ****         void extend();
  27:src/../h/circular_buffer.hpp **** 
GAS LISTING /tmp/ccc9f5bX.s 			page 9


  28:src/../h/circular_buffer.hpp ****         static int constexpr CAPACITY = 16;
  29:src/../h/circular_buffer.hpp ****         T *queue;
  30:src/../h/circular_buffer.hpp ****         int head;
  31:src/../h/circular_buffer.hpp ****         int tail;
  32:src/../h/circular_buffer.hpp ****         int size;
  33:src/../h/circular_buffer.hpp ****         int capacity;
  34:src/../h/circular_buffer.hpp ****     };
  35:src/../h/circular_buffer.hpp **** }
  36:src/../h/circular_buffer.hpp **** 
  37:src/../h/circular_buffer.hpp **** template<typename T>
  38:src/../h/circular_buffer.hpp **** void stm::CircularBuffer<T>::init() {
 344              		.loc 2 38 6 is_stmt 1
 345              		.cfi_startproc
 346              	.LVL34:
 347 0000 130101FE 		addi	sp,sp,-32
 348              		.cfi_def_cfa_offset 32
 349 0004 233C1100 		sd	ra,24(sp)
 350 0008 23388100 		sd	s0,16(sp)
 351 000c 23349100 		sd	s1,8(sp)
 352              		.cfi_offset 1, -8
 353              		.cfi_offset 8, -16
 354              		.cfi_offset 9, -24
 355 0010 13040102 		addi	s0,sp,32
 356              		.cfi_def_cfa 8, 0
 357 0014 93040500 		mv	s1,a0
  39:src/../h/circular_buffer.hpp ****     this->head = 0;
 358              		.loc 2 39 5 is_stmt 0
 359 0018 23240500 		sw	zero,8(a0)
  40:src/../h/circular_buffer.hpp ****     this->tail = 0;
 360              		.loc 2 40 5
 361 001c 23260500 		sw	zero,12(a0)
  41:src/../h/circular_buffer.hpp ****     this->size = 0;
 362              		.loc 2 41 5
 363 0020 23280500 		sw	zero,16(a0)
  42:src/../h/circular_buffer.hpp ****     this->capacity = CAPACITY;
 364              		.loc 2 42 5
 365 0024 93070001 		li	a5,16
 366 0028 232AF500 		sw	a5,20(a0)
  43:src/../h/circular_buffer.hpp ****     this->queue = (T *) mem_alloc(sizeof(T) * CAPACITY);
 367              		.loc 2 43 34
 368 002c 13050001 		li	a0,16
 369              	.LVL35:
 370 0030 97000000 		call	_Z9mem_allocm@plt
 370      E7800000 
 371              	.LVL36:
 372              		.loc 2 43 5
 373 0038 23B0A400 		sd	a0,0(s1)
  44:src/../h/circular_buffer.hpp **** }
 374              		.loc 2 44 1
 375 003c 83308101 		ld	ra,24(sp)
 376              		.cfi_restore 1
 377 0040 03340101 		ld	s0,16(sp)
 378              		.cfi_restore 8
 379              		.cfi_def_cfa 2, 32
 380 0044 83348100 		ld	s1,8(sp)
 381              		.cfi_restore 9
 382              	.LVL37:
GAS LISTING /tmp/ccc9f5bX.s 			page 10


 383 0048 13010102 		addi	sp,sp,32
 384              		.cfi_def_cfa_offset 0
 385 004c 67800000 		jr	ra
 386              		.cfi_endproc
 387              	.LFE60:
 389              		.text
 390              		.align	2
 391              		.globl	_ZN8IOBuffer4initEv
 393              	_ZN8IOBuffer4initEv:
 394              	.LFB47:
  10:src/c_console.cpp **** void IOBuffer::init() {
 395              		.loc 1 10 23 is_stmt 1
 396              		.cfi_startproc
 397              	.LVL38:
 398 0214 130101FE 		addi	sp,sp,-32
 399              		.cfi_def_cfa_offset 32
 400 0218 233C1100 		sd	ra,24(sp)
 401 021c 23388100 		sd	s0,16(sp)
 402 0220 23349100 		sd	s1,8(sp)
 403              		.cfi_offset 1, -8
 404              		.cfi_offset 8, -16
 405              		.cfi_offset 9, -24
 406 0224 13040102 		addi	s0,sp,32
 407              		.cfi_def_cfa 8, 0
 408 0228 93040500 		mv	s1,a0
  11:src/c_console.cpp ****     this->buffer.init();
 409              		.loc 1 11 5
  11:src/c_console.cpp ****     this->buffer.init();
 410              		.loc 1 11 22 is_stmt 0
 411 022c 97000000 		call	_ZN3stm14CircularBufferIcE4initEv
 411      E7800000 
 412              	.LVL39:
  12:src/c_console.cpp ****     sem_open(&this->empty, 0);
 413              		.loc 1 12 5 is_stmt 1
  12:src/c_console.cpp ****     sem_open(&this->empty, 0);
 414              		.loc 1 12 13 is_stmt 0
 415 0234 93050000 		li	a1,0
 416 0238 13858401 		addi	a0,s1,24
 417 023c 97000000 		call	_Z8sem_openPP3Semj@plt
 417      E7800000 
 418              	.LVL40:
  13:src/c_console.cpp **** }
 419              		.loc 1 13 1
 420 0244 83308101 		ld	ra,24(sp)
 421              		.cfi_restore 1
 422 0248 03340101 		ld	s0,16(sp)
 423              		.cfi_restore 8
 424              		.cfi_def_cfa 2, 32
 425 024c 83348100 		ld	s1,8(sp)
 426              		.cfi_restore 9
 427              	.LVL41:
 428 0250 13010102 		addi	sp,sp,32
 429              		.cfi_def_cfa_offset 0
 430 0254 67800000 		jr	ra
 431              		.cfi_endproc
 432              	.LFE47:
 434              		.align	2
GAS LISTING /tmp/ccc9f5bX.s 			page 11


 435              		.globl	_ZN2IO4initEv
 437              	_ZN2IO4initEv:
 438              	.LFB50:
  26:src/c_console.cpp **** void IO::init() {
 439              		.loc 1 26 17 is_stmt 1
 440              		.cfi_startproc
 441 0258 130101FF 		addi	sp,sp,-16
 442              		.cfi_def_cfa_offset 16
 443 025c 23341100 		sd	ra,8(sp)
 444 0260 23308100 		sd	s0,0(sp)
 445              		.cfi_offset 1, -8
 446              		.cfi_offset 8, -16
 447 0264 13040101 		addi	s0,sp,16
 448              		.cfi_def_cfa 8, 0
  27:src/c_console.cpp ****     Input.init();
 449              		.loc 1 27 5
  27:src/c_console.cpp ****     Input.init();
 450              		.loc 1 27 15 is_stmt 0
 451 0268 17050000 		lla	a0,.LANCHOR0
 451      13050500 
 452 0270 97000000 		call	_ZN8IOBuffer4initEv
 452      E7800000 
 453              	.LVL42:
  28:src/c_console.cpp ****     Output.init();
 454              		.loc 1 28 5 is_stmt 1
  28:src/c_console.cpp ****     Output.init();
 455              		.loc 1 28 16 is_stmt 0
 456 0278 17050000 		lla	a0,.LANCHOR0+32
 456      13050500 
 457 0280 97000000 		call	_ZN8IOBuffer4initEv
 457      E7800000 
 458              	.LVL43:
  29:src/c_console.cpp **** }
 459              		.loc 1 29 1
 460 0288 83308100 		ld	ra,8(sp)
 461              		.cfi_restore 1
 462 028c 03340100 		ld	s0,0(sp)
 463              		.cfi_restore 8
 464              		.cfi_def_cfa 2, 16
 465 0290 13010101 		addi	sp,sp,16
 466              		.cfi_def_cfa_offset 0
 467 0294 67800000 		jr	ra
 468              		.cfi_endproc
 469              	.LFE50:
 471              		.section	.text._ZN3stm14CircularBufferIcE3getEv,"axG",@progbits,_ZN3stm14CircularBufferIcE3getEv,c
 472              		.align	2
 473              		.weak	_ZN3stm14CircularBufferIcE3getEv
 475              	_ZN3stm14CircularBufferIcE3getEv:
 476              	.LFB62:
  45:src/../h/circular_buffer.hpp **** 
  46:src/../h/circular_buffer.hpp **** template<typename T>
  47:src/../h/circular_buffer.hpp **** void stm::CircularBuffer<T>::put(T element) {
  48:src/../h/circular_buffer.hpp ****     if (this->size == this->capacity) {
  49:src/../h/circular_buffer.hpp ****         this->extend();
  50:src/../h/circular_buffer.hpp ****     }
  51:src/../h/circular_buffer.hpp ****     this->queue[this->tail] = element;
  52:src/../h/circular_buffer.hpp ****     this->tail = (this->tail + 1) % this->capacity;
GAS LISTING /tmp/ccc9f5bX.s 			page 12


  53:src/../h/circular_buffer.hpp ****     this->size++;
  54:src/../h/circular_buffer.hpp **** }
  55:src/../h/circular_buffer.hpp **** 
  56:src/../h/circular_buffer.hpp **** template<typename T>
  57:src/../h/circular_buffer.hpp **** T stm::CircularBuffer<T>::get() {
 477              		.loc 2 57 3 is_stmt 1
 478              		.cfi_startproc
 479              	.LVL44:
 480 0000 130101FF 		addi	sp,sp,-16
 481              		.cfi_def_cfa_offset 16
 482 0004 23348100 		sd	s0,8(sp)
 483              		.cfi_offset 8, -8
 484 0008 13040101 		addi	s0,sp,16
 485              		.cfi_def_cfa 8, 0
 486 000c 93070500 		mv	a5,a0
  58:src/../h/circular_buffer.hpp ****     T ret = this->queue[this->head];
 487              		.loc 2 58 19 is_stmt 0
 488 0010 83360500 		ld	a3,0(a0)
 489              		.loc 2 58 31
 490 0014 03278500 		lw	a4,8(a0)
 491              		.loc 2 58 24
 492 0018 B386E600 		add	a3,a3,a4
 493              		.loc 2 58 7
 494 001c 03C50600 		lbu	a0,0(a3)
 495              	.LVL45:
  59:src/../h/circular_buffer.hpp ****     this->head = (this->head + 1) % this->capacity;
 496              		.loc 2 59 30
 497 0020 1B071700 		addiw	a4,a4,1
 498              		.loc 2 59 43
 499 0024 83A64701 		lw	a3,20(a5)
 500              		.loc 2 59 35
 501 0028 3B67D702 		remw	a4,a4,a3
 502              		.loc 2 59 5
 503 002c 23A4E700 		sw	a4,8(a5)
  60:src/../h/circular_buffer.hpp ****     this->size--;
 504              		.loc 2 60 11
 505 0030 03A70701 		lw	a4,16(a5)
 506              		.loc 2 60 5
 507 0034 1B07F7FF 		addiw	a4,a4,-1
 508 0038 23A8E700 		sw	a4,16(a5)
  61:src/../h/circular_buffer.hpp ****     return ret;
  62:src/../h/circular_buffer.hpp **** }
 509              		.loc 2 62 1
 510 003c 03348100 		ld	s0,8(sp)
 511              		.cfi_restore 8
 512              		.cfi_def_cfa 2, 16
 513 0040 13010101 		addi	sp,sp,16
 514              		.cfi_def_cfa_offset 0
 515 0044 67800000 		jr	ra
 516              		.cfi_endproc
 517              	.LFE62:
 519              		.text
 520              		.align	2
 521              		.globl	_ZN8IOBuffer3getEv
 523              	_ZN8IOBuffer3getEv:
 524              	.LFB49:
  20:src/c_console.cpp **** char IOBuffer::get() {
GAS LISTING /tmp/ccc9f5bX.s 			page 13


 525              		.loc 1 20 22 is_stmt 1
 526              		.cfi_startproc
 527              	.LVL46:
 528 0298 130101FE 		addi	sp,sp,-32
 529              		.cfi_def_cfa_offset 32
 530 029c 233C1100 		sd	ra,24(sp)
 531 02a0 23388100 		sd	s0,16(sp)
 532 02a4 23349100 		sd	s1,8(sp)
 533              		.cfi_offset 1, -8
 534              		.cfi_offset 8, -16
 535              		.cfi_offset 9, -24
 536 02a8 13040102 		addi	s0,sp,32
 537              		.cfi_def_cfa 8, 0
 538 02ac 93040500 		mv	s1,a0
  21:src/c_console.cpp ****     Sem::_sem_wait(this->empty);
 539              		.loc 1 21 5
  21:src/c_console.cpp ****     Sem::_sem_wait(this->empty);
 540              		.loc 1 21 19 is_stmt 0
 541 02b0 03358501 		ld	a0,24(a0)
 542              	.LVL47:
 543 02b4 97000000 		call	_ZN3Sem9_sem_waitEPS_@plt
 543      E7800000 
 544              	.LVL48:
  22:src/c_console.cpp ****     char ret = this->buffer.get();
 545              		.loc 1 22 5 is_stmt 1
  22:src/c_console.cpp ****     char ret = this->buffer.get();
 546              		.loc 1 22 32 is_stmt 0
 547 02bc 13850400 		mv	a0,s1
 548 02c0 97000000 		call	_ZN3stm14CircularBufferIcE3getEv
 548      E7800000 
 549              	.LVL49:
  23:src/c_console.cpp ****     return ret;
 550              		.loc 1 23 5 is_stmt 1
  24:src/c_console.cpp **** }
 551              		.loc 1 24 1 is_stmt 0
 552 02c8 83308101 		ld	ra,24(sp)
 553              		.cfi_restore 1
 554 02cc 03340101 		ld	s0,16(sp)
 555              		.cfi_restore 8
 556              		.cfi_def_cfa 2, 32
 557 02d0 83348100 		ld	s1,8(sp)
 558              		.cfi_restore 9
 559              	.LVL50:
 560 02d4 13010102 		addi	sp,sp,32
 561              		.cfi_def_cfa_offset 0
 562 02d8 67800000 		jr	ra
 563              		.cfi_endproc
 564              	.LFE49:
 566              		.align	2
 567              		.globl	_ZN2IO5_getcEv
 569              	_ZN2IO5_getcEv:
 570              	.LFB51:
  31:src/c_console.cpp **** char IO::_getc() {
 571              		.loc 1 31 18 is_stmt 1
 572              		.cfi_startproc
 573 02dc 130101FF 		addi	sp,sp,-16
 574              		.cfi_def_cfa_offset 16
GAS LISTING /tmp/ccc9f5bX.s 			page 14


 575 02e0 23341100 		sd	ra,8(sp)
 576 02e4 23308100 		sd	s0,0(sp)
 577              		.cfi_offset 1, -8
 578              		.cfi_offset 8, -16
 579 02e8 13040101 		addi	s0,sp,16
 580              		.cfi_def_cfa 8, 0
  32:src/c_console.cpp ****     return Input.get();
 581              		.loc 1 32 5
  32:src/c_console.cpp ****     return Input.get();
 582              		.loc 1 32 21 is_stmt 0
 583 02ec 17050000 		lla	a0,.LANCHOR0
 583      13050500 
 584 02f4 97000000 		call	_ZN8IOBuffer3getEv
 584      E7800000 
 585              	.LVL51:
  33:src/c_console.cpp **** }
 586              		.loc 1 33 1
 587 02fc 83308100 		ld	ra,8(sp)
 588              		.cfi_restore 1
 589 0300 03340100 		ld	s0,0(sp)
 590              		.cfi_restore 8
 591              		.cfi_def_cfa 2, 16
 592 0304 13010101 		addi	sp,sp,16
 593              		.cfi_def_cfa_offset 0
 594 0308 67800000 		jr	ra
 595              		.cfi_endproc
 596              	.LFE51:
 598              		.section	.text._ZN3stm14CircularBufferIcE6extendEv,"axG",@progbits,_ZN3stm14CircularBufferIcE6exte
 599              		.align	2
 600              		.weak	_ZN3stm14CircularBufferIcE6extendEv
 602              	_ZN3stm14CircularBufferIcE6extendEv:
 603              	.LFB63:
  63:src/../h/circular_buffer.hpp **** 
  64:src/../h/circular_buffer.hpp **** template<typename T>
  65:src/../h/circular_buffer.hpp **** T &stm::CircularBuffer<T>::peek() {
  66:src/../h/circular_buffer.hpp ****     return this->queue[this->head];
  67:src/../h/circular_buffer.hpp **** }
  68:src/../h/circular_buffer.hpp **** 
  69:src/../h/circular_buffer.hpp **** template<typename T>
  70:src/../h/circular_buffer.hpp **** void stm::CircularBuffer<T>::extend() {
 604              		.loc 2 70 6 is_stmt 1
 605              		.cfi_startproc
 606              	.LVL52:
 607 0000 130101FE 		addi	sp,sp,-32
 608              		.cfi_def_cfa_offset 32
 609 0004 233C1100 		sd	ra,24(sp)
 610 0008 23388100 		sd	s0,16(sp)
 611 000c 23349100 		sd	s1,8(sp)
 612 0010 23302101 		sd	s2,0(sp)
 613              		.cfi_offset 1, -8
 614              		.cfi_offset 8, -16
 615              		.cfi_offset 9, -24
 616              		.cfi_offset 18, -32
 617 0014 13040102 		addi	s0,sp,32
 618              		.cfi_def_cfa 8, 0
 619 0018 93040500 		mv	s1,a0
  71:src/../h/circular_buffer.hpp ****     T *new_queue = (T *) mem_alloc(sizeof(T *) * this->capacity * 2);
GAS LISTING /tmp/ccc9f5bX.s 			page 15


 620              		.loc 2 71 56 is_stmt 0
 621 001c 03254501 		lw	a0,20(a0)
 622              	.LVL53:
 623              		.loc 2 71 35
 624 0020 13154500 		slli	a0,a0,4
 625 0024 97000000 		call	_Z9mem_allocm@plt
 625      E7800000 
 626              	.LVL54:
 627 002c 13090500 		mv	s2,a0
 628              	.LVL55:
 629              	.LBB2:
  72:src/../h/circular_buffer.hpp ****     for (int i = 0, j = this->head; i < this->capacity; i++, j = (j + 1) % this->capacity)
 630              		.loc 2 72 21
 631 0030 83A78400 		lw	a5,8(s1)
 632              	.LVL56:
 633              		.loc 2 72 14
 634 0034 13070000 		li	a4,0
 635              	.LVL57:
 636              	.L31:
 637              		.loc 2 72 39 is_stmt 1 discriminator 3
 638              		.loc 2 72 47 is_stmt 0 discriminator 3
 639 0038 83A64401 		lw	a3,20(s1)
 640              		.loc 2 72 39 discriminator 3
 641 003c 6356D702 		ble	a3,a4,.L30
  73:src/../h/circular_buffer.hpp ****         new_queue[i] = this->queue[j];
 642              		.loc 2 73 30 discriminator 2
 643 0040 83B60400 		ld	a3,0(s1)
 644              		.loc 2 73 18 discriminator 2
 645 0044 3306E900 		add	a2,s2,a4
 646              		.loc 2 73 35 discriminator 2
 647 0048 B386F600 		add	a3,a3,a5
 648 004c 83C60600 		lbu	a3,0(a3)
 649              		.loc 2 73 9 discriminator 2
 650 0050 2300D600 		sb	a3,0(a2)
  72:src/../h/circular_buffer.hpp ****     for (int i = 0, j = this->head; i < this->capacity; i++, j = (j + 1) % this->capacity)
 651              		.loc 2 72 5 is_stmt 1 discriminator 2
 652 0054 1B071700 		addiw	a4,a4,1
 653              	.LVL58:
  72:src/../h/circular_buffer.hpp ****     for (int i = 0, j = this->head; i < this->capacity; i++, j = (j + 1) % this->capacity)
 654              		.loc 2 72 69 is_stmt 0 discriminator 2
 655 0058 9B871700 		addiw	a5,a5,1
 656              	.LVL59:
  72:src/../h/circular_buffer.hpp ****     for (int i = 0, j = this->head; i < this->capacity; i++, j = (j + 1) % this->capacity)
 657              		.loc 2 72 82 discriminator 2
 658 005c 83A64401 		lw	a3,20(s1)
  72:src/../h/circular_buffer.hpp ****     for (int i = 0, j = this->head; i < this->capacity; i++, j = (j + 1) % this->capacity)
 659              		.loc 2 72 5 discriminator 2
 660 0060 BBE7D702 		remw	a5,a5,a3
 661              	.LVL60:
 662 0064 6FF05FFD 		j	.L31
 663              	.LVL61:
 664              	.L30:
 665              	.LBE2:
  74:src/../h/circular_buffer.hpp ****     mem_free(queue);
 666              		.loc 2 74 13
 667 0068 03B50400 		ld	a0,0(s1)
 668              	.LVL62:
GAS LISTING /tmp/ccc9f5bX.s 			page 16


 669 006c 97000000 		call	_Z8mem_freePv@plt
 669      E7800000 
 670              	.LVL63:
  75:src/../h/circular_buffer.hpp ****     this->queue = new_queue;
 671              		.loc 2 75 5
 672 0074 23B02401 		sd	s2,0(s1)
  76:src/../h/circular_buffer.hpp ****     this->head = 0;
 673              		.loc 2 76 5
 674 0078 23A40400 		sw	zero,8(s1)
  77:src/../h/circular_buffer.hpp ****     this->tail = this->capacity;
 675              		.loc 2 77 24
 676 007c 83A74401 		lw	a5,20(s1)
 677              		.loc 2 77 5
 678 0080 23A6F400 		sw	a5,12(s1)
  78:src/../h/circular_buffer.hpp ****     this->capacity *= 2;
 679              		.loc 2 78 20
 680 0084 9B971700 		slliw	a5,a5,1
 681              		.loc 2 78 5
 682 0088 23AAF400 		sw	a5,20(s1)
  79:src/../h/circular_buffer.hpp **** }
 683              		.loc 2 79 1
 684 008c 83308101 		ld	ra,24(sp)
 685              		.cfi_restore 1
 686 0090 03340101 		ld	s0,16(sp)
 687              		.cfi_restore 8
 688              		.cfi_def_cfa 2, 32
 689 0094 83348100 		ld	s1,8(sp)
 690              		.cfi_restore 9
 691              	.LVL64:
 692 0098 03390100 		ld	s2,0(sp)
 693              		.cfi_restore 18
 694              	.LVL65:
 695 009c 13010102 		addi	sp,sp,32
 696              		.cfi_def_cfa_offset 0
 697 00a0 67800000 		jr	ra
 698              		.cfi_endproc
 699              	.LFE63:
 701              		.section	.text._ZN3stm14CircularBufferIcE3putEc,"axG",@progbits,_ZN3stm14CircularBufferIcE3putEc,c
 702              		.align	2
 703              		.weak	_ZN3stm14CircularBufferIcE3putEc
 705              	_ZN3stm14CircularBufferIcE3putEc:
 706              	.LFB61:
  47:src/../h/circular_buffer.hpp ****     if (this->size == this->capacity) {
 707              		.loc 2 47 6 is_stmt 1
 708              		.cfi_startproc
 709              	.LVL66:
 710 0000 130101FE 		addi	sp,sp,-32
 711              		.cfi_def_cfa_offset 32
 712 0004 233C1100 		sd	ra,24(sp)
 713 0008 23388100 		sd	s0,16(sp)
 714 000c 23349100 		sd	s1,8(sp)
 715 0010 23302101 		sd	s2,0(sp)
 716              		.cfi_offset 1, -8
 717              		.cfi_offset 8, -16
 718              		.cfi_offset 9, -24
 719              		.cfi_offset 18, -32
 720 0014 13040102 		addi	s0,sp,32
GAS LISTING /tmp/ccc9f5bX.s 			page 17


 721              		.cfi_def_cfa 8, 0
 722 0018 93040500 		mv	s1,a0
 723 001c 13890500 		mv	s2,a1
  48:src/../h/circular_buffer.hpp ****         this->extend();
 724              		.loc 2 48 15 is_stmt 0
 725 0020 03270501 		lw	a4,16(a0)
  48:src/../h/circular_buffer.hpp ****         this->extend();
 726              		.loc 2 48 29
 727 0024 83274501 		lw	a5,20(a0)
  48:src/../h/circular_buffer.hpp ****         this->extend();
 728              		.loc 2 48 5
 729 0028 6306F704 		beq	a4,a5,.L36
 730              	.LVL67:
 731              	.L34:
  51:src/../h/circular_buffer.hpp ****     this->tail = (this->tail + 1) % this->capacity;
 732              		.loc 2 51 11
 733 002c 83B70400 		ld	a5,0(s1)
  51:src/../h/circular_buffer.hpp ****     this->tail = (this->tail + 1) % this->capacity;
 734              		.loc 2 51 23
 735 0030 03A7C400 		lw	a4,12(s1)
  51:src/../h/circular_buffer.hpp ****     this->tail = (this->tail + 1) % this->capacity;
 736              		.loc 2 51 16
 737 0034 B387E700 		add	a5,a5,a4
  51:src/../h/circular_buffer.hpp ****     this->tail = (this->tail + 1) % this->capacity;
 738              		.loc 2 51 5
 739 0038 23802701 		sb	s2,0(a5)
  52:src/../h/circular_buffer.hpp ****     this->size++;
 740              		.loc 2 52 25
 741 003c 83A7C400 		lw	a5,12(s1)
  52:src/../h/circular_buffer.hpp ****     this->size++;
 742              		.loc 2 52 30
 743 0040 9B871700 		addiw	a5,a5,1
  52:src/../h/circular_buffer.hpp ****     this->size++;
 744              		.loc 2 52 43
 745 0044 03A74401 		lw	a4,20(s1)
  52:src/../h/circular_buffer.hpp ****     this->size++;
 746              		.loc 2 52 35
 747 0048 BBE7E702 		remw	a5,a5,a4
  52:src/../h/circular_buffer.hpp ****     this->size++;
 748              		.loc 2 52 5
 749 004c 23A6F400 		sw	a5,12(s1)
  53:src/../h/circular_buffer.hpp **** }
 750              		.loc 2 53 11
 751 0050 83A70401 		lw	a5,16(s1)
  53:src/../h/circular_buffer.hpp **** }
 752              		.loc 2 53 5
 753 0054 9B871700 		addiw	a5,a5,1
 754 0058 23A8F400 		sw	a5,16(s1)
  54:src/../h/circular_buffer.hpp **** 
 755              		.loc 2 54 1
 756 005c 83308101 		ld	ra,24(sp)
 757              		.cfi_remember_state
 758              		.cfi_restore 1
 759 0060 03340101 		ld	s0,16(sp)
 760              		.cfi_restore 8
 761              		.cfi_def_cfa 2, 32
 762 0064 83348100 		ld	s1,8(sp)
GAS LISTING /tmp/ccc9f5bX.s 			page 18


 763              		.cfi_restore 9
 764              	.LVL68:
 765 0068 03390100 		ld	s2,0(sp)
 766              		.cfi_restore 18
 767 006c 13010102 		addi	sp,sp,32
 768              		.cfi_def_cfa_offset 0
 769 0070 67800000 		jr	ra
 770              	.LVL69:
 771              	.L36:
 772              		.cfi_restore_state
  49:src/../h/circular_buffer.hpp ****     }
 773              		.loc 2 49 9
 774 0074 97000000 		call	_ZN3stm14CircularBufferIcE6extendEv
 774      E7800000 
 775              	.LVL70:
 776 007c 6FF01FFB 		j	.L34
 777              		.cfi_endproc
 778              	.LFE61:
 780              		.text
 781              		.align	2
 782              		.globl	_ZN8IOBuffer3putEc
 784              	_ZN8IOBuffer3putEc:
 785              	.LFB48:
  15:src/c_console.cpp **** void IOBuffer::put(char c) {
 786              		.loc 1 15 28 is_stmt 1
 787              		.cfi_startproc
 788              	.LVL71:
 789 030c 130101FE 		addi	sp,sp,-32
 790              		.cfi_def_cfa_offset 32
 791 0310 233C1100 		sd	ra,24(sp)
 792 0314 23388100 		sd	s0,16(sp)
 793 0318 23349100 		sd	s1,8(sp)
 794              		.cfi_offset 1, -8
 795              		.cfi_offset 8, -16
 796              		.cfi_offset 9, -24
 797 031c 13040102 		addi	s0,sp,32
 798              		.cfi_def_cfa 8, 0
 799 0320 93040500 		mv	s1,a0
  16:src/c_console.cpp ****     this->buffer.put(c);
 800              		.loc 1 16 5
  16:src/c_console.cpp ****     this->buffer.put(c);
 801              		.loc 1 16 21 is_stmt 0
 802 0324 97000000 		call	_ZN3stm14CircularBufferIcE3putEc
 802      E7800000 
 803              	.LVL72:
  17:src/c_console.cpp ****     Sem::_sem_signal(this->empty);
 804              		.loc 1 17 5 is_stmt 1
  17:src/c_console.cpp ****     Sem::_sem_signal(this->empty);
 805              		.loc 1 17 21 is_stmt 0
 806 032c 03B58401 		ld	a0,24(s1)
 807 0330 97000000 		call	_ZN3Sem11_sem_signalEPS_@plt
 807      E7800000 
 808              	.LVL73:
  18:src/c_console.cpp **** }
 809              		.loc 1 18 1
 810 0338 83308101 		ld	ra,24(sp)
 811              		.cfi_restore 1
GAS LISTING /tmp/ccc9f5bX.s 			page 19


 812 033c 03340101 		ld	s0,16(sp)
 813              		.cfi_restore 8
 814              		.cfi_def_cfa 2, 32
 815 0340 83348100 		ld	s1,8(sp)
 816              		.cfi_restore 9
 817              	.LVL74:
 818 0344 13010102 		addi	sp,sp,32
 819              		.cfi_def_cfa_offset 0
 820 0348 67800000 		jr	ra
 821              		.cfi_endproc
 822              	.LFE48:
 824              		.align	2
 825              		.globl	_ZN2IO5_putcEc
 827              	_ZN2IO5_putcEc:
 828              	.LFB52:
  35:src/c_console.cpp **** void IO::_putc(char c) {
 829              		.loc 1 35 24 is_stmt 1
 830              		.cfi_startproc
 831              	.LVL75:
 832 034c 130101FE 		addi	sp,sp,-32
 833              		.cfi_def_cfa_offset 32
 834 0350 233C1100 		sd	ra,24(sp)
 835 0354 23388100 		sd	s0,16(sp)
 836 0358 23349100 		sd	s1,8(sp)
 837              		.cfi_offset 1, -8
 838              		.cfi_offset 8, -16
 839              		.cfi_offset 9, -24
 840 035c 13040102 		addi	s0,sp,32
 841              		.cfi_def_cfa 8, 0
  36:src/c_console.cpp ****     if (c == 127) {
 842              		.loc 1 36 5
 843 0360 9307F007 		li	a5,127
 844 0364 6306F502 		beq	a0,a5,.L43
 845 0368 93050500 		mv	a1,a0
  41:src/c_console.cpp ****         Output.put(c);
 846              		.loc 1 41 9
  41:src/c_console.cpp ****         Output.put(c);
 847              		.loc 1 41 19 is_stmt 0
 848 036c 17050000 		lla	a0,.LANCHOR0+32
 848      13050500 
 849              	.LVL76:
 850 0374 97000000 		call	_ZN8IOBuffer3putEc
 850      E7800000 
 851              	.LVL77:
 852              	.L39:
  43:src/c_console.cpp **** }
 853              		.loc 1 43 1
 854 037c 83308101 		ld	ra,24(sp)
 855              		.cfi_remember_state
 856              		.cfi_restore 1
 857 0380 03340101 		ld	s0,16(sp)
 858              		.cfi_restore 8
 859              		.cfi_def_cfa 2, 32
 860 0384 83348100 		ld	s1,8(sp)
 861              		.cfi_restore 9
 862 0388 13010102 		addi	sp,sp,32
 863              		.cfi_def_cfa_offset 0
GAS LISTING /tmp/ccc9f5bX.s 			page 20


 864 038c 67800000 		jr	ra
 865              	.LVL78:
 866              	.L43:
 867              		.cfi_restore_state
  37:src/c_console.cpp ****         Output.put(8);
 868              		.loc 1 37 9 is_stmt 1
  37:src/c_console.cpp ****         Output.put(8);
 869              		.loc 1 37 19 is_stmt 0
 870 0390 97040000 		lla	s1,.LANCHOR0+32
 870      93840400 
 871 0398 93058000 		li	a1,8
 872 039c 13850400 		mv	a0,s1
 873              	.LVL79:
 874 03a0 97000000 		call	_ZN8IOBuffer3putEc
 874      E7800000 
 875              	.LVL80:
  38:src/c_console.cpp ****         Output.put(' ');
 876              		.loc 1 38 9 is_stmt 1
  38:src/c_console.cpp ****         Output.put(' ');
 877              		.loc 1 38 19 is_stmt 0
 878 03a8 93050002 		li	a1,32
 879 03ac 13850400 		mv	a0,s1
 880 03b0 97000000 		call	_ZN8IOBuffer3putEc
 880      E7800000 
 881              	.LVL81:
  39:src/c_console.cpp ****         Output.put(8);
 882              		.loc 1 39 9 is_stmt 1
  39:src/c_console.cpp ****         Output.put(8);
 883              		.loc 1 39 19 is_stmt 0
 884 03b8 93058000 		li	a1,8
 885 03bc 13850400 		mv	a0,s1
 886 03c0 97000000 		call	_ZN8IOBuffer3putEc
 886      E7800000 
 887              	.LVL82:
 888 03c8 6FF05FFB 		j	.L39
 889              		.cfi_endproc
 890              	.LFE52:
 892              		.globl	_ZN2IO6OutputE
 893              		.globl	_ZN2IO5InputE
 894              		.bss
 895              		.align	3
 896              		.set	.LANCHOR0,. + 0
 899              	_ZN2IO5InputE:
 900 0000 00000000 		.zero	32
 900      00000000 
 900      00000000 
 900      00000000 
 900      00000000 
 903              	_ZN2IO6OutputE:
 904 0020 00000000 		.zero	32
 904      00000000 
 904      00000000 
 904      00000000 
 904      00000000 
 905              		.text
 906              	.Letext0:
 907              		.file 3 "src/../h/../lib/hw.h"
GAS LISTING /tmp/ccc9f5bX.s 			page 21


 908              		.file 4 "src/../h/c_semaphore.hpp"
 909              		.file 5 "src/../h/string.hpp"
 910              		.file 6 "src/../h/c_console.hpp"
 911              		.file 7 "src/../h/syscall_c.hpp"
GAS LISTING /tmp/ccc9f5bX.s 			page 22


DEFINED SYMBOLS
                            *ABS*:0000000000000000 c_console.cpp
     /tmp/ccc9f5bX.s:9      .text:0000000000000000 _Z5printPKc
     /tmp/ccc9f5bX.s:13     .text:0000000000000000 .L0 
     /tmp/ccc9f5bX.s:15     .text:0000000000000000 .L0 
     /tmp/ccc9f5bX.s:16     .text:0000000000000004 .L0 
     /tmp/ccc9f5bX.s:21     .text:0000000000000014 .L0 
     /tmp/ccc9f5bX.s:22     .text:0000000000000014 .L0 
     /tmp/ccc9f5bX.s:23     .text:0000000000000014 .L0 
     /tmp/ccc9f5bX.s:24     .text:0000000000000014 .L0 
     /tmp/ccc9f5bX.s:26     .text:0000000000000018 .L0 
     /tmp/ccc9f5bX.s:30     .text:000000000000001c .L0 
     /tmp/ccc9f5bX.s:31     .text:000000000000001c .L0 
     /tmp/ccc9f5bX.s:32     .text:000000000000001c .L0 
     /tmp/ccc9f5bX.s:36     .text:0000000000000028 .L0 
     /tmp/ccc9f5bX.s:39     .text:0000000000000030 .L0 
     /tmp/ccc9f5bX.s:42     .text:0000000000000034 .L0 
     /tmp/ccc9f5bX.s:46     .text:0000000000000038 .L0 
     /tmp/ccc9f5bX.s:47     .text:0000000000000038 .L0 
     /tmp/ccc9f5bX.s:51     .text:0000000000000044 .L0 
     /tmp/ccc9f5bX.s:52     .text:0000000000000044 .L0 
     /tmp/ccc9f5bX.s:55     .text:0000000000000048 .L0 
     /tmp/ccc9f5bX.s:58     .text:0000000000000050 .L0 
     /tmp/ccc9f5bX.s:62     .text:0000000000000054 .L0 
     /tmp/ccc9f5bX.s:63     .text:0000000000000054 .L0 
     /tmp/ccc9f5bX.s:66     .text:0000000000000060 .L0 
     /tmp/ccc9f5bX.s:69     .text:0000000000000068 .L0 
     /tmp/ccc9f5bX.s:72     .text:000000000000006c .L0 
     /tmp/ccc9f5bX.s:73     .text:0000000000000070 .L0 
     /tmp/ccc9f5bX.s:75     .text:0000000000000074 .L0 
     /tmp/ccc9f5bX.s:76     .text:0000000000000074 .L0 
     /tmp/ccc9f5bX.s:78     .text:0000000000000078 .L0 
     /tmp/ccc9f5bX.s:81     .text:000000000000007c .L0 
     /tmp/ccc9f5bX.s:84     .text:0000000000000080 .L0 
     /tmp/ccc9f5bX.s:86     .text:0000000000000084 .L0 
     /tmp/ccc9f5bX.s:92     .text:0000000000000084 _Z14dramatic_printPKc
     /tmp/ccc9f5bX.s:95     .text:0000000000000084 .L0 
     /tmp/ccc9f5bX.s:97     .text:0000000000000084 .L0 
     /tmp/ccc9f5bX.s:98     .text:0000000000000088 .L0 
     /tmp/ccc9f5bX.s:103    .text:0000000000000098 .L0 
     /tmp/ccc9f5bX.s:104    .text:0000000000000098 .L0 
     /tmp/ccc9f5bX.s:105    .text:0000000000000098 .L0 
     /tmp/ccc9f5bX.s:106    .text:0000000000000098 .L0 
     /tmp/ccc9f5bX.s:108    .text:000000000000009c .L0 
     /tmp/ccc9f5bX.s:112    .text:00000000000000a0 .L0 
     /tmp/ccc9f5bX.s:113    .text:00000000000000a0 .L0 
     /tmp/ccc9f5bX.s:114    .text:00000000000000a0 .L0 
     /tmp/ccc9f5bX.s:118    .text:00000000000000ac .L0 
     /tmp/ccc9f5bX.s:121    .text:00000000000000b4 .L0 
     /tmp/ccc9f5bX.s:124    .text:00000000000000b8 .L0 
     /tmp/ccc9f5bX.s:128    .text:00000000000000bc .L0 
     /tmp/ccc9f5bX.s:129    .text:00000000000000bc .L0 
     /tmp/ccc9f5bX.s:133    .text:00000000000000c8 .L0 
     /tmp/ccc9f5bX.s:134    .text:00000000000000c8 .L0 
     /tmp/ccc9f5bX.s:137    .text:00000000000000cc .L0 
     /tmp/ccc9f5bX.s:140    .text:00000000000000d4 .L0 
     /tmp/ccc9f5bX.s:141    .text:00000000000000d4 .L0 
GAS LISTING /tmp/ccc9f5bX.s 			page 23


     /tmp/ccc9f5bX.s:145    .text:00000000000000e0 .L0 
     /tmp/ccc9f5bX.s:149    .text:00000000000000e4 .L0 
     /tmp/ccc9f5bX.s:150    .text:00000000000000e4 .L0 
     /tmp/ccc9f5bX.s:153    .text:00000000000000f0 .L0 
     /tmp/ccc9f5bX.s:156    .text:00000000000000f8 .L0 
     /tmp/ccc9f5bX.s:159    .text:00000000000000fc .L0 
     /tmp/ccc9f5bX.s:160    .text:0000000000000100 .L0 
     /tmp/ccc9f5bX.s:162    .text:0000000000000104 .L0 
     /tmp/ccc9f5bX.s:163    .text:0000000000000104 .L0 
     /tmp/ccc9f5bX.s:165    .text:0000000000000108 .L0 
     /tmp/ccc9f5bX.s:168    .text:000000000000010c .L0 
     /tmp/ccc9f5bX.s:171    .text:0000000000000110 .L0 
     /tmp/ccc9f5bX.s:173    .text:0000000000000114 .L0 
     /tmp/ccc9f5bX.s:179    .text:0000000000000114 _Z5printx
     /tmp/ccc9f5bX.s:182    .text:0000000000000114 .L0 
     /tmp/ccc9f5bX.s:184    .text:0000000000000114 .L0 
     /tmp/ccc9f5bX.s:185    .text:0000000000000118 .L0 
     /tmp/ccc9f5bX.s:188    .text:0000000000000120 .L0 
     /tmp/ccc9f5bX.s:189    .text:0000000000000120 .L0 
     /tmp/ccc9f5bX.s:191    .text:0000000000000124 .L0 
     /tmp/ccc9f5bX.s:193    .text:0000000000000124 .L0 
     /tmp/ccc9f5bX.s:194    .text:0000000000000124 .L0 
     /tmp/ccc9f5bX.s:199    .text:0000000000000134 .L0 
     /tmp/ccc9f5bX.s:200    .text:0000000000000134 .L0 
     /tmp/ccc9f5bX.s:205    .text:0000000000000144 .L0 
     /tmp/ccc9f5bX.s:208    .text:000000000000014c .L0 
     /tmp/ccc9f5bX.s:209    .text:0000000000000150 .L0 
     /tmp/ccc9f5bX.s:211    .text:0000000000000154 .L0 
     /tmp/ccc9f5bX.s:212    .text:0000000000000154 .L0 
     /tmp/ccc9f5bX.s:214    .text:0000000000000158 .L0 
     /tmp/ccc9f5bX.s:216    .text:000000000000015c .L0 
     /tmp/ccc9f5bX.s:222    .text:000000000000015c _Z5printi
     /tmp/ccc9f5bX.s:225    .text:000000000000015c .L0 
     /tmp/ccc9f5bX.s:227    .text:000000000000015c .L0 
     /tmp/ccc9f5bX.s:228    .text:0000000000000160 .L0 
     /tmp/ccc9f5bX.s:231    .text:0000000000000168 .L0 
     /tmp/ccc9f5bX.s:232    .text:0000000000000168 .L0 
     /tmp/ccc9f5bX.s:234    .text:000000000000016c .L0 
     /tmp/ccc9f5bX.s:236    .text:000000000000016c .L0 
     /tmp/ccc9f5bX.s:237    .text:000000000000016c .L0 
     /tmp/ccc9f5bX.s:240    .text:0000000000000174 .L0 
     /tmp/ccc9f5bX.s:241    .text:0000000000000178 .L0 
     /tmp/ccc9f5bX.s:243    .text:000000000000017c .L0 
     /tmp/ccc9f5bX.s:244    .text:000000000000017c .L0 
     /tmp/ccc9f5bX.s:246    .text:0000000000000180 .L0 
     /tmp/ccc9f5bX.s:248    .text:0000000000000184 .L0 
     /tmp/ccc9f5bX.s:254    .text:0000000000000184 _Z5printm
     /tmp/ccc9f5bX.s:257    .text:0000000000000184 .L0 
     /tmp/ccc9f5bX.s:259    .text:0000000000000184 .L0 
     /tmp/ccc9f5bX.s:260    .text:0000000000000188 .L0 
     /tmp/ccc9f5bX.s:263    .text:0000000000000190 .L0 
     /tmp/ccc9f5bX.s:264    .text:0000000000000190 .L0 
     /tmp/ccc9f5bX.s:266    .text:0000000000000194 .L0 
     /tmp/ccc9f5bX.s:268    .text:0000000000000194 .L0 
     /tmp/ccc9f5bX.s:269    .text:0000000000000194 .L0 
     /tmp/ccc9f5bX.s:274    .text:00000000000001a4 .L0 
     /tmp/ccc9f5bX.s:275    .text:00000000000001a4 .L0 
GAS LISTING /tmp/ccc9f5bX.s 			page 24


     /tmp/ccc9f5bX.s:280    .text:00000000000001b4 .L0 
     /tmp/ccc9f5bX.s:283    .text:00000000000001bc .L0 
     /tmp/ccc9f5bX.s:284    .text:00000000000001c0 .L0 
     /tmp/ccc9f5bX.s:286    .text:00000000000001c4 .L0 
     /tmp/ccc9f5bX.s:287    .text:00000000000001c4 .L0 
     /tmp/ccc9f5bX.s:289    .text:00000000000001c8 .L0 
     /tmp/ccc9f5bX.s:291    .text:00000000000001cc .L0 
     /tmp/ccc9f5bX.s:297    .text:00000000000001cc _Z7print_hm
     /tmp/ccc9f5bX.s:300    .text:00000000000001cc .L0 
     /tmp/ccc9f5bX.s:302    .text:00000000000001cc .L0 
     /tmp/ccc9f5bX.s:303    .text:00000000000001d0 .L0 
     /tmp/ccc9f5bX.s:306    .text:00000000000001d8 .L0 
     /tmp/ccc9f5bX.s:307    .text:00000000000001d8 .L0 
     /tmp/ccc9f5bX.s:309    .text:00000000000001dc .L0 
     /tmp/ccc9f5bX.s:311    .text:00000000000001dc .L0 
     /tmp/ccc9f5bX.s:312    .text:00000000000001dc .L0 
     /tmp/ccc9f5bX.s:317    .text:00000000000001ec .L0 
     /tmp/ccc9f5bX.s:318    .text:00000000000001ec .L0 
     /tmp/ccc9f5bX.s:323    .text:00000000000001fc .L0 
     /tmp/ccc9f5bX.s:326    .text:0000000000000204 .L0 
     /tmp/ccc9f5bX.s:327    .text:0000000000000208 .L0 
     /tmp/ccc9f5bX.s:329    .text:000000000000020c .L0 
     /tmp/ccc9f5bX.s:330    .text:000000000000020c .L0 
     /tmp/ccc9f5bX.s:332    .text:0000000000000210 .L0 
     /tmp/ccc9f5bX.s:334    .text:0000000000000214 .L0 
     /tmp/ccc9f5bX.s:341    .text._ZN3stm14CircularBufferIcE4initEv:0000000000000000 _ZN3stm14CircularBufferIcE4initEv
     /tmp/ccc9f5bX.s:345    .text._ZN3stm14CircularBufferIcE4initEv:0000000000000000 .L0 
     /tmp/ccc9f5bX.s:347    .text._ZN3stm14CircularBufferIcE4initEv:0000000000000000 .L0 
     /tmp/ccc9f5bX.s:348    .text._ZN3stm14CircularBufferIcE4initEv:0000000000000004 .L0 
     /tmp/ccc9f5bX.s:352    .text._ZN3stm14CircularBufferIcE4initEv:0000000000000010 .L0 
     /tmp/ccc9f5bX.s:353    .text._ZN3stm14CircularBufferIcE4initEv:0000000000000010 .L0 
     /tmp/ccc9f5bX.s:354    .text._ZN3stm14CircularBufferIcE4initEv:0000000000000010 .L0 
     /tmp/ccc9f5bX.s:356    .text._ZN3stm14CircularBufferIcE4initEv:0000000000000014 .L0 
     /tmp/ccc9f5bX.s:359    .text._ZN3stm14CircularBufferIcE4initEv:0000000000000018 .L0 
     /tmp/ccc9f5bX.s:361    .text._ZN3stm14CircularBufferIcE4initEv:000000000000001c .L0 
     /tmp/ccc9f5bX.s:363    .text._ZN3stm14CircularBufferIcE4initEv:0000000000000020 .L0 
     /tmp/ccc9f5bX.s:365    .text._ZN3stm14CircularBufferIcE4initEv:0000000000000024 .L0 
     /tmp/ccc9f5bX.s:368    .text._ZN3stm14CircularBufferIcE4initEv:000000000000002c .L0 
     /tmp/ccc9f5bX.s:373    .text._ZN3stm14CircularBufferIcE4initEv:0000000000000038 .L0 
     /tmp/ccc9f5bX.s:375    .text._ZN3stm14CircularBufferIcE4initEv:000000000000003c .L0 
     /tmp/ccc9f5bX.s:376    .text._ZN3stm14CircularBufferIcE4initEv:0000000000000040 .L0 
     /tmp/ccc9f5bX.s:378    .text._ZN3stm14CircularBufferIcE4initEv:0000000000000044 .L0 
     /tmp/ccc9f5bX.s:379    .text._ZN3stm14CircularBufferIcE4initEv:0000000000000044 .L0 
     /tmp/ccc9f5bX.s:381    .text._ZN3stm14CircularBufferIcE4initEv:0000000000000048 .L0 
     /tmp/ccc9f5bX.s:384    .text._ZN3stm14CircularBufferIcE4initEv:000000000000004c .L0 
     /tmp/ccc9f5bX.s:386    .text._ZN3stm14CircularBufferIcE4initEv:0000000000000050 .L0 
     /tmp/ccc9f5bX.s:393    .text:0000000000000214 _ZN8IOBuffer4initEv
     /tmp/ccc9f5bX.s:396    .text:0000000000000214 .L0 
     /tmp/ccc9f5bX.s:398    .text:0000000000000214 .L0 
     /tmp/ccc9f5bX.s:399    .text:0000000000000218 .L0 
     /tmp/ccc9f5bX.s:403    .text:0000000000000224 .L0 
     /tmp/ccc9f5bX.s:404    .text:0000000000000224 .L0 
     /tmp/ccc9f5bX.s:405    .text:0000000000000224 .L0 
     /tmp/ccc9f5bX.s:407    .text:0000000000000228 .L0 
     /tmp/ccc9f5bX.s:410    .text:000000000000022c .L0 
     /tmp/ccc9f5bX.s:411    .text:000000000000022c .L0 
     /tmp/ccc9f5bX.s:414    .text:0000000000000234 .L0 
GAS LISTING /tmp/ccc9f5bX.s 			page 25


     /tmp/ccc9f5bX.s:415    .text:0000000000000234 .L0 
     /tmp/ccc9f5bX.s:420    .text:0000000000000244 .L0 
     /tmp/ccc9f5bX.s:421    .text:0000000000000248 .L0 
     /tmp/ccc9f5bX.s:423    .text:000000000000024c .L0 
     /tmp/ccc9f5bX.s:424    .text:000000000000024c .L0 
     /tmp/ccc9f5bX.s:426    .text:0000000000000250 .L0 
     /tmp/ccc9f5bX.s:429    .text:0000000000000254 .L0 
     /tmp/ccc9f5bX.s:431    .text:0000000000000258 .L0 
     /tmp/ccc9f5bX.s:437    .text:0000000000000258 _ZN2IO4initEv
     /tmp/ccc9f5bX.s:440    .text:0000000000000258 .L0 
     /tmp/ccc9f5bX.s:441    .text:0000000000000258 .L0 
     /tmp/ccc9f5bX.s:442    .text:000000000000025c .L0 
     /tmp/ccc9f5bX.s:445    .text:0000000000000264 .L0 
     /tmp/ccc9f5bX.s:446    .text:0000000000000264 .L0 
     /tmp/ccc9f5bX.s:448    .text:0000000000000268 .L0 
     /tmp/ccc9f5bX.s:450    .text:0000000000000268 .L0 
     /tmp/ccc9f5bX.s:451    .text:0000000000000268 .L0 
     /tmp/ccc9f5bX.s:455    .text:0000000000000278 .L0 
     /tmp/ccc9f5bX.s:456    .text:0000000000000278 .L0 
     /tmp/ccc9f5bX.s:460    .text:0000000000000288 .L0 
     /tmp/ccc9f5bX.s:461    .text:000000000000028c .L0 
     /tmp/ccc9f5bX.s:463    .text:0000000000000290 .L0 
     /tmp/ccc9f5bX.s:464    .text:0000000000000290 .L0 
     /tmp/ccc9f5bX.s:466    .text:0000000000000294 .L0 
     /tmp/ccc9f5bX.s:468    .text:0000000000000298 .L0 
     /tmp/ccc9f5bX.s:475    .text._ZN3stm14CircularBufferIcE3getEv:0000000000000000 _ZN3stm14CircularBufferIcE3getEv
     /tmp/ccc9f5bX.s:478    .text._ZN3stm14CircularBufferIcE3getEv:0000000000000000 .L0 
     /tmp/ccc9f5bX.s:480    .text._ZN3stm14CircularBufferIcE3getEv:0000000000000000 .L0 
     /tmp/ccc9f5bX.s:481    .text._ZN3stm14CircularBufferIcE3getEv:0000000000000004 .L0 
     /tmp/ccc9f5bX.s:483    .text._ZN3stm14CircularBufferIcE3getEv:0000000000000008 .L0 
     /tmp/ccc9f5bX.s:485    .text._ZN3stm14CircularBufferIcE3getEv:000000000000000c .L0 
     /tmp/ccc9f5bX.s:488    .text._ZN3stm14CircularBufferIcE3getEv:0000000000000010 .L0 
     /tmp/ccc9f5bX.s:490    .text._ZN3stm14CircularBufferIcE3getEv:0000000000000014 .L0 
     /tmp/ccc9f5bX.s:492    .text._ZN3stm14CircularBufferIcE3getEv:0000000000000018 .L0 
     /tmp/ccc9f5bX.s:494    .text._ZN3stm14CircularBufferIcE3getEv:000000000000001c .L0 
     /tmp/ccc9f5bX.s:497    .text._ZN3stm14CircularBufferIcE3getEv:0000000000000020 .L0 
     /tmp/ccc9f5bX.s:499    .text._ZN3stm14CircularBufferIcE3getEv:0000000000000024 .L0 
     /tmp/ccc9f5bX.s:501    .text._ZN3stm14CircularBufferIcE3getEv:0000000000000028 .L0 
     /tmp/ccc9f5bX.s:503    .text._ZN3stm14CircularBufferIcE3getEv:000000000000002c .L0 
     /tmp/ccc9f5bX.s:505    .text._ZN3stm14CircularBufferIcE3getEv:0000000000000030 .L0 
     /tmp/ccc9f5bX.s:507    .text._ZN3stm14CircularBufferIcE3getEv:0000000000000034 .L0 
     /tmp/ccc9f5bX.s:510    .text._ZN3stm14CircularBufferIcE3getEv:000000000000003c .L0 
     /tmp/ccc9f5bX.s:511    .text._ZN3stm14CircularBufferIcE3getEv:0000000000000040 .L0 
     /tmp/ccc9f5bX.s:512    .text._ZN3stm14CircularBufferIcE3getEv:0000000000000040 .L0 
     /tmp/ccc9f5bX.s:514    .text._ZN3stm14CircularBufferIcE3getEv:0000000000000044 .L0 
     /tmp/ccc9f5bX.s:516    .text._ZN3stm14CircularBufferIcE3getEv:0000000000000048 .L0 
     /tmp/ccc9f5bX.s:523    .text:0000000000000298 _ZN8IOBuffer3getEv
     /tmp/ccc9f5bX.s:526    .text:0000000000000298 .L0 
     /tmp/ccc9f5bX.s:528    .text:0000000000000298 .L0 
     /tmp/ccc9f5bX.s:529    .text:000000000000029c .L0 
     /tmp/ccc9f5bX.s:533    .text:00000000000002a8 .L0 
     /tmp/ccc9f5bX.s:534    .text:00000000000002a8 .L0 
     /tmp/ccc9f5bX.s:535    .text:00000000000002a8 .L0 
     /tmp/ccc9f5bX.s:537    .text:00000000000002ac .L0 
     /tmp/ccc9f5bX.s:540    .text:00000000000002b0 .L0 
     /tmp/ccc9f5bX.s:541    .text:00000000000002b0 .L0 
     /tmp/ccc9f5bX.s:546    .text:00000000000002bc .L0 
GAS LISTING /tmp/ccc9f5bX.s 			page 26


     /tmp/ccc9f5bX.s:547    .text:00000000000002bc .L0 
     /tmp/ccc9f5bX.s:551    .text:00000000000002c8 .L0 
     /tmp/ccc9f5bX.s:552    .text:00000000000002c8 .L0 
     /tmp/ccc9f5bX.s:553    .text:00000000000002cc .L0 
     /tmp/ccc9f5bX.s:555    .text:00000000000002d0 .L0 
     /tmp/ccc9f5bX.s:556    .text:00000000000002d0 .L0 
     /tmp/ccc9f5bX.s:558    .text:00000000000002d4 .L0 
     /tmp/ccc9f5bX.s:561    .text:00000000000002d8 .L0 
     /tmp/ccc9f5bX.s:563    .text:00000000000002dc .L0 
     /tmp/ccc9f5bX.s:569    .text:00000000000002dc _ZN2IO5_getcEv
     /tmp/ccc9f5bX.s:572    .text:00000000000002dc .L0 
     /tmp/ccc9f5bX.s:573    .text:00000000000002dc .L0 
     /tmp/ccc9f5bX.s:574    .text:00000000000002e0 .L0 
     /tmp/ccc9f5bX.s:577    .text:00000000000002e8 .L0 
     /tmp/ccc9f5bX.s:578    .text:00000000000002e8 .L0 
     /tmp/ccc9f5bX.s:580    .text:00000000000002ec .L0 
     /tmp/ccc9f5bX.s:582    .text:00000000000002ec .L0 
     /tmp/ccc9f5bX.s:583    .text:00000000000002ec .L0 
     /tmp/ccc9f5bX.s:587    .text:00000000000002fc .L0 
     /tmp/ccc9f5bX.s:588    .text:0000000000000300 .L0 
     /tmp/ccc9f5bX.s:590    .text:0000000000000304 .L0 
     /tmp/ccc9f5bX.s:591    .text:0000000000000304 .L0 
     /tmp/ccc9f5bX.s:593    .text:0000000000000308 .L0 
     /tmp/ccc9f5bX.s:595    .text:000000000000030c .L0 
     /tmp/ccc9f5bX.s:602    .text._ZN3stm14CircularBufferIcE6extendEv:0000000000000000 _ZN3stm14CircularBufferIcE6extendEv
     /tmp/ccc9f5bX.s:605    .text._ZN3stm14CircularBufferIcE6extendEv:0000000000000000 .L0 
     /tmp/ccc9f5bX.s:607    .text._ZN3stm14CircularBufferIcE6extendEv:0000000000000000 .L0 
     /tmp/ccc9f5bX.s:608    .text._ZN3stm14CircularBufferIcE6extendEv:0000000000000004 .L0 
     /tmp/ccc9f5bX.s:613    .text._ZN3stm14CircularBufferIcE6extendEv:0000000000000014 .L0 
     /tmp/ccc9f5bX.s:614    .text._ZN3stm14CircularBufferIcE6extendEv:0000000000000014 .L0 
     /tmp/ccc9f5bX.s:615    .text._ZN3stm14CircularBufferIcE6extendEv:0000000000000014 .L0 
     /tmp/ccc9f5bX.s:616    .text._ZN3stm14CircularBufferIcE6extendEv:0000000000000014 .L0 
     /tmp/ccc9f5bX.s:618    .text._ZN3stm14CircularBufferIcE6extendEv:0000000000000018 .L0 
     /tmp/ccc9f5bX.s:621    .text._ZN3stm14CircularBufferIcE6extendEv:000000000000001c .L0 
     /tmp/ccc9f5bX.s:624    .text._ZN3stm14CircularBufferIcE6extendEv:0000000000000020 .L0 
     /tmp/ccc9f5bX.s:631    .text._ZN3stm14CircularBufferIcE6extendEv:0000000000000030 .L0 
     /tmp/ccc9f5bX.s:634    .text._ZN3stm14CircularBufferIcE6extendEv:0000000000000034 .L0 
     /tmp/ccc9f5bX.s:638    .text._ZN3stm14CircularBufferIcE6extendEv:0000000000000038 .L0 
     /tmp/ccc9f5bX.s:639    .text._ZN3stm14CircularBufferIcE6extendEv:0000000000000038 .L0 
     /tmp/ccc9f5bX.s:641    .text._ZN3stm14CircularBufferIcE6extendEv:000000000000003c .L0 
     /tmp/ccc9f5bX.s:643    .text._ZN3stm14CircularBufferIcE6extendEv:0000000000000040 .L0 
     /tmp/ccc9f5bX.s:645    .text._ZN3stm14CircularBufferIcE6extendEv:0000000000000044 .L0 
     /tmp/ccc9f5bX.s:647    .text._ZN3stm14CircularBufferIcE6extendEv:0000000000000048 .L0 
     /tmp/ccc9f5bX.s:650    .text._ZN3stm14CircularBufferIcE6extendEv:0000000000000050 .L0 
     /tmp/ccc9f5bX.s:652    .text._ZN3stm14CircularBufferIcE6extendEv:0000000000000054 .L0 
     /tmp/ccc9f5bX.s:655    .text._ZN3stm14CircularBufferIcE6extendEv:0000000000000058 .L0 
     /tmp/ccc9f5bX.s:658    .text._ZN3stm14CircularBufferIcE6extendEv:000000000000005c .L0 
     /tmp/ccc9f5bX.s:660    .text._ZN3stm14CircularBufferIcE6extendEv:0000000000000060 .L0 
     /tmp/ccc9f5bX.s:667    .text._ZN3stm14CircularBufferIcE6extendEv:0000000000000068 .L0 
     /tmp/ccc9f5bX.s:672    .text._ZN3stm14CircularBufferIcE6extendEv:0000000000000074 .L0 
     /tmp/ccc9f5bX.s:674    .text._ZN3stm14CircularBufferIcE6extendEv:0000000000000078 .L0 
     /tmp/ccc9f5bX.s:676    .text._ZN3stm14CircularBufferIcE6extendEv:000000000000007c .L0 
     /tmp/ccc9f5bX.s:678    .text._ZN3stm14CircularBufferIcE6extendEv:0000000000000080 .L0 
     /tmp/ccc9f5bX.s:680    .text._ZN3stm14CircularBufferIcE6extendEv:0000000000000084 .L0 
     /tmp/ccc9f5bX.s:682    .text._ZN3stm14CircularBufferIcE6extendEv:0000000000000088 .L0 
     /tmp/ccc9f5bX.s:684    .text._ZN3stm14CircularBufferIcE6extendEv:000000000000008c .L0 
     /tmp/ccc9f5bX.s:685    .text._ZN3stm14CircularBufferIcE6extendEv:0000000000000090 .L0 
GAS LISTING /tmp/ccc9f5bX.s 			page 27


     /tmp/ccc9f5bX.s:687    .text._ZN3stm14CircularBufferIcE6extendEv:0000000000000094 .L0 
     /tmp/ccc9f5bX.s:688    .text._ZN3stm14CircularBufferIcE6extendEv:0000000000000094 .L0 
     /tmp/ccc9f5bX.s:690    .text._ZN3stm14CircularBufferIcE6extendEv:0000000000000098 .L0 
     /tmp/ccc9f5bX.s:693    .text._ZN3stm14CircularBufferIcE6extendEv:000000000000009c .L0 
     /tmp/ccc9f5bX.s:696    .text._ZN3stm14CircularBufferIcE6extendEv:00000000000000a0 .L0 
     /tmp/ccc9f5bX.s:698    .text._ZN3stm14CircularBufferIcE6extendEv:00000000000000a4 .L0 
     /tmp/ccc9f5bX.s:705    .text._ZN3stm14CircularBufferIcE3putEc:0000000000000000 _ZN3stm14CircularBufferIcE3putEc
     /tmp/ccc9f5bX.s:708    .text._ZN3stm14CircularBufferIcE3putEc:0000000000000000 .L0 
     /tmp/ccc9f5bX.s:710    .text._ZN3stm14CircularBufferIcE3putEc:0000000000000000 .L0 
     /tmp/ccc9f5bX.s:711    .text._ZN3stm14CircularBufferIcE3putEc:0000000000000004 .L0 
     /tmp/ccc9f5bX.s:716    .text._ZN3stm14CircularBufferIcE3putEc:0000000000000014 .L0 
     /tmp/ccc9f5bX.s:717    .text._ZN3stm14CircularBufferIcE3putEc:0000000000000014 .L0 
     /tmp/ccc9f5bX.s:718    .text._ZN3stm14CircularBufferIcE3putEc:0000000000000014 .L0 
     /tmp/ccc9f5bX.s:719    .text._ZN3stm14CircularBufferIcE3putEc:0000000000000014 .L0 
     /tmp/ccc9f5bX.s:721    .text._ZN3stm14CircularBufferIcE3putEc:0000000000000018 .L0 
     /tmp/ccc9f5bX.s:725    .text._ZN3stm14CircularBufferIcE3putEc:0000000000000020 .L0 
     /tmp/ccc9f5bX.s:727    .text._ZN3stm14CircularBufferIcE3putEc:0000000000000024 .L0 
     /tmp/ccc9f5bX.s:729    .text._ZN3stm14CircularBufferIcE3putEc:0000000000000028 .L0 
     /tmp/ccc9f5bX.s:733    .text._ZN3stm14CircularBufferIcE3putEc:000000000000002c .L0 
     /tmp/ccc9f5bX.s:735    .text._ZN3stm14CircularBufferIcE3putEc:0000000000000030 .L0 
     /tmp/ccc9f5bX.s:737    .text._ZN3stm14CircularBufferIcE3putEc:0000000000000034 .L0 
     /tmp/ccc9f5bX.s:739    .text._ZN3stm14CircularBufferIcE3putEc:0000000000000038 .L0 
     /tmp/ccc9f5bX.s:741    .text._ZN3stm14CircularBufferIcE3putEc:000000000000003c .L0 
     /tmp/ccc9f5bX.s:743    .text._ZN3stm14CircularBufferIcE3putEc:0000000000000040 .L0 
     /tmp/ccc9f5bX.s:745    .text._ZN3stm14CircularBufferIcE3putEc:0000000000000044 .L0 
     /tmp/ccc9f5bX.s:747    .text._ZN3stm14CircularBufferIcE3putEc:0000000000000048 .L0 
     /tmp/ccc9f5bX.s:749    .text._ZN3stm14CircularBufferIcE3putEc:000000000000004c .L0 
     /tmp/ccc9f5bX.s:751    .text._ZN3stm14CircularBufferIcE3putEc:0000000000000050 .L0 
     /tmp/ccc9f5bX.s:753    .text._ZN3stm14CircularBufferIcE3putEc:0000000000000054 .L0 
     /tmp/ccc9f5bX.s:756    .text._ZN3stm14CircularBufferIcE3putEc:000000000000005c .L0 
     /tmp/ccc9f5bX.s:757    .text._ZN3stm14CircularBufferIcE3putEc:0000000000000060 .L0 
     /tmp/ccc9f5bX.s:758    .text._ZN3stm14CircularBufferIcE3putEc:0000000000000060 .L0 
     /tmp/ccc9f5bX.s:760    .text._ZN3stm14CircularBufferIcE3putEc:0000000000000064 .L0 
     /tmp/ccc9f5bX.s:761    .text._ZN3stm14CircularBufferIcE3putEc:0000000000000064 .L0 
     /tmp/ccc9f5bX.s:763    .text._ZN3stm14CircularBufferIcE3putEc:0000000000000068 .L0 
     /tmp/ccc9f5bX.s:766    .text._ZN3stm14CircularBufferIcE3putEc:000000000000006c .L0 
     /tmp/ccc9f5bX.s:768    .text._ZN3stm14CircularBufferIcE3putEc:0000000000000070 .L0 
     /tmp/ccc9f5bX.s:772    .text._ZN3stm14CircularBufferIcE3putEc:0000000000000074 .L0 
     /tmp/ccc9f5bX.s:774    .text._ZN3stm14CircularBufferIcE3putEc:0000000000000074 .L0 
     /tmp/ccc9f5bX.s:777    .text._ZN3stm14CircularBufferIcE3putEc:0000000000000080 .L0 
     /tmp/ccc9f5bX.s:784    .text:000000000000030c _ZN8IOBuffer3putEc
     /tmp/ccc9f5bX.s:787    .text:000000000000030c .L0 
     /tmp/ccc9f5bX.s:789    .text:000000000000030c .L0 
     /tmp/ccc9f5bX.s:790    .text:0000000000000310 .L0 
     /tmp/ccc9f5bX.s:794    .text:000000000000031c .L0 
     /tmp/ccc9f5bX.s:795    .text:000000000000031c .L0 
     /tmp/ccc9f5bX.s:796    .text:000000000000031c .L0 
     /tmp/ccc9f5bX.s:798    .text:0000000000000320 .L0 
     /tmp/ccc9f5bX.s:801    .text:0000000000000324 .L0 
     /tmp/ccc9f5bX.s:802    .text:0000000000000324 .L0 
     /tmp/ccc9f5bX.s:805    .text:000000000000032c .L0 
     /tmp/ccc9f5bX.s:806    .text:000000000000032c .L0 
     /tmp/ccc9f5bX.s:810    .text:0000000000000338 .L0 
     /tmp/ccc9f5bX.s:811    .text:000000000000033c .L0 
     /tmp/ccc9f5bX.s:813    .text:0000000000000340 .L0 
     /tmp/ccc9f5bX.s:814    .text:0000000000000340 .L0 
     /tmp/ccc9f5bX.s:816    .text:0000000000000344 .L0 
GAS LISTING /tmp/ccc9f5bX.s 			page 28


     /tmp/ccc9f5bX.s:819    .text:0000000000000348 .L0 
     /tmp/ccc9f5bX.s:821    .text:000000000000034c .L0 
     /tmp/ccc9f5bX.s:827    .text:000000000000034c _ZN2IO5_putcEc
     /tmp/ccc9f5bX.s:830    .text:000000000000034c .L0 
     /tmp/ccc9f5bX.s:832    .text:000000000000034c .L0 
     /tmp/ccc9f5bX.s:833    .text:0000000000000350 .L0 
     /tmp/ccc9f5bX.s:837    .text:000000000000035c .L0 
     /tmp/ccc9f5bX.s:838    .text:000000000000035c .L0 
     /tmp/ccc9f5bX.s:839    .text:000000000000035c .L0 
     /tmp/ccc9f5bX.s:841    .text:0000000000000360 .L0 
     /tmp/ccc9f5bX.s:843    .text:0000000000000360 .L0 
     /tmp/ccc9f5bX.s:847    .text:000000000000036c .L0 
     /tmp/ccc9f5bX.s:848    .text:000000000000036c .L0 
     /tmp/ccc9f5bX.s:854    .text:000000000000037c .L0 
     /tmp/ccc9f5bX.s:855    .text:0000000000000380 .L0 
     /tmp/ccc9f5bX.s:856    .text:0000000000000380 .L0 
     /tmp/ccc9f5bX.s:858    .text:0000000000000384 .L0 
     /tmp/ccc9f5bX.s:859    .text:0000000000000384 .L0 
     /tmp/ccc9f5bX.s:861    .text:0000000000000388 .L0 
     /tmp/ccc9f5bX.s:863    .text:000000000000038c .L0 
     /tmp/ccc9f5bX.s:867    .text:0000000000000390 .L0 
     /tmp/ccc9f5bX.s:869    .text:0000000000000390 .L0 
     /tmp/ccc9f5bX.s:870    .text:0000000000000390 .L0 
     /tmp/ccc9f5bX.s:877    .text:00000000000003a8 .L0 
     /tmp/ccc9f5bX.s:878    .text:00000000000003a8 .L0 
     /tmp/ccc9f5bX.s:883    .text:00000000000003b8 .L0 
     /tmp/ccc9f5bX.s:884    .text:00000000000003b8 .L0 
     /tmp/ccc9f5bX.s:889    .text:00000000000003cc .L0 
     /tmp/ccc9f5bX.s:903    .bss:0000000000000020 _ZN2IO6OutputE
     /tmp/ccc9f5bX.s:899    .bss:0000000000000000 _ZN2IO5InputE
     /tmp/ccc9f5bX.s:896    .bss:0000000000000000 .LANCHOR0
     /tmp/ccc9f5bX.s:912    .text:00000000000003cc .L0 
     /tmp/ccc9f5bX.s:389    .text._ZN3stm14CircularBufferIcE4initEv:0000000000000050 .L0 
     /tmp/ccc9f5bX.s:519    .text._ZN3stm14CircularBufferIcE3getEv:0000000000000048 .L0 
     /tmp/ccc9f5bX.s:701    .text._ZN3stm14CircularBufferIcE6extendEv:00000000000000a4 .L0 
     /tmp/ccc9f5bX.s:780    .text._ZN3stm14CircularBufferIcE3putEc:0000000000000080 .L0 
     /tmp/ccc9f5bX.s:32     .text:000000000000001c .L0 
     /tmp/ccc9f5bX.s:63     .text:0000000000000054 .L0 
     /tmp/ccc9f5bX.s:114    .text:00000000000000a0 .L0 
     /tmp/ccc9f5bX.s:150    .text:00000000000000e4 .L0 
     /tmp/ccc9f5bX.s:451    .text:0000000000000268 .L0 
     /tmp/ccc9f5bX.s:456    .text:0000000000000278 .L0 
     /tmp/ccc9f5bX.s:583    .text:00000000000002ec .L0 
     /tmp/ccc9f5bX.s:848    .text:000000000000036c .L0 
     /tmp/ccc9f5bX.s:870    .text:0000000000000390 .L0 
     /tmp/ccc9f5bX.s:60     .text:0000000000000054 .L2
     /tmp/ccc9f5bX.s:44     .text:0000000000000038 .L3
     /tmp/ccc9f5bX.s:147    .text:00000000000000e4 .L6
     /tmp/ccc9f5bX.s:126    .text:00000000000000bc .L7
     /tmp/ccc9f5bX.s:866    .text:0000000000000390 .L43
     /tmp/ccc9f5bX.s:852    .text:000000000000037c .L39
     /tmp/ccc9f5bX.s:664    .text._ZN3stm14CircularBufferIcE6extendEv:0000000000000068 .L30
     /tmp/ccc9f5bX.s:636    .text._ZN3stm14CircularBufferIcE6extendEv:0000000000000038 .L31
     /tmp/ccc9f5bX.s:771    .text._ZN3stm14CircularBufferIcE3putEc:0000000000000074 .L36
     /tmp/ccc9f5bX.s:731    .text._ZN3stm14CircularBufferIcE3putEc:000000000000002c .L34
     /tmp/ccc9f5bX.s:2311   .debug_abbrev:0000000000000000 .Ldebug_abbrev0
     /tmp/ccc9f5bX.s:3785   .debug_str:000000000000057f .LASF104
GAS LISTING /tmp/ccc9f5bX.s 			page 29


     /tmp/ccc9f5bX.s:3783   .debug_str:000000000000056d .LASF105
     /tmp/ccc9f5bX.s:3663   .debug_str:00000000000001ab .LASF106
     /tmp/ccc9f5bX.s:3585   .debug_ranges:0000000000000000 .Ldebug_ranges0
     /tmp/ccc9f5bX.s:3599   .debug_line:0000000000000000 .Ldebug_line0
     /tmp/ccc9f5bX.s:3683   .debug_str:0000000000000295 .LASF0
     /tmp/ccc9f5bX.s:3701   .debug_str:000000000000031b .LASF1
     /tmp/ccc9f5bX.s:3749   .debug_str:0000000000000454 .LASF2
     /tmp/ccc9f5bX.s:3751   .debug_str:0000000000000462 .LASF4
     /tmp/ccc9f5bX.s:3687   .debug_str:00000000000002ae .LASF3
     /tmp/ccc9f5bX.s:3613   .debug_str:0000000000000051 .LASF5
     /tmp/ccc9f5bX.s:3725   .debug_str:00000000000003b6 .LASF6
     /tmp/ccc9f5bX.s:3693   .debug_str:00000000000002f0 .LASF7
     /tmp/ccc9f5bX.s:3661   .debug_str:000000000000019b .LASF8
     /tmp/ccc9f5bX.s:3669   .debug_str:0000000000000209 .LASF9
     /tmp/ccc9f5bX.s:3627   .debug_str:00000000000000b8 .LASF10
     /tmp/ccc9f5bX.s:3655   .debug_str:0000000000000172 .LASF11
     /tmp/ccc9f5bX.s:3639   .debug_str:0000000000000118 .LASF12
     /tmp/ccc9f5bX.s:3625   .debug_str:00000000000000a8 .LASF13
     /tmp/ccc9f5bX.s:3765   .debug_str:00000000000004e3 .LASF14
     /tmp/ccc9f5bX.s:3649   .debug_str:0000000000000151 .LASF15
     /tmp/ccc9f5bX.s:3759   .debug_str:00000000000004bc .LASF16
     /tmp/ccc9f5bX.s:3811   .debug_str:000000000000073e .LASF17
     /tmp/ccc9f5bX.s:3805   .debug_str:00000000000006f5 .LASF19
     /tmp/ccc9f5bX.s:3633   .debug_str:00000000000000f8 .LASF18
     /tmp/ccc9f5bX.s:3755   .debug_str:000000000000047f .LASF20
     /tmp/ccc9f5bX.s:3677   .debug_str:000000000000023d .LASF21
     /tmp/ccc9f5bX.s:3813   .debug_str:0000000000000748 .LASF22
     /tmp/ccc9f5bX.s:3761   .debug_str:00000000000004d2 .LASF23
     /tmp/ccc9f5bX.s:3667   .debug_str:00000000000001f0 .LASF24
     /tmp/ccc9f5bX.s:3703   .debug_str:000000000000032e .LASF25
     /tmp/ccc9f5bX.s:3723   .debug_str:0000000000000399 .LASF26
     /tmp/ccc9f5bX.s:3727   .debug_str:00000000000003c9 .LASF27
     /tmp/ccc9f5bX.s:3769   .debug_str:00000000000004f8 .LASF28
     /tmp/ccc9f5bX.s:3603   .debug_str:0000000000000021 .LASF29
     /tmp/ccc9f5bX.s:3721   .debug_str:0000000000000391 .LASF30
     /tmp/ccc9f5bX.s:3709   .debug_str:000000000000034c .LASF31
     /tmp/ccc9f5bX.s:3607   .debug_str:0000000000000030 .LASF32
     /tmp/ccc9f5bX.s:3621   .debug_str:0000000000000095 .LASF33
     /tmp/ccc9f5bX.s:3815   .debug_str:000000000000075e .LASF34
     /tmp/ccc9f5bX.s:3691   .debug_str:00000000000002c9 .LASF48
     /tmp/ccc9f5bX.s:3681   .debug_str:0000000000000270 .LASF50
     /tmp/ccc9f5bX.s:3697   .debug_str:0000000000000311 .LASF35
     /tmp/ccc9f5bX.s:3793   .debug_str:0000000000000661 .LASF37
     /tmp/ccc9f5bX.s:3745   .debug_str:0000000000000440 .LASF36
     /tmp/ccc9f5bX.s:3629   .debug_str:00000000000000c7 .LASF38
     /tmp/ccc9f5bX.s:3797   .debug_str:0000000000000692 .LASF39
     /tmp/ccc9f5bX.s:3679   .debug_str:0000000000000247 .LASF40
     /tmp/ccc9f5bX.s:3637   .debug_str:0000000000000111 .LASF55
     /tmp/ccc9f5bX.s:3801   .debug_str:00000000000006ac .LASF56
     /tmp/ccc9f5bX.s:3671   .debug_str:0000000000000217 .LASF72
     /tmp/ccc9f5bX.s:3653   .debug_str:000000000000016c .LASF41
     /tmp/ccc9f5bX.s:3763   .debug_str:00000000000004de .LASF42
     /tmp/ccc9f5bX.s:3717   .debug_str:0000000000000373 .LASF43
     /tmp/ccc9f5bX.s:3699   .debug_str:0000000000000316 .LASF44
     /tmp/ccc9f5bX.s:3605   .debug_str:0000000000000027 .LASF45
     /tmp/ccc9f5bX.s:3657   .debug_str:0000000000000181 .LASF46
     /tmp/ccc9f5bX.s:3807   .debug_str:000000000000070d .LASF47
GAS LISTING /tmp/ccc9f5bX.s 			page 30


     /tmp/ccc9f5bX.s:3803   .debug_str:00000000000006d4 .LASF49
     /tmp/ccc9f5bX.s:3601   .debug_str:0000000000000000 .LASF51
     /tmp/ccc9f5bX.s:3773   .debug_str:0000000000000522 .LASF52
     /tmp/ccc9f5bX.s:3665   .debug_str:00000000000001c9 .LASF53
     /tmp/ccc9f5bX.s:3757   .debug_str:0000000000000497 .LASF54
     /tmp/ccc9f5bX.s:3619   .debug_str:0000000000000071 .LASF57
     /tmp/ccc9f5bX.s:3799   .debug_str:000000000000069a .LASF58
     /tmp/ccc9f5bX.s:3777   .debug_str:0000000000000550 .LASF60
     /tmp/ccc9f5bX.s:3731   .debug_str:00000000000003e4 .LASF59
     /tmp/ccc9f5bX.s:3651   .debug_str:0000000000000167 .LASF61
     /tmp/ccc9f5bX.s:3779   .debug_str:0000000000000555 .LASF62
     /tmp/ccc9f5bX.s:3689   .debug_str:00000000000002c0 .LASF63
     /tmp/ccc9f5bX.s:3647   .debug_str:000000000000013d .LASF64
     /tmp/ccc9f5bX.s:3711   .debug_str:0000000000000351 .LASF65
     /tmp/ccc9f5bX.s:3737   .debug_str:000000000000040f .LASF66
     /tmp/ccc9f5bX.s:3719   .debug_str:0000000000000378 .LASF67
     /tmp/ccc9f5bX.s:3789   .debug_str:000000000000064b .LASF68
     /tmp/ccc9f5bX.s:3643   .debug_str:000000000000012d .LASF69
     /tmp/ccc9f5bX.s:3695   .debug_str:0000000000000303 .LASF107
     /tmp/ccc9f5bX.s:3611   .debug_str:000000000000004b .LASF108
     /tmp/ccc9f5bX.s:3791   .debug_str:0000000000000652 .LASF109
     /tmp/ccc9f5bX.s:3631   .debug_str:00000000000000f2 .LASF70
     /tmp/ccc9f5bX.s:3809   .debug_str:000000000000072f .LASF71
     /tmp/ccc9f5bX.s:3739   .debug_str:0000000000000422 .LASF73
     /tmp/ccc9f5bX.s:3707   .debug_str:0000000000000345 .LASF74
     /tmp/ccc9f5bX.s:3635   .debug_str:0000000000000103 .LASF75
     /tmp/ccc9f5bX.s:3623   .debug_str:000000000000009a .LASF76
     /tmp/ccc9f5bX.s:3733   .debug_str:00000000000003f6 .LASF77
     /tmp/ccc9f5bX.s:3795   .debug_str:0000000000000687 .LASF78
     /tmp/ccc9f5bX.s:3787   .debug_str:0000000000000643 .LASF79
     /tmp/ccc9f5bX.s:603    .text._ZN3stm14CircularBufferIcE6extendEv:0000000000000000 .LFB63
     /tmp/ccc9f5bX.s:699    .text._ZN3stm14CircularBufferIcE6extendEv:00000000000000a4 .LFE63
     /tmp/ccc9f5bX.s:3659   .debug_str:0000000000000196 .LASF81
     /tmp/ccc9f5bX.s:3203   .debug_loc:0000000000000000 .LLST12
     /tmp/ccc9f5bX.s:3645   .debug_str:0000000000000133 .LASF80
     /tmp/ccc9f5bX.s:3221   .debug_loc:000000000000004c .LLST13
     /tmp/ccc9f5bX.s:629    .text._ZN3stm14CircularBufferIcE6extendEv:0000000000000030 .LBB2
     /tmp/ccc9f5bX.s:665    .text._ZN3stm14CircularBufferIcE6extendEv:0000000000000068 .LBE2
     /tmp/ccc9f5bX.s:3238   .debug_loc:0000000000000097 .LLST14
     /tmp/ccc9f5bX.s:3254   .debug_loc:00000000000000e1 .LLST15
     /tmp/ccc9f5bX.s:626    .text._ZN3stm14CircularBufferIcE6extendEv:000000000000002c .LVL54
     /tmp/ccc9f5bX.s:670    .text._ZN3stm14CircularBufferIcE6extendEv:0000000000000074 .LVL63
     /tmp/ccc9f5bX.s:476    .text._ZN3stm14CircularBufferIcE3getEv:0000000000000000 .LFB62
     /tmp/ccc9f5bX.s:517    .text._ZN3stm14CircularBufferIcE3getEv:0000000000000048 .LFE62
     /tmp/ccc9f5bX.s:3271   .debug_loc:000000000000012c .LLST10
     /tmp/ccc9f5bX.s:706    .text._ZN3stm14CircularBufferIcE3putEc:0000000000000000 .LFB61
     /tmp/ccc9f5bX.s:778    .text._ZN3stm14CircularBufferIcE3putEc:0000000000000080 .LFE61
     /tmp/ccc9f5bX.s:3282   .debug_loc:0000000000000162 .LLST16
     /tmp/ccc9f5bX.s:3819   .debug_str:000000000000078c .LASF84
     /tmp/ccc9f5bX.s:3304   .debug_loc:00000000000001c1 .LLST17
     /tmp/ccc9f5bX.s:775    .text._ZN3stm14CircularBufferIcE3putEc:000000000000007c .LVL70
     /tmp/ccc9f5bX.s:342    .text._ZN3stm14CircularBufferIcE4initEv:0000000000000000 .LFB60
     /tmp/ccc9f5bX.s:387    .text._ZN3stm14CircularBufferIcE4initEv:0000000000000050 .LFE60
     /tmp/ccc9f5bX.s:3329   .debug_loc:0000000000000223 .LLST8
     /tmp/ccc9f5bX.s:371    .text._ZN3stm14CircularBufferIcE4initEv:0000000000000038 .LVL36
     /tmp/ccc9f5bX.s:3817   .debug_str:0000000000000784 .LASF82
     /tmp/ccc9f5bX.s:3775   .debug_str:0000000000000544 .LASF83
GAS LISTING /tmp/ccc9f5bX.s 			page 31


     /tmp/ccc9f5bX.s:298    .text:00000000000001cc .LFB58
     /tmp/ccc9f5bX.s:335    .text:0000000000000214 .LFE58
     /tmp/ccc9f5bX.s:3705   .debug_str:000000000000033e .LASF85
     /tmp/ccc9f5bX.s:3347   .debug_loc:000000000000026f .LLST7
     /tmp/ccc9f5bX.s:3641   .debug_str:0000000000000128 .LASF86
     /tmp/ccc9f5bX.s:321    .text:00000000000001fc .LVL32
     /tmp/ccc9f5bX.s:324    .text:0000000000000204 .LVL33
     /tmp/ccc9f5bX.s:3609   .debug_str:0000000000000045 .LASF87
     /tmp/ccc9f5bX.s:3735   .debug_str:0000000000000405 .LASF88
     /tmp/ccc9f5bX.s:255    .text:0000000000000184 .LFB57
     /tmp/ccc9f5bX.s:292    .text:00000000000001cc .LFE57
     /tmp/ccc9f5bX.s:3361   .debug_loc:00000000000002a8 .LLST6
     /tmp/ccc9f5bX.s:278    .text:00000000000001b4 .LVL29
     /tmp/ccc9f5bX.s:281    .text:00000000000001bc .LVL30
     /tmp/ccc9f5bX.s:3729   .debug_str:00000000000003da .LASF89
     /tmp/ccc9f5bX.s:223    .text:000000000000015c .LFB56
     /tmp/ccc9f5bX.s:249    .text:0000000000000184 .LFE56
     /tmp/ccc9f5bX.s:3375   .debug_loc:00000000000002e1 .LLST5
     /tmp/ccc9f5bX.s:238    .text:0000000000000174 .LVL27
     /tmp/ccc9f5bX.s:3741   .debug_str:0000000000000428 .LASF90
     /tmp/ccc9f5bX.s:180    .text:0000000000000114 .LFB55
     /tmp/ccc9f5bX.s:217    .text:000000000000015c .LFE55
     /tmp/ccc9f5bX.s:3389   .debug_loc:000000000000031a .LLST4
     /tmp/ccc9f5bX.s:203    .text:0000000000000144 .LVL24
     /tmp/ccc9f5bX.s:206    .text:000000000000014c .LVL25
     /tmp/ccc9f5bX.s:3673   .debug_str:0000000000000220 .LASF91
     /tmp/ccc9f5bX.s:3753   .debug_str:0000000000000469 .LASF92
     /tmp/ccc9f5bX.s:93     .text:0000000000000084 .LFB54
     /tmp/ccc9f5bX.s:174    .text:0000000000000114 .LFE54
     /tmp/ccc9f5bX.s:3403   .debug_loc:0000000000000353 .LLST2
     /tmp/ccc9f5bX.s:3421   .debug_loc:000000000000039f .LLST3
     /tmp/ccc9f5bX.s:138    .text:00000000000000d4 .LVL17
     /tmp/ccc9f5bX.s:143    .text:00000000000000e0 .LVL18
     /tmp/ccc9f5bX.s:3685   .debug_str:00000000000002a2 .LASF93
     /tmp/ccc9f5bX.s:10     .text:0000000000000000 .LFB53
     /tmp/ccc9f5bX.s:87     .text:0000000000000084 .LFE53
     /tmp/ccc9f5bX.s:3437   .debug_loc:00000000000003e9 .LLST0
     /tmp/ccc9f5bX.s:3455   .debug_loc:0000000000000435 .LLST1
     /tmp/ccc9f5bX.s:56     .text:0000000000000050 .LVL6
     /tmp/ccc9f5bX.s:828    .text:000000000000034c .LFB52
     /tmp/ccc9f5bX.s:890    .text:00000000000003cc .LFE52
     /tmp/ccc9f5bX.s:3471   .debug_loc:000000000000047f .LLST20
     /tmp/ccc9f5bX.s:851    .text:000000000000037c .LVL77
     /tmp/ccc9f5bX.s:875    .text:00000000000003a8 .LVL80
     /tmp/ccc9f5bX.s:881    .text:00000000000003b8 .LVL81
     /tmp/ccc9f5bX.s:887    .text:00000000000003c8 .LVL82
     /tmp/ccc9f5bX.s:570    .text:00000000000002dc .LFB51
     /tmp/ccc9f5bX.s:596    .text:000000000000030c .LFE51
     /tmp/ccc9f5bX.s:585    .text:00000000000002fc .LVL51
     /tmp/ccc9f5bX.s:438    .text:0000000000000258 .LFB50
     /tmp/ccc9f5bX.s:469    .text:0000000000000298 .LFE50
     /tmp/ccc9f5bX.s:453    .text:0000000000000278 .LVL42
     /tmp/ccc9f5bX.s:458    .text:0000000000000288 .LVL43
     /tmp/ccc9f5bX.s:524    .text:0000000000000298 .LFB49
     /tmp/ccc9f5bX.s:564    .text:00000000000002dc .LFE49
     /tmp/ccc9f5bX.s:3496   .debug_loc:00000000000004e1 .LLST11
     /tmp/ccc9f5bX.s:544    .text:00000000000002bc .LVL48
GAS LISTING /tmp/ccc9f5bX.s 			page 32


     /tmp/ccc9f5bX.s:549    .text:00000000000002c8 .LVL49
     /tmp/ccc9f5bX.s:785    .text:000000000000030c .LFB48
     /tmp/ccc9f5bX.s:822    .text:000000000000034c .LFE48
     /tmp/ccc9f5bX.s:3514   .debug_loc:000000000000052d .LLST18
     /tmp/ccc9f5bX.s:3532   .debug_loc:0000000000000579 .LLST19
     /tmp/ccc9f5bX.s:803    .text:000000000000032c .LVL72
     /tmp/ccc9f5bX.s:808    .text:0000000000000338 .LVL73
     /tmp/ccc9f5bX.s:394    .text:0000000000000214 .LFB47
     /tmp/ccc9f5bX.s:432    .text:0000000000000258 .LFE47
     /tmp/ccc9f5bX.s:3546   .debug_loc:00000000000005b2 .LLST9
     /tmp/ccc9f5bX.s:412    .text:0000000000000234 .LVL39
     /tmp/ccc9f5bX.s:418    .text:0000000000000244 .LVL40
     /tmp/ccc9f5bX.s:3675   .debug_str:000000000000022f .LASF94
     /tmp/ccc9f5bX.s:3715   .debug_str:0000000000000369 .LASF95
     /tmp/ccc9f5bX.s:3743   .debug_str:0000000000000432 .LASF96
     /tmp/ccc9f5bX.s:3771   .debug_str:0000000000000519 .LASF97
     /tmp/ccc9f5bX.s:3767   .debug_str:00000000000004ef .LASF98
     /tmp/ccc9f5bX.s:3713   .debug_str:0000000000000364 .LASF99
     /tmp/ccc9f5bX.s:3617   .debug_str:0000000000000061 .LASF100
     /tmp/ccc9f5bX.s:3747   .debug_str:0000000000000449 .LASF101
     /tmp/ccc9f5bX.s:3781   .debug_str:000000000000055a .LASF102
     /tmp/ccc9f5bX.s:3615   .debug_str:0000000000000058 .LASF103
     /tmp/ccc9f5bX.s:606    .text._ZN3stm14CircularBufferIcE6extendEv:0000000000000000 .LVL52
     /tmp/ccc9f5bX.s:622    .text._ZN3stm14CircularBufferIcE6extendEv:0000000000000020 .LVL53
     /tmp/ccc9f5bX.s:691    .text._ZN3stm14CircularBufferIcE6extendEv:0000000000000098 .LVL64
     /tmp/ccc9f5bX.s:628    .text._ZN3stm14CircularBufferIcE6extendEv:0000000000000030 .LVL55
     /tmp/ccc9f5bX.s:668    .text._ZN3stm14CircularBufferIcE6extendEv:000000000000006c .LVL62
     /tmp/ccc9f5bX.s:694    .text._ZN3stm14CircularBufferIcE6extendEv:000000000000009c .LVL65
     /tmp/ccc9f5bX.s:635    .text._ZN3stm14CircularBufferIcE6extendEv:0000000000000038 .LVL57
     /tmp/ccc9f5bX.s:653    .text._ZN3stm14CircularBufferIcE6extendEv:0000000000000058 .LVL58
     /tmp/ccc9f5bX.s:663    .text._ZN3stm14CircularBufferIcE6extendEv:0000000000000068 .LVL61
     /tmp/ccc9f5bX.s:632    .text._ZN3stm14CircularBufferIcE6extendEv:0000000000000034 .LVL56
     /tmp/ccc9f5bX.s:656    .text._ZN3stm14CircularBufferIcE6extendEv:000000000000005c .LVL59
     /tmp/ccc9f5bX.s:661    .text._ZN3stm14CircularBufferIcE6extendEv:0000000000000064 .LVL60
     /tmp/ccc9f5bX.s:479    .text._ZN3stm14CircularBufferIcE3getEv:0000000000000000 .LVL44
     /tmp/ccc9f5bX.s:495    .text._ZN3stm14CircularBufferIcE3getEv:0000000000000020 .LVL45
     /tmp/ccc9f5bX.s:709    .text._ZN3stm14CircularBufferIcE3putEc:0000000000000000 .LVL66
     /tmp/ccc9f5bX.s:730    .text._ZN3stm14CircularBufferIcE3putEc:000000000000002c .LVL67
     /tmp/ccc9f5bX.s:764    .text._ZN3stm14CircularBufferIcE3putEc:0000000000000068 .LVL68
     /tmp/ccc9f5bX.s:770    .text._ZN3stm14CircularBufferIcE3putEc:0000000000000074 .LVL69
     /tmp/ccc9f5bX.s:346    .text._ZN3stm14CircularBufferIcE4initEv:0000000000000000 .LVL34
     /tmp/ccc9f5bX.s:369    .text._ZN3stm14CircularBufferIcE4initEv:0000000000000030 .LVL35
     /tmp/ccc9f5bX.s:382    .text._ZN3stm14CircularBufferIcE4initEv:0000000000000048 .LVL37
     /tmp/ccc9f5bX.s:301    .text:00000000000001cc .LVL31
     /tmp/ccc9f5bX.s:258    .text:0000000000000184 .LVL28
     /tmp/ccc9f5bX.s:226    .text:000000000000015c .LVL26
     /tmp/ccc9f5bX.s:183    .text:0000000000000114 .LVL23
     /tmp/ccc9f5bX.s:96     .text:0000000000000084 .LVL11
     /tmp/ccc9f5bX.s:116    .text:00000000000000ac .LVL13
     /tmp/ccc9f5bX.s:169    .text:000000000000010c .LVL22
     /tmp/ccc9f5bX.s:111    .text:00000000000000a0 .LVL12
     /tmp/ccc9f5bX.s:125    .text:00000000000000bc .LVL15
     /tmp/ccc9f5bX.s:135    .text:00000000000000cc .LVL16
     /tmp/ccc9f5bX.s:146    .text:00000000000000e4 .LVL19
     /tmp/ccc9f5bX.s:166    .text:0000000000000108 .LVL21
     /tmp/ccc9f5bX.s:14     .text:0000000000000000 .LVL0
     /tmp/ccc9f5bX.s:34     .text:0000000000000028 .LVL2
GAS LISTING /tmp/ccc9f5bX.s 			page 33


     /tmp/ccc9f5bX.s:82     .text:000000000000007c .LVL10
     /tmp/ccc9f5bX.s:29     .text:000000000000001c .LVL1
     /tmp/ccc9f5bX.s:43     .text:0000000000000038 .LVL4
     /tmp/ccc9f5bX.s:53     .text:0000000000000048 .LVL5
     /tmp/ccc9f5bX.s:59     .text:0000000000000054 .LVL7
     /tmp/ccc9f5bX.s:79     .text:0000000000000078 .LVL9
     /tmp/ccc9f5bX.s:831    .text:000000000000034c .LVL75
     /tmp/ccc9f5bX.s:849    .text:0000000000000374 .LVL76
     /tmp/ccc9f5bX.s:865    .text:0000000000000390 .LVL78
     /tmp/ccc9f5bX.s:873    .text:00000000000003a0 .LVL79
     /tmp/ccc9f5bX.s:527    .text:0000000000000298 .LVL46
     /tmp/ccc9f5bX.s:542    .text:00000000000002b4 .LVL47
     /tmp/ccc9f5bX.s:559    .text:00000000000002d4 .LVL50
     /tmp/ccc9f5bX.s:788    .text:000000000000030c .LVL71
     /tmp/ccc9f5bX.s:817    .text:0000000000000344 .LVL74
     /tmp/ccc9f5bX.s:397    .text:0000000000000214 .LVL38
     /tmp/ccc9f5bX.s:427    .text:0000000000000250 .LVL41
     /tmp/ccc9f5bX.s:913    .debug_info:0000000000000000 .Ldebug_info0
     /tmp/ccc9f5bX.s:5      .text:0000000000000000 .Ltext0
     /tmp/ccc9f5bX.s:906    .text:00000000000003cc .Letext0

UNDEFINED SYMBOLS
printer
_Z4putcc
_Z10time_sleepm
_ZN3stm4ntosExPci
_ZN3stm4utosEmPci
_Z9mem_allocm
_Z8sem_openPP3Semj
_ZN3Sem9_sem_waitEPS_
_Z8mem_freePv
_ZN3Sem11_sem_signalEPS_
