GAS LISTING /tmp/ccs5wqo0.s 			page 1


   1              		.file	"c_memory.cpp"
   2              		.option pic
   3              		.option norelax
   4              		.text
   5              	.Ltext0:
   6              		.align	2
   7              		.globl	_ZN9Allocator8mem_initEv
   9              	_ZN9Allocator8mem_initEv:
  10              	.LFB0:
  11              		.file 1 "src/c_memory.cpp"
   1:src/c_memory.cpp **** #include "../h/c_memory.hpp"
   2:src/c_memory.cpp **** #include "../h/iostream.hpp"
   3:src/c_memory.cpp **** 
   4:src/c_memory.cpp **** Allocator::MemoryBlock *Allocator::free_pointer = nullptr;
   5:src/c_memory.cpp **** 
   6:src/c_memory.cpp **** void Allocator::mem_init() {
  12              		.loc 1 6 28
  13              		.cfi_startproc
  14 0000 130101FF 		addi	sp,sp,-16
  15              		.cfi_def_cfa_offset 16
  16 0004 23348100 		sd	s0,8(sp)
  17              		.cfi_offset 8, -8
  18 0008 13040101 		addi	s0,sp,16
  19              		.cfi_def_cfa 8, 0
   7:src/c_memory.cpp ****     Allocator::free_pointer = (Allocator::MemoryBlock *) HEAP_START_ADDR;
  20              		.loc 1 7 5
  21              		.loc 1 7 29 is_stmt 0
  22 000c 97070000 		la	a5,HEAP_START_ADDR
  22      83B70700 
  23 0014 03B70700 		ld	a4,0(a5)
  24 0018 97070000 		sd	a4,.LANCHOR0,a5
  24      23B0E700 
   8:src/c_memory.cpp ****     *Allocator::free_pointer = {nullptr, reinterpret_cast<uint64>(HEAP_END_ADDR) -
  25              		.loc 1 8 5 is_stmt 1
  26              		.loc 1 8 82 is_stmt 0
  27 0020 97070000 		la	a5,HEAP_END_ADDR
  27      83B70700 
  28 0028 83B70700 		ld	a5,0(a5)
  29 002c B387E740 		sub	a5,a5,a4
   9:src/c_memory.cpp ****                                          reinterpret_cast<uint64>(HEAP_START_ADDR) - Allocator::HEA
  30              		.loc 1 9 84
  31 0030 938707FF 		addi	a5,a5,-16
   8:src/c_memory.cpp ****     *Allocator::free_pointer = {nullptr, reinterpret_cast<uint64>(HEAP_END_ADDR) -
  32              		.loc 1 8 30
  33 0034 23300700 		sd	zero,0(a4)
  34 0038 2334F700 		sd	a5,8(a4)
  10:src/c_memory.cpp **** }
  35              		.loc 1 10 1
  36 003c 03348100 		ld	s0,8(sp)
  37              		.cfi_restore 8
  38              		.cfi_def_cfa 2, 16
  39 0040 13010101 		addi	sp,sp,16
  40              		.cfi_def_cfa_offset 0
  41 0044 67800000 		jr	ra
  42              		.cfi_endproc
  43              	.LFE0:
  45              		.align	2
GAS LISTING /tmp/ccs5wqo0.s 			page 2


  46              		.globl	_ZN9Allocator10_mem_allocEm
  48              	_ZN9Allocator10_mem_allocEm:
  49              	.LFB1:
  11:src/c_memory.cpp **** 
  12:src/c_memory.cpp **** void *Allocator::_mem_alloc(size_t size) {
  50              		.loc 1 12 42 is_stmt 1
  51              		.cfi_startproc
  52              	.LVL0:
  53 0048 130101FF 		addi	sp,sp,-16
  54              		.cfi_def_cfa_offset 16
  55 004c 23348100 		sd	s0,8(sp)
  56              		.cfi_offset 8, -8
  57 0050 13040101 		addi	s0,sp,16
  58              		.cfi_def_cfa 8, 0
  59 0054 93070500 		mv	a5,a0
  13:src/c_memory.cpp ****     Allocator::MemoryBlock *available = Allocator::free_pointer, *previous = nullptr, *next_node;
  60              		.loc 1 13 5
  61              		.loc 1 13 29 is_stmt 0
  62 0058 17050000 		ld	a0,.LANCHOR0
  62      03350500 
  63              	.LVL1:
  14:src/c_memory.cpp ****     if (available && available->size < size) {
  64              		.loc 1 14 5 is_stmt 1
  65 0060 63080502 		beqz	a0,.L11
  66              		.loc 1 14 33 is_stmt 0 discriminator 1
  67 0064 03378500 		ld	a4,8(a0)
  68              		.loc 1 14 19 discriminator 1
  69 0068 6378F702 		bgeu	a4,a5,.L12
  15:src/c_memory.cpp ****         for (previous = available, available = available->next; available && available->size < size
  70              		.loc 1 15 9 is_stmt 1
  71              	.LVL2:
  72              		.loc 1 15 23 is_stmt 0
  73 006c 93060500 		mv	a3,a0
  74              		.loc 1 15 46
  75 0070 03350500 		ld	a0,0(a0)
  76              	.LVL3:
  77 0074 6F00C000 		j	.L5
  78              	.L14:
  79              		.loc 1 15 9 is_stmt 1 discriminator 3
  80              	.LVL4:
  16:src/c_memory.cpp ****              previous = available, available = available->next);
  81              		.loc 1 16 23 is_stmt 0 discriminator 3
  82 0078 93060500 		mv	a3,a0
  83              		.loc 1 16 46 discriminator 3
  84 007c 03350500 		ld	a0,0(a0)
  85              	.LVL5:
  86              	.L5:
  15:src/c_memory.cpp ****         for (previous = available, available = available->next; available && available->size < size
  87              		.loc 1 15 75 is_stmt 1 discriminator 1
  88 0080 630E0500 		beqz	a0,.L4
  15:src/c_memory.cpp ****         for (previous = available, available = available->next; available && available->size < size
  89              		.loc 1 15 89 is_stmt 0 discriminator 2
  90 0084 03378500 		ld	a4,8(a0)
  15:src/c_memory.cpp ****         for (previous = available, available = available->next; available && available->size < size
  91              		.loc 1 15 75 discriminator 2
  92 0088 E368F7FE 		bltu	a4,a5,.L14
  93 008c 6F000001 		j	.L4
GAS LISTING /tmp/ccs5wqo0.s 			page 3


  94              	.LVL6:
  95              	.L11:
  13:src/c_memory.cpp ****     if (available && available->size < size) {
  96              		.loc 1 13 67
  97 0090 93060500 		mv	a3,a0
  98 0094 6F008000 		j	.L4
  99              	.L12:
 100 0098 93060000 		li	a3,0
 101              	.LVL7:
 102              	.L4:
  17:src/c_memory.cpp ****     }
  18:src/c_memory.cpp ****     if (!available) return nullptr;
 103              		.loc 1 18 5 is_stmt 1
 104 009c 63040504 		beqz	a0,.L3
  19:src/c_memory.cpp ****     if (available->size > Allocator::HEADER_SIZE + size) {
 105              		.loc 1 19 5
 106              	.LBB15:
 107              		.loc 1 19 20 is_stmt 0
 108 00a0 03378500 		ld	a4,8(a0)
 109              		.loc 1 19 50
 110 00a4 13860701 		addi	a2,a5,16
 111              		.loc 1 19 5
 112 00a8 6374E604 		bleu	a4,a2,.L7
 113              	.LBB16:
  20:src/c_memory.cpp ****         uint64 next_size = available->size - size - Allocator::HEADER_SIZE;
 114              		.loc 1 20 9 is_stmt 1
 115              		.loc 1 20 44 is_stmt 0
 116 00ac 3307F740 		sub	a4,a4,a5
 117              		.loc 1 20 16
 118 00b0 130707FF 		addi	a4,a4,-16
 119              	.LVL8:
  21:src/c_memory.cpp ****         available->size = size;
 120              		.loc 1 21 9 is_stmt 1
 121              		.loc 1 21 25 is_stmt 0
 122 00b4 2334F500 		sd	a5,8(a0)
  22:src/c_memory.cpp ****         next_node = reinterpret_cast<Allocator::MemoryBlock *>(reinterpret_cast<uint64>(available) 
 123              		.loc 1 22 9 is_stmt 1
  23:src/c_memory.cpp ****                                                                Allocator::HEADER_SIZE + size);
 124              		.loc 1 23 87 is_stmt 0
 125 00b8 B307F500 		add	a5,a0,a5
 126              	.LVL9:
 127 00bc 13860701 		addi	a2,a5,16
 128              	.LVL10:
  24:src/c_memory.cpp ****         next_node->next = available->next;
 129              		.loc 1 24 9 is_stmt 1
 130              		.loc 1 24 38 is_stmt 0
 131 00c0 83350500 		ld	a1,0(a0)
 132              		.loc 1 24 25
 133 00c4 23B8B700 		sd	a1,16(a5)
 134              	.LVL11:
  25:src/c_memory.cpp ****         next_node->size = next_size;
 135              		.loc 1 25 9 is_stmt 1
 136              		.loc 1 25 25 is_stmt 0
 137 00c8 2334E600 		sd	a4,8(a2)
 138              	.LVL12:
 139              	.L8:
 140              	.LBE16:
GAS LISTING /tmp/ccs5wqo0.s 			page 4


 141              	.LBE15:
  26:src/c_memory.cpp ****     } else {
  27:src/c_memory.cpp ****         next_node = available->next;
  28:src/c_memory.cpp ****     }
  29:src/c_memory.cpp ****     available->next = reinterpret_cast<MemoryBlock *>(reinterpret_cast<uint64>(available) ^ availab
 142              		.loc 1 29 5 is_stmt 1
 143              		.loc 1 29 104 is_stmt 0
 144 00cc 83378500 		ld	a5,8(a0)
 145              		.loc 1 29 91
 146 00d0 B347F500 		xor	a5,a0,a5
 147              		.loc 1 29 21
 148 00d4 2330F500 		sd	a5,0(a0)
  30:src/c_memory.cpp ****     if (previous) previous->next = next_node;
 149              		.loc 1 30 5 is_stmt 1
 150 00d8 63800602 		beqz	a3,.L9
 151              		.loc 1 30 19 discriminator 1
 152              		.loc 1 30 34 is_stmt 0 discriminator 1
 153 00dc 23B0C600 		sd	a2,0(a3)
 154              	.L10:
  31:src/c_memory.cpp ****     else Allocator::free_pointer = next_node;
  32:src/c_memory.cpp ****     return (void *) (available + 1);
 155              		.loc 1 32 5 is_stmt 1
 156              		.loc 1 32 35 is_stmt 0
 157 00e0 13050501 		addi	a0,a0,16
 158              	.LVL13:
 159              	.L3:
  33:src/c_memory.cpp **** }
 160              		.loc 1 33 1
 161 00e4 03348100 		ld	s0,8(sp)
 162              		.cfi_remember_state
 163              		.cfi_restore 8
 164              		.cfi_def_cfa 2, 16
 165 00e8 13010101 		addi	sp,sp,16
 166              		.cfi_def_cfa_offset 0
 167 00ec 67800000 		jr	ra
 168              	.LVL14:
 169              	.L7:
 170              		.cfi_restore_state
 171              	.LBB17:
  27:src/c_memory.cpp ****     }
 172              		.loc 1 27 9 is_stmt 1
  27:src/c_memory.cpp ****     }
 173              		.loc 1 27 19 is_stmt 0
 174 00f0 03360500 		ld	a2,0(a0)
 175              	.LVL15:
 176 00f4 6FF09FFD 		j	.L8
 177              	.LVL16:
 178              	.L9:
 179              	.LBE17:
  31:src/c_memory.cpp ****     else Allocator::free_pointer = next_node;
 180              		.loc 1 31 10 is_stmt 1
  31:src/c_memory.cpp ****     else Allocator::free_pointer = next_node;
 181              		.loc 1 31 34 is_stmt 0
 182 00f8 97070000 		sd	a2,.LANCHOR0,a5
 182      23B0C700 
 183 0100 6FF01FFE 		j	.L10
 184              		.cfi_endproc
GAS LISTING /tmp/ccs5wqo0.s 			page 5


 185              	.LFE1:
 187              		.align	2
 188              		.globl	_ZN9Allocator9_mem_freeEPKv
 190              	_ZN9Allocator9_mem_freeEPKv:
 191              	.LFB2:
  34:src/c_memory.cpp **** 
  35:src/c_memory.cpp **** int Allocator::_mem_free(const void *pointer) {
 192              		.loc 1 35 47 is_stmt 1
 193              		.cfi_startproc
 194              	.LVL17:
 195 0104 130101FF 		addi	sp,sp,-16
 196              		.cfi_def_cfa_offset 16
 197 0108 23348100 		sd	s0,8(sp)
 198              		.cfi_offset 8, -8
 199 010c 13040101 		addi	s0,sp,16
 200              		.cfi_def_cfa 8, 0
  36:src/c_memory.cpp ****     Allocator::MemoryBlock *freed = (Allocator::MemoryBlock *) pointer - 1;
 201              		.loc 1 36 5
 202              		.loc 1 36 29 is_stmt 0
 203 0110 930605FF 		addi	a3,a0,-16
 204              	.LVL18:
  37:src/c_memory.cpp ****     if (freed < HEAP_START_ADDR) return -1;
 205              		.loc 1 37 5 is_stmt 1
 206              		.loc 1 37 15 is_stmt 0
 207 0114 97070000 		la	a5,HEAP_START_ADDR
 207      83B70700 
 208 011c 83B70700 		ld	a5,0(a5)
 209              		.loc 1 37 5
 210 0120 63ECF60C 		bgtu	a5,a3,.L24
  38:src/c_memory.cpp ****     if (freed->next != reinterpret_cast<MemoryBlock *>(reinterpret_cast<uint64>(freed) ^ freed->siz
 211              		.loc 1 38 5 is_stmt 1
 212              		.loc 1 38 16 is_stmt 0
 213 0124 033705FF 		ld	a4,-16(a0)
 214              		.loc 1 38 97
 215 0128 833785FF 		ld	a5,-8(a0)
 216              		.loc 1 38 88
 217 012c 13880600 		mv	a6,a3
 218 0130 B3C7D700 		xor	a5,a5,a3
 219              		.loc 1 38 5
 220 0134 6316F70C 		bne	a4,a5,.L25
  39:src/c_memory.cpp ****     Allocator::MemoryBlock *previous = Allocator::free_pointer, *next_node;
 221              		.loc 1 39 5 is_stmt 1
 222              		.loc 1 39 29 is_stmt 0
 223 0138 17070000 		ld	a4,.LANCHOR0
 223      03370700 
 224              	.LVL19:
  40:src/c_memory.cpp ****     if (freed < Allocator::free_pointer) {
 225              		.loc 1 40 5 is_stmt 1
 226 0140 63FEE604 		bgeu	a3,a4,.L17
  41:src/c_memory.cpp ****         next_node = Allocator::free_pointer;
 227              		.loc 1 41 9
 228              	.LVL20:
  42:src/c_memory.cpp ****         Allocator::free_pointer = freed;
 229              		.loc 1 42 9
 230              		.loc 1 42 33 is_stmt 0
 231 0144 97070000 		sd	a3,.LANCHOR0,a5
 231      23B0D700 
GAS LISTING /tmp/ccs5wqo0.s 			page 6


  43:src/c_memory.cpp ****         previous = nullptr;
 232              		.loc 1 43 9 is_stmt 1
 233              	.LVL21:
  41:src/c_memory.cpp ****         next_node = Allocator::free_pointer;
 234              		.loc 1 41 19 is_stmt 0
 235 014c 93070700 		mv	a5,a4
 236              		.loc 1 43 18
 237 0150 13070000 		li	a4,0
 238              	.LVL22:
 239              	.L18:
  44:src/c_memory.cpp ****     } else {
  45:src/c_memory.cpp ****         for (next_node = previous->next; next_node && !(previous < freed && next_node > freed);
  46:src/c_memory.cpp ****              previous = next_node, next_node = next_node->next);
  47:src/c_memory.cpp ****     }
  48:src/c_memory.cpp ****     Allocator::merge(freed, next_node);
 240              		.loc 1 48 5 is_stmt 1
 241              	.LBB18:
 242              	.LBB19:
  49:src/c_memory.cpp ****     Allocator::merge(previous, freed);
  50:src/c_memory.cpp ****     return 0;
  51:src/c_memory.cpp **** }
  52:src/c_memory.cpp **** 
  53:src/c_memory.cpp **** inline bool Allocator::adjacent(Allocator::MemoryBlock *block1, Allocator::MemoryBlock *block2) {
  54:src/c_memory.cpp ****     return reinterpret_cast<uint64>(block1) + Allocator::HEADER_SIZE + block1->size == reinterpret_
  55:src/c_memory.cpp **** }
  56:src/c_memory.cpp **** 
  57:src/c_memory.cpp **** inline void Allocator::merge(MemoryBlock *block1, MemoryBlock *block2) {
  58:src/c_memory.cpp ****     if (!block1) return;
 243              		.loc 1 58 5
 244 0154 638E0600 		beqz	a3,.L21
  59:src/c_memory.cpp ****     if (block2 && Allocator::adjacent(block1, block2)) {
 245              		.loc 1 59 5
 246              		.loc 1 59 16 is_stmt 0
 247 0158 638A0700 		beqz	a5,.L22
 248              	.LVL23:
 249              	.LBB20:
 250              	.LBB21:
  54:src/c_memory.cpp **** }
 251              		.loc 1 54 5 is_stmt 1
  54:src/c_memory.cpp **** }
 252              		.loc 1 54 80 is_stmt 0
 253 015c 833585FF 		ld	a1,-8(a0)
  54:src/c_memory.cpp **** }
 254              		.loc 1 54 70
 255 0160 3386B600 		add	a2,a3,a1
 256 0164 13060601 		addi	a2,a2,16
 257              	.LVL24:
 258              	.LBE21:
 259              	.LBE20:
 260              		.loc 1 59 16
 261 0168 630AF604 		beq	a2,a5,.L28
 262              	.L22:
  60:src/c_memory.cpp ****         block1->next = block2->next;
  61:src/c_memory.cpp ****         block1->size += Allocator::HEADER_SIZE + block2->size;
  62:src/c_memory.cpp ****     } else {
  63:src/c_memory.cpp ****         block1->next = block2;
 263              		.loc 1 63 9 is_stmt 1
GAS LISTING /tmp/ccs5wqo0.s 			page 7


 264              		.loc 1 63 22 is_stmt 0
 265 016c 2338F5FE 		sd	a5,-16(a0)
 266              	.LVL25:
 267              	.L21:
 268              	.LBE19:
 269              	.LBE18:
  49:src/c_memory.cpp ****     return 0;
 270              		.loc 1 49 5 is_stmt 1
 271              	.LBB23:
 272              	.LBB24:
  58:src/c_memory.cpp ****     if (block2 && Allocator::adjacent(block1, block2)) {
 273              		.loc 1 58 5
 274 0170 630C0708 		beqz	a4,.L26
  59:src/c_memory.cpp ****         block1->next = block2->next;
 275              		.loc 1 59 5
  59:src/c_memory.cpp ****         block1->next = block2->next;
 276              		.loc 1 59 16 is_stmt 0
 277 0174 638A0600 		beqz	a3,.L23
 278              	.LVL26:
 279              	.LBB25:
 280              	.LBB26:
  54:src/c_memory.cpp **** }
 281              		.loc 1 54 5 is_stmt 1
  54:src/c_memory.cpp **** }
 282              		.loc 1 54 80 is_stmt 0
 283 0178 03368700 		ld	a2,8(a4)
  54:src/c_memory.cpp **** }
 284              		.loc 1 54 70
 285 017c B307C700 		add	a5,a4,a2
 286 0180 93870701 		addi	a5,a5,16
 287              	.LVL27:
 288              	.LBE26:
 289              	.LBE25:
  59:src/c_memory.cpp ****         block1->next = block2->next;
 290              		.loc 1 59 16
 291 0184 630AF804 		beq	a6,a5,.L29
 292              	.L23:
 293              		.loc 1 63 9 is_stmt 1
 294              		.loc 1 63 22 is_stmt 0
 295 0188 2330D700 		sd	a3,0(a4)
 296              	.LBE24:
 297              	.LBE23:
  50:src/c_memory.cpp **** }
 298              		.loc 1 50 12
 299 018c 13050000 		li	a0,0
 300              	.LVL28:
 301              	.L16:
  51:src/c_memory.cpp **** 
 302              		.loc 1 51 1
 303 0190 03348100 		ld	s0,8(sp)
 304              		.cfi_remember_state
 305              		.cfi_restore 8
 306              		.cfi_def_cfa 2, 16
 307 0194 13010101 		addi	sp,sp,16
 308              		.cfi_def_cfa_offset 0
 309 0198 67800000 		jr	ra
 310              	.LVL29:
GAS LISTING /tmp/ccs5wqo0.s 			page 8


 311              	.L17:
 312              		.cfi_restore_state
  45:src/c_memory.cpp ****              previous = next_node, next_node = next_node->next);
 313              		.loc 1 45 9 is_stmt 1
  45:src/c_memory.cpp ****              previous = next_node, next_node = next_node->next);
 314              		.loc 1 45 24 is_stmt 0
 315 019c 83370700 		ld	a5,0(a4)
 316              	.LVL30:
 317 01a0 6F00C000 		j	.L20
 318              	.L19:
  45:src/c_memory.cpp ****              previous = next_node, next_node = next_node->next);
 319              		.loc 1 45 9 is_stmt 1 discriminator 5
 320              	.LVL31:
  46:src/c_memory.cpp ****     }
 321              		.loc 1 46 23 is_stmt 0 discriminator 5
 322 01a4 13870700 		mv	a4,a5
  46:src/c_memory.cpp ****     }
 323              		.loc 1 46 46 discriminator 5
 324 01a8 83B70700 		ld	a5,0(a5)
 325              	.LVL32:
 326              	.L20:
  45:src/c_memory.cpp ****              previous = next_node, next_node = next_node->next);
 327              		.loc 1 45 52 is_stmt 1 discriminator 1
 328 01ac E38407FA 		beqz	a5,.L18
  45:src/c_memory.cpp ****              previous = next_node, next_node = next_node->next);
 329              		.loc 1 45 52 is_stmt 0 discriminator 2
 330 01b0 E37AD7FE 		bgeu	a4,a3,.L19
  45:src/c_memory.cpp ****              previous = next_node, next_node = next_node->next);
 331              		.loc 1 45 55 discriminator 3
 332 01b4 E3F8F6FE 		bleu	a5,a3,.L19
 333 01b8 6FF0DFF9 		j	.L18
 334              	.LVL33:
 335              	.L28:
 336              	.LBB29:
 337              	.LBB22:
  60:src/c_memory.cpp ****         block1->size += Allocator::HEADER_SIZE + block2->size;
 338              		.loc 1 60 9 is_stmt 1
  60:src/c_memory.cpp ****         block1->size += Allocator::HEADER_SIZE + block2->size;
 339              		.loc 1 60 32 is_stmt 0
 340 01bc 03B60700 		ld	a2,0(a5)
  60:src/c_memory.cpp ****         block1->size += Allocator::HEADER_SIZE + block2->size;
 341              		.loc 1 60 22
 342 01c0 2338C5FE 		sd	a2,-16(a0)
  61:src/c_memory.cpp ****     } else {
 343              		.loc 1 61 9 is_stmt 1
  61:src/c_memory.cpp ****     } else {
 344              		.loc 1 61 58 is_stmt 0
 345 01c4 83B78700 		ld	a5,8(a5)
 346              	.LVL34:
  61:src/c_memory.cpp ****     } else {
 347              		.loc 1 61 22
 348 01c8 B385F500 		add	a1,a1,a5
 349 01cc 93850501 		addi	a1,a1,16
 350 01d0 233CB5FE 		sd	a1,-8(a0)
 351 01d4 6FF0DFF9 		j	.L21
 352              	.LVL35:
 353              	.L29:
GAS LISTING /tmp/ccs5wqo0.s 			page 9


 354              	.LBE22:
 355              	.LBE29:
 356              	.LBB30:
 357              	.LBB27:
  60:src/c_memory.cpp ****         block1->size += Allocator::HEADER_SIZE + block2->size;
 358              		.loc 1 60 9 is_stmt 1
  60:src/c_memory.cpp ****         block1->size += Allocator::HEADER_SIZE + block2->size;
 359              		.loc 1 60 32 is_stmt 0
 360 01d8 833705FF 		ld	a5,-16(a0)
  60:src/c_memory.cpp ****         block1->size += Allocator::HEADER_SIZE + block2->size;
 361              		.loc 1 60 22
 362 01dc 2330F700 		sd	a5,0(a4)
  61:src/c_memory.cpp ****     } else {
 363              		.loc 1 61 9 is_stmt 1
  61:src/c_memory.cpp ****     } else {
 364              		.loc 1 61 58 is_stmt 0
 365 01e0 833785FF 		ld	a5,-8(a0)
  61:src/c_memory.cpp ****     } else {
 366              		.loc 1 61 22
 367 01e4 3306F600 		add	a2,a2,a5
 368 01e8 13060601 		addi	a2,a2,16
 369 01ec 2334C700 		sd	a2,8(a4)
 370              	.LBE27:
 371              	.LBE30:
  50:src/c_memory.cpp **** }
 372              		.loc 1 50 12
 373 01f0 13050000 		li	a0,0
 374              	.LVL36:
 375              	.LBB31:
 376              	.LBB28:
 377 01f4 6FF0DFF9 		j	.L16
 378              	.LVL37:
 379              	.L24:
 380              	.LBE28:
 381              	.LBE31:
  37:src/c_memory.cpp ****     if (freed->next != reinterpret_cast<MemoryBlock *>(reinterpret_cast<uint64>(freed) ^ freed->siz
 382              		.loc 1 37 42
 383 01f8 1305F0FF 		li	a0,-1
 384              	.LVL38:
 385 01fc 6FF05FF9 		j	.L16
 386              	.LVL39:
 387              	.L25:
  38:src/c_memory.cpp ****     Allocator::MemoryBlock *previous = Allocator::free_pointer, *next_node;
 388              		.loc 1 38 112
 389 0200 1305E0FF 		li	a0,-2
 390              	.LVL40:
 391 0204 6FF0DFF8 		j	.L16
 392              	.LVL41:
 393              	.L26:
  50:src/c_memory.cpp **** }
 394              		.loc 1 50 12
 395 0208 13050000 		li	a0,0
 396              	.LVL42:
 397 020c 6FF05FF8 		j	.L16
 398              		.cfi_endproc
 399              	.LFE2:
 401              		.align	2
GAS LISTING /tmp/ccs5wqo0.s 			page 10


 402              		.globl	_ZN9Allocator9mem_checkEv
 404              	_ZN9Allocator9mem_checkEv:
 405              	.LFB5:
  64:src/c_memory.cpp ****     }
  65:src/c_memory.cpp **** }
  66:src/c_memory.cpp **** 
  67:src/c_memory.cpp **** __attribute__((unused))
  68:src/c_memory.cpp **** bool Allocator::mem_check() {
 406              		.loc 1 68 29 is_stmt 1
 407              		.cfi_startproc
 408 0210 130101FF 		addi	sp,sp,-16
 409              		.cfi_def_cfa_offset 16
 410 0214 23348100 		sd	s0,8(sp)
 411              		.cfi_offset 8, -8
 412 0218 13040101 		addi	s0,sp,16
 413              		.cfi_def_cfa 8, 0
  69:src/c_memory.cpp ****     for (Allocator::MemoryBlock *curr = Allocator::free_pointer; curr->next; curr = curr->next) {
 414              		.loc 1 69 5
 415              	.LBB32:
 416              		.loc 1 69 34 is_stmt 0
 417 021c 17070000 		ld	a4,.LANCHOR0
 417      03370700 
 418              	.LVL43:
 419              	.L32:
 420              		.loc 1 69 72 is_stmt 1 discriminator 1
 421 0224 93070700 		mv	a5,a4
 422 0228 03370700 		ld	a4,0(a4)
 423              	.LVL44:
 424 022c 630E0700 		beqz	a4,.L33
  70:src/c_memory.cpp ****         if (Allocator::adjacent(curr, curr->next)) return false;
 425              		.loc 1 70 9
 426              	.LVL45:
 427              	.LBB33:
 428              	.LBB34:
  54:src/c_memory.cpp **** }
 429              		.loc 1 54 5
  54:src/c_memory.cpp **** }
 430              		.loc 1 54 80 is_stmt 0
 431 0230 83B68700 		ld	a3,8(a5)
  54:src/c_memory.cpp **** }
 432              		.loc 1 54 70
 433 0234 B387D700 		add	a5,a5,a3
 434              	.LVL46:
 435 0238 93870701 		addi	a5,a5,16
 436              	.LVL47:
 437              	.LBE34:
 438              	.LBE33:
 439              		.loc 1 70 9
 440 023c E394E7FE 		bne	a5,a4,.L32
 441              		.loc 1 70 59
 442 0240 13050000 		li	a0,0
 443 0244 6F008000 		j	.L31
 444              	.LVL48:
 445              	.L33:
 446              	.LBE32:
  71:src/c_memory.cpp ****     }
  72:src/c_memory.cpp ****     return true;
GAS LISTING /tmp/ccs5wqo0.s 			page 11


 447              		.loc 1 72 12
 448 0248 13051000 		li	a0,1
 449              	.LVL49:
 450              	.L31:
  73:src/c_memory.cpp **** }
 451              		.loc 1 73 1
 452 024c 03348100 		ld	s0,8(sp)
 453              		.cfi_restore 8
 454              		.cfi_def_cfa 2, 16
 455 0250 13010101 		addi	sp,sp,16
 456              		.cfi_def_cfa_offset 0
 457 0254 67800000 		jr	ra
 458              		.cfi_endproc
 459              	.LFE5:
 461              		.align	2
 462              		.globl	_ZN9Allocator8mem_showEv
 464              	_ZN9Allocator8mem_showEv:
 465              	.LFB6:
  74:src/c_memory.cpp **** 
  75:src/c_memory.cpp **** __attribute__((unused))
  76:src/c_memory.cpp **** void Allocator::mem_show() {
 466              		.loc 1 76 28 is_stmt 1
 467              		.cfi_startproc
 468 0258 130101FE 		addi	sp,sp,-32
 469              		.cfi_def_cfa_offset 32
 470 025c 233C1100 		sd	ra,24(sp)
 471 0260 23388100 		sd	s0,16(sp)
 472 0264 23349100 		sd	s1,8(sp)
 473              		.cfi_offset 1, -8
 474              		.cfi_offset 8, -16
 475              		.cfi_offset 9, -24
 476 0268 13040102 		addi	s0,sp,32
 477              		.cfi_def_cfa 8, 0
  77:src/c_memory.cpp ****     for (Allocator::MemoryBlock *curr = Allocator::free_pointer; curr->next; curr = curr->next) {
 478              		.loc 1 77 5
 479              	.LBB35:
 480              		.loc 1 77 34 is_stmt 0
 481 026c 97040000 		ld	s1,.LANCHOR0
 481      83B40400 
 482              	.LVL50:
 483              	.L37:
 484              		.loc 1 77 72 is_stmt 1 discriminator 3
 485 0274 83B70400 		ld	a5,0(s1)
 486 0278 638E0704 		beqz	a5,.L35
  78:src/c_memory.cpp ****         stm::cout << curr << stm::endl << curr->next << stm::endl << stm::endl;
 487              		.loc 1 78 9 discriminator 2
 488              		.loc 1 78 22 is_stmt 0 discriminator 2
 489 027c 93850400 		mv	a1,s1
 490 0280 17050000 		la	a0,_ZN3stm4coutE
 490      03350500 
 491 0288 97000000 		call	_ZNK3stm7istreamlsEPv@plt
 491      E7800000 
 492              	.LVL51:
 493              		.loc 1 78 35 discriminator 2
 494 0290 97050000 		la	a1,_ZN3stm4endlE
 494      83B50500 
 495 0298 97000000 		call	_ZNK3stm7istreamlsERKNS_7endlineE@plt
GAS LISTING /tmp/ccs5wqo0.s 			page 12


 495      E7800000 
 496              	.LVL52:
 497              		.loc 1 78 49 discriminator 2
 498 02a0 83B50400 		ld	a1,0(s1)
 499 02a4 97000000 		call	_ZNK3stm7istreamlsEPv@plt
 499      E7800000 
 500              	.LVL53:
 501              		.loc 1 78 62 discriminator 2
 502 02ac 97050000 		la	a1,_ZN3stm4endlE
 502      83B50500 
 503 02b4 97000000 		call	_ZNK3stm7istreamlsERKNS_7endlineE@plt
 503      E7800000 
 504              	.LVL54:
 505              		.loc 1 78 75 discriminator 2
 506 02bc 97050000 		la	a1,_ZN3stm4endlE
 506      83B50500 
 507 02c4 97000000 		call	_ZNK3stm7istreamlsERKNS_7endlineE@plt
 507      E7800000 
 508              	.LVL55:
  77:src/c_memory.cpp ****     for (Allocator::MemoryBlock *curr = Allocator::free_pointer; curr->next; curr = curr->next) {
 509              		.loc 1 77 5 is_stmt 1 discriminator 2
  77:src/c_memory.cpp ****     for (Allocator::MemoryBlock *curr = Allocator::free_pointer; curr->next; curr = curr->next) {
 510              		.loc 1 77 83 is_stmt 0 discriminator 2
 511 02cc 83B40400 		ld	s1,0(s1)
 512              	.LVL56:
  77:src/c_memory.cpp ****     for (Allocator::MemoryBlock *curr = Allocator::free_pointer; curr->next; curr = curr->next) {
 513              		.loc 1 77 5 discriminator 2
 514 02d0 6FF05FFA 		j	.L37
 515              	.L35:
 516              	.LBE35:
  79:src/c_memory.cpp ****     }
  80:src/c_memory.cpp **** }
 517              		.loc 1 80 1
 518 02d4 83308101 		ld	ra,24(sp)
 519              		.cfi_restore 1
 520 02d8 03340101 		ld	s0,16(sp)
 521              		.cfi_restore 8
 522              		.cfi_def_cfa 2, 32
 523 02dc 83348100 		ld	s1,8(sp)
 524              		.cfi_restore 9
 525              	.LVL57:
 526 02e0 13010102 		addi	sp,sp,32
 527              		.cfi_def_cfa_offset 0
 528 02e4 67800000 		jr	ra
 529              		.cfi_endproc
 530              	.LFE6:
 532              		.align	2
 533              		.globl	_ZN9Allocator8mem_sizeEv
 535              	_ZN9Allocator8mem_sizeEv:
 536              	.LFB7:
  81:src/c_memory.cpp **** 
  82:src/c_memory.cpp **** __attribute__((unused))
  83:src/c_memory.cpp **** int Allocator::mem_size() {
 537              		.loc 1 83 27 is_stmt 1
 538              		.cfi_startproc
 539 02e8 130101FF 		addi	sp,sp,-16
 540              		.cfi_def_cfa_offset 16
GAS LISTING /tmp/ccs5wqo0.s 			page 13


 541 02ec 23348100 		sd	s0,8(sp)
 542              		.cfi_offset 8, -8
 543 02f0 13040101 		addi	s0,sp,16
 544              		.cfi_def_cfa 8, 0
  84:src/c_memory.cpp ****     int i = 0;
 545              		.loc 1 84 5
 546              	.LVL58:
  85:src/c_memory.cpp ****     for (Allocator::MemoryBlock *curr = Allocator::free_pointer; curr; i += curr->size, curr = curr
 547              		.loc 1 85 5
 548              	.LBB36:
 549              		.loc 1 85 34 is_stmt 0
 550 02f4 97070000 		ld	a5,.LANCHOR0
 550      83B70700 
 551              	.LVL59:
 552              	.LBE36:
  84:src/c_memory.cpp ****     int i = 0;
 553              		.loc 1 84 9
 554 02fc 13050000 		li	a0,0
 555              	.LVL60:
 556              	.L41:
 557              	.LBB37:
 558              		.loc 1 85 66 is_stmt 1 discriminator 3
 559 0300 638A0700 		beqz	a5,.L40
 560              		.loc 1 85 5 discriminator 2
 561              		.loc 1 85 83 is_stmt 0 discriminator 2
 562 0304 03B78700 		ld	a4,8(a5)
 563              		.loc 1 85 74 discriminator 2
 564 0308 3B05A700 		addw	a0,a4,a0
 565              	.LVL61:
 566              		.loc 1 85 94 discriminator 2
 567 030c 83B70700 		ld	a5,0(a5)
 568              	.LVL62:
 569              		.loc 1 85 5 discriminator 2
 570 0310 6FF01FFF 		j	.L41
 571              	.LVL63:
 572              	.L40:
 573              	.LBE37:
  86:src/c_memory.cpp ****     return i;
 574              		.loc 1 86 5 is_stmt 1
  87:src/c_memory.cpp **** }
 575              		.loc 1 87 1 is_stmt 0
 576 0314 03348100 		ld	s0,8(sp)
 577              		.cfi_restore 8
 578              		.cfi_def_cfa 2, 16
 579 0318 13010101 		addi	sp,sp,16
 580              		.cfi_def_cfa_offset 0
 581 031c 67800000 		jr	ra
 582              		.cfi_endproc
 583              	.LFE7:
 585              		.align	2
 586              		.globl	_Z6memcpyPKvS0_i
 588              	_Z6memcpyPKvS0_i:
 589              	.LFB8:
  88:src/c_memory.cpp **** 
  89:src/c_memory.cpp **** void memcpy(const void *src, const void *dst, int len) {
 590              		.loc 1 89 56 is_stmt 1
 591              		.cfi_startproc
GAS LISTING /tmp/ccs5wqo0.s 			page 14


 592              	.LVL64:
 593 0320 130101FF 		addi	sp,sp,-16
 594              		.cfi_def_cfa_offset 16
 595 0324 23348100 		sd	s0,8(sp)
 596              		.cfi_offset 8, -8
 597 0328 13040101 		addi	s0,sp,16
 598              		.cfi_def_cfa 8, 0
  90:src/c_memory.cpp ****     char *src1 = (char *) src;
 599              		.loc 1 90 5
 600              	.LVL65:
  91:src/c_memory.cpp ****     char *dst1 = (char *) dst;
 601              		.loc 1 91 5
  92:src/c_memory.cpp ****     for (int i = 0; i < len; i++)
 602              		.loc 1 92 5
 603              	.LBB38:
 604              		.loc 1 92 14 is_stmt 0
 605 032c 93070000 		li	a5,0
 606              	.LVL66:
 607              	.L45:
 608              		.loc 1 92 23 is_stmt 1 discriminator 3
 609 0330 63DEC700 		bge	a5,a2,.L43
  93:src/c_memory.cpp ****         dst1[i] = src1[i];
 610              		.loc 1 93 9 discriminator 2
 611              		.loc 1 93 15 is_stmt 0 discriminator 2
 612 0334 3387F500 		add	a4,a1,a5
 613              		.loc 1 93 25 discriminator 2
 614 0338 B306F500 		add	a3,a0,a5
 615 033c 83C60600 		lbu	a3,0(a3)
 616              		.loc 1 93 17 discriminator 2
 617 0340 2300D700 		sb	a3,0(a4)
  92:src/c_memory.cpp ****     for (int i = 0; i < len; i++)
 618              		.loc 1 92 5 is_stmt 1 discriminator 2
 619 0344 9B871700 		addiw	a5,a5,1
 620              	.LVL67:
 621 0348 6FF09FFE 		j	.L45
 622              	.LVL68:
 623              	.L43:
 624              	.LBE38:
  94:src/c_memory.cpp **** }...
 625              		.loc 1 94 1 is_stmt 0
 626 034c 03348100 		ld	s0,8(sp)
 627              		.cfi_restore 8
 628              		.cfi_def_cfa 2, 16
 629 0350 13010101 		addi	sp,sp,16
 630              		.cfi_def_cfa_offset 0
 631 0354 67800000 		jr	ra
 632              		.cfi_endproc
 633              	.LFE8:
 635              		.globl	_ZN9Allocator12free_pointerE
 636              		.bss
 637              		.align	3
 638              		.set	.LANCHOR0,. + 0
 641              	_ZN9Allocator12free_pointerE:
 642 0000 00000000 		.zero	8
 642      00000000 
 643              		.text
 644              	.Letext0:
GAS LISTING /tmp/ccs5wqo0.s 			page 15


 645              		.file 2 "src/../h/../lib/hw.h"
 646              		.file 3 "src/../h/c_memory.hpp"
 647              		.file 4 "src/../h/iostream.hpp"
 648              		.file 5 "src/../h/syscall_c.hpp"
GAS LISTING /tmp/ccs5wqo0.s 			page 16

