GAS LISTING /tmp/cco8gpQA.s 			page 1


   1              		.file	"c_semaphore.cpp"
   2              		.option pic
   3              		.option norelax
   4              		.text
   5              	.Ltext0:
   6              		.section	.text._ZN3stm14CircularBufferIP3TCBE4initEv,"axG",@progbits,_ZN3stm14CircularBufferIP3TCB
   7              		.align	2
   8              		.weak	_ZN3stm14CircularBufferIP3TCBE4initEv
  10              	_ZN3stm14CircularBufferIP3TCBE4initEv:
  11              	.LFB28:
  12              		.file 1 "src/../h/circular_buffer.hpp"
   1:src/../h/circular_buffer.hpp **** #ifndef PROJECT_BASE_CIRCULAR_BUFFER_HPP
   2:src/../h/circular_buffer.hpp **** #define PROJECT_BASE_CIRCULAR_BUFFER_HPP
   3:src/../h/circular_buffer.hpp **** 
   4:src/../h/circular_buffer.hpp **** #include "syscall_c.hpp"
   5:src/../h/circular_buffer.hpp **** #include "c_memory.hpp"
   6:src/../h/circular_buffer.hpp **** 
   7:src/../h/circular_buffer.hpp **** namespace stm {
   8:src/../h/circular_buffer.hpp ****     template<typename T>
   9:src/../h/circular_buffer.hpp ****     class CircularBuffer {
  10:src/../h/circular_buffer.hpp ****     public:
  11:src/../h/circular_buffer.hpp **** 
  12:src/../h/circular_buffer.hpp ****         void init();
  13:src/../h/circular_buffer.hpp **** 
  14:src/../h/circular_buffer.hpp ****         void put(T);
  15:src/../h/circular_buffer.hpp **** 
  16:src/../h/circular_buffer.hpp ****         T get();
  17:src/../h/circular_buffer.hpp **** 
  18:src/../h/circular_buffer.hpp ****         T &peek();
  19:src/../h/circular_buffer.hpp **** 
  20:src/../h/circular_buffer.hpp ****         inline bool is_empty() const { return this->size == 0; }
  21:src/../h/circular_buffer.hpp **** 
  22:src/../h/circular_buffer.hpp ****         void destroy();
  23:src/../h/circular_buffer.hpp **** 
  24:src/../h/circular_buffer.hpp ****     private:
  25:src/../h/circular_buffer.hpp **** 
  26:src/../h/circular_buffer.hpp ****         void extend();
  27:src/../h/circular_buffer.hpp **** 
  28:src/../h/circular_buffer.hpp ****         static int constexpr CAPACITY = 16;
  29:src/../h/circular_buffer.hpp ****         T *queue;
  30:src/../h/circular_buffer.hpp ****         int head;
  31:src/../h/circular_buffer.hpp ****         int tail;
  32:src/../h/circular_buffer.hpp ****         int size;
  33:src/../h/circular_buffer.hpp ****         int capacity;
  34:src/../h/circular_buffer.hpp ****     };
  35:src/../h/circular_buffer.hpp **** }
  36:src/../h/circular_buffer.hpp **** 
  37:src/../h/circular_buffer.hpp **** template<typename T>
  38:src/../h/circular_buffer.hpp **** void stm::CircularBuffer<T>::init() {
  13              		.loc 1 38 6
  14              		.cfi_startproc
  15              	.LVL0:
  16 0000 130101FE 		addi	sp,sp,-32
  17              		.cfi_def_cfa_offset 32
  18 0004 233C1100 		sd	ra,24(sp)
  19 0008 23388100 		sd	s0,16(sp)
  20 000c 23349100 		sd	s1,8(sp)
GAS LISTING /tmp/cco8gpQA.s 			page 2


  21              		.cfi_offset 1, -8
  22              		.cfi_offset 8, -16
  23              		.cfi_offset 9, -24
  24 0010 13040102 		addi	s0,sp,32
  25              		.cfi_def_cfa 8, 0
  26 0014 93040500 		mv	s1,a0
  39:src/../h/circular_buffer.hpp ****     this->head = 0;
  27              		.loc 1 39 5 is_stmt 0
  28 0018 23240500 		sw	zero,8(a0)
  40:src/../h/circular_buffer.hpp ****     this->tail = 0;
  29              		.loc 1 40 5
  30 001c 23260500 		sw	zero,12(a0)
  41:src/../h/circular_buffer.hpp ****     this->size = 0;
  31              		.loc 1 41 5
  32 0020 23280500 		sw	zero,16(a0)
  42:src/../h/circular_buffer.hpp ****     this->capacity = CAPACITY;
  33              		.loc 1 42 5
  34 0024 93070001 		li	a5,16
  35 0028 232AF500 		sw	a5,20(a0)
  43:src/../h/circular_buffer.hpp ****     this->queue = (T *) mem_alloc(sizeof(T) * CAPACITY);
  36              		.loc 1 43 34
  37 002c 13050008 		li	a0,128
  38              	.LVL1:
  39 0030 97000000 		call	_Z9mem_allocm@plt
  39      E7800000 
  40              	.LVL2:
  41              		.loc 1 43 5
  42 0038 23B0A400 		sd	a0,0(s1)
  44:src/../h/circular_buffer.hpp **** }
  43              		.loc 1 44 1
  44 003c 83308101 		ld	ra,24(sp)
  45              		.cfi_restore 1
  46 0040 03340101 		ld	s0,16(sp)
  47              		.cfi_restore 8
  48              		.cfi_def_cfa 2, 32
  49 0044 83348100 		ld	s1,8(sp)
  50              		.cfi_restore 9
  51              	.LVL3:
  52 0048 13010102 		addi	sp,sp,32
  53              		.cfi_def_cfa_offset 0
  54 004c 67800000 		jr	ra
  55              		.cfi_endproc
  56              	.LFE28:
  58              		.text
  59              		.align	2
  60              		.globl	_ZN3Sem9_sem_openEPPS_j
  62              	_ZN3Sem9_sem_openEPPS_j:
  63              	.LFB24:
  64              		.file 2 "src/c_semaphore.cpp"
   1:src/c_semaphore.cpp **** #include "../h/c_semaphore.hpp"
   2:src/c_semaphore.cpp **** #include "../h/c_thread.hpp"
   3:src/c_semaphore.cpp **** #include "../h/scheduler.hpp"
   4:src/c_semaphore.cpp **** 
   5:src/c_semaphore.cpp **** int Sem::_sem_open(sem_t *handle, unsigned init) {
  65              		.loc 2 5 50 is_stmt 1
  66              		.cfi_startproc
  67              	.LVL4:
GAS LISTING /tmp/cco8gpQA.s 			page 3


  68 0000 130101FD 		addi	sp,sp,-48
  69              		.cfi_def_cfa_offset 48
  70 0004 23341102 		sd	ra,40(sp)
  71 0008 23308102 		sd	s0,32(sp)
  72 000c 233C9100 		sd	s1,24(sp)
  73 0010 23382101 		sd	s2,16(sp)
  74 0014 23343101 		sd	s3,8(sp)
  75              		.cfi_offset 1, -8
  76              		.cfi_offset 8, -16
  77              		.cfi_offset 9, -24
  78              		.cfi_offset 18, -32
  79              		.cfi_offset 19, -40
  80 0018 13040103 		addi	s0,sp,48
  81              		.cfi_def_cfa 8, 0
  82 001c 13090500 		mv	s2,a0
  83 0020 93890500 		mv	s3,a1
   6:src/c_semaphore.cpp ****     sem_t semaphore = (sem_t) Allocator::_mem_alloc(sizeof(Sem));
  84              		.loc 2 6 5
  85              		.loc 2 6 52 is_stmt 0
  86 0024 13050002 		li	a0,32
  87              	.LVL5:
  88 0028 97000000 		call	_ZN9Allocator10_mem_allocEm@plt
  88      E7800000 
  89              	.LVL6:
   7:src/c_semaphore.cpp ****     if (!semaphore) {
  90              		.loc 2 7 5 is_stmt 1
  91 0030 630E0502 		beqz	a0,.L5
  92 0034 93040500 		mv	s1,a0
   8:src/c_semaphore.cpp ****         return 1;
   9:src/c_semaphore.cpp ****     }
  10:src/c_semaphore.cpp ****     semaphore->count = init;
  93              		.loc 2 10 5
  94              		.loc 2 10 22 is_stmt 0
  95 0038 23203501 		sw	s3,0(a0)
  11:src/c_semaphore.cpp ****     semaphore->blocked.init();
  96              		.loc 2 11 5 is_stmt 1
  97              		.loc 2 11 28 is_stmt 0
  98 003c 13058500 		addi	a0,a0,8
  99              	.LVL7:
 100 0040 97000000 		call	_ZN3stm14CircularBufferIP3TCBE4initEv
 100      E7800000 
 101              	.LVL8:
  12:src/c_semaphore.cpp ****     *handle = semaphore;
 102              		.loc 2 12 5 is_stmt 1
 103              		.loc 2 12 13 is_stmt 0
 104 0048 23309900 		sd	s1,0(s2)
  13:src/c_semaphore.cpp ****     return 0;
 105              		.loc 2 13 5 is_stmt 1
 106              		.loc 2 13 12 is_stmt 0
 107 004c 13050000 		li	a0,0
 108              	.LVL9:
 109              	.L4:
  14:src/c_semaphore.cpp **** }
 110              		.loc 2 14 1
 111 0050 83308102 		ld	ra,40(sp)
 112              		.cfi_remember_state
 113              		.cfi_restore 1
GAS LISTING /tmp/cco8gpQA.s 			page 4


 114 0054 03340102 		ld	s0,32(sp)
 115              		.cfi_restore 8
 116              		.cfi_def_cfa 2, 48
 117 0058 83348101 		ld	s1,24(sp)
 118              		.cfi_restore 9
 119 005c 03390101 		ld	s2,16(sp)
 120              		.cfi_restore 18
 121              	.LVL10:
 122 0060 83398100 		ld	s3,8(sp)
 123              		.cfi_restore 19
 124 0064 13010103 		addi	sp,sp,48
 125              		.cfi_def_cfa_offset 0
 126 0068 67800000 		jr	ra
 127              	.LVL11:
 128              	.L5:
 129              		.cfi_restore_state
   8:src/c_semaphore.cpp ****     }
 130              		.loc 2 8 16
 131 006c 13051000 		li	a0,1
 132              	.LVL12:
 133 0070 6FF01FFE 		j	.L4
 134              		.cfi_endproc
 135              	.LFE24:
 137              		.section	.text._ZN3stm14CircularBufferIP3TCBE3getEv,"axG",@progbits,_ZN3stm14CircularBufferIP3TCBE
 138              		.align	2
 139              		.weak	_ZN3stm14CircularBufferIP3TCBE3getEv
 141              	_ZN3stm14CircularBufferIP3TCBE3getEv:
 142              	.LFB30:
  45:src/../h/circular_buffer.hpp **** 
  46:src/../h/circular_buffer.hpp **** template<typename T>
  47:src/../h/circular_buffer.hpp **** void stm::CircularBuffer<T>::put(T element) {
  48:src/../h/circular_buffer.hpp ****     if (this->size == this->capacity) {
  49:src/../h/circular_buffer.hpp ****         this->extend();
  50:src/../h/circular_buffer.hpp ****     }
  51:src/../h/circular_buffer.hpp ****     this->queue[this->tail] = element;
  52:src/../h/circular_buffer.hpp ****     this->tail = (this->tail + 1) % this->capacity;
  53:src/../h/circular_buffer.hpp ****     this->size++;
  54:src/../h/circular_buffer.hpp **** }
  55:src/../h/circular_buffer.hpp **** 
  56:src/../h/circular_buffer.hpp **** template<typename T>
  57:src/../h/circular_buffer.hpp **** T stm::CircularBuffer<T>::get() {
 143              		.loc 1 57 3 is_stmt 1
 144              		.cfi_startproc
 145              	.LVL13:
 146 0000 130101FF 		addi	sp,sp,-16
 147              		.cfi_def_cfa_offset 16
 148 0004 23348100 		sd	s0,8(sp)
 149              		.cfi_offset 8, -8
 150 0008 13040101 		addi	s0,sp,16
 151              		.cfi_def_cfa 8, 0
 152 000c 93070500 		mv	a5,a0
  58:src/../h/circular_buffer.hpp ****     T ret = this->queue[this->head];
 153              		.loc 1 58 19 is_stmt 0
 154 0010 83360500 		ld	a3,0(a0)
 155              		.loc 1 58 31
 156 0014 03278500 		lw	a4,8(a0)
 157              		.loc 1 58 24
GAS LISTING /tmp/cco8gpQA.s 			page 5


 158 0018 13163700 		slli	a2,a4,3
 159 001c B386C600 		add	a3,a3,a2
 160              		.loc 1 58 7
 161 0020 03B50600 		ld	a0,0(a3)
 162              	.LVL14:
  59:src/../h/circular_buffer.hpp ****     this->head = (this->head + 1) % this->capacity;
 163              		.loc 1 59 30
 164 0024 1B071700 		addiw	a4,a4,1
 165              		.loc 1 59 43
 166 0028 83A64701 		lw	a3,20(a5)
 167              		.loc 1 59 35
 168 002c 3B67D702 		remw	a4,a4,a3
 169              		.loc 1 59 5
 170 0030 23A4E700 		sw	a4,8(a5)
  60:src/../h/circular_buffer.hpp ****     this->size--;
 171              		.loc 1 60 11
 172 0034 03A70701 		lw	a4,16(a5)
 173              		.loc 1 60 5
 174 0038 1B07F7FF 		addiw	a4,a4,-1
 175 003c 23A8E700 		sw	a4,16(a5)
  61:src/../h/circular_buffer.hpp ****     return ret;
  62:src/../h/circular_buffer.hpp **** }
 176              		.loc 1 62 1
 177 0040 03348100 		ld	s0,8(sp)
 178              		.cfi_restore 8
 179              		.cfi_def_cfa 2, 16
 180 0044 13010101 		addi	sp,sp,16
 181              		.cfi_def_cfa_offset 0
 182 0048 67800000 		jr	ra
 183              		.cfi_endproc
 184              	.LFE30:
 186              		.text
 187              		.align	2
 188              		.globl	_ZN3Sem11_sem_signalEPS_
 190              	_ZN3Sem11_sem_signalEPS_:
 191              	.LFB27:
  15:src/c_semaphore.cpp **** 
  16:src/c_semaphore.cpp **** int Sem::_sem_close(sem_t id) {
  17:src/c_semaphore.cpp ****     if (!id) return 1;
  18:src/c_semaphore.cpp ****     while (!id->blocked.is_empty()) {
  19:src/c_semaphore.cpp ****         thread_t next = id->blocked.get();
  20:src/c_semaphore.cpp ****         Scheduler::put(next);
  21:src/c_semaphore.cpp ****     }
  22:src/c_semaphore.cpp ****     id->blocked.destroy();
  23:src/c_semaphore.cpp ****     if (Allocator::_mem_free(id)) return 2;
  24:src/c_semaphore.cpp ****     return 0;
  25:src/c_semaphore.cpp **** }
  26:src/c_semaphore.cpp **** 
  27:src/c_semaphore.cpp **** int Sem::_sem_wait(sem_t id) {
  28:src/c_semaphore.cpp ****     if (!id) return 1;
  29:src/c_semaphore.cpp ****     int ret = 0;
  30:src/c_semaphore.cpp ****     if (id->count == 0) {
  31:src/c_semaphore.cpp ****         TCB::running->block();
  32:src/c_semaphore.cpp ****         id->blocked.put(TCB::running);
  33:src/c_semaphore.cpp ****         TCB::_thread_dispatch();
  34:src/c_semaphore.cpp ****         if (TCB::running->is_blocked()) {
  35:src/c_semaphore.cpp ****             TCB::running->run();
GAS LISTING /tmp/cco8gpQA.s 			page 6


  36:src/c_semaphore.cpp ****             ret = -1;
  37:src/c_semaphore.cpp ****         }
  38:src/c_semaphore.cpp ****     } else {
  39:src/c_semaphore.cpp ****         id->count--;
  40:src/c_semaphore.cpp ****     }
  41:src/c_semaphore.cpp ****     return ret;
  42:src/c_semaphore.cpp **** }
  43:src/c_semaphore.cpp **** 
  44:src/c_semaphore.cpp **** int Sem::_sem_signal(sem_t id) {
 192              		.loc 2 44 32 is_stmt 1
 193              		.cfi_startproc
 194              	.LVL15:
  45:src/c_semaphore.cpp ****     if (!id) return 1;
 195              		.loc 2 45 5
 196 0074 63020506 		beqz	a0,.L12
 197 0078 93070500 		mv	a5,a0
  46:src/c_semaphore.cpp ****     if (!id->blocked.is_empty()) {
 198              		.loc 2 46 5
 199              	.LVL16:
 200              	.LBB17:
 201              	.LBB18:
 202              	.LBB19:
  20:src/../h/circular_buffer.hpp **** 
 203              		.loc 1 20 53 is_stmt 0
 204 007c 03258501 		lw	a0,24(a0)
 205              	.LVL17:
 206              	.LBE19:
 207              	.LBE18:
 208              		.loc 2 46 5
 209 0080 631A0500 		bnez	a0,.L17
  47:src/c_semaphore.cpp ****         thread_t next = id->blocked.get();
  48:src/c_semaphore.cpp ****         next->run();
  49:src/c_semaphore.cpp ****         Scheduler::put(next);
  50:src/c_semaphore.cpp ****         TCB::_thread_dispatch();
  51:src/c_semaphore.cpp ****     } else {
  52:src/c_semaphore.cpp ****         id->count++;
 210              		.loc 2 52 9 is_stmt 1
 211              		.loc 2 52 13 is_stmt 0
 212 0084 03A70700 		lw	a4,0(a5)
 213              		.loc 2 52 18
 214 0088 1B071700 		addiw	a4,a4,1
 215 008c 23A0E700 		sw	a4,0(a5)
 216 0090 67800000 		ret
 217              	.L17:
 218              	.LBE17:
  44:src/c_semaphore.cpp ****     if (!id) return 1;
 219              		.loc 2 44 32
 220 0094 130101FF 		addi	sp,sp,-16
 221              		.cfi_def_cfa_offset 16
 222 0098 23341100 		sd	ra,8(sp)
 223 009c 23308100 		sd	s0,0(sp)
 224              		.cfi_offset 1, -8
 225              		.cfi_offset 8, -16
 226 00a0 13040101 		addi	s0,sp,16
 227              		.cfi_def_cfa 8, 0
 228              	.LBB23:
 229              	.LBB20:
GAS LISTING /tmp/cco8gpQA.s 			page 7


  47:src/c_semaphore.cpp ****         thread_t next = id->blocked.get();
 230              		.loc 2 47 9 is_stmt 1
  47:src/c_semaphore.cpp ****         thread_t next = id->blocked.get();
 231              		.loc 2 47 40 is_stmt 0
 232 00a4 13858700 		addi	a0,a5,8
 233 00a8 97000000 		call	_ZN3stm14CircularBufferIP3TCBE3getEv
 233      E7800000 
 234              	.LVL18:
  48:src/c_semaphore.cpp ****         Scheduler::put(next);
 235              		.loc 2 48 9 is_stmt 1
 236              	.LBB21:
 237              	.LBB22:
 238              		.file 3 "src/../h/c_thread.hpp"
   1:src/../h/c_thread.hpp **** #ifndef PROJECT_BASE_C_THREAD_HPP
   2:src/../h/c_thread.hpp **** #define PROJECT_BASE_C_THREAD_HPP
   3:src/../h/c_thread.hpp **** 
   4:src/../h/c_thread.hpp **** #include "syscall_c.hpp"
   5:src/../h/c_thread.hpp **** #include "../lib/hw.h"
   6:src/../h/c_thread.hpp **** #include "circular_buffer.hpp"
   7:src/../h/c_thread.hpp **** 
   8:src/../h/c_thread.hpp **** using run_t = void (*)(void *);
   9:src/../h/c_thread.hpp **** 
  10:src/../h/c_thread.hpp **** struct Context {
  11:src/../h/c_thread.hpp ****     uint64 ra;
  12:src/../h/c_thread.hpp ****     uint64 sp;
  13:src/../h/c_thread.hpp ****     uint64 sstatus;
  14:src/../h/c_thread.hpp ****     uint64 sepc;
  15:src/../h/c_thread.hpp **** };
  16:src/../h/c_thread.hpp **** 
  17:src/../h/c_thread.hpp **** enum Status {
  18:src/../h/c_thread.hpp ****     RUNNABLE, BLOCKED, SLEEPING, JOINED, FINISHED
  19:src/../h/c_thread.hpp **** };
  20:src/../h/c_thread.hpp **** 
  21:src/../h/c_thread.hpp **** class TCB final {
  22:src/../h/c_thread.hpp **** public:
  23:src/../h/c_thread.hpp ****     static int _thread_create(thread_t *, void(*)(void *), void *, void *);
  24:src/../h/c_thread.hpp **** 
  25:src/../h/c_thread.hpp ****     static void _thread_exit();
  26:src/../h/c_thread.hpp **** 
  27:src/../h/c_thread.hpp ****     static void _thread_dispatch();
  28:src/../h/c_thread.hpp **** 
  29:src/../h/c_thread.hpp ****     static void _thread_join(thread_t);
  30:src/../h/c_thread.hpp **** 
  31:src/../h/c_thread.hpp ****     static void _thread_join(thread_t, time_t);
  32:src/../h/c_thread.hpp **** 
  33:src/../h/c_thread.hpp ****     static int _fork();
  34:src/../h/c_thread.hpp **** 
  35:src/../h/c_thread.hpp ****     static int _kill(TCB *);
  36:src/../h/c_thread.hpp **** 
  37:src/../h/c_thread.hpp ****     static void thread_start();
  38:src/../h/c_thread.hpp **** 
  39:src/../h/c_thread.hpp ****     static void context_switch(Context *, Context *);
  40:src/../h/c_thread.hpp **** 
  41:src/../h/c_thread.hpp ****     static void yield();
  42:src/../h/c_thread.hpp **** 
  43:src/../h/c_thread.hpp ****     static TCB *destroy_thread(TCB *);
  44:src/../h/c_thread.hpp **** 
GAS LISTING /tmp/cco8gpQA.s 			page 8


  45:src/../h/c_thread.hpp ****     static void duplicate(TCB *, TCB *);
  46:src/../h/c_thread.hpp **** 
  47:src/../h/c_thread.hpp ****     TCB(run_t, void *, void *, Context);
  48:src/../h/c_thread.hpp **** 
  49:src/../h/c_thread.hpp ****     TCB(TCB &);
  50:src/../h/c_thread.hpp **** 
  51:src/../h/c_thread.hpp ****     bool is_runnable() const { return this->status == RUNNABLE; }
  52:src/../h/c_thread.hpp **** 
  53:src/../h/c_thread.hpp ****     bool is_blocked() const { return this->status == BLOCKED; }
  54:src/../h/c_thread.hpp **** 
  55:src/../h/c_thread.hpp ****     bool is_sleeping() const { return this->status == SLEEPING; }
  56:src/../h/c_thread.hpp **** 
  57:src/../h/c_thread.hpp ****     bool is_joined() const { return this->status == JOINED; }
  58:src/../h/c_thread.hpp **** 
  59:src/../h/c_thread.hpp ****     bool is_finished() const { return this->status == FINISHED; }
  60:src/../h/c_thread.hpp **** 
  61:src/../h/c_thread.hpp ****     void run() { this->status = RUNNABLE; }
 239              		.loc 3 61 18
 240              		.loc 3 61 31 is_stmt 0
 241 00b0 23240504 		sw	zero,72(a0)
 242              	.LVL19:
 243              	.LBE22:
 244              	.LBE21:
  49:src/c_semaphore.cpp ****         TCB::_thread_dispatch();
 245              		.loc 2 49 9 is_stmt 1
  49:src/c_semaphore.cpp ****         TCB::_thread_dispatch();
 246              		.loc 2 49 23 is_stmt 0
 247 00b4 97000000 		call	_ZN9Scheduler3putEP3TCB@plt
 247      E7800000 
 248              	.LVL20:
  50:src/c_semaphore.cpp ****     } else {
 249              		.loc 2 50 9 is_stmt 1
  50:src/c_semaphore.cpp ****     } else {
 250              		.loc 2 50 30 is_stmt 0
 251 00bc 97000000 		call	_ZN3TCB16_thread_dispatchEv@plt
 251      E7800000 
 252              	.LVL21:
 253              	.LBE20:
 254              	.LBE23:
  53:src/c_semaphore.cpp ****     }
  54:src/c_semaphore.cpp ****     return 0;
 255              		.loc 2 54 12
 256 00c4 13050000 		li	a0,0
  55:src/c_semaphore.cpp **** }...
 257              		.loc 2 55 1
 258 00c8 83308100 		ld	ra,8(sp)
 259              		.cfi_restore 1
 260 00cc 03340100 		ld	s0,0(sp)
 261              		.cfi_restore 8
 262              		.cfi_def_cfa 2, 16
 263 00d0 13010101 		addi	sp,sp,16
 264              		.cfi_def_cfa_offset 0
 265 00d4 67800000 		jr	ra
 266              	.LVL22:
 267              	.L12:
  45:src/c_semaphore.cpp ****     if (!id) return 1;
 268              		.loc 2 45 21
GAS LISTING /tmp/cco8gpQA.s 			page 9


 269 00d8 13051000 		li	a0,1
 270              	.LVL23:
 271              		.loc 2 55 1
 272 00dc 67800000 		ret
 273              		.cfi_endproc
 274              	.LFE27:
 276              		.section	.text._ZN3stm14CircularBufferIP3TCBE7destroyEv,"axG",@progbits,_ZN3stm14CircularBufferIP3
 277              		.align	2
 278              		.weak	_ZN3stm14CircularBufferIP3TCBE7destroyEv
 280              	_ZN3stm14CircularBufferIP3TCBE7destroyEv:
 281              	.LFB31:
  63:src/../h/circular_buffer.hpp **** 
  64:src/../h/circular_buffer.hpp **** template<typename T>
  65:src/../h/circular_buffer.hpp **** T &stm::CircularBuffer<T>::peek() {
  66:src/../h/circular_buffer.hpp ****     return this->queue[this->head];
  67:src/../h/circular_buffer.hpp **** }
  68:src/../h/circular_buffer.hpp **** 
  69:src/../h/circular_buffer.hpp **** template<typename T>
  70:src/../h/circular_buffer.hpp **** void stm::CircularBuffer<T>::extend() {
  71:src/../h/circular_buffer.hpp ****     T *new_queue = (T *) mem_alloc(sizeof(T *) * this->capacity * 2);
  72:src/../h/circular_buffer.hpp ****     for (int i = 0, j = this->head; i < this->capacity; i++, j = (j + 1) % this->capacity)
  73:src/../h/circular_buffer.hpp ****         new_queue[i] = this->queue[j];
  74:src/../h/circular_buffer.hpp ****     mem_free(queue);
  75:src/../h/circular_buffer.hpp ****     this->queue = new_queue;
  76:src/../h/circular_buffer.hpp ****     this->head = 0;
  77:src/../h/circular_buffer.hpp ****     this->tail = this->capacity;
  78:src/../h/circular_buffer.hpp ****     this->capacity *= 2;
  79:src/../h/circular_buffer.hpp **** }
  80:src/../h/circular_buffer.hpp **** 
  81:src/../h/circular_buffer.hpp **** template<typename T>
  82:src/../h/circular_buffer.hpp **** void stm::CircularBuffer<T>::destroy() {
 282              		.loc 1 82 6 is_stmt 1
 283              		.cfi_startproc
 284              	.LVL24:
 285 0000 130101FF 		addi	sp,sp,-16
 286              		.cfi_def_cfa_offset 16
 287 0004 23341100 		sd	ra,8(sp)
 288 0008 23308100 		sd	s0,0(sp)
 289              		.cfi_offset 1, -8
 290              		.cfi_offset 8, -16
 291 000c 13040101 		addi	s0,sp,16
 292              		.cfi_def_cfa 8, 0
  83:src/../h/circular_buffer.hpp ****     mem_free(this->queue);
 293              		.loc 1 83 13 is_stmt 0
 294 0010 03350500 		ld	a0,0(a0)
 295              	.LVL25:
 296 0014 97000000 		call	_Z8mem_freePv@plt
 296      E7800000 
 297              	.LVL26:
  84:src/../h/circular_buffer.hpp **** }
 298              		.loc 1 84 1
 299 001c 83308100 		ld	ra,8(sp)
 300              		.cfi_restore 1
 301 0020 03340100 		ld	s0,0(sp)
 302              		.cfi_restore 8
 303              		.cfi_def_cfa 2, 16
 304 0024 13010101 		addi	sp,sp,16
GAS LISTING /tmp/cco8gpQA.s 			page 10


 305              		.cfi_def_cfa_offset 0
 306 0028 67800000 		jr	ra
 307              		.cfi_endproc
 308              	.LFE31:
 310              		.text
 311              		.align	2
 312              		.globl	_ZN3Sem10_sem_closeEPS_
 314              	_ZN3Sem10_sem_closeEPS_:
 315              	.LFB25:
  16:src/c_semaphore.cpp **** int Sem::_sem_close(sem_t id) {
 316              		.loc 2 16 31 is_stmt 1
 317              		.cfi_startproc
 318              	.LVL27:
 319 00e0 130101FE 		addi	sp,sp,-32
 320              		.cfi_def_cfa_offset 32
 321 00e4 233C1100 		sd	ra,24(sp)
 322 00e8 23388100 		sd	s0,16(sp)
 323 00ec 23349100 		sd	s1,8(sp)
 324              		.cfi_offset 1, -8
 325              		.cfi_offset 8, -16
 326              		.cfi_offset 9, -24
 327 00f0 13040102 		addi	s0,sp,32
 328              		.cfi_def_cfa 8, 0
 329 00f4 93040500 		mv	s1,a0
  17:src/c_semaphore.cpp ****     if (!id) return 1;
 330              		.loc 2 17 5
 331 00f8 630A0504 		beqz	a0,.L24
 332              	.LVL28:
 333              	.L23:
  18:src/c_semaphore.cpp ****     while (!id->blocked.is_empty()) {
 334              		.loc 2 18 5
  18:src/c_semaphore.cpp ****     while (!id->blocked.is_empty()) {
 335              		.loc 2 18 12
 336              	.LBB24:
 337              	.LBB25:
  20:src/../h/circular_buffer.hpp **** 
 338              		.loc 1 20 53 is_stmt 0
 339 00fc 83A78401 		lw	a5,24(s1)
 340              	.LVL29:
 341              	.LBE25:
 342              	.LBE24:
  18:src/c_semaphore.cpp ****     while (!id->blocked.is_empty()) {
 343              		.loc 2 18 12
 344 0100 638E0700 		beqz	a5,.L22
 345              	.LBB26:
  19:src/c_semaphore.cpp ****         thread_t next = id->blocked.get();
 346              		.loc 2 19 9 is_stmt 1
  19:src/c_semaphore.cpp ****         thread_t next = id->blocked.get();
 347              		.loc 2 19 40 is_stmt 0
 348 0104 13858400 		addi	a0,s1,8
 349 0108 97000000 		call	_ZN3stm14CircularBufferIP3TCBE3getEv
 349      E7800000 
 350              	.LVL30:
  20:src/c_semaphore.cpp ****         Scheduler::put(next);
 351              		.loc 2 20 9 is_stmt 1
  20:src/c_semaphore.cpp ****         Scheduler::put(next);
 352              		.loc 2 20 23 is_stmt 0
GAS LISTING /tmp/cco8gpQA.s 			page 11


 353 0110 97000000 		call	_ZN9Scheduler3putEP3TCB@plt
 353      E7800000 
 354              	.LVL31:
 355              	.LBE26:
  18:src/c_semaphore.cpp ****     while (!id->blocked.is_empty()) {
 356              		.loc 2 18 5
 357 0118 6FF05FFE 		j	.L23
 358              	.L22:
  22:src/c_semaphore.cpp ****     id->blocked.destroy();
 359              		.loc 2 22 5 is_stmt 1
  22:src/c_semaphore.cpp ****     id->blocked.destroy();
 360              		.loc 2 22 24 is_stmt 0
 361 011c 13858400 		addi	a0,s1,8
 362 0120 97000000 		call	_ZN3stm14CircularBufferIP3TCBE7destroyEv
 362      E7800000 
 363              	.LVL32:
  23:src/c_semaphore.cpp ****     if (Allocator::_mem_free(id)) return 2;
 364              		.loc 2 23 5 is_stmt 1
  23:src/c_semaphore.cpp ****     if (Allocator::_mem_free(id)) return 2;
 365              		.loc 2 23 29 is_stmt 0
 366 0128 13850400 		mv	a0,s1
 367 012c 97000000 		call	_ZN9Allocator9_mem_freeEPKv@plt
 367      E7800000 
 368              	.LVL33:
  23:src/c_semaphore.cpp ****     if (Allocator::_mem_free(id)) return 2;
 369              		.loc 2 23 5
 370 0134 63100502 		bnez	a0,.L27
 371              	.L21:
  25:src/c_semaphore.cpp **** }
 372              		.loc 2 25 1
 373 0138 83308101 		ld	ra,24(sp)
 374              		.cfi_remember_state
 375              		.cfi_restore 1
 376 013c 03340101 		ld	s0,16(sp)
 377              		.cfi_restore 8
 378              		.cfi_def_cfa 2, 32
 379 0140 83348100 		ld	s1,8(sp)
 380              		.cfi_restore 9
 381              	.LVL34:
 382 0144 13010102 		addi	sp,sp,32
 383              		.cfi_def_cfa_offset 0
 384 0148 67800000 		jr	ra
 385              	.LVL35:
 386              	.L24:
 387              		.cfi_restore_state
  17:src/c_semaphore.cpp ****     if (!id) return 1;
 388              		.loc 2 17 21
 389 014c 13051000 		li	a0,1
 390 0150 6FF09FFE 		j	.L21
 391              	.L27:
  23:src/c_semaphore.cpp ****     if (Allocator::_mem_free(id)) return 2;
 392              		.loc 2 23 42
 393 0154 13052000 		li	a0,2
 394 0158 6FF01FFE 		j	.L21
 395              		.cfi_endproc
 396              	.LFE25:
 398              		.section	.text._ZN3stm14CircularBufferIP3TCBE6extendEv,"axG",@progbits,_ZN3stm14CircularBufferIP3T
GAS LISTING /tmp/cco8gpQA.s 			page 12


 399              		.align	2
 400              		.weak	_ZN3stm14CircularBufferIP3TCBE6extendEv
 402              	_ZN3stm14CircularBufferIP3TCBE6extendEv:
 403              	.LFB33:
  70:src/../h/circular_buffer.hpp ****     T *new_queue = (T *) mem_alloc(sizeof(T *) * this->capacity * 2);
 404              		.loc 1 70 6 is_stmt 1
 405              		.cfi_startproc
 406              	.LVL36:
 407 0000 130101FE 		addi	sp,sp,-32
 408              		.cfi_def_cfa_offset 32
 409 0004 233C1100 		sd	ra,24(sp)
 410 0008 23388100 		sd	s0,16(sp)
 411 000c 23349100 		sd	s1,8(sp)
 412 0010 23302101 		sd	s2,0(sp)
 413              		.cfi_offset 1, -8
 414              		.cfi_offset 8, -16
 415              		.cfi_offset 9, -24
 416              		.cfi_offset 18, -32
 417 0014 13040102 		addi	s0,sp,32
 418              		.cfi_def_cfa 8, 0
 419 0018 93040500 		mv	s1,a0
  71:src/../h/circular_buffer.hpp ****     for (int i = 0, j = this->head; i < this->capacity; i++, j = (j + 1) % this->capacity)
 420              		.loc 1 71 56 is_stmt 0
 421 001c 03254501 		lw	a0,20(a0)
 422              	.LVL37:
  71:src/../h/circular_buffer.hpp ****     for (int i = 0, j = this->head; i < this->capacity; i++, j = (j + 1) % this->capacity)
 423              		.loc 1 71 35
 424 0020 13154500 		slli	a0,a0,4
 425 0024 97000000 		call	_Z9mem_allocm@plt
 425      E7800000 
 426              	.LVL38:
 427 002c 13090500 		mv	s2,a0
 428              	.LVL39:
 429              	.LBB27:
  72:src/../h/circular_buffer.hpp ****         new_queue[i] = this->queue[j];
 430              		.loc 1 72 21
 431 0030 83A78400 		lw	a5,8(s1)
 432              	.LVL40:
  72:src/../h/circular_buffer.hpp ****         new_queue[i] = this->queue[j];
 433              		.loc 1 72 14
 434 0034 13070000 		li	a4,0
 435              	.LVL41:
 436              	.L30:
  72:src/../h/circular_buffer.hpp ****         new_queue[i] = this->queue[j];
 437              		.loc 1 72 39 is_stmt 1 discriminator 3
  72:src/../h/circular_buffer.hpp ****         new_queue[i] = this->queue[j];
 438              		.loc 1 72 47 is_stmt 0 discriminator 3
 439 0038 83A64401 		lw	a3,20(s1)
  72:src/../h/circular_buffer.hpp ****         new_queue[i] = this->queue[j];
 440              		.loc 1 72 39 discriminator 3
 441 003c 635AD702 		ble	a3,a4,.L29
  73:src/../h/circular_buffer.hpp ****     mem_free(queue);
 442              		.loc 1 73 30 discriminator 2
 443 0040 03B60400 		ld	a2,0(s1)
  73:src/../h/circular_buffer.hpp ****     mem_free(queue);
 444              		.loc 1 73 18 discriminator 2
 445 0044 93163700 		slli	a3,a4,3
GAS LISTING /tmp/cco8gpQA.s 			page 13


 446 0048 B306D900 		add	a3,s2,a3
  73:src/../h/circular_buffer.hpp ****     mem_free(queue);
 447              		.loc 1 73 35 discriminator 2
 448 004c 93953700 		slli	a1,a5,3
 449 0050 3306B600 		add	a2,a2,a1
 450 0054 03360600 		ld	a2,0(a2)
  73:src/../h/circular_buffer.hpp ****     mem_free(queue);
 451              		.loc 1 73 9 discriminator 2
 452 0058 23B0C600 		sd	a2,0(a3)
  72:src/../h/circular_buffer.hpp ****         new_queue[i] = this->queue[j];
 453              		.loc 1 72 5 is_stmt 1 discriminator 2
 454 005c 1B071700 		addiw	a4,a4,1
 455              	.LVL42:
  72:src/../h/circular_buffer.hpp ****         new_queue[i] = this->queue[j];
 456              		.loc 1 72 69 is_stmt 0 discriminator 2
 457 0060 9B871700 		addiw	a5,a5,1
 458              	.LVL43:
  72:src/../h/circular_buffer.hpp ****         new_queue[i] = this->queue[j];
 459              		.loc 1 72 82 discriminator 2
 460 0064 83A64401 		lw	a3,20(s1)
  72:src/../h/circular_buffer.hpp ****         new_queue[i] = this->queue[j];
 461              		.loc 1 72 5 discriminator 2
 462 0068 BBE7D702 		remw	a5,a5,a3
 463              	.LVL44:
 464 006c 6FF0DFFC 		j	.L30
 465              	.LVL45:
 466              	.L29:
 467              	.LBE27:
  74:src/../h/circular_buffer.hpp ****     this->queue = new_queue;
 468              		.loc 1 74 13
 469 0070 03B50400 		ld	a0,0(s1)
 470              	.LVL46:
 471 0074 97000000 		call	_Z8mem_freePv@plt
 471      E7800000 
 472              	.LVL47:
  75:src/../h/circular_buffer.hpp ****     this->head = 0;
 473              		.loc 1 75 5
 474 007c 23B02401 		sd	s2,0(s1)
  76:src/../h/circular_buffer.hpp ****     this->tail = this->capacity;
 475              		.loc 1 76 5
 476 0080 23A40400 		sw	zero,8(s1)
  77:src/../h/circular_buffer.hpp ****     this->capacity *= 2;
 477              		.loc 1 77 24
 478 0084 83A74401 		lw	a5,20(s1)
  77:src/../h/circular_buffer.hpp ****     this->capacity *= 2;
 479              		.loc 1 77 5
 480 0088 23A6F400 		sw	a5,12(s1)
  78:src/../h/circular_buffer.hpp **** }
 481              		.loc 1 78 20
 482 008c 9B971700 		slliw	a5,a5,1
  78:src/../h/circular_buffer.hpp **** }
 483              		.loc 1 78 5
 484 0090 23AAF400 		sw	a5,20(s1)
  79:src/../h/circular_buffer.hpp **** 
 485              		.loc 1 79 1
 486 0094 83308101 		ld	ra,24(sp)
 487              		.cfi_restore 1
GAS LISTING /tmp/cco8gpQA.s 			page 14


 488 0098 03340101 		ld	s0,16(sp)
 489              		.cfi_restore 8
 490              		.cfi_def_cfa 2, 32
 491 009c 83348100 		ld	s1,8(sp)
 492              		.cfi_restore 9
 493              	.LVL48:
 494 00a0 03390100 		ld	s2,0(sp)
 495              		.cfi_restore 18
 496              	.LVL49:
 497 00a4 13010102 		addi	sp,sp,32
 498              		.cfi_def_cfa_offset 0
 499 00a8 67800000 		jr	ra
 500              		.cfi_endproc
 501              	.LFE33:
 503              		.section	.text._ZN3stm14CircularBufferIP3TCBE3putES2_,"axG",@progbits,_ZN3stm14CircularBufferIP3TC
 504              		.align	2
 505              		.weak	_ZN3stm14CircularBufferIP3TCBE3putES2_
 507              	_ZN3stm14CircularBufferIP3TCBE3putES2_:
 508              	.LFB32:
  47:src/../h/circular_buffer.hpp ****     if (this->size == this->capacity) {
 509              		.loc 1 47 6 is_stmt 1
 510              		.cfi_startproc
 511              	.LVL50:
 512 0000 130101FE 		addi	sp,sp,-32
 513              		.cfi_def_cfa_offset 32
 514 0004 233C1100 		sd	ra,24(sp)
 515 0008 23388100 		sd	s0,16(sp)
 516 000c 23349100 		sd	s1,8(sp)
 517 0010 23302101 		sd	s2,0(sp)
 518              		.cfi_offset 1, -8
 519              		.cfi_offset 8, -16
 520              		.cfi_offset 9, -24
 521              		.cfi_offset 18, -32
 522 0014 13040102 		addi	s0,sp,32
 523              		.cfi_def_cfa 8, 0
 524 0018 93040500 		mv	s1,a0
 525 001c 13890500 		mv	s2,a1
  48:src/../h/circular_buffer.hpp ****         this->extend();
 526              		.loc 1 48 15 is_stmt 0
 527 0020 03270501 		lw	a4,16(a0)
  48:src/../h/circular_buffer.hpp ****         this->extend();
 528              		.loc 1 48 29
 529 0024 83274501 		lw	a5,20(a0)
  48:src/../h/circular_buffer.hpp ****         this->extend();
 530              		.loc 1 48 5
 531 0028 6308F704 		beq	a4,a5,.L35
 532              	.LVL51:
 533              	.L33:
  51:src/../h/circular_buffer.hpp ****     this->tail = (this->tail + 1) % this->capacity;
 534              		.loc 1 51 11
 535 002c 83B70400 		ld	a5,0(s1)
  51:src/../h/circular_buffer.hpp ****     this->tail = (this->tail + 1) % this->capacity;
 536              		.loc 1 51 23
 537 0030 03A7C400 		lw	a4,12(s1)
  51:src/../h/circular_buffer.hpp ****     this->tail = (this->tail + 1) % this->capacity;
 538              		.loc 1 51 16
 539 0034 13173700 		slli	a4,a4,3
GAS LISTING /tmp/cco8gpQA.s 			page 15


 540 0038 B387E700 		add	a5,a5,a4
  51:src/../h/circular_buffer.hpp ****     this->tail = (this->tail + 1) % this->capacity;
 541              		.loc 1 51 5
 542 003c 23B02701 		sd	s2,0(a5)
  52:src/../h/circular_buffer.hpp ****     this->size++;
 543              		.loc 1 52 25
 544 0040 83A7C400 		lw	a5,12(s1)
  52:src/../h/circular_buffer.hpp ****     this->size++;
 545              		.loc 1 52 30
 546 0044 9B871700 		addiw	a5,a5,1
  52:src/../h/circular_buffer.hpp ****     this->size++;
 547              		.loc 1 52 43
 548 0048 03A74401 		lw	a4,20(s1)
  52:src/../h/circular_buffer.hpp ****     this->size++;
 549              		.loc 1 52 35
 550 004c BBE7E702 		remw	a5,a5,a4
  52:src/../h/circular_buffer.hpp ****     this->size++;
 551              		.loc 1 52 5
 552 0050 23A6F400 		sw	a5,12(s1)
  53:src/../h/circular_buffer.hpp **** }
 553              		.loc 1 53 11
 554 0054 83A70401 		lw	a5,16(s1)
  53:src/../h/circular_buffer.hpp **** }
 555              		.loc 1 53 5
 556 0058 9B871700 		addiw	a5,a5,1
 557 005c 23A8F400 		sw	a5,16(s1)
  54:src/../h/circular_buffer.hpp **** 
 558              		.loc 1 54 1
 559 0060 83308101 		ld	ra,24(sp)
 560              		.cfi_remember_state
 561              		.cfi_restore 1
 562 0064 03340101 		ld	s0,16(sp)
 563              		.cfi_restore 8
 564              		.cfi_def_cfa 2, 32
 565 0068 83348100 		ld	s1,8(sp)
 566              		.cfi_restore 9
 567              	.LVL52:
 568 006c 03390100 		ld	s2,0(sp)
 569              		.cfi_restore 18
 570              	.LVL53:
 571 0070 13010102 		addi	sp,sp,32
 572              		.cfi_def_cfa_offset 0
 573 0074 67800000 		jr	ra
 574              	.LVL54:
 575              	.L35:
 576              		.cfi_restore_state
  49:src/../h/circular_buffer.hpp ****     }
 577              		.loc 1 49 9
 578 0078 97000000 		call	_ZN3stm14CircularBufferIP3TCBE6extendEv
 578      E7800000 
 579              	.LVL55:
 580 0080 6FF0DFFA 		j	.L33
 581              		.cfi_endproc
 582              	.LFE32:
 584              		.text
 585              		.align	2
 586              		.globl	_ZN3Sem9_sem_waitEPS_
GAS LISTING /tmp/cco8gpQA.s 			page 16


 588              	_ZN3Sem9_sem_waitEPS_:
 589              	.LFB26:
  27:src/c_semaphore.cpp **** int Sem::_sem_wait(sem_t id) {
 590              		.loc 2 27 30 is_stmt 1
 591              		.cfi_startproc
 592              	.LVL56:
  28:src/c_semaphore.cpp ****     if (!id) return 1;
 593              		.loc 2 28 5
 594 015c 63060508 		beqz	a0,.L39
  29:src/c_semaphore.cpp ****     int ret = 0;
 595              		.loc 2 29 5
 596              	.LVL57:
  30:src/c_semaphore.cpp ****     if (id->count == 0) {
 597              		.loc 2 30 5
  30:src/c_semaphore.cpp ****     if (id->count == 0) {
 598              		.loc 2 30 13 is_stmt 0
 599 0160 83270500 		lw	a5,0(a0)
  30:src/c_semaphore.cpp ****     if (id->count == 0) {
 600              		.loc 2 30 5
 601 0164 638A0700 		beqz	a5,.L45
  39:src/c_semaphore.cpp ****         id->count--;
 602              		.loc 2 39 9 is_stmt 1
  39:src/c_semaphore.cpp ****         id->count--;
 603              		.loc 2 39 18 is_stmt 0
 604 0168 9B87F7FF 		addiw	a5,a5,-1
 605 016c 2320F500 		sw	a5,0(a0)
  29:src/c_semaphore.cpp ****     int ret = 0;
 606              		.loc 2 29 9
 607 0170 13050000 		li	a0,0
 608              	.LVL58:
 609 0174 67800000 		ret
 610              	.LVL59:
 611              	.L45:
  27:src/c_semaphore.cpp **** int Sem::_sem_wait(sem_t id) {
 612              		.loc 2 27 30
 613 0178 130101FE 		addi	sp,sp,-32
 614              		.cfi_def_cfa_offset 32
 615 017c 233C1100 		sd	ra,24(sp)
 616 0180 23388100 		sd	s0,16(sp)
 617 0184 23349100 		sd	s1,8(sp)
 618              		.cfi_offset 1, -8
 619              		.cfi_offset 8, -16
 620              		.cfi_offset 9, -24
 621 0188 13040102 		addi	s0,sp,32
 622              		.cfi_def_cfa 8, 0
  31:src/c_semaphore.cpp ****         TCB::running->block();
 623              		.loc 2 31 9 is_stmt 1
  31:src/c_semaphore.cpp ****         TCB::running->block();
 624              		.loc 2 31 28 is_stmt 0
 625 018c 97040000 		la	s1,_ZN3TCB7runningE
 625      83B40400 
 626 0194 83B50400 		ld	a1,0(s1)
 627              	.LVL60:
 628              	.LBB28:
 629              	.LBB29:
  62:src/../h/c_thread.hpp **** 
  63:src/../h/c_thread.hpp ****     void block() { this->status = BLOCKED; }
GAS LISTING /tmp/cco8gpQA.s 			page 17


 630              		.loc 3 63 20 is_stmt 1
 631              		.loc 3 63 33 is_stmt 0
 632 0198 93071000 		li	a5,1
 633 019c 23A4F504 		sw	a5,72(a1)
 634              	.LVL61:
 635              	.LBE29:
 636              	.LBE28:
  32:src/c_semaphore.cpp ****         id->blocked.put(TCB::running);
 637              		.loc 2 32 9 is_stmt 1
  32:src/c_semaphore.cpp ****         id->blocked.put(TCB::running);
 638              		.loc 2 32 24 is_stmt 0
 639 01a0 13058500 		addi	a0,a0,8
 640              	.LVL62:
 641 01a4 97000000 		call	_ZN3stm14CircularBufferIP3TCBE3putES2_
 641      E7800000 
 642              	.LVL63:
  33:src/c_semaphore.cpp ****         TCB::_thread_dispatch();
 643              		.loc 2 33 9 is_stmt 1
  33:src/c_semaphore.cpp ****         TCB::_thread_dispatch();
 644              		.loc 2 33 30 is_stmt 0
 645 01ac 97000000 		call	_ZN3TCB16_thread_dispatchEv@plt
 645      E7800000 
 646              	.LVL64:
  34:src/c_semaphore.cpp ****         if (TCB::running->is_blocked()) {
 647              		.loc 2 34 9 is_stmt 1
  34:src/c_semaphore.cpp ****         if (TCB::running->is_blocked()) {
 648              		.loc 2 34 37 is_stmt 0
 649 01b4 83B70400 		ld	a5,0(s1)
 650              	.LVL65:
 651              	.LBB30:
 652              	.LBB31:
  53:src/../h/c_thread.hpp **** 
 653              		.loc 3 53 31 is_stmt 1
  53:src/../h/c_thread.hpp **** 
 654              		.loc 3 53 44 is_stmt 0
 655 01b8 83A68704 		lw	a3,72(a5)
 656              	.LVL66:
 657              	.LBE31:
 658              	.LBE30:
  34:src/c_semaphore.cpp ****         if (TCB::running->is_blocked()) {
 659              		.loc 2 34 9
 660 01bc 13071000 		li	a4,1
 661 01c0 638EE600 		beq	a3,a4,.L46
  29:src/c_semaphore.cpp ****     int ret = 0;
 662              		.loc 2 29 9
 663 01c4 13050000 		li	a0,0
 664              	.LVL67:
 665              	.L37:
  42:src/c_semaphore.cpp **** }
 666              		.loc 2 42 1
 667 01c8 83308101 		ld	ra,24(sp)
 668              		.cfi_remember_state
 669              		.cfi_restore 1
 670 01cc 03340101 		ld	s0,16(sp)
 671              		.cfi_restore 8
 672              		.cfi_def_cfa 2, 32
 673 01d0 83348100 		ld	s1,8(sp)
GAS LISTING /tmp/cco8gpQA.s 			page 18


 674              		.cfi_restore 9
 675 01d4 13010102 		addi	sp,sp,32
 676              		.cfi_def_cfa_offset 0
 677 01d8 67800000 		jr	ra
 678              	.LVL68:
 679              	.L46:
 680              		.cfi_restore_state
  35:src/c_semaphore.cpp ****             TCB::running->run();
 681              		.loc 2 35 13 is_stmt 1
 682              	.LBB32:
 683              	.LBB33:
  61:src/../h/c_thread.hpp **** 
 684              		.loc 3 61 18
  61:src/../h/c_thread.hpp **** 
 685              		.loc 3 61 31 is_stmt 0
 686 01dc 23A40704 		sw	zero,72(a5)
 687              	.LVL69:
 688              	.LBE33:
 689              	.LBE32:
  36:src/c_semaphore.cpp ****             ret = -1;
 690              		.loc 2 36 13 is_stmt 1
  36:src/c_semaphore.cpp ****             ret = -1;
 691              		.loc 2 36 17 is_stmt 0
 692 01e0 1305F0FF 		li	a0,-1
 693 01e4 6FF05FFE 		j	.L37
 694              	.LVL70:
 695              	.L39:
 696              		.cfi_def_cfa_register 2
 697              		.cfi_restore 1
 698              		.cfi_restore 8
 699              		.cfi_restore 9
  28:src/c_semaphore.cpp ****     if (!id) return 1;
 700              		.loc 2 28 21
 701 01e8 13051000 		li	a0,1
 702              	.LVL71:
  42:src/c_semaphore.cpp **** }
 703              		.loc 2 42 1
 704 01ec 67800000 		ret
 705              		.cfi_endproc
 706              	.LFE26:
 708              	.Letext0:
 709              		.file 4 "src/../h/../lib/hw.h"
 710              		.file 5 "src/../h/syscall_c.hpp"
 711              		.file 6 "src/../h/c_semaphore.hpp"
 712              		.file 7 "src/../h/c_memory.hpp"
 713              		.file 8 "src/../h/scheduler.hpp"
GAS LISTING /tmp/cco8gpQA.s 			page 19


DEFINED SYMBOLS
                            *ABS*:0000000000000000 c_semaphore.cpp
     /tmp/cco8gpQA.s:10     .text._ZN3stm14CircularBufferIP3TCBE4initEv:0000000000000000 _ZN3stm14CircularBufferIP3TCBE4initEv
     /tmp/cco8gpQA.s:14     .text._ZN3stm14CircularBufferIP3TCBE4initEv:0000000000000000 .L0 
     /tmp/cco8gpQA.s:16     .text._ZN3stm14CircularBufferIP3TCBE4initEv:0000000000000000 .L0 
     /tmp/cco8gpQA.s:17     .text._ZN3stm14CircularBufferIP3TCBE4initEv:0000000000000004 .L0 
     /tmp/cco8gpQA.s:21     .text._ZN3stm14CircularBufferIP3TCBE4initEv:0000000000000010 .L0 
     /tmp/cco8gpQA.s:22     .text._ZN3stm14CircularBufferIP3TCBE4initEv:0000000000000010 .L0 
     /tmp/cco8gpQA.s:23     .text._ZN3stm14CircularBufferIP3TCBE4initEv:0000000000000010 .L0 
     /tmp/cco8gpQA.s:25     .text._ZN3stm14CircularBufferIP3TCBE4initEv:0000000000000014 .L0 
     /tmp/cco8gpQA.s:28     .text._ZN3stm14CircularBufferIP3TCBE4initEv:0000000000000018 .L0 
     /tmp/cco8gpQA.s:30     .text._ZN3stm14CircularBufferIP3TCBE4initEv:000000000000001c .L0 
     /tmp/cco8gpQA.s:32     .text._ZN3stm14CircularBufferIP3TCBE4initEv:0000000000000020 .L0 
     /tmp/cco8gpQA.s:34     .text._ZN3stm14CircularBufferIP3TCBE4initEv:0000000000000024 .L0 
     /tmp/cco8gpQA.s:37     .text._ZN3stm14CircularBufferIP3TCBE4initEv:000000000000002c .L0 
     /tmp/cco8gpQA.s:42     .text._ZN3stm14CircularBufferIP3TCBE4initEv:0000000000000038 .L0 
     /tmp/cco8gpQA.s:44     .text._ZN3stm14CircularBufferIP3TCBE4initEv:000000000000003c .L0 
     /tmp/cco8gpQA.s:45     .text._ZN3stm14CircularBufferIP3TCBE4initEv:0000000000000040 .L0 
     /tmp/cco8gpQA.s:47     .text._ZN3stm14CircularBufferIP3TCBE4initEv:0000000000000044 .L0 
     /tmp/cco8gpQA.s:48     .text._ZN3stm14CircularBufferIP3TCBE4initEv:0000000000000044 .L0 
     /tmp/cco8gpQA.s:50     .text._ZN3stm14CircularBufferIP3TCBE4initEv:0000000000000048 .L0 
     /tmp/cco8gpQA.s:53     .text._ZN3stm14CircularBufferIP3TCBE4initEv:000000000000004c .L0 
     /tmp/cco8gpQA.s:55     .text._ZN3stm14CircularBufferIP3TCBE4initEv:0000000000000050 .L0 
     /tmp/cco8gpQA.s:62     .text:0000000000000000 _ZN3Sem9_sem_openEPPS_j
     /tmp/cco8gpQA.s:66     .text:0000000000000000 .L0 
     /tmp/cco8gpQA.s:68     .text:0000000000000000 .L0 
     /tmp/cco8gpQA.s:69     .text:0000000000000004 .L0 
     /tmp/cco8gpQA.s:75     .text:0000000000000018 .L0 
     /tmp/cco8gpQA.s:76     .text:0000000000000018 .L0 
     /tmp/cco8gpQA.s:77     .text:0000000000000018 .L0 
     /tmp/cco8gpQA.s:78     .text:0000000000000018 .L0 
     /tmp/cco8gpQA.s:79     .text:0000000000000018 .L0 
     /tmp/cco8gpQA.s:81     .text:000000000000001c .L0 
     /tmp/cco8gpQA.s:85     .text:0000000000000024 .L0 
     /tmp/cco8gpQA.s:86     .text:0000000000000024 .L0 
     /tmp/cco8gpQA.s:91     .text:0000000000000030 .L0 
     /tmp/cco8gpQA.s:94     .text:0000000000000038 .L0 
     /tmp/cco8gpQA.s:95     .text:0000000000000038 .L0 
     /tmp/cco8gpQA.s:97     .text:000000000000003c .L0 
     /tmp/cco8gpQA.s:98     .text:000000000000003c .L0 
     /tmp/cco8gpQA.s:103    .text:0000000000000048 .L0 
     /tmp/cco8gpQA.s:104    .text:0000000000000048 .L0 
     /tmp/cco8gpQA.s:106    .text:000000000000004c .L0 
     /tmp/cco8gpQA.s:107    .text:000000000000004c .L0 
     /tmp/cco8gpQA.s:111    .text:0000000000000050 .L0 
     /tmp/cco8gpQA.s:112    .text:0000000000000054 .L0 
     /tmp/cco8gpQA.s:113    .text:0000000000000054 .L0 
     /tmp/cco8gpQA.s:115    .text:0000000000000058 .L0 
     /tmp/cco8gpQA.s:116    .text:0000000000000058 .L0 
     /tmp/cco8gpQA.s:118    .text:000000000000005c .L0 
     /tmp/cco8gpQA.s:120    .text:0000000000000060 .L0 
     /tmp/cco8gpQA.s:123    .text:0000000000000064 .L0 
     /tmp/cco8gpQA.s:125    .text:0000000000000068 .L0 
     /tmp/cco8gpQA.s:129    .text:000000000000006c .L0 
     /tmp/cco8gpQA.s:131    .text:000000000000006c .L0 
     /tmp/cco8gpQA.s:134    .text:0000000000000074 .L0 
     /tmp/cco8gpQA.s:141    .text._ZN3stm14CircularBufferIP3TCBE3getEv:0000000000000000 _ZN3stm14CircularBufferIP3TCBE3getEv
GAS LISTING /tmp/cco8gpQA.s 			page 20


     /tmp/cco8gpQA.s:144    .text._ZN3stm14CircularBufferIP3TCBE3getEv:0000000000000000 .L0 
     /tmp/cco8gpQA.s:146    .text._ZN3stm14CircularBufferIP3TCBE3getEv:0000000000000000 .L0 
     /tmp/cco8gpQA.s:147    .text._ZN3stm14CircularBufferIP3TCBE3getEv:0000000000000004 .L0 
     /tmp/cco8gpQA.s:149    .text._ZN3stm14CircularBufferIP3TCBE3getEv:0000000000000008 .L0 
     /tmp/cco8gpQA.s:151    .text._ZN3stm14CircularBufferIP3TCBE3getEv:000000000000000c .L0 
     /tmp/cco8gpQA.s:154    .text._ZN3stm14CircularBufferIP3TCBE3getEv:0000000000000010 .L0 
     /tmp/cco8gpQA.s:156    .text._ZN3stm14CircularBufferIP3TCBE3getEv:0000000000000014 .L0 
     /tmp/cco8gpQA.s:158    .text._ZN3stm14CircularBufferIP3TCBE3getEv:0000000000000018 .L0 
     /tmp/cco8gpQA.s:161    .text._ZN3stm14CircularBufferIP3TCBE3getEv:0000000000000020 .L0 
     /tmp/cco8gpQA.s:164    .text._ZN3stm14CircularBufferIP3TCBE3getEv:0000000000000024 .L0 
     /tmp/cco8gpQA.s:166    .text._ZN3stm14CircularBufferIP3TCBE3getEv:0000000000000028 .L0 
     /tmp/cco8gpQA.s:168    .text._ZN3stm14CircularBufferIP3TCBE3getEv:000000000000002c .L0 
     /tmp/cco8gpQA.s:170    .text._ZN3stm14CircularBufferIP3TCBE3getEv:0000000000000030 .L0 
     /tmp/cco8gpQA.s:172    .text._ZN3stm14CircularBufferIP3TCBE3getEv:0000000000000034 .L0 
     /tmp/cco8gpQA.s:174    .text._ZN3stm14CircularBufferIP3TCBE3getEv:0000000000000038 .L0 
     /tmp/cco8gpQA.s:177    .text._ZN3stm14CircularBufferIP3TCBE3getEv:0000000000000040 .L0 
     /tmp/cco8gpQA.s:178    .text._ZN3stm14CircularBufferIP3TCBE3getEv:0000000000000044 .L0 
     /tmp/cco8gpQA.s:179    .text._ZN3stm14CircularBufferIP3TCBE3getEv:0000000000000044 .L0 
     /tmp/cco8gpQA.s:181    .text._ZN3stm14CircularBufferIP3TCBE3getEv:0000000000000048 .L0 
     /tmp/cco8gpQA.s:183    .text._ZN3stm14CircularBufferIP3TCBE3getEv:000000000000004c .L0 
     /tmp/cco8gpQA.s:190    .text:0000000000000074 _ZN3Sem11_sem_signalEPS_
     /tmp/cco8gpQA.s:193    .text:0000000000000074 .L0 
     /tmp/cco8gpQA.s:195    .text:0000000000000074 .L0 
     /tmp/cco8gpQA.s:196    .text:0000000000000074 .L0 
     /tmp/cco8gpQA.s:203    .text:000000000000007c .L0 
     /tmp/cco8gpQA.s:204    .text:000000000000007c .L0 
     /tmp/cco8gpQA.s:209    .text:0000000000000080 .L0 
     /tmp/cco8gpQA.s:211    .text:0000000000000084 .L0 
     /tmp/cco8gpQA.s:212    .text:0000000000000084 .L0 
     /tmp/cco8gpQA.s:214    .text:0000000000000088 .L0 
     /tmp/cco8gpQA.s:220    .text:0000000000000094 .L0 
     /tmp/cco8gpQA.s:221    .text:0000000000000098 .L0 
     /tmp/cco8gpQA.s:224    .text:00000000000000a0 .L0 
     /tmp/cco8gpQA.s:225    .text:00000000000000a0 .L0 
     /tmp/cco8gpQA.s:227    .text:00000000000000a4 .L0 
     /tmp/cco8gpQA.s:231    .text:00000000000000a4 .L0 
     /tmp/cco8gpQA.s:232    .text:00000000000000a4 .L0 
     /tmp/cco8gpQA.s:239    .text:00000000000000b0 .L0 
     /tmp/cco8gpQA.s:240    .text:00000000000000b0 .L0 
     /tmp/cco8gpQA.s:241    .text:00000000000000b0 .L0 
     /tmp/cco8gpQA.s:246    .text:00000000000000b4 .L0 
     /tmp/cco8gpQA.s:247    .text:00000000000000b4 .L0 
     /tmp/cco8gpQA.s:250    .text:00000000000000bc .L0 
     /tmp/cco8gpQA.s:251    .text:00000000000000bc .L0 
     /tmp/cco8gpQA.s:256    .text:00000000000000c4 .L0 
     /tmp/cco8gpQA.s:258    .text:00000000000000c8 .L0 
     /tmp/cco8gpQA.s:259    .text:00000000000000cc .L0 
     /tmp/cco8gpQA.s:261    .text:00000000000000d0 .L0 
     /tmp/cco8gpQA.s:262    .text:00000000000000d0 .L0 
     /tmp/cco8gpQA.s:264    .text:00000000000000d4 .L0 
     /tmp/cco8gpQA.s:269    .text:00000000000000d8 .L0 
     /tmp/cco8gpQA.s:272    .text:00000000000000dc .L0 
     /tmp/cco8gpQA.s:273    .text:00000000000000e0 .L0 
     /tmp/cco8gpQA.s:280    .text._ZN3stm14CircularBufferIP3TCBE7destroyEv:0000000000000000 _ZN3stm14CircularBufferIP3TCBE7destroyEv
     /tmp/cco8gpQA.s:283    .text._ZN3stm14CircularBufferIP3TCBE7destroyEv:0000000000000000 .L0 
     /tmp/cco8gpQA.s:285    .text._ZN3stm14CircularBufferIP3TCBE7destroyEv:0000000000000000 .L0 
     /tmp/cco8gpQA.s:286    .text._ZN3stm14CircularBufferIP3TCBE7destroyEv:0000000000000004 .L0 
GAS LISTING /tmp/cco8gpQA.s 			page 21


     /tmp/cco8gpQA.s:289    .text._ZN3stm14CircularBufferIP3TCBE7destroyEv:000000000000000c .L0 
     /tmp/cco8gpQA.s:290    .text._ZN3stm14CircularBufferIP3TCBE7destroyEv:000000000000000c .L0 
     /tmp/cco8gpQA.s:292    .text._ZN3stm14CircularBufferIP3TCBE7destroyEv:0000000000000010 .L0 
     /tmp/cco8gpQA.s:294    .text._ZN3stm14CircularBufferIP3TCBE7destroyEv:0000000000000010 .L0 
     /tmp/cco8gpQA.s:299    .text._ZN3stm14CircularBufferIP3TCBE7destroyEv:000000000000001c .L0 
     /tmp/cco8gpQA.s:300    .text._ZN3stm14CircularBufferIP3TCBE7destroyEv:0000000000000020 .L0 
     /tmp/cco8gpQA.s:302    .text._ZN3stm14CircularBufferIP3TCBE7destroyEv:0000000000000024 .L0 
     /tmp/cco8gpQA.s:303    .text._ZN3stm14CircularBufferIP3TCBE7destroyEv:0000000000000024 .L0 
     /tmp/cco8gpQA.s:305    .text._ZN3stm14CircularBufferIP3TCBE7destroyEv:0000000000000028 .L0 
     /tmp/cco8gpQA.s:307    .text._ZN3stm14CircularBufferIP3TCBE7destroyEv:000000000000002c .L0 
     /tmp/cco8gpQA.s:314    .text:00000000000000e0 _ZN3Sem10_sem_closeEPS_
     /tmp/cco8gpQA.s:317    .text:00000000000000e0 .L0 
     /tmp/cco8gpQA.s:319    .text:00000000000000e0 .L0 
     /tmp/cco8gpQA.s:320    .text:00000000000000e4 .L0 
     /tmp/cco8gpQA.s:324    .text:00000000000000f0 .L0 
     /tmp/cco8gpQA.s:325    .text:00000000000000f0 .L0 
     /tmp/cco8gpQA.s:326    .text:00000000000000f0 .L0 
     /tmp/cco8gpQA.s:328    .text:00000000000000f4 .L0 
     /tmp/cco8gpQA.s:331    .text:00000000000000f8 .L0 
     /tmp/cco8gpQA.s:335    .text:00000000000000fc .L0 
     /tmp/cco8gpQA.s:338    .text:00000000000000fc .L0 
     /tmp/cco8gpQA.s:339    .text:00000000000000fc .L0 
     /tmp/cco8gpQA.s:344    .text:0000000000000100 .L0 
     /tmp/cco8gpQA.s:347    .text:0000000000000104 .L0 
     /tmp/cco8gpQA.s:348    .text:0000000000000104 .L0 
     /tmp/cco8gpQA.s:352    .text:0000000000000110 .L0 
     /tmp/cco8gpQA.s:353    .text:0000000000000110 .L0 
     /tmp/cco8gpQA.s:357    .text:0000000000000118 .L0 
     /tmp/cco8gpQA.s:360    .text:000000000000011c .L0 
     /tmp/cco8gpQA.s:361    .text:000000000000011c .L0 
     /tmp/cco8gpQA.s:365    .text:0000000000000128 .L0 
     /tmp/cco8gpQA.s:366    .text:0000000000000128 .L0 
     /tmp/cco8gpQA.s:370    .text:0000000000000134 .L0 
     /tmp/cco8gpQA.s:373    .text:0000000000000138 .L0 
     /tmp/cco8gpQA.s:374    .text:000000000000013c .L0 
     /tmp/cco8gpQA.s:375    .text:000000000000013c .L0 
     /tmp/cco8gpQA.s:377    .text:0000000000000140 .L0 
     /tmp/cco8gpQA.s:378    .text:0000000000000140 .L0 
     /tmp/cco8gpQA.s:380    .text:0000000000000144 .L0 
     /tmp/cco8gpQA.s:383    .text:0000000000000148 .L0 
     /tmp/cco8gpQA.s:387    .text:000000000000014c .L0 
     /tmp/cco8gpQA.s:389    .text:000000000000014c .L0 
     /tmp/cco8gpQA.s:393    .text:0000000000000154 .L0 
     /tmp/cco8gpQA.s:395    .text:000000000000015c .L0 
     /tmp/cco8gpQA.s:402    .text._ZN3stm14CircularBufferIP3TCBE6extendEv:0000000000000000 _ZN3stm14CircularBufferIP3TCBE6extendEv
     /tmp/cco8gpQA.s:405    .text._ZN3stm14CircularBufferIP3TCBE6extendEv:0000000000000000 .L0 
     /tmp/cco8gpQA.s:407    .text._ZN3stm14CircularBufferIP3TCBE6extendEv:0000000000000000 .L0 
     /tmp/cco8gpQA.s:408    .text._ZN3stm14CircularBufferIP3TCBE6extendEv:0000000000000004 .L0 
     /tmp/cco8gpQA.s:413    .text._ZN3stm14CircularBufferIP3TCBE6extendEv:0000000000000014 .L0 
     /tmp/cco8gpQA.s:414    .text._ZN3stm14CircularBufferIP3TCBE6extendEv:0000000000000014 .L0 
     /tmp/cco8gpQA.s:415    .text._ZN3stm14CircularBufferIP3TCBE6extendEv:0000000000000014 .L0 
     /tmp/cco8gpQA.s:416    .text._ZN3stm14CircularBufferIP3TCBE6extendEv:0000000000000014 .L0 
     /tmp/cco8gpQA.s:418    .text._ZN3stm14CircularBufferIP3TCBE6extendEv:0000000000000018 .L0 
     /tmp/cco8gpQA.s:421    .text._ZN3stm14CircularBufferIP3TCBE6extendEv:000000000000001c .L0 
     /tmp/cco8gpQA.s:424    .text._ZN3stm14CircularBufferIP3TCBE6extendEv:0000000000000020 .L0 
     /tmp/cco8gpQA.s:431    .text._ZN3stm14CircularBufferIP3TCBE6extendEv:0000000000000030 .L0 
     /tmp/cco8gpQA.s:434    .text._ZN3stm14CircularBufferIP3TCBE6extendEv:0000000000000034 .L0 
GAS LISTING /tmp/cco8gpQA.s 			page 22


     /tmp/cco8gpQA.s:438    .text._ZN3stm14CircularBufferIP3TCBE6extendEv:0000000000000038 .L0 
     /tmp/cco8gpQA.s:439    .text._ZN3stm14CircularBufferIP3TCBE6extendEv:0000000000000038 .L0 
     /tmp/cco8gpQA.s:441    .text._ZN3stm14CircularBufferIP3TCBE6extendEv:000000000000003c .L0 
     /tmp/cco8gpQA.s:443    .text._ZN3stm14CircularBufferIP3TCBE6extendEv:0000000000000040 .L0 
     /tmp/cco8gpQA.s:445    .text._ZN3stm14CircularBufferIP3TCBE6extendEv:0000000000000044 .L0 
     /tmp/cco8gpQA.s:448    .text._ZN3stm14CircularBufferIP3TCBE6extendEv:000000000000004c .L0 
     /tmp/cco8gpQA.s:452    .text._ZN3stm14CircularBufferIP3TCBE6extendEv:0000000000000058 .L0 
     /tmp/cco8gpQA.s:454    .text._ZN3stm14CircularBufferIP3TCBE6extendEv:000000000000005c .L0 
     /tmp/cco8gpQA.s:457    .text._ZN3stm14CircularBufferIP3TCBE6extendEv:0000000000000060 .L0 
     /tmp/cco8gpQA.s:460    .text._ZN3stm14CircularBufferIP3TCBE6extendEv:0000000000000064 .L0 
     /tmp/cco8gpQA.s:462    .text._ZN3stm14CircularBufferIP3TCBE6extendEv:0000000000000068 .L0 
     /tmp/cco8gpQA.s:469    .text._ZN3stm14CircularBufferIP3TCBE6extendEv:0000000000000070 .L0 
     /tmp/cco8gpQA.s:474    .text._ZN3stm14CircularBufferIP3TCBE6extendEv:000000000000007c .L0 
     /tmp/cco8gpQA.s:476    .text._ZN3stm14CircularBufferIP3TCBE6extendEv:0000000000000080 .L0 
     /tmp/cco8gpQA.s:478    .text._ZN3stm14CircularBufferIP3TCBE6extendEv:0000000000000084 .L0 
     /tmp/cco8gpQA.s:480    .text._ZN3stm14CircularBufferIP3TCBE6extendEv:0000000000000088 .L0 
     /tmp/cco8gpQA.s:482    .text._ZN3stm14CircularBufferIP3TCBE6extendEv:000000000000008c .L0 
     /tmp/cco8gpQA.s:484    .text._ZN3stm14CircularBufferIP3TCBE6extendEv:0000000000000090 .L0 
     /tmp/cco8gpQA.s:486    .text._ZN3stm14CircularBufferIP3TCBE6extendEv:0000000000000094 .L0 
     /tmp/cco8gpQA.s:487    .text._ZN3stm14CircularBufferIP3TCBE6extendEv:0000000000000098 .L0 
     /tmp/cco8gpQA.s:489    .text._ZN3stm14CircularBufferIP3TCBE6extendEv:000000000000009c .L0 
     /tmp/cco8gpQA.s:490    .text._ZN3stm14CircularBufferIP3TCBE6extendEv:000000000000009c .L0 
     /tmp/cco8gpQA.s:492    .text._ZN3stm14CircularBufferIP3TCBE6extendEv:00000000000000a0 .L0 
     /tmp/cco8gpQA.s:495    .text._ZN3stm14CircularBufferIP3TCBE6extendEv:00000000000000a4 .L0 
     /tmp/cco8gpQA.s:498    .text._ZN3stm14CircularBufferIP3TCBE6extendEv:00000000000000a8 .L0 
     /tmp/cco8gpQA.s:500    .text._ZN3stm14CircularBufferIP3TCBE6extendEv:00000000000000ac .L0 
     /tmp/cco8gpQA.s:507    .text._ZN3stm14CircularBufferIP3TCBE3putES2_:0000000000000000 _ZN3stm14CircularBufferIP3TCBE3putES2_
     /tmp/cco8gpQA.s:510    .text._ZN3stm14CircularBufferIP3TCBE3putES2_:0000000000000000 .L0 
     /tmp/cco8gpQA.s:512    .text._ZN3stm14CircularBufferIP3TCBE3putES2_:0000000000000000 .L0 
     /tmp/cco8gpQA.s:513    .text._ZN3stm14CircularBufferIP3TCBE3putES2_:0000000000000004 .L0 
     /tmp/cco8gpQA.s:518    .text._ZN3stm14CircularBufferIP3TCBE3putES2_:0000000000000014 .L0 
     /tmp/cco8gpQA.s:519    .text._ZN3stm14CircularBufferIP3TCBE3putES2_:0000000000000014 .L0 
     /tmp/cco8gpQA.s:520    .text._ZN3stm14CircularBufferIP3TCBE3putES2_:0000000000000014 .L0 
     /tmp/cco8gpQA.s:521    .text._ZN3stm14CircularBufferIP3TCBE3putES2_:0000000000000014 .L0 
     /tmp/cco8gpQA.s:523    .text._ZN3stm14CircularBufferIP3TCBE3putES2_:0000000000000018 .L0 
     /tmp/cco8gpQA.s:527    .text._ZN3stm14CircularBufferIP3TCBE3putES2_:0000000000000020 .L0 
     /tmp/cco8gpQA.s:529    .text._ZN3stm14CircularBufferIP3TCBE3putES2_:0000000000000024 .L0 
     /tmp/cco8gpQA.s:531    .text._ZN3stm14CircularBufferIP3TCBE3putES2_:0000000000000028 .L0 
     /tmp/cco8gpQA.s:535    .text._ZN3stm14CircularBufferIP3TCBE3putES2_:000000000000002c .L0 
     /tmp/cco8gpQA.s:537    .text._ZN3stm14CircularBufferIP3TCBE3putES2_:0000000000000030 .L0 
     /tmp/cco8gpQA.s:539    .text._ZN3stm14CircularBufferIP3TCBE3putES2_:0000000000000034 .L0 
     /tmp/cco8gpQA.s:542    .text._ZN3stm14CircularBufferIP3TCBE3putES2_:000000000000003c .L0 
     /tmp/cco8gpQA.s:544    .text._ZN3stm14CircularBufferIP3TCBE3putES2_:0000000000000040 .L0 
     /tmp/cco8gpQA.s:546    .text._ZN3stm14CircularBufferIP3TCBE3putES2_:0000000000000044 .L0 
     /tmp/cco8gpQA.s:548    .text._ZN3stm14CircularBufferIP3TCBE3putES2_:0000000000000048 .L0 
     /tmp/cco8gpQA.s:550    .text._ZN3stm14CircularBufferIP3TCBE3putES2_:000000000000004c .L0 
     /tmp/cco8gpQA.s:552    .text._ZN3stm14CircularBufferIP3TCBE3putES2_:0000000000000050 .L0 
     /tmp/cco8gpQA.s:554    .text._ZN3stm14CircularBufferIP3TCBE3putES2_:0000000000000054 .L0 
     /tmp/cco8gpQA.s:556    .text._ZN3stm14CircularBufferIP3TCBE3putES2_:0000000000000058 .L0 
     /tmp/cco8gpQA.s:559    .text._ZN3stm14CircularBufferIP3TCBE3putES2_:0000000000000060 .L0 
     /tmp/cco8gpQA.s:560    .text._ZN3stm14CircularBufferIP3TCBE3putES2_:0000000000000064 .L0 
     /tmp/cco8gpQA.s:561    .text._ZN3stm14CircularBufferIP3TCBE3putES2_:0000000000000064 .L0 
     /tmp/cco8gpQA.s:563    .text._ZN3stm14CircularBufferIP3TCBE3putES2_:0000000000000068 .L0 
     /tmp/cco8gpQA.s:564    .text._ZN3stm14CircularBufferIP3TCBE3putES2_:0000000000000068 .L0 
     /tmp/cco8gpQA.s:566    .text._ZN3stm14CircularBufferIP3TCBE3putES2_:000000000000006c .L0 
     /tmp/cco8gpQA.s:569    .text._ZN3stm14CircularBufferIP3TCBE3putES2_:0000000000000070 .L0 
     /tmp/cco8gpQA.s:572    .text._ZN3stm14CircularBufferIP3TCBE3putES2_:0000000000000074 .L0 
GAS LISTING /tmp/cco8gpQA.s 			page 23


     /tmp/cco8gpQA.s:576    .text._ZN3stm14CircularBufferIP3TCBE3putES2_:0000000000000078 .L0 
     /tmp/cco8gpQA.s:578    .text._ZN3stm14CircularBufferIP3TCBE3putES2_:0000000000000078 .L0 
     /tmp/cco8gpQA.s:581    .text._ZN3stm14CircularBufferIP3TCBE3putES2_:0000000000000084 .L0 
     /tmp/cco8gpQA.s:588    .text:000000000000015c _ZN3Sem9_sem_waitEPS_
     /tmp/cco8gpQA.s:591    .text:000000000000015c .L0 
     /tmp/cco8gpQA.s:593    .text:000000000000015c .L0 
     /tmp/cco8gpQA.s:594    .text:000000000000015c .L0 
     /tmp/cco8gpQA.s:597    .text:0000000000000160 .L0 
     /tmp/cco8gpQA.s:598    .text:0000000000000160 .L0 
     /tmp/cco8gpQA.s:599    .text:0000000000000160 .L0 
     /tmp/cco8gpQA.s:601    .text:0000000000000164 .L0 
     /tmp/cco8gpQA.s:603    .text:0000000000000168 .L0 
     /tmp/cco8gpQA.s:604    .text:0000000000000168 .L0 
     /tmp/cco8gpQA.s:607    .text:0000000000000170 .L0 
     /tmp/cco8gpQA.s:613    .text:0000000000000178 .L0 
     /tmp/cco8gpQA.s:614    .text:000000000000017c .L0 
     /tmp/cco8gpQA.s:618    .text:0000000000000188 .L0 
     /tmp/cco8gpQA.s:619    .text:0000000000000188 .L0 
     /tmp/cco8gpQA.s:620    .text:0000000000000188 .L0 
     /tmp/cco8gpQA.s:622    .text:000000000000018c .L0 
     /tmp/cco8gpQA.s:624    .text:000000000000018c .L0 
     /tmp/cco8gpQA.s:625    .text:000000000000018c .L0 
     /tmp/cco8gpQA.s:631    .text:0000000000000198 .L0 
     /tmp/cco8gpQA.s:632    .text:0000000000000198 .L0 
     /tmp/cco8gpQA.s:638    .text:00000000000001a0 .L0 
     /tmp/cco8gpQA.s:639    .text:00000000000001a0 .L0 
     /tmp/cco8gpQA.s:644    .text:00000000000001ac .L0 
     /tmp/cco8gpQA.s:645    .text:00000000000001ac .L0 
     /tmp/cco8gpQA.s:648    .text:00000000000001b4 .L0 
     /tmp/cco8gpQA.s:649    .text:00000000000001b4 .L0 
     /tmp/cco8gpQA.s:654    .text:00000000000001b8 .L0 
     /tmp/cco8gpQA.s:655    .text:00000000000001b8 .L0 
     /tmp/cco8gpQA.s:660    .text:00000000000001bc .L0 
     /tmp/cco8gpQA.s:663    .text:00000000000001c4 .L0 
     /tmp/cco8gpQA.s:667    .text:00000000000001c8 .L0 
     /tmp/cco8gpQA.s:668    .text:00000000000001cc .L0 
     /tmp/cco8gpQA.s:669    .text:00000000000001cc .L0 
     /tmp/cco8gpQA.s:671    .text:00000000000001d0 .L0 
     /tmp/cco8gpQA.s:672    .text:00000000000001d0 .L0 
     /tmp/cco8gpQA.s:674    .text:00000000000001d4 .L0 
     /tmp/cco8gpQA.s:676    .text:00000000000001d8 .L0 
     /tmp/cco8gpQA.s:680    .text:00000000000001dc .L0 
     /tmp/cco8gpQA.s:684    .text:00000000000001dc .L0 
     /tmp/cco8gpQA.s:685    .text:00000000000001dc .L0 
     /tmp/cco8gpQA.s:686    .text:00000000000001dc .L0 
     /tmp/cco8gpQA.s:691    .text:00000000000001e0 .L0 
     /tmp/cco8gpQA.s:692    .text:00000000000001e0 .L0 
     /tmp/cco8gpQA.s:696    .text:00000000000001e8 .L0 
     /tmp/cco8gpQA.s:697    .text:00000000000001e8 .L0 
     /tmp/cco8gpQA.s:698    .text:00000000000001e8 .L0 
     /tmp/cco8gpQA.s:699    .text:00000000000001e8 .L0 
     /tmp/cco8gpQA.s:701    .text:00000000000001e8 .L0 
     /tmp/cco8gpQA.s:704    .text:00000000000001ec .L0 
     /tmp/cco8gpQA.s:705    .text:00000000000001f0 .L0 
     /tmp/cco8gpQA.s:58     .text._ZN3stm14CircularBufferIP3TCBE4initEv:0000000000000050 .L0 
     /tmp/cco8gpQA.s:714    .text:00000000000001f0 .L0 
     /tmp/cco8gpQA.s:186    .text._ZN3stm14CircularBufferIP3TCBE3getEv:000000000000004c .L0 
GAS LISTING /tmp/cco8gpQA.s 			page 24


     /tmp/cco8gpQA.s:310    .text._ZN3stm14CircularBufferIP3TCBE7destroyEv:000000000000002c .L0 
     /tmp/cco8gpQA.s:503    .text._ZN3stm14CircularBufferIP3TCBE6extendEv:00000000000000ac .L0 
     /tmp/cco8gpQA.s:584    .text._ZN3stm14CircularBufferIP3TCBE3putES2_:0000000000000084 .L0 
     /tmp/cco8gpQA.s:625    .text:000000000000018c .L0 
     /tmp/cco8gpQA.s:128    .text:000000000000006c .L5
     /tmp/cco8gpQA.s:109    .text:0000000000000050 .L4
     /tmp/cco8gpQA.s:267    .text:00000000000000d8 .L12
     /tmp/cco8gpQA.s:217    .text:0000000000000094 .L17
     /tmp/cco8gpQA.s:386    .text:000000000000014c .L24
     /tmp/cco8gpQA.s:358    .text:000000000000011c .L22
     /tmp/cco8gpQA.s:333    .text:00000000000000fc .L23
     /tmp/cco8gpQA.s:391    .text:0000000000000154 .L27
     /tmp/cco8gpQA.s:371    .text:0000000000000138 .L21
     /tmp/cco8gpQA.s:695    .text:00000000000001e8 .L39
     /tmp/cco8gpQA.s:611    .text:0000000000000178 .L45
     /tmp/cco8gpQA.s:679    .text:00000000000001dc .L46
     /tmp/cco8gpQA.s:665    .text:00000000000001c8 .L37
     /tmp/cco8gpQA.s:466    .text._ZN3stm14CircularBufferIP3TCBE6extendEv:0000000000000070 .L29
     /tmp/cco8gpQA.s:436    .text._ZN3stm14CircularBufferIP3TCBE6extendEv:0000000000000038 .L30
     /tmp/cco8gpQA.s:575    .text._ZN3stm14CircularBufferIP3TCBE3putES2_:0000000000000078 .L35
     /tmp/cco8gpQA.s:533    .text._ZN3stm14CircularBufferIP3TCBE3putES2_:000000000000002c .L33
     /tmp/cco8gpQA.s:2344   .debug_abbrev:0000000000000000 .Ldebug_abbrev0
     /tmp/cco8gpQA.s:4076   .debug_str:00000000000007d0 .LASF160
     /tmp/cco8gpQA.s:3938   .debug_str:00000000000003f3 .LASF161
     /tmp/cco8gpQA.s:3906   .debug_str:00000000000002ce .LASF162
     /tmp/cco8gpQA.s:3796   .debug_ranges:0000000000000000 .Ldebug_ranges0
     /tmp/cco8gpQA.s:3812   .debug_line:0000000000000000 .Ldebug_line0
     /tmp/cco8gpQA.s:3936   .debug_str:00000000000003e6 .LASF0
     /tmp/cco8gpQA.s:3968   .debug_str:00000000000004fb .LASF1
     /tmp/cco8gpQA.s:4038   .debug_str:00000000000006d1 .LASF2
     /tmp/cco8gpQA.s:4042   .debug_str:00000000000006f8 .LASF4
     /tmp/cco8gpQA.s:3948   .debug_str:0000000000000462 .LASF3
     /tmp/cco8gpQA.s:3824   .debug_str:0000000000000058 .LASF5
     /tmp/cco8gpQA.s:4024   .debug_str:000000000000068d .LASF6
     /tmp/cco8gpQA.s:4016   .debug_str:0000000000000659 .LASF7
     /tmp/cco8gpQA.s:3958   .debug_str:00000000000004ba .LASF8
     /tmp/cco8gpQA.s:3904   .debug_str:00000000000002be .LASF9
     /tmp/cco8gpQA.s:3910   .debug_str:0000000000000305 .LASF10
     /tmp/cco8gpQA.s:3858   .debug_str:0000000000000137 .LASF11
     /tmp/cco8gpQA.s:3896   .debug_str:0000000000000292 .LASF12
     /tmp/cco8gpQA.s:3872   .debug_str:00000000000001ab .LASF13
     /tmp/cco8gpQA.s:3856   .debug_str:0000000000000127 .LASF14
     /tmp/cco8gpQA.s:4064   .debug_str:0000000000000794 .LASF15
     /tmp/cco8gpQA.s:3888   .debug_str:0000000000000257 .LASF16
     /tmp/cco8gpQA.s:4054   .debug_str:000000000000074a .LASF17
     /tmp/cco8gpQA.s:4122   .debug_str:0000000000000a1c .LASF18
     /tmp/cco8gpQA.s:3972   .debug_str:0000000000000514 .LASF26
     /tmp/cco8gpQA.s:3822   .debug_str:000000000000002f .LASF28
     /tmp/cco8gpQA.s:4072   .debug_str:00000000000007bb .LASF19
     /tmp/cco8gpQA.s:3986   .debug_str:0000000000000586 .LASF21
     /tmp/cco8gpQA.s:4050   .debug_str:0000000000000730 .LASF20
     /tmp/cco8gpQA.s:4080   .debug_str:000000000000089b .LASF22
     /tmp/cco8gpQA.s:4106   .debug_str:000000000000098f .LASF23
     /tmp/cco8gpQA.s:3912   .debug_str:0000000000000313 .LASF24
     /tmp/cco8gpQA.s:3962   .debug_str:00000000000004d6 .LASF25
     /tmp/cco8gpQA.s:3840   .debug_str:00000000000000cb .LASF103
     /tmp/cco8gpQA.s:4006   .debug_str:0000000000000626 .LASF105
GAS LISTING /tmp/cco8gpQA.s 			page 25


     /tmp/cco8gpQA.s:4092   .debug_str:0000000000000922 .LASF27
     /tmp/cco8gpQA.s:4120   .debug_str:0000000000000a0a .LASF29
     /tmp/cco8gpQA.s:4018   .debug_str:000000000000066c .LASF30
     /tmp/cco8gpQA.s:4146   .debug_str:0000000000000ad8 .LASF31
     /tmp/cco8gpQA.s:3982   .debug_str:000000000000056d .LASF32
     /tmp/cco8gpQA.s:3874   .debug_str:00000000000001bb .LASF33
     /tmp/cco8gpQA.s:3970   .debug_str:000000000000050e .LASF34
     /tmp/cco8gpQA.s:4082   .debug_str:00000000000008b7 .LASF35
     /tmp/cco8gpQA.s:3990   .debug_str:00000000000005a5 .LASF36
     /tmp/cco8gpQA.s:4088   .debug_str:00000000000008e0 .LASF37
     /tmp/cco8gpQA.s:4124   .debug_str:0000000000000a25 .LASF38
     /tmp/cco8gpQA.s:3878   .debug_str:00000000000001f8 .LASF39
     /tmp/cco8gpQA.s:3992   .debug_str:00000000000005b4 .LASF40
     /tmp/cco8gpQA.s:4066   .debug_str:00000000000007a0 .LASF41
     /tmp/cco8gpQA.s:4094   .debug_str:0000000000000928 .LASF42
     /tmp/cco8gpQA.s:4116   .debug_str:00000000000009eb .LASF44
     /tmp/cco8gpQA.s:4130   .debug_str:0000000000000a51 .LASF43
     /tmp/cco8gpQA.s:3836   .debug_str:0000000000000099 .LASF45
     /tmp/cco8gpQA.s:4022   .debug_str:0000000000000681 .LASF46
     /tmp/cco8gpQA.s:3876   .debug_str:00000000000001e0 .LASF47
     /tmp/cco8gpQA.s:3984   .debug_str:000000000000057c .LASF48
     /tmp/cco8gpQA.s:4140   .debug_str:0000000000000aa9 .LASF49
     /tmp/cco8gpQA.s:4014   .debug_str:000000000000064d .LASF50
     /tmp/cco8gpQA.s:4000   .debug_str:00000000000005f0 .LASF51
     /tmp/cco8gpQA.s:3854   .debug_str:0000000000000119 .LASF52
     /tmp/cco8gpQA.s:3934   .debug_str:00000000000003e0 .LASF53
     /tmp/cco8gpQA.s:3826   .debug_str:000000000000005f .LASF54
     /tmp/cco8gpQA.s:3834   .debug_str:0000000000000093 .LASF55
     /tmp/cco8gpQA.s:4044   .debug_str:00000000000006ff .LASF56
     /tmp/cco8gpQA.s:4008   .debug_str:0000000000000636 .LASF57
     /tmp/cco8gpQA.s:3852   .debug_str:0000000000000108 .LASF58
     /tmp/cco8gpQA.s:3988   .debug_str:000000000000059e .LASF59
     /tmp/cco8gpQA.s:3894   .debug_str:0000000000000281 .LASF60
     /tmp/cco8gpQA.s:4062   .debug_str:0000000000000786 .LASF61
     /tmp/cco8gpQA.s:3940   .debug_str:0000000000000407 .LASF62
     /tmp/cco8gpQA.s:3830   .debug_str:000000000000007c .LASF63
     /tmp/cco8gpQA.s:3886   .debug_str:000000000000023e .LASF64
     /tmp/cco8gpQA.s:3916   .debug_str:000000000000033b .LASF65
     /tmp/cco8gpQA.s:3838   .debug_str:00000000000000b0 .LASF66
     /tmp/cco8gpQA.s:4084   .debug_str:00000000000008c7 .LASF67
     /tmp/cco8gpQA.s:3944   .debug_str:000000000000042b .LASF68
     /tmp/cco8gpQA.s:3950   .debug_str:0000000000000474 .LASF69
     /tmp/cco8gpQA.s:4128   .debug_str:0000000000000a37 .LASF70
     /tmp/cco8gpQA.s:3898   .debug_str:00000000000002a1 .LASF71
     /tmp/cco8gpQA.s:4074   .debug_str:00000000000007c8 .LASF72
     /tmp/cco8gpQA.s:4108   .debug_str:000000000000099c .LASF73
     /tmp/cco8gpQA.s:3924   .debug_str:000000000000036c .LASF74
     /tmp/cco8gpQA.s:4144   .debug_str:0000000000000ad2 .LASF75
     /tmp/cco8gpQA.s:3880   .debug_str:0000000000000211 .LASF76
     /tmp/cco8gpQA.s:4096   .debug_str:0000000000000934 .LASF77
     /tmp/cco8gpQA.s:4118   .debug_str:0000000000000a03 .LASF78
     /tmp/cco8gpQA.s:4032   .debug_str:00000000000006b3 .LASF79
     /tmp/cco8gpQA.s:4098   .debug_str:000000000000093c .LASF80
     /tmp/cco8gpQA.s:3974   .debug_str:0000000000000523 .LASF81
     /tmp/cco8gpQA.s:4070   .debug_str:00000000000007b6 .LASF82
     /tmp/cco8gpQA.s:4132   .debug_str:0000000000000a5c .LASF83
     /tmp/cco8gpQA.s:4114   .debug_str:00000000000009d3 .LASF84
GAS LISTING /tmp/cco8gpQA.s 			page 26


     /tmp/cco8gpQA.s:3868   .debug_str:0000000000000199 .LASF85
     /tmp/cco8gpQA.s:4046   .debug_str:000000000000070f .LASF86
     /tmp/cco8gpQA.s:3922   .debug_str:0000000000000362 .LASF87
     /tmp/cco8gpQA.s:4134   .debug_str:0000000000000a66 .LASF88
     /tmp/cco8gpQA.s:4056   .debug_str:0000000000000760 .LASF89
     /tmp/cco8gpQA.s:3908   .debug_str:00000000000002ec .LASF90
     /tmp/cco8gpQA.s:3816   .debug_str:000000000000000b .LASF91
     /tmp/cco8gpQA.s:4012   .debug_str:0000000000000645 .LASF92
     /tmp/cco8gpQA.s:3848   .debug_str:00000000000000f6 .LASF93
     /tmp/cco8gpQA.s:3844   .debug_str:00000000000000e3 .LASF94
     /tmp/cco8gpQA.s:3850   .debug_str:00000000000000fc .LASF133
     /tmp/cco8gpQA.s:3860   .debug_str:0000000000000146 .LASF95
     /tmp/cco8gpQA.s:3966   .debug_str:00000000000004f6 .LASF96
     /tmp/cco8gpQA.s:3814   .debug_str:0000000000000000 .LASF97
     /tmp/cco8gpQA.s:3946   .debug_str:0000000000000446 .LASF98
     /tmp/cco8gpQA.s:3942   .debug_str:0000000000000421 .LASF99
     /tmp/cco8gpQA.s:3884   .debug_str:0000000000000222 .LASF100
     /tmp/cco8gpQA.s:4048   .debug_str:0000000000000727 .LASF101
     /tmp/cco8gpQA.s:4102   .debug_str:000000000000094e .LASF102
     /tmp/cco8gpQA.s:3956   .debug_str:00000000000004b0 .LASF104
     /tmp/cco8gpQA.s:3866   .debug_str:000000000000017f .LASF106
     /tmp/cco8gpQA.s:3998   .debug_str:00000000000005e7 .LASF107
     /tmp/cco8gpQA.s:4150   .debug_str:0000000000000af6 .LASF108
     /tmp/cco8gpQA.s:4052   .debug_str:0000000000000741 .LASF109
     /tmp/cco8gpQA.s:4040   .debug_str:00000000000006df .LASF110
     /tmp/cco8gpQA.s:3832   .debug_str:000000000000008a .LASF111
     /tmp/cco8gpQA.s:4110   .debug_str:00000000000009a1 .LASF112
     /tmp/cco8gpQA.s:4148   .debug_str:0000000000000af0 .LASF163
     /tmp/cco8gpQA.s:3976   .debug_str:000000000000052a .LASF164
     /tmp/cco8gpQA.s:3978   .debug_str:0000000000000554 .LASF126
     /tmp/cco8gpQA.s:3994   .debug_str:00000000000005d3 .LASF147
     /tmp/cco8gpQA.s:4030   .debug_str:00000000000006ae .LASF113
     /tmp/cco8gpQA.s:3820   .debug_str:000000000000001a .LASF114
     /tmp/cco8gpQA.s:4028   .debug_str:00000000000006a9 .LASF115
     /tmp/cco8gpQA.s:4136   .debug_str:0000000000000a7c .LASF116
     /tmp/cco8gpQA.s:3952   .debug_str:0000000000000483 .LASF117
     /tmp/cco8gpQA.s:3930   .debug_str:00000000000003b2 .LASF165
     /tmp/cco8gpQA.s:3964   .debug_str:00000000000004f1 .LASF118
     /tmp/cco8gpQA.s:4090   .debug_str:00000000000008fc .LASF119
     /tmp/cco8gpQA.s:4034   .debug_str:00000000000006be .LASF120
     /tmp/cco8gpQA.s:3864   .debug_str:0000000000000154 .LASF121
     /tmp/cco8gpQA.s:4100   .debug_str:0000000000000946 .LASF122
     /tmp/cco8gpQA.s:3926   .debug_str:0000000000000371 .LASF123
     /tmp/cco8gpQA.s:3870   .debug_str:00000000000001a4 .LASF124
     /tmp/cco8gpQA.s:4104   .debug_str:0000000000000967 .LASF125
     /tmp/cco8gpQA.s:3918   .debug_str:000000000000034b .LASF127
     /tmp/cco8gpQA.s:3892   .debug_str:000000000000027b .LASF128
     /tmp/cco8gpQA.s:4058   .debug_str:000000000000076c .LASF129
     /tmp/cco8gpQA.s:4004   .debug_str:0000000000000621 .LASF130
     /tmp/cco8gpQA.s:3818   .debug_str:0000000000000011 .LASF131
     /tmp/cco8gpQA.s:3954   .debug_str:00000000000004aa .LASF132
     /tmp/cco8gpQA.s:4068   .debug_str:00000000000007ae .LASF134
     /tmp/cco8gpQA.s:4126   .debug_str:0000000000000a2f .LASF135
     /tmp/cco8gpQA.s:4112   .debug_str:00000000000009ce .LASF136
     /tmp/cco8gpQA.s:4138   .debug_str:0000000000000aa2 .LASF166
     /tmp/cco8gpQA.s:3960   .debug_str:00000000000004cd .LASF137
     /tmp/cco8gpQA.s:4020   .debug_str:0000000000000679 .LASF138
GAS LISTING /tmp/cco8gpQA.s 			page 27


     /tmp/cco8gpQA.s:3862   .debug_str:000000000000014b .LASF139
     /tmp/cco8gpQA.s:4078   .debug_str:0000000000000894 .LASF140
     /tmp/cco8gpQA.s:3846   .debug_str:00000000000000ed .LASF141
     /tmp/cco8gpQA.s:3902   .debug_str:00000000000002b4 .LASF142
     /tmp/cco8gpQA.s:4060   .debug_str:0000000000000771 .LASF143
     /tmp/cco8gpQA.s:3928   .debug_str:000000000000039a .LASF167
     /tmp/cco8gpQA.s:4142   .debug_str:0000000000000abe .LASF168
     /tmp/cco8gpQA.s:4002   .debug_str:0000000000000608 .LASF144
     /tmp/cco8gpQA.s:4026   .debug_str:0000000000000694 .LASF145
     /tmp/cco8gpQA.s:3842   .debug_str:00000000000000d1 .LASF146
     /tmp/cco8gpQA.s:3890   .debug_str:000000000000026d .LASF148
     /tmp/cco8gpQA.s:3980   .debug_str:0000000000000560 .LASF149
     /tmp/cco8gpQA.s:3828   .debug_str:000000000000006f .LASF150
     /tmp/cco8gpQA.s:403    .text._ZN3stm14CircularBufferIP3TCBE6extendEv:0000000000000000 .LFB33
     /tmp/cco8gpQA.s:501    .text._ZN3stm14CircularBufferIP3TCBE6extendEv:00000000000000ac .LFE33
     /tmp/cco8gpQA.s:3900   .debug_str:00000000000002af .LASF152
     /tmp/cco8gpQA.s:3391   .debug_loc:0000000000000000 .LLST13
     /tmp/cco8gpQA.s:3882   .debug_str:0000000000000218 .LASF151
     /tmp/cco8gpQA.s:3409   .debug_loc:000000000000004c .LLST14
     /tmp/cco8gpQA.s:429    .text._ZN3stm14CircularBufferIP3TCBE6extendEv:0000000000000030 .LBB27
     /tmp/cco8gpQA.s:467    .text._ZN3stm14CircularBufferIP3TCBE6extendEv:0000000000000070 .LBE27
     /tmp/cco8gpQA.s:3426   .debug_loc:0000000000000097 .LLST15
     /tmp/cco8gpQA.s:3442   .debug_loc:00000000000000e1 .LLST16
     /tmp/cco8gpQA.s:426    .text._ZN3stm14CircularBufferIP3TCBE6extendEv:000000000000002c .LVL38
     /tmp/cco8gpQA.s:472    .text._ZN3stm14CircularBufferIP3TCBE6extendEv:000000000000007c .LVL47
     /tmp/cco8gpQA.s:508    .text._ZN3stm14CircularBufferIP3TCBE3putES2_:0000000000000000 .LFB32
     /tmp/cco8gpQA.s:582    .text._ZN3stm14CircularBufferIP3TCBE3putES2_:0000000000000084 .LFE32
     /tmp/cco8gpQA.s:3459   .debug_loc:000000000000012c .LLST17
     /tmp/cco8gpQA.s:4010   .debug_str:000000000000063d .LASF153
     /tmp/cco8gpQA.s:3481   .debug_loc:000000000000018b .LLST18
     /tmp/cco8gpQA.s:579    .text._ZN3stm14CircularBufferIP3TCBE3putES2_:0000000000000080 .LVL55
     /tmp/cco8gpQA.s:281    .text._ZN3stm14CircularBufferIP3TCBE7destroyEv:0000000000000000 .LFB31
     /tmp/cco8gpQA.s:308    .text._ZN3stm14CircularBufferIP3TCBE7destroyEv:000000000000002c .LFE31
     /tmp/cco8gpQA.s:3507   .debug_loc:00000000000001fd .LLST9
     /tmp/cco8gpQA.s:297    .text._ZN3stm14CircularBufferIP3TCBE7destroyEv:000000000000001c .LVL26
     /tmp/cco8gpQA.s:142    .text._ZN3stm14CircularBufferIP3TCBE3getEv:0000000000000000 .LFB30
     /tmp/cco8gpQA.s:184    .text._ZN3stm14CircularBufferIP3TCBE3getEv:000000000000004c .LFE30
     /tmp/cco8gpQA.s:3521   .debug_loc:0000000000000236 .LLST4
     /tmp/cco8gpQA.s:11     .text._ZN3stm14CircularBufferIP3TCBE4initEv:0000000000000000 .LFB28
     /tmp/cco8gpQA.s:56     .text._ZN3stm14CircularBufferIP3TCBE4initEv:0000000000000050 .LFE28
     /tmp/cco8gpQA.s:3532   .debug_loc:000000000000026c .LLST0
     /tmp/cco8gpQA.s:40     .text._ZN3stm14CircularBufferIP3TCBE4initEv:0000000000000038 .LVL2
     /tmp/cco8gpQA.s:191    .text:0000000000000074 .LFB27
     /tmp/cco8gpQA.s:274    .text:00000000000000e0 .LFE27
     /tmp/cco8gpQA.s:3550   .debug_loc:00000000000002b8 .LLST5
     /tmp/cco8gpQA.s:229    .text:00000000000000a4 .LBB20
     /tmp/cco8gpQA.s:253    .text:00000000000000c4 .LBE20
     /tmp/cco8gpQA.s:3579   .debug_loc:000000000000032d .LLST7
     /tmp/cco8gpQA.s:236    .text:00000000000000b0 .LBB21
     /tmp/cco8gpQA.s:244    .text:00000000000000b4 .LBE21
     /tmp/cco8gpQA.s:3586   .debug_loc:0000000000000350 .LLST8
     /tmp/cco8gpQA.s:234    .text:00000000000000b0 .LVL18
     /tmp/cco8gpQA.s:248    .text:00000000000000bc .LVL20
     /tmp/cco8gpQA.s:252    .text:00000000000000c4 .LVL21
     /tmp/cco8gpQA.s:201    .text:000000000000007c .LBB18
     /tmp/cco8gpQA.s:207    .text:0000000000000080 .LBE18
     /tmp/cco8gpQA.s:3593   .debug_loc:0000000000000373 .LLST6
GAS LISTING /tmp/cco8gpQA.s 			page 28


     /tmp/cco8gpQA.s:589    .text:000000000000015c .LFB26
     /tmp/cco8gpQA.s:706    .text:00000000000001f0 .LFE26
     /tmp/cco8gpQA.s:3602   .debug_loc:0000000000000398 .LLST19
     /tmp/cco8gpQA.s:3644   .debug_loc:0000000000000438 .LLST20
     /tmp/cco8gpQA.s:628    .text:0000000000000198 .LBB28
     /tmp/cco8gpQA.s:636    .text:00000000000001a0 .LBE28
     /tmp/cco8gpQA.s:3663   .debug_loc:0000000000000485 .LLST21
     /tmp/cco8gpQA.s:651    .text:00000000000001b8 .LBB30
     /tmp/cco8gpQA.s:658    .text:00000000000001bc .LBE30
     /tmp/cco8gpQA.s:3670   .debug_loc:00000000000004a8 .LLST22
     /tmp/cco8gpQA.s:682    .text:00000000000001dc .LBB32
     /tmp/cco8gpQA.s:689    .text:00000000000001e0 .LBE32
     /tmp/cco8gpQA.s:3677   .debug_loc:00000000000004cb .LLST23
     /tmp/cco8gpQA.s:642    .text:00000000000001ac .LVL63
     /tmp/cco8gpQA.s:646    .text:00000000000001b4 .LVL64
     /tmp/cco8gpQA.s:315    .text:00000000000000e0 .LFB25
     /tmp/cco8gpQA.s:396    .text:000000000000015c .LFE25
     /tmp/cco8gpQA.s:3684   .debug_loc:00000000000004ee .LLST10
     /tmp/cco8gpQA.s:345    .text:0000000000000104 .LBB26
     /tmp/cco8gpQA.s:355    .text:0000000000000118 .LBE26
     /tmp/cco8gpQA.s:3706   .debug_loc:000000000000054d .LLST12
     /tmp/cco8gpQA.s:350    .text:0000000000000110 .LVL30
     /tmp/cco8gpQA.s:354    .text:0000000000000118 .LVL31
     /tmp/cco8gpQA.s:336    .text:00000000000000fc .LBB24
     /tmp/cco8gpQA.s:342    .text:0000000000000100 .LBE24
     /tmp/cco8gpQA.s:3713   .debug_loc:0000000000000570 .LLST11
     /tmp/cco8gpQA.s:363    .text:0000000000000128 .LVL32
     /tmp/cco8gpQA.s:368    .text:0000000000000134 .LVL33
     /tmp/cco8gpQA.s:63     .text:0000000000000000 .LFB24
     /tmp/cco8gpQA.s:135    .text:0000000000000074 .LFE24
     /tmp/cco8gpQA.s:3996   .debug_str:00000000000005e0 .LASF154
     /tmp/cco8gpQA.s:3722   .debug_loc:0000000000000595 .LLST1
     /tmp/cco8gpQA.s:3744   .debug_loc:00000000000005f4 .LLST2
     /tmp/cco8gpQA.s:4036   .debug_str:00000000000006c7 .LASF155
     /tmp/cco8gpQA.s:3758   .debug_loc:000000000000062d .LLST3
     /tmp/cco8gpQA.s:89     .text:0000000000000030 .LVL6
     /tmp/cco8gpQA.s:101    .text:0000000000000048 .LVL8
     /tmp/cco8gpQA.s:3920   .debug_str:0000000000000354 .LASF156
     /tmp/cco8gpQA.s:4086   .debug_str:00000000000008d6 .LASF158
     /tmp/cco8gpQA.s:3914   .debug_str:000000000000032d .LASF157
     /tmp/cco8gpQA.s:3932   .debug_str:00000000000003d7 .LASF159
     /tmp/cco8gpQA.s:406    .text._ZN3stm14CircularBufferIP3TCBE6extendEv:0000000000000000 .LVL36
     /tmp/cco8gpQA.s:422    .text._ZN3stm14CircularBufferIP3TCBE6extendEv:0000000000000020 .LVL37
     /tmp/cco8gpQA.s:493    .text._ZN3stm14CircularBufferIP3TCBE6extendEv:00000000000000a0 .LVL48
     /tmp/cco8gpQA.s:428    .text._ZN3stm14CircularBufferIP3TCBE6extendEv:0000000000000030 .LVL39
     /tmp/cco8gpQA.s:470    .text._ZN3stm14CircularBufferIP3TCBE6extendEv:0000000000000074 .LVL46
     /tmp/cco8gpQA.s:496    .text._ZN3stm14CircularBufferIP3TCBE6extendEv:00000000000000a4 .LVL49
     /tmp/cco8gpQA.s:435    .text._ZN3stm14CircularBufferIP3TCBE6extendEv:0000000000000038 .LVL41
     /tmp/cco8gpQA.s:455    .text._ZN3stm14CircularBufferIP3TCBE6extendEv:0000000000000060 .LVL42
     /tmp/cco8gpQA.s:465    .text._ZN3stm14CircularBufferIP3TCBE6extendEv:0000000000000070 .LVL45
     /tmp/cco8gpQA.s:432    .text._ZN3stm14CircularBufferIP3TCBE6extendEv:0000000000000034 .LVL40
     /tmp/cco8gpQA.s:458    .text._ZN3stm14CircularBufferIP3TCBE6extendEv:0000000000000064 .LVL43
     /tmp/cco8gpQA.s:463    .text._ZN3stm14CircularBufferIP3TCBE6extendEv:000000000000006c .LVL44
     /tmp/cco8gpQA.s:511    .text._ZN3stm14CircularBufferIP3TCBE3putES2_:0000000000000000 .LVL50
     /tmp/cco8gpQA.s:532    .text._ZN3stm14CircularBufferIP3TCBE3putES2_:000000000000002c .LVL51
     /tmp/cco8gpQA.s:567    .text._ZN3stm14CircularBufferIP3TCBE3putES2_:000000000000006c .LVL52
     /tmp/cco8gpQA.s:574    .text._ZN3stm14CircularBufferIP3TCBE3putES2_:0000000000000078 .LVL54
GAS LISTING /tmp/cco8gpQA.s 			page 29


     /tmp/cco8gpQA.s:570    .text._ZN3stm14CircularBufferIP3TCBE3putES2_:0000000000000070 .LVL53
     /tmp/cco8gpQA.s:284    .text._ZN3stm14CircularBufferIP3TCBE7destroyEv:0000000000000000 .LVL24
     /tmp/cco8gpQA.s:295    .text._ZN3stm14CircularBufferIP3TCBE7destroyEv:0000000000000014 .LVL25
     /tmp/cco8gpQA.s:145    .text._ZN3stm14CircularBufferIP3TCBE3getEv:0000000000000000 .LVL13
     /tmp/cco8gpQA.s:162    .text._ZN3stm14CircularBufferIP3TCBE3getEv:0000000000000024 .LVL14
     /tmp/cco8gpQA.s:15     .text._ZN3stm14CircularBufferIP3TCBE4initEv:0000000000000000 .LVL0
     /tmp/cco8gpQA.s:38     .text._ZN3stm14CircularBufferIP3TCBE4initEv:0000000000000030 .LVL1
     /tmp/cco8gpQA.s:51     .text._ZN3stm14CircularBufferIP3TCBE4initEv:0000000000000048 .LVL3
     /tmp/cco8gpQA.s:194    .text:0000000000000074 .LVL15
     /tmp/cco8gpQA.s:205    .text:0000000000000080 .LVL17
     /tmp/cco8gpQA.s:266    .text:00000000000000d8 .LVL22
     /tmp/cco8gpQA.s:270    .text:00000000000000dc .LVL23
     /tmp/cco8gpQA.s:242    .text:00000000000000b4 .LVL19
     /tmp/cco8gpQA.s:199    .text:000000000000007c .LVL16
     /tmp/cco8gpQA.s:592    .text:000000000000015c .LVL56
     /tmp/cco8gpQA.s:608    .text:0000000000000174 .LVL58
     /tmp/cco8gpQA.s:610    .text:0000000000000178 .LVL59
     /tmp/cco8gpQA.s:640    .text:00000000000001a4 .LVL62
     /tmp/cco8gpQA.s:694    .text:00000000000001e8 .LVL70
     /tmp/cco8gpQA.s:702    .text:00000000000001ec .LVL71
     /tmp/cco8gpQA.s:596    .text:0000000000000160 .LVL57
     /tmp/cco8gpQA.s:664    .text:00000000000001c8 .LVL67
     /tmp/cco8gpQA.s:678    .text:00000000000001dc .LVL68
     /tmp/cco8gpQA.s:687    .text:00000000000001e0 .LVL69
     /tmp/cco8gpQA.s:627    .text:0000000000000198 .LVL60
     /tmp/cco8gpQA.s:634    .text:00000000000001a0 .LVL61
     /tmp/cco8gpQA.s:650    .text:00000000000001b8 .LVL65
     /tmp/cco8gpQA.s:656    .text:00000000000001bc .LVL66
     /tmp/cco8gpQA.s:318    .text:00000000000000e0 .LVL27
     /tmp/cco8gpQA.s:332    .text:00000000000000fc .LVL28
     /tmp/cco8gpQA.s:381    .text:0000000000000144 .LVL34
     /tmp/cco8gpQA.s:385    .text:000000000000014c .LVL35
     /tmp/cco8gpQA.s:340    .text:0000000000000100 .LVL29
     /tmp/cco8gpQA.s:67     .text:0000000000000000 .LVL4
     /tmp/cco8gpQA.s:87     .text:0000000000000028 .LVL5
     /tmp/cco8gpQA.s:121    .text:0000000000000060 .LVL10
     /tmp/cco8gpQA.s:127    .text:000000000000006c .LVL11
     /tmp/cco8gpQA.s:99     .text:0000000000000040 .LVL7
     /tmp/cco8gpQA.s:108    .text:0000000000000050 .LVL9
     /tmp/cco8gpQA.s:132    .text:0000000000000070 .LVL12
     /tmp/cco8gpQA.s:715    .debug_info:0000000000000000 .Ldebug_info0
     /tmp/cco8gpQA.s:5      .text:0000000000000000 .Ltext0
     /tmp/cco8gpQA.s:708    .text:00000000000001f0 .Letext0

UNDEFINED SYMBOLS
_Z9mem_allocm
_ZN9Allocator10_mem_allocEm
_ZN9Scheduler3putEP3TCB
_ZN3TCB16_thread_dispatchEv
_Z8mem_freePv
_ZN9Allocator9_mem_freeEPKv
_ZN3TCB7runningE
