GAS LISTING /tmp/cczDdAih.s 			page 1


   1              		.file	"c_sleep.cpp"
   2              		.option pic
   3              		.option norelax
   4              		.text
   5              	.Ltext0:
   6              		.align	2
   7              		.globl	_ZN6Cradle4elemnwEm
   9              	_ZN6Cradle4elemnwEm:
  10              	.LFB28:
  11              		.file 1 "src/c_sleep.cpp"
   1:src/c_sleep.cpp **** #include "../h/c_sleep.hpp"
   2:src/c_sleep.cpp **** #include "../h/c_thread.hpp"
   3:src/c_sleep.cpp **** #include "../h/scheduler.hpp"
   4:src/c_sleep.cpp **** 
   5:src/c_sleep.cpp **** Cradle::elem *Cradle::head = nullptr;
   6:src/c_sleep.cpp **** Cradle::elem *Cradle::tail = nullptr;
   7:src/c_sleep.cpp **** 
   8:src/c_sleep.cpp **** void *Cradle::elem::operator new(size_t size) {
  12              		.loc 1 8 47
  13              		.cfi_startproc
  14              	.LVL0:
  15 0000 130101FF 		addi	sp,sp,-16
  16              		.cfi_def_cfa_offset 16
  17 0004 23341100 		sd	ra,8(sp)
  18 0008 23308100 		sd	s0,0(sp)
  19              		.cfi_offset 1, -8
  20              		.cfi_offset 8, -16
  21 000c 13040101 		addi	s0,sp,16
  22              		.cfi_def_cfa 8, 0
   9:src/c_sleep.cpp ****     return Allocator::_mem_alloc(size);
  23              		.loc 1 9 5
  24              		.loc 1 9 33 is_stmt 0
  25 0010 97000000 		call	_ZN9Allocator10_mem_allocEm@plt
  25      E7800000 
  26              	.LVL1:
  10:src/c_sleep.cpp **** }
  27              		.loc 1 10 1
  28 0018 83308100 		ld	ra,8(sp)
  29              		.cfi_restore 1
  30 001c 03340100 		ld	s0,0(sp)
  31              		.cfi_restore 8
  32              		.cfi_def_cfa 2, 16
  33 0020 13010101 		addi	sp,sp,16
  34              		.cfi_def_cfa_offset 0
  35 0024 67800000 		jr	ra
  36              		.cfi_endproc
  37              	.LFE28:
  39              		.align	2
  40              		.globl	_ZN6Cradle4elemdlEPv
  42              	_ZN6Cradle4elemdlEPv:
  43              	.LFB29:
  11:src/c_sleep.cpp **** 
  12:src/c_sleep.cpp **** void Cradle::elem::operator delete(void *mem) {
  44              		.loc 1 12 47 is_stmt 1
  45              		.cfi_startproc
  46              	.LVL2:
  47 0028 130101FF 		addi	sp,sp,-16
GAS LISTING /tmp/cczDdAih.s 			page 2


  48              		.cfi_def_cfa_offset 16
  49 002c 23341100 		sd	ra,8(sp)
  50 0030 23308100 		sd	s0,0(sp)
  51              		.cfi_offset 1, -8
  52              		.cfi_offset 8, -16
  53 0034 13040101 		addi	s0,sp,16
  54              		.cfi_def_cfa 8, 0
  13:src/c_sleep.cpp ****     Allocator::_mem_free(mem);
  55              		.loc 1 13 5
  56              		.loc 1 13 25 is_stmt 0
  57 0038 97000000 		call	_ZN9Allocator9_mem_freeEPKv@plt
  57      E7800000 
  58              	.LVL3:
  14:src/c_sleep.cpp **** }
  59              		.loc 1 14 1
  60 0040 83308100 		ld	ra,8(sp)
  61              		.cfi_restore 1
  62 0044 03340100 		ld	s0,0(sp)
  63              		.cfi_restore 8
  64              		.cfi_def_cfa 2, 16
  65 0048 13010101 		addi	sp,sp,16
  66              		.cfi_def_cfa_offset 0
  67 004c 67800000 		jr	ra
  68              		.cfi_endproc
  69              	.LFE29:
  71              		.align	2
  72              		.globl	_ZN6Cradle6insertEP3TCBm
  74              	_ZN6Cradle6insertEP3TCBm:
  75              	.LFB30:
  15:src/c_sleep.cpp **** 
  16:src/c_sleep.cpp **** void Cradle::insert(TCB *thread, time_t time) {
  76              		.loc 1 16 47 is_stmt 1
  77              		.cfi_startproc
  78              	.LVL4:
  79 0050 130101FC 		addi	sp,sp,-64
  80              		.cfi_def_cfa_offset 64
  81 0054 233C1102 		sd	ra,56(sp)
  82 0058 23388102 		sd	s0,48(sp)
  83 005c 23349102 		sd	s1,40(sp)
  84 0060 23302103 		sd	s2,32(sp)
  85 0064 233C3101 		sd	s3,24(sp)
  86 0068 23384101 		sd	s4,16(sp)
  87 006c 23345101 		sd	s5,8(sp)
  88              		.cfi_offset 1, -8
  89              		.cfi_offset 8, -16
  90              		.cfi_offset 9, -24
  91              		.cfi_offset 18, -32
  92              		.cfi_offset 19, -40
  93              		.cfi_offset 20, -48
  94              		.cfi_offset 21, -56
  95 0070 13040104 		addi	s0,sp,64
  96              		.cfi_def_cfa 8, 0
  97 0074 930A0500 		mv	s5,a0
  98 0078 13890500 		mv	s2,a1
  17:src/c_sleep.cpp ****     if (head == nullptr) {
  99              		.loc 1 17 5
 100              		.loc 1 17 14 is_stmt 0
GAS LISTING /tmp/cczDdAih.s 			page 3


 101 007c 97070000 		ld	a5,.LANCHOR0
 101      83B70700 
 102              		.loc 1 17 5
 103 0084 63820704 		beqz	a5,.L12
  18:src/c_sleep.cpp ****         head = tail = new elem(thread, time);
  19:src/c_sleep.cpp ****         return;
  20:src/c_sleep.cpp ****     } else if (time < head->time_left) {
 104              		.loc 1 20 12 is_stmt 1
 105              		.loc 1 20 29 is_stmt 0
 106 0088 03B78700 		ld	a4,8(a5)
 107              		.loc 1 20 12
 108 008c 63F6E506 		bleu	a4,a1,.L8
  21:src/c_sleep.cpp ****         head = new elem(thread, time, head);
 109              		.loc 1 21 9 is_stmt 1
 110              		.loc 1 21 43 is_stmt 0
 111 0090 13058001 		li	a0,24
 112              	.LVL5:
 113 0094 97000000 		call	_ZN6Cradle4elemnwEm
 113      E7800000 
 114              	.LVL6:
 115 009c 17070000 		lla	a4,.LANCHOR0
 115      13070700 
 116 00a4 83370700 		ld	a5,0(a4)
 117              	.LVL7:
 118              	.LBB28:
 119              	.LBB29:
 120              		.file 2 "src/../h/c_sleep.hpp"
   1:src/../h/c_sleep.hpp **** #ifndef PROJECT_BASE_RQUEUE_H
   2:src/../h/c_sleep.hpp **** #define PROJECT_BASE_RQUEUE_H
   3:src/../h/c_sleep.hpp **** 
   4:src/../h/c_sleep.hpp **** #include "syscall_c.hpp"
   5:src/../h/c_sleep.hpp **** 
   6:src/../h/c_sleep.hpp **** class TCB;
   7:src/../h/c_sleep.hpp **** 
   8:src/../h/c_sleep.hpp **** class Cradle {
   9:src/../h/c_sleep.hpp **** public:
  10:src/../h/c_sleep.hpp **** 
  11:src/../h/c_sleep.hpp ****     static void insert(TCB *, time_t);
  12:src/../h/c_sleep.hpp **** 
  13:src/../h/c_sleep.hpp ****     static TCB *remove();
  14:src/../h/c_sleep.hpp **** 
  15:src/../h/c_sleep.hpp ****     static void update();
  16:src/../h/c_sleep.hpp **** 
  17:src/../h/c_sleep.hpp ****     static int peak();
  18:src/../h/c_sleep.hpp **** 
  19:src/../h/c_sleep.hpp ****     static bool is_empty();
  20:src/../h/c_sleep.hpp **** 
  21:src/../h/c_sleep.hpp ****     static int _time_sleep(time_t);
  22:src/../h/c_sleep.hpp **** 
  23:src/../h/c_sleep.hpp ****     static int _thread_wake(TCB *);
  24:src/../h/c_sleep.hpp **** 
  25:src/../h/c_sleep.hpp **** private:
  26:src/../h/c_sleep.hpp ****     struct elem {
  27:src/../h/c_sleep.hpp ****         void *operator new(size_t size);
  28:src/../h/c_sleep.hpp **** 
  29:src/../h/c_sleep.hpp ****         void operator delete(void *mem);
  30:src/../h/c_sleep.hpp **** 
GAS LISTING /tmp/cczDdAih.s 			page 4


  31:src/../h/c_sleep.hpp ****         elem(TCB *handle, time_t time, elem *next = nullptr) : handle(handle), time_left(time), nex
 121              		.loc 2 31 106
 122 00a8 23305501 		sd	s5,0(a0)
 123 00ac 23342501 		sd	s2,8(a0)
 124 00b0 2338F500 		sd	a5,16(a0)
 125              	.LVL8:
 126              	.LBE29:
 127              	.LBE28:
 128              		.loc 1 21 14
 129 00b4 2330A700 		sd	a0,0(a4)
  22:src/c_sleep.cpp ****         head->next->time_left -= time;
 130              		.loc 1 22 9 is_stmt 1
 131              		.loc 1 22 31 is_stmt 0
 132 00b8 03B78700 		ld	a4,8(a5)
 133 00bc 33092741 		sub	s2,a4,s2
 134              	.LVL9:
 135 00c0 23B42701 		sd	s2,8(a5)
 136              	.LVL10:
  23:src/c_sleep.cpp ****         return;
 137              		.loc 1 23 9 is_stmt 1
 138 00c4 6F00400B 		j	.L5
 139              	.LVL11:
 140              	.L12:
  18:src/c_sleep.cpp ****         return;
 141              		.loc 1 18 9
  18:src/c_sleep.cpp ****         return;
 142              		.loc 1 18 44 is_stmt 0
 143 00c8 13058001 		li	a0,24
 144              	.LVL12:
 145 00cc 97000000 		call	_ZN6Cradle4elemnwEm
 145      E7800000 
 146              	.LVL13:
 147              	.LBB30:
 148              	.LBB31:
 149              		.loc 2 31 106
 150 00d4 23305501 		sd	s5,0(a0)
 151 00d8 23342501 		sd	s2,8(a0)
 152 00dc 23380500 		sd	zero,16(a0)
 153              	.LVL14:
 154              	.LBE31:
 155              	.LBE30:
  18:src/c_sleep.cpp ****         return;
 156              		.loc 1 18 21
 157 00e0 97070000 		lla	a5,.LANCHOR0
 157      93870700 
 158 00e8 23B4A700 		sd	a0,8(a5)
  18:src/c_sleep.cpp ****         return;
 159              		.loc 1 18 14
 160 00ec 23B0A700 		sd	a0,0(a5)
  19:src/c_sleep.cpp ****     } else if (time < head->time_left) {
 161              		.loc 1 19 9 is_stmt 1
 162 00f0 6F008008 		j	.L5
 163              	.LVL15:
 164              	.L10:
 165              	.LBB32:
  24:src/c_sleep.cpp ****     }
  25:src/c_sleep.cpp ****     for (elem *curr = head; curr->next; curr = curr->next) {
GAS LISTING /tmp/cczDdAih.s 			page 5


  26:src/c_sleep.cpp ****         time -= curr->time_left;
 166              		.loc 1 26 14 is_stmt 0
 167 00f4 13890400 		mv	s2,s1
 168              	.LVL16:
 169              	.L8:
  25:src/c_sleep.cpp ****         time -= curr->time_left;
 170              		.loc 1 25 35 is_stmt 1 discriminator 1
 171 00f8 93890700 		mv	s3,a5
 172 00fc 83B70701 		ld	a5,16(a5)
 173              	.LVL17:
 174 0100 63860704 		beqz	a5,.L9
 175              		.loc 1 26 9
 176              		.loc 1 26 23 is_stmt 0
 177 0104 03BA8900 		ld	s4,8(s3)
 178              		.loc 1 26 14
 179 0108 B3044941 		sub	s1,s2,s4
 180              	.LVL18:
  27:src/c_sleep.cpp ****         if (time < curr->next->time_left) {
 181              		.loc 1 27 9 is_stmt 1
 182              		.loc 1 27 32 is_stmt 0
 183 010c 03B78700 		ld	a4,8(a5)
 184              		.loc 1 27 9
 185 0110 E3F2E4FE 		bleu	a4,s1,.L10
  28:src/c_sleep.cpp ****             curr->next = new elem(thread, time, curr->next);
 186              		.loc 1 28 13 is_stmt 1
 187              		.loc 1 28 59 is_stmt 0
 188 0114 13058001 		li	a0,24
 189              	.LVL19:
 190 0118 97000000 		call	_ZN6Cradle4elemnwEm
 190      E7800000 
 191              	.LVL20:
 192 0120 83B70901 		ld	a5,16(s3)
 193              	.LVL21:
 194              	.LBB33:
 195              	.LBB34:
 196              		.loc 2 31 106
 197 0124 23305501 		sd	s5,0(a0)
 198 0128 23349500 		sd	s1,8(a0)
 199 012c 2338F500 		sd	a5,16(a0)
 200              	.LVL22:
 201              	.LBE34:
 202              	.LBE33:
 203              		.loc 1 28 24
 204 0130 23B8A900 		sd	a0,16(s3)
  29:src/c_sleep.cpp ****             curr->next->next->time_left -= time;
 205              		.loc 1 29 13 is_stmt 1
 206              		.loc 1 29 25 is_stmt 0
 207 0134 83370501 		ld	a5,16(a0)
 208              		.loc 1 29 41
 209 0138 33092A41 		sub	s2,s4,s2
 210 013c 03BA8700 		ld	s4,8(a5)
 211 0140 33092A01 		add	s2,s4,s2
 212 0144 23B42701 		sd	s2,8(a5)
  30:src/c_sleep.cpp ****             return;
 213              		.loc 1 30 13 is_stmt 1
 214 0148 6F000003 		j	.L5
 215              	.LVL23:
GAS LISTING /tmp/cczDdAih.s 			page 6


 216              	.L9:
 217              	.LBE32:
  31:src/c_sleep.cpp ****         }
  32:src/c_sleep.cpp ****     }
  33:src/c_sleep.cpp ****     tail->next = new elem(thread, time);
 218              		.loc 1 33 5
 219              		.loc 1 33 39 is_stmt 0
 220 014c 13058001 		li	a0,24
 221              	.LVL24:
 222 0150 97000000 		call	_ZN6Cradle4elemnwEm
 222      E7800000 
 223              	.LVL25:
 224              	.LBB35:
 225              	.LBB36:
 226              		.loc 2 31 106
 227 0158 23305501 		sd	s5,0(a0)
 228 015c 23342501 		sd	s2,8(a0)
 229 0160 23380500 		sd	zero,16(a0)
 230              	.LVL26:
 231              	.LBE36:
 232              	.LBE35:
 233              		.loc 1 33 11
 234 0164 97070000 		lla	a5,.LANCHOR0
 234      93870700 
 235 016c 03B78700 		ld	a4,8(a5)
 236              		.loc 1 33 16
 237 0170 2338A700 		sd	a0,16(a4)
  34:src/c_sleep.cpp ****     tail = tail->next;
 238              		.loc 1 34 5 is_stmt 1
 239              		.loc 1 34 10 is_stmt 0
 240 0174 23B4A700 		sd	a0,8(a5)
 241              	.LVL27:
 242              	.L5:
  35:src/c_sleep.cpp **** }
 243              		.loc 1 35 1
 244 0178 83308103 		ld	ra,56(sp)
 245              		.cfi_restore 1
 246 017c 03340103 		ld	s0,48(sp)
 247              		.cfi_restore 8
 248              		.cfi_def_cfa 2, 64
 249 0180 83348102 		ld	s1,40(sp)
 250              		.cfi_restore 9
 251 0184 03390102 		ld	s2,32(sp)
 252              		.cfi_restore 18
 253 0188 83398101 		ld	s3,24(sp)
 254              		.cfi_restore 19
 255 018c 033A0101 		ld	s4,16(sp)
 256              		.cfi_restore 20
 257 0190 833A8100 		ld	s5,8(sp)
 258              		.cfi_restore 21
 259              	.LVL28:
 260 0194 13010104 		addi	sp,sp,64
 261              		.cfi_def_cfa_offset 0
 262 0198 67800000 		jr	ra
 263              		.cfi_endproc
 264              	.LFE30:
 266              		.align	2
GAS LISTING /tmp/cczDdAih.s 			page 7


 267              		.globl	_ZN6Cradle6removeEv
 269              	_ZN6Cradle6removeEv:
 270              	.LFB31:
  36:src/c_sleep.cpp **** 
  37:src/c_sleep.cpp **** TCB *Cradle::remove() {
 271              		.loc 1 37 23 is_stmt 1
 272              		.cfi_startproc
 273 019c 130101FE 		addi	sp,sp,-32
 274              		.cfi_def_cfa_offset 32
 275 01a0 233C1100 		sd	ra,24(sp)
 276 01a4 23388100 		sd	s0,16(sp)
 277 01a8 23349100 		sd	s1,8(sp)
 278              		.cfi_offset 1, -8
 279              		.cfi_offset 8, -16
 280              		.cfi_offset 9, -24
 281 01ac 13040102 		addi	s0,sp,32
 282              		.cfi_def_cfa 8, 0
  38:src/c_sleep.cpp ****     elem *old = head;
 283              		.loc 1 38 5
 284              		.loc 1 38 11 is_stmt 0
 285 01b0 97070000 		lla	a5,.LANCHOR0
 285      93870700 
 286 01b8 03B50700 		ld	a0,0(a5)
 287              	.LVL29:
  39:src/c_sleep.cpp ****     TCB *ret = old->handle;
 288              		.loc 1 39 5 is_stmt 1
 289              		.loc 1 39 10 is_stmt 0
 290 01bc 83340500 		ld	s1,0(a0)
 291              	.LVL30:
  40:src/c_sleep.cpp ****     head = head->next;
 292              		.loc 1 40 5 is_stmt 1
 293              		.loc 1 40 18 is_stmt 0
 294 01c0 03370501 		ld	a4,16(a0)
 295              		.loc 1 40 10
 296 01c4 23B0E700 		sd	a4,0(a5)
  41:src/c_sleep.cpp ****     delete old;
 297              		.loc 1 41 5 is_stmt 1
 298              		.loc 1 41 15 is_stmt 0
 299 01c8 63060500 		beqz	a0,.L13
 300              		.loc 1 41 12 discriminator 1
 301 01cc 97000000 		call	_ZN6Cradle4elemdlEPv
 301      E7800000 
 302              	.LVL31:
  42:src/c_sleep.cpp ****     return ret;
 303              		.loc 1 42 5 is_stmt 1 discriminator 1
 304              	.L13:
  43:src/c_sleep.cpp **** }
 305              		.loc 1 43 1 is_stmt 0
 306 01d4 13850400 		mv	a0,s1
 307 01d8 83308101 		ld	ra,24(sp)
 308              		.cfi_restore 1
 309 01dc 03340101 		ld	s0,16(sp)
 310              		.cfi_restore 8
 311              		.cfi_def_cfa 2, 32
 312 01e0 83348100 		ld	s1,8(sp)
 313              		.cfi_restore 9
 314              	.LVL32:
GAS LISTING /tmp/cczDdAih.s 			page 8


 315 01e4 13010102 		addi	sp,sp,32
 316              		.cfi_def_cfa_offset 0
 317 01e8 67800000 		jr	ra
 318              		.cfi_endproc
 319              	.LFE31:
 321              		.align	2
 322              		.globl	_ZN6Cradle4peakEv
 324              	_ZN6Cradle4peakEv:
 325              	.LFB33:
  44:src/c_sleep.cpp **** 
  45:src/c_sleep.cpp **** void Cradle::update() {
  46:src/c_sleep.cpp ****     if (!head)
  47:src/c_sleep.cpp ****         return;
  48:src/c_sleep.cpp ****     head->time_left--;
  49:src/c_sleep.cpp ****     while (!is_empty() && peak() == 0) {
  50:src/c_sleep.cpp ****         thread_t next = remove();
  51:src/c_sleep.cpp ****         if (next->is_joined() || next->is_sleeping()) {
  52:src/c_sleep.cpp ****             next->run();
  53:src/c_sleep.cpp ****             Scheduler::put(next);
  54:src/c_sleep.cpp ****         }
  55:src/c_sleep.cpp ****     }
  56:src/c_sleep.cpp **** }
  57:src/c_sleep.cpp **** 
  58:src/c_sleep.cpp **** int Cradle::peak() {
 326              		.loc 1 58 20 is_stmt 1
 327              		.cfi_startproc
 328 01ec 130101FF 		addi	sp,sp,-16
 329              		.cfi_def_cfa_offset 16
 330 01f0 23348100 		sd	s0,8(sp)
 331              		.cfi_offset 8, -8
 332 01f4 13040101 		addi	s0,sp,16
 333              		.cfi_def_cfa 8, 0
  59:src/c_sleep.cpp ****     if (head)
 334              		.loc 1 59 5
 335              		.loc 1 59 13 is_stmt 0
 336 01f8 97070000 		ld	a5,.LANCHOR0
 336      83B70700 
 337              		.loc 1 59 5
 338 0200 638A0700 		beqz	a5,.L18
  60:src/c_sleep.cpp ****         return head->time_left;
 339              		.loc 1 60 9 is_stmt 1
 340              		.loc 1 60 22 is_stmt 0
 341 0204 03A58700 		lw	a0,8(a5)
 342              	.L17:
  61:src/c_sleep.cpp ****     else
  62:src/c_sleep.cpp ****         return -1;
  63:src/c_sleep.cpp **** }
 343              		.loc 1 63 1
 344 0208 03348100 		ld	s0,8(sp)
 345              		.cfi_remember_state
 346              		.cfi_restore 8
 347              		.cfi_def_cfa 2, 16
 348 020c 13010101 		addi	sp,sp,16
 349              		.cfi_def_cfa_offset 0
 350 0210 67800000 		jr	ra
 351              	.L18:
 352              		.cfi_restore_state
GAS LISTING /tmp/cczDdAih.s 			page 9


  62:src/c_sleep.cpp **** }
 353              		.loc 1 62 17
 354 0214 1305F0FF 		li	a0,-1
 355 0218 6FF01FFF 		j	.L17
 356              		.cfi_endproc
 357              	.LFE33:
 359              		.align	2
 360              		.globl	_ZN6Cradle8is_emptyEv
 362              	_ZN6Cradle8is_emptyEv:
 363              	.LFB34:
  64:src/c_sleep.cpp **** 
  65:src/c_sleep.cpp **** bool Cradle::is_empty() {
 364              		.loc 1 65 25 is_stmt 1
 365              		.cfi_startproc
 366 021c 130101FF 		addi	sp,sp,-16
 367              		.cfi_def_cfa_offset 16
 368 0220 23348100 		sd	s0,8(sp)
 369              		.cfi_offset 8, -8
 370 0224 13040101 		addi	s0,sp,16
 371              		.cfi_def_cfa 8, 0
  66:src/c_sleep.cpp ****     return head == nullptr;
 372              		.loc 1 66 5
  67:src/c_sleep.cpp **** }
 373              		.loc 1 67 1 is_stmt 0
 374 0228 17050000 		ld	a0,.LANCHOR0
 374      03350500 
 375 0230 13351500 		seqz	a0,a0
 376 0234 03348100 		ld	s0,8(sp)
 377              		.cfi_restore 8
 378              		.cfi_def_cfa 2, 16
 379 0238 13010101 		addi	sp,sp,16
 380              		.cfi_def_cfa_offset 0
 381 023c 67800000 		jr	ra
 382              		.cfi_endproc
 383              	.LFE34:
 385              		.align	2
 386              		.globl	_ZN6Cradle6updateEv
 388              	_ZN6Cradle6updateEv:
 389              	.LFB32:
  45:src/c_sleep.cpp ****     if (!head)
 390              		.loc 1 45 23 is_stmt 1
 391              		.cfi_startproc
  46:src/c_sleep.cpp ****         return;
 392              		.loc 1 46 5
  46:src/c_sleep.cpp ****         return;
 393              		.loc 1 46 9 is_stmt 0
 394 0240 97070000 		ld	a5,.LANCHOR0
 394      83B70700 
  46:src/c_sleep.cpp ****         return;
 395              		.loc 1 46 5
 396 0248 638C0706 		beqz	a5,.L28
  45:src/c_sleep.cpp ****     if (!head)
 397              		.loc 1 45 23
 398 024c 130101FF 		addi	sp,sp,-16
 399              		.cfi_def_cfa_offset 16
 400 0250 23341100 		sd	ra,8(sp)
 401 0254 23308100 		sd	s0,0(sp)
GAS LISTING /tmp/cczDdAih.s 			page 10


 402              		.cfi_offset 1, -8
 403              		.cfi_offset 8, -16
 404 0258 13040101 		addi	s0,sp,16
 405              		.cfi_def_cfa 8, 0
  48:src/c_sleep.cpp ****     while (!is_empty() && peak() == 0) {
 406              		.loc 1 48 5 is_stmt 1
  48:src/c_sleep.cpp ****     while (!is_empty() && peak() == 0) {
 407              		.loc 1 48 11 is_stmt 0
 408 025c 03B78700 		ld	a4,8(a5)
  48:src/c_sleep.cpp ****     while (!is_empty() && peak() == 0) {
 409              		.loc 1 48 20
 410 0260 1307F7FF 		addi	a4,a4,-1
 411 0264 23B4E700 		sd	a4,8(a5)
 412 0268 6F000001 		j	.L24
 413              	.LVL33:
 414              	.L25:
 415              	.LBB37:
  52:src/c_sleep.cpp ****             Scheduler::put(next);
 416              		.loc 1 52 13 is_stmt 1 discriminator 3
 417              	.LBB38:
 418              	.LBB39:
 419              		.file 3 "src/../h/c_thread.hpp"
   1:src/../h/c_thread.hpp **** #ifndef PROJECT_BASE_C_THREAD_HPP
   2:src/../h/c_thread.hpp **** #define PROJECT_BASE_C_THREAD_HPP
   3:src/../h/c_thread.hpp **** 
   4:src/../h/c_thread.hpp **** #include "syscall_c.hpp"
   5:src/../h/c_thread.hpp **** #include "../lib/hw.h"
   6:src/../h/c_thread.hpp **** #include "circular_buffer.hpp"
   7:src/../h/c_thread.hpp **** 
   8:src/../h/c_thread.hpp **** using run_t = void (*)(void *);
   9:src/../h/c_thread.hpp **** 
  10:src/../h/c_thread.hpp **** struct Context {
  11:src/../h/c_thread.hpp ****     uint64 ra;
  12:src/../h/c_thread.hpp ****     uint64 sp;
  13:src/../h/c_thread.hpp ****     uint64 sstatus;
  14:src/../h/c_thread.hpp ****     uint64 sepc;
  15:src/../h/c_thread.hpp **** };
  16:src/../h/c_thread.hpp **** 
  17:src/../h/c_thread.hpp **** enum Status {
  18:src/../h/c_thread.hpp ****     RUNNABLE, BLOCKED, SLEEPING, JOINED, FINISHED
  19:src/../h/c_thread.hpp **** };
  20:src/../h/c_thread.hpp **** 
  21:src/../h/c_thread.hpp **** class TCB final {
  22:src/../h/c_thread.hpp **** public:
  23:src/../h/c_thread.hpp ****     static int _thread_create(thread_t *, void(*)(void *), void *, char *);
  24:src/../h/c_thread.hpp **** 
  25:src/../h/c_thread.hpp ****     static void _thread_exit();
  26:src/../h/c_thread.hpp **** 
  27:src/../h/c_thread.hpp ****     static void _thread_dispatch();
  28:src/../h/c_thread.hpp **** 
  29:src/../h/c_thread.hpp ****     static void _thread_join(thread_t);
  30:src/../h/c_thread.hpp **** 
  31:src/../h/c_thread.hpp ****     static void _thread_join_time(thread_t, time_t);
  32:src/../h/c_thread.hpp **** 
  33:src/../h/c_thread.hpp ****     static int _fork();
  34:src/../h/c_thread.hpp **** 
  35:src/../h/c_thread.hpp ****     static int _kill(TCB *);
GAS LISTING /tmp/cczDdAih.s 			page 11


  36:src/../h/c_thread.hpp **** 
  37:src/../h/c_thread.hpp ****     static void thread_start();
  38:src/../h/c_thread.hpp **** 
  39:src/../h/c_thread.hpp ****     static void fork_wrapper();
  40:src/../h/c_thread.hpp **** 
  41:src/../h/c_thread.hpp ****     static void context_switch(Context *, Context *);
  42:src/../h/c_thread.hpp **** 
  43:src/../h/c_thread.hpp ****     static void context_inherit(Context *);
  44:src/../h/c_thread.hpp **** 
  45:src/../h/c_thread.hpp ****     static TCB *destroy_thread(TCB *);
  46:src/../h/c_thread.hpp **** 
  47:src/../h/c_thread.hpp ****     static void duplicate(TCB *, TCB *);
  48:src/../h/c_thread.hpp **** 
  49:src/../h/c_thread.hpp ****     TCB(run_t, void *, void *, Context);
  50:src/../h/c_thread.hpp **** 
  51:src/../h/c_thread.hpp ****     TCB(TCB &);
  52:src/../h/c_thread.hpp **** 
  53:src/../h/c_thread.hpp ****     bool is_runnable() const { return this->status == RUNNABLE; }
  54:src/../h/c_thread.hpp **** 
  55:src/../h/c_thread.hpp ****     bool is_blocked() const { return this->status == BLOCKED; }
  56:src/../h/c_thread.hpp **** 
  57:src/../h/c_thread.hpp ****     bool is_sleeping() const { return this->status == SLEEPING; }
  58:src/../h/c_thread.hpp **** 
  59:src/../h/c_thread.hpp ****     bool is_joined() const { return this->status == JOINED; }
  60:src/../h/c_thread.hpp **** 
  61:src/../h/c_thread.hpp ****     bool is_finished() const { return this->status == FINISHED; }
  62:src/../h/c_thread.hpp **** 
  63:src/../h/c_thread.hpp ****     void run() { this->status = RUNNABLE; }
 420              		.loc 3 63 18 discriminator 3
 421              		.loc 3 63 31 is_stmt 0 discriminator 3
 422 026c 23280504 		sw	zero,80(a0)
 423              	.LVL34:
 424              	.LBE39:
 425              	.LBE38:
  53:src/c_sleep.cpp ****         }
 426              		.loc 1 53 13 is_stmt 1 discriminator 3
  53:src/c_sleep.cpp ****         }
 427              		.loc 1 53 27 is_stmt 0 discriminator 3
 428 0270 97000000 		call	_ZN9Scheduler3putEP3TCB@plt
 428      E7800000 
 429              	.LVL35:
 430              	.L24:
 431              	.LBE37:
  49:src/c_sleep.cpp ****         thread_t next = remove();
 432              		.loc 1 49 5 is_stmt 1
  49:src/c_sleep.cpp ****         thread_t next = remove();
 433              		.loc 1 49 24
  49:src/c_sleep.cpp ****         thread_t next = remove();
 434              		.loc 1 49 21 is_stmt 0
 435 0278 97000000 		call	_ZN6Cradle8is_emptyEv
 435      E7800000 
 436              	.LVL36:
  49:src/c_sleep.cpp ****         thread_t next = remove();
 437              		.loc 1 49 24
 438 0280 63180502 		bnez	a0,.L22
  49:src/c_sleep.cpp ****         thread_t next = remove();
 439              		.loc 1 49 31 discriminator 1
GAS LISTING /tmp/cczDdAih.s 			page 12


 440 0284 97000000 		call	_ZN6Cradle4peakEv
 440      E7800000 
 441              	.LVL37:
  49:src/c_sleep.cpp ****         thread_t next = remove();
 442              		.loc 1 49 24 discriminator 1
 443 028c 63120502 		bnez	a0,.L22
 444              	.LBB42:
  50:src/c_sleep.cpp ****         if (next->is_joined() || next->is_sleeping()) {
 445              		.loc 1 50 9 is_stmt 1
  50:src/c_sleep.cpp ****         if (next->is_joined() || next->is_sleeping()) {
 446              		.loc 1 50 31 is_stmt 0
 447 0290 97000000 		call	_ZN6Cradle6removeEv
 447      E7800000 
 448              	.LVL38:
  51:src/c_sleep.cpp ****             next->run();
 449              		.loc 1 51 9 is_stmt 1
 450              	.LBB40:
 451              	.LBB41:
  59:src/../h/c_thread.hpp **** 
 452              		.loc 3 59 30
  59:src/../h/c_thread.hpp **** 
 453              		.loc 3 59 43 is_stmt 0
 454 0298 83270505 		lw	a5,80(a0)
 455              	.LVL39:
 456              	.LBE41:
 457              	.LBE40:
  51:src/c_sleep.cpp ****             next->run();
 458              		.loc 1 51 31
 459 029c 13073000 		li	a4,3
 460 02a0 E386E7FC 		beq	a5,a4,.L25
 461              	.LVL40:
 462              	.LBE42:
  57:src/../h/c_thread.hpp **** 
 463              		.loc 3 57 32 is_stmt 1
 464              	.LBB43:
  51:src/c_sleep.cpp ****             next->run();
 465              		.loc 1 51 31 is_stmt 0
 466 02a4 13072000 		li	a4,2
 467 02a8 E398E7FC 		bne	a5,a4,.L24
 468 02ac 6FF01FFC 		j	.L25
 469              	.LVL41:
 470              	.L22:
 471              	.LBE43:
  56:src/c_sleep.cpp **** 
 472              		.loc 1 56 1
 473 02b0 83308100 		ld	ra,8(sp)
 474              		.cfi_restore 1
 475 02b4 03340100 		ld	s0,0(sp)
 476              		.cfi_restore 8
 477              		.cfi_def_cfa 2, 16
 478 02b8 13010101 		addi	sp,sp,16
 479              		.cfi_def_cfa_offset 0
 480 02bc 67800000 		jr	ra
 481              	.L28:
 482 02c0 67800000 		ret
 483              		.cfi_endproc
 484              	.LFE32:
GAS LISTING /tmp/cczDdAih.s 			page 13


 486              		.align	2
 487              		.globl	_ZN6Cradle11_time_sleepEm
 489              	_ZN6Cradle11_time_sleepEm:
 490              	.LFB35:
  68:src/c_sleep.cpp **** 
  69:src/c_sleep.cpp **** int Cradle::_time_sleep(time_t ms) {
 491              		.loc 1 69 36 is_stmt 1
 492              		.cfi_startproc
 493              	.LVL42:
 494 02c4 130101FE 		addi	sp,sp,-32
 495              		.cfi_def_cfa_offset 32
 496 02c8 233C1100 		sd	ra,24(sp)
 497 02cc 23388100 		sd	s0,16(sp)
 498 02d0 23349100 		sd	s1,8(sp)
 499              		.cfi_offset 1, -8
 500              		.cfi_offset 8, -16
 501              		.cfi_offset 9, -24
 502 02d4 13040102 		addi	s0,sp,32
 503              		.cfi_def_cfa 8, 0
 504 02d8 93050500 		mv	a1,a0
  70:src/c_sleep.cpp ****     insert(TCB::running, ms);
 505              		.loc 1 70 5
 506              		.loc 1 70 11 is_stmt 0
 507 02dc 97040000 		la	s1,_ZN3TCB7runningE
 507      83B40400 
 508 02e4 03B50400 		ld	a0,0(s1)
 509              	.LVL43:
 510 02e8 97000000 		call	_ZN6Cradle6insertEP3TCBm
 510      E7800000 
 511              	.LVL44:
  71:src/c_sleep.cpp ****     TCB::running->sleep();
 512              		.loc 1 71 5 is_stmt 1
 513              		.loc 1 71 24 is_stmt 0
 514 02f0 83B70400 		ld	a5,0(s1)
 515              	.LVL45:
 516              	.LBB44:
 517              	.LBB45:
  64:src/../h/c_thread.hpp **** 
  65:src/../h/c_thread.hpp ****     void block() { this->status = BLOCKED; }
  66:src/../h/c_thread.hpp **** 
  67:src/../h/c_thread.hpp ****     void sleep() { this->status = SLEEPING; }
 518              		.loc 3 67 20 is_stmt 1
 519              		.loc 3 67 33 is_stmt 0
 520 02f4 13072000 		li	a4,2
 521 02f8 23A8E704 		sw	a4,80(a5)
 522              	.LVL46:
 523              	.LBE45:
 524              	.LBE44:
  72:src/c_sleep.cpp ****     TCB::_thread_dispatch();
 525              		.loc 1 72 5 is_stmt 1
 526              		.loc 1 72 26 is_stmt 0
 527 02fc 97000000 		call	_ZN3TCB16_thread_dispatchEv@plt
 527      E7800000 
 528              	.LVL47:
  73:src/c_sleep.cpp ****     return 0;
 529              		.loc 1 73 5 is_stmt 1
  74:src/c_sleep.cpp **** }
GAS LISTING /tmp/cczDdAih.s 			page 14


 530              		.loc 1 74 1 is_stmt 0
 531 0304 13050000 		li	a0,0
 532 0308 83308101 		ld	ra,24(sp)
 533              		.cfi_restore 1
 534 030c 03340101 		ld	s0,16(sp)
 535              		.cfi_restore 8
 536              		.cfi_def_cfa 2, 32
 537 0310 83348100 		ld	s1,8(sp)
 538              		.cfi_restore 9
 539 0314 13010102 		addi	sp,sp,32
 540              		.cfi_def_cfa_offset 0
 541 0318 67800000 		jr	ra
 542              		.cfi_endproc
 543              	.LFE35:
 545              		.align	2
 546              		.globl	_ZN6Cradle12_thread_wakeEP3TCB
 548              	_ZN6Cradle12_thread_wakeEP3TCB:
 549              	.LFB36:
  75:src/c_sleep.cpp **** 
  76:src/c_sleep.cpp **** int Cradle::_thread_wake(thread_t thread) {
 550              		.loc 1 76 43 is_stmt 1
 551              		.cfi_startproc
 552              	.LVL48:
  77:src/c_sleep.cpp ****     if (!thread->is_sleeping())
 553              		.loc 1 77 5
 554              	.LBB46:
 555              	.LBB47:
  57:src/../h/c_thread.hpp **** 
 556              		.loc 3 57 32
  57:src/../h/c_thread.hpp **** 
 557              		.loc 3 57 45 is_stmt 0
 558 031c 03270505 		lw	a4,80(a0)
 559              	.LVL49:
 560              	.LBE47:
 561              	.LBE46:
 562              		.loc 1 77 5
 563 0320 93072000 		li	a5,2
 564 0324 631EF702 		bne	a4,a5,.L35
  76:src/c_sleep.cpp ****     if (!thread->is_sleeping())
 565              		.loc 1 76 43
 566 0328 130101FF 		addi	sp,sp,-16
 567              		.cfi_def_cfa_offset 16
 568 032c 23341100 		sd	ra,8(sp)
 569 0330 23308100 		sd	s0,0(sp)
 570              		.cfi_offset 1, -8
 571              		.cfi_offset 8, -16
 572 0334 13040101 		addi	s0,sp,16
 573              		.cfi_def_cfa 8, 0
  78:src/c_sleep.cpp ****         return -1;
  79:src/c_sleep.cpp ****     thread->run();
 574              		.loc 1 79 5 is_stmt 1
 575              	.LVL50:
 576              	.LBB48:
 577              	.LBB49:
  63:src/../h/c_thread.hpp **** 
 578              		.loc 3 63 18
  63:src/../h/c_thread.hpp **** 
GAS LISTING /tmp/cczDdAih.s 			page 15


 579              		.loc 3 63 31 is_stmt 0
 580 0338 23280504 		sw	zero,80(a0)
 581              	.LVL51:
 582              	.LBE49:
 583              	.LBE48:
  80:src/c_sleep.cpp ****     Scheduler::put(thread);
 584              		.loc 1 80 5 is_stmt 1
 585              		.loc 1 80 19 is_stmt 0
 586 033c 97000000 		call	_ZN9Scheduler3putEP3TCB@plt
 586      E7800000 
 587              	.LVL52:
  81:src/c_sleep.cpp ****     TCB::_thread_dispatch();
 588              		.loc 1 81 5 is_stmt 1
 589              		.loc 1 81 26 is_stmt 0
 590 0344 97000000 		call	_ZN3TCB16_thread_dispatchEv@plt
 590      E7800000 
 591              	.LVL53:
  82:src/c_sleep.cpp ****     return 0;
 592              		.loc 1 82 5 is_stmt 1
 593              		.loc 1 82 12 is_stmt 0
 594 034c 13050000 		li	a0,0
  83:src/c_sleep.cpp **** }
 595              		.loc 1 83 1
 596 0350 83308100 		ld	ra,8(sp)
 597              		.cfi_restore 1
 598 0354 03340100 		ld	s0,0(sp)
 599              		.cfi_restore 8
 600              		.cfi_def_cfa 2, 16
 601 0358 13010101 		addi	sp,sp,16
 602              		.cfi_def_cfa_offset 0
 603 035c 67800000 		jr	ra
 604              	.LVL54:
 605              	.L35:
  78:src/c_sleep.cpp ****     thread->run();
 606              		.loc 1 78 17
 607 0360 1305F0FF 		li	a0,-1
 608              	.LVL55:
 609              		.loc 1 83 1
 610 0364 67800000 		ret
 611              		.cfi_endproc
 612              	.LFE36:
 614              		.globl	_ZN6Cradle4tailE
 615              		.globl	_ZN6Cradle4headE
 616              		.bss
 617              		.align	3
 618              		.set	.LANCHOR0,. + 0
 621              	_ZN6Cradle4headE:
 622 0000 00000000 		.zero	8
 622      00000000 
 625              	_ZN6Cradle4tailE:
 626 0008 00000000 		.zero	8
 626      00000000 
 627              		.text
 628              	.Letext0:
 629              		.file 4 "src/../h/../lib/hw.h"
 630              		.file 5 "src/../h/syscall_c.hpp"
 631              		.file 6 "src/../h/c_memory.hpp"
GAS LISTING /tmp/cczDdAih.s 			page 16


 632              		.file 7 "src/../h/circular_buffer.hpp"
 633              		.file 8 "src/../h/scheduler.hpp"
GAS LISTING /tmp/cczDdAih.s 			page 17


DEFINED SYMBOLS
                            *ABS*:0000000000000000 c_sleep.cpp
     /tmp/cczDdAih.s:9      .text:0000000000000000 _ZN6Cradle4elemnwEm
     /tmp/cczDdAih.s:13     .text:0000000000000000 .L0 
     /tmp/cczDdAih.s:15     .text:0000000000000000 .L0 
     /tmp/cczDdAih.s:16     .text:0000000000000004 .L0 
     /tmp/cczDdAih.s:19     .text:000000000000000c .L0 
     /tmp/cczDdAih.s:20     .text:000000000000000c .L0 
     /tmp/cczDdAih.s:22     .text:0000000000000010 .L0 
     /tmp/cczDdAih.s:24     .text:0000000000000010 .L0 
     /tmp/cczDdAih.s:25     .text:0000000000000010 .L0 
     /tmp/cczDdAih.s:28     .text:0000000000000018 .L0 
     /tmp/cczDdAih.s:29     .text:000000000000001c .L0 
     /tmp/cczDdAih.s:31     .text:0000000000000020 .L0 
     /tmp/cczDdAih.s:32     .text:0000000000000020 .L0 
     /tmp/cczDdAih.s:34     .text:0000000000000024 .L0 
     /tmp/cczDdAih.s:36     .text:0000000000000028 .L0 
     /tmp/cczDdAih.s:42     .text:0000000000000028 _ZN6Cradle4elemdlEPv
     /tmp/cczDdAih.s:45     .text:0000000000000028 .L0 
     /tmp/cczDdAih.s:47     .text:0000000000000028 .L0 
     /tmp/cczDdAih.s:48     .text:000000000000002c .L0 
     /tmp/cczDdAih.s:51     .text:0000000000000034 .L0 
     /tmp/cczDdAih.s:52     .text:0000000000000034 .L0 
     /tmp/cczDdAih.s:54     .text:0000000000000038 .L0 
     /tmp/cczDdAih.s:56     .text:0000000000000038 .L0 
     /tmp/cczDdAih.s:57     .text:0000000000000038 .L0 
     /tmp/cczDdAih.s:60     .text:0000000000000040 .L0 
     /tmp/cczDdAih.s:61     .text:0000000000000044 .L0 
     /tmp/cczDdAih.s:63     .text:0000000000000048 .L0 
     /tmp/cczDdAih.s:64     .text:0000000000000048 .L0 
     /tmp/cczDdAih.s:66     .text:000000000000004c .L0 
     /tmp/cczDdAih.s:68     .text:0000000000000050 .L0 
     /tmp/cczDdAih.s:74     .text:0000000000000050 _ZN6Cradle6insertEP3TCBm
     /tmp/cczDdAih.s:77     .text:0000000000000050 .L0 
     /tmp/cczDdAih.s:79     .text:0000000000000050 .L0 
     /tmp/cczDdAih.s:80     .text:0000000000000054 .L0 
     /tmp/cczDdAih.s:88     .text:0000000000000070 .L0 
     /tmp/cczDdAih.s:89     .text:0000000000000070 .L0 
     /tmp/cczDdAih.s:90     .text:0000000000000070 .L0 
     /tmp/cczDdAih.s:91     .text:0000000000000070 .L0 
     /tmp/cczDdAih.s:92     .text:0000000000000070 .L0 
     /tmp/cczDdAih.s:93     .text:0000000000000070 .L0 
     /tmp/cczDdAih.s:94     .text:0000000000000070 .L0 
     /tmp/cczDdAih.s:96     .text:0000000000000074 .L0 
     /tmp/cczDdAih.s:100    .text:000000000000007c .L0 
     /tmp/cczDdAih.s:101    .text:000000000000007c .L0 
     /tmp/cczDdAih.s:103    .text:0000000000000084 .L0 
     /tmp/cczDdAih.s:105    .text:0000000000000088 .L0 
     /tmp/cczDdAih.s:106    .text:0000000000000088 .L0 
     /tmp/cczDdAih.s:108    .text:000000000000008c .L0 
     /tmp/cczDdAih.s:110    .text:0000000000000090 .L0 
     /tmp/cczDdAih.s:111    .text:0000000000000090 .L0 
     /tmp/cczDdAih.s:122    .text:00000000000000a8 .L0 
     /tmp/cczDdAih.s:129    .text:00000000000000b4 .L0 
     /tmp/cczDdAih.s:131    .text:00000000000000b8 .L0 
     /tmp/cczDdAih.s:132    .text:00000000000000b8 .L0 
     /tmp/cczDdAih.s:138    .text:00000000000000c4 .L0 
GAS LISTING /tmp/cczDdAih.s 			page 18


     /tmp/cczDdAih.s:142    .text:00000000000000c8 .L0 
     /tmp/cczDdAih.s:143    .text:00000000000000c8 .L0 
     /tmp/cczDdAih.s:150    .text:00000000000000d4 .L0 
     /tmp/cczDdAih.s:157    .text:00000000000000e0 .L0 
     /tmp/cczDdAih.s:160    .text:00000000000000ec .L0 
     /tmp/cczDdAih.s:162    .text:00000000000000f0 .L0 
     /tmp/cczDdAih.s:167    .text:00000000000000f4 .L0 
     /tmp/cczDdAih.s:171    .text:00000000000000f8 .L0 
     /tmp/cczDdAih.s:176    .text:0000000000000104 .L0 
     /tmp/cczDdAih.s:177    .text:0000000000000104 .L0 
     /tmp/cczDdAih.s:179    .text:0000000000000108 .L0 
     /tmp/cczDdAih.s:182    .text:000000000000010c .L0 
     /tmp/cczDdAih.s:183    .text:000000000000010c .L0 
     /tmp/cczDdAih.s:185    .text:0000000000000110 .L0 
     /tmp/cczDdAih.s:187    .text:0000000000000114 .L0 
     /tmp/cczDdAih.s:188    .text:0000000000000114 .L0 
     /tmp/cczDdAih.s:197    .text:0000000000000124 .L0 
     /tmp/cczDdAih.s:204    .text:0000000000000130 .L0 
     /tmp/cczDdAih.s:206    .text:0000000000000134 .L0 
     /tmp/cczDdAih.s:207    .text:0000000000000134 .L0 
     /tmp/cczDdAih.s:209    .text:0000000000000138 .L0 
     /tmp/cczDdAih.s:214    .text:0000000000000148 .L0 
     /tmp/cczDdAih.s:219    .text:000000000000014c .L0 
     /tmp/cczDdAih.s:220    .text:000000000000014c .L0 
     /tmp/cczDdAih.s:227    .text:0000000000000158 .L0 
     /tmp/cczDdAih.s:234    .text:0000000000000164 .L0 
     /tmp/cczDdAih.s:237    .text:0000000000000170 .L0 
     /tmp/cczDdAih.s:239    .text:0000000000000174 .L0 
     /tmp/cczDdAih.s:240    .text:0000000000000174 .L0 
     /tmp/cczDdAih.s:244    .text:0000000000000178 .L0 
     /tmp/cczDdAih.s:245    .text:000000000000017c .L0 
     /tmp/cczDdAih.s:247    .text:0000000000000180 .L0 
     /tmp/cczDdAih.s:248    .text:0000000000000180 .L0 
     /tmp/cczDdAih.s:250    .text:0000000000000184 .L0 
     /tmp/cczDdAih.s:252    .text:0000000000000188 .L0 
     /tmp/cczDdAih.s:254    .text:000000000000018c .L0 
     /tmp/cczDdAih.s:256    .text:0000000000000190 .L0 
     /tmp/cczDdAih.s:258    .text:0000000000000194 .L0 
     /tmp/cczDdAih.s:261    .text:0000000000000198 .L0 
     /tmp/cczDdAih.s:263    .text:000000000000019c .L0 
     /tmp/cczDdAih.s:269    .text:000000000000019c _ZN6Cradle6removeEv
     /tmp/cczDdAih.s:272    .text:000000000000019c .L0 
     /tmp/cczDdAih.s:273    .text:000000000000019c .L0 
     /tmp/cczDdAih.s:274    .text:00000000000001a0 .L0 
     /tmp/cczDdAih.s:278    .text:00000000000001ac .L0 
     /tmp/cczDdAih.s:279    .text:00000000000001ac .L0 
     /tmp/cczDdAih.s:280    .text:00000000000001ac .L0 
     /tmp/cczDdAih.s:282    .text:00000000000001b0 .L0 
     /tmp/cczDdAih.s:284    .text:00000000000001b0 .L0 
     /tmp/cczDdAih.s:285    .text:00000000000001b0 .L0 
     /tmp/cczDdAih.s:289    .text:00000000000001bc .L0 
     /tmp/cczDdAih.s:290    .text:00000000000001bc .L0 
     /tmp/cczDdAih.s:293    .text:00000000000001c0 .L0 
     /tmp/cczDdAih.s:294    .text:00000000000001c0 .L0 
     /tmp/cczDdAih.s:296    .text:00000000000001c4 .L0 
     /tmp/cczDdAih.s:298    .text:00000000000001c8 .L0 
     /tmp/cczDdAih.s:299    .text:00000000000001c8 .L0 
GAS LISTING /tmp/cczDdAih.s 			page 19


     /tmp/cczDdAih.s:301    .text:00000000000001cc .L0 
     /tmp/cczDdAih.s:305    .text:00000000000001d4 .L0 
     /tmp/cczDdAih.s:306    .text:00000000000001d4 .L0 
     /tmp/cczDdAih.s:308    .text:00000000000001dc .L0 
     /tmp/cczDdAih.s:310    .text:00000000000001e0 .L0 
     /tmp/cczDdAih.s:311    .text:00000000000001e0 .L0 
     /tmp/cczDdAih.s:313    .text:00000000000001e4 .L0 
     /tmp/cczDdAih.s:316    .text:00000000000001e8 .L0 
     /tmp/cczDdAih.s:318    .text:00000000000001ec .L0 
     /tmp/cczDdAih.s:324    .text:00000000000001ec _ZN6Cradle4peakEv
     /tmp/cczDdAih.s:327    .text:00000000000001ec .L0 
     /tmp/cczDdAih.s:328    .text:00000000000001ec .L0 
     /tmp/cczDdAih.s:329    .text:00000000000001f0 .L0 
     /tmp/cczDdAih.s:331    .text:00000000000001f4 .L0 
     /tmp/cczDdAih.s:333    .text:00000000000001f8 .L0 
     /tmp/cczDdAih.s:335    .text:00000000000001f8 .L0 
     /tmp/cczDdAih.s:336    .text:00000000000001f8 .L0 
     /tmp/cczDdAih.s:338    .text:0000000000000200 .L0 
     /tmp/cczDdAih.s:340    .text:0000000000000204 .L0 
     /tmp/cczDdAih.s:341    .text:0000000000000204 .L0 
     /tmp/cczDdAih.s:344    .text:0000000000000208 .L0 
     /tmp/cczDdAih.s:345    .text:000000000000020c .L0 
     /tmp/cczDdAih.s:346    .text:000000000000020c .L0 
     /tmp/cczDdAih.s:347    .text:000000000000020c .L0 
     /tmp/cczDdAih.s:349    .text:0000000000000210 .L0 
     /tmp/cczDdAih.s:352    .text:0000000000000214 .L0 
     /tmp/cczDdAih.s:354    .text:0000000000000214 .L0 
     /tmp/cczDdAih.s:356    .text:000000000000021c .L0 
     /tmp/cczDdAih.s:362    .text:000000000000021c _ZN6Cradle8is_emptyEv
     /tmp/cczDdAih.s:365    .text:000000000000021c .L0 
     /tmp/cczDdAih.s:366    .text:000000000000021c .L0 
     /tmp/cczDdAih.s:367    .text:0000000000000220 .L0 
     /tmp/cczDdAih.s:369    .text:0000000000000224 .L0 
     /tmp/cczDdAih.s:371    .text:0000000000000228 .L0 
     /tmp/cczDdAih.s:373    .text:0000000000000228 .L0 
     /tmp/cczDdAih.s:374    .text:0000000000000228 .L0 
     /tmp/cczDdAih.s:377    .text:0000000000000238 .L0 
     /tmp/cczDdAih.s:378    .text:0000000000000238 .L0 
     /tmp/cczDdAih.s:380    .text:000000000000023c .L0 
     /tmp/cczDdAih.s:382    .text:0000000000000240 .L0 
     /tmp/cczDdAih.s:388    .text:0000000000000240 _ZN6Cradle6updateEv
     /tmp/cczDdAih.s:391    .text:0000000000000240 .L0 
     /tmp/cczDdAih.s:392    .text:0000000000000240 .L0 
     /tmp/cczDdAih.s:393    .text:0000000000000240 .L0 
     /tmp/cczDdAih.s:394    .text:0000000000000240 .L0 
     /tmp/cczDdAih.s:396    .text:0000000000000248 .L0 
     /tmp/cczDdAih.s:398    .text:000000000000024c .L0 
     /tmp/cczDdAih.s:399    .text:0000000000000250 .L0 
     /tmp/cczDdAih.s:402    .text:0000000000000258 .L0 
     /tmp/cczDdAih.s:403    .text:0000000000000258 .L0 
     /tmp/cczDdAih.s:405    .text:000000000000025c .L0 
     /tmp/cczDdAih.s:407    .text:000000000000025c .L0 
     /tmp/cczDdAih.s:408    .text:000000000000025c .L0 
     /tmp/cczDdAih.s:410    .text:0000000000000260 .L0 
     /tmp/cczDdAih.s:420    .text:000000000000026c .L0 
     /tmp/cczDdAih.s:421    .text:000000000000026c .L0 
     /tmp/cczDdAih.s:422    .text:000000000000026c .L0 
GAS LISTING /tmp/cczDdAih.s 			page 20


     /tmp/cczDdAih.s:427    .text:0000000000000270 .L0 
     /tmp/cczDdAih.s:428    .text:0000000000000270 .L0 
     /tmp/cczDdAih.s:433    .text:0000000000000278 .L0 
     /tmp/cczDdAih.s:434    .text:0000000000000278 .L0 
     /tmp/cczDdAih.s:435    .text:0000000000000278 .L0 
     /tmp/cczDdAih.s:438    .text:0000000000000280 .L0 
     /tmp/cczDdAih.s:440    .text:0000000000000284 .L0 
     /tmp/cczDdAih.s:443    .text:000000000000028c .L0 
     /tmp/cczDdAih.s:446    .text:0000000000000290 .L0 
     /tmp/cczDdAih.s:447    .text:0000000000000290 .L0 
     /tmp/cczDdAih.s:452    .text:0000000000000298 .L0 
     /tmp/cczDdAih.s:453    .text:0000000000000298 .L0 
     /tmp/cczDdAih.s:454    .text:0000000000000298 .L0 
     /tmp/cczDdAih.s:459    .text:000000000000029c .L0 
     /tmp/cczDdAih.s:465    .text:00000000000002a4 .L0 
     /tmp/cczDdAih.s:466    .text:00000000000002a4 .L0 
     /tmp/cczDdAih.s:473    .text:00000000000002b0 .L0 
     /tmp/cczDdAih.s:474    .text:00000000000002b4 .L0 
     /tmp/cczDdAih.s:476    .text:00000000000002b8 .L0 
     /tmp/cczDdAih.s:477    .text:00000000000002b8 .L0 
     /tmp/cczDdAih.s:479    .text:00000000000002bc .L0 
     /tmp/cczDdAih.s:483    .text:00000000000002c4 .L0 
     /tmp/cczDdAih.s:489    .text:00000000000002c4 _ZN6Cradle11_time_sleepEm
     /tmp/cczDdAih.s:492    .text:00000000000002c4 .L0 
     /tmp/cczDdAih.s:494    .text:00000000000002c4 .L0 
     /tmp/cczDdAih.s:495    .text:00000000000002c8 .L0 
     /tmp/cczDdAih.s:499    .text:00000000000002d4 .L0 
     /tmp/cczDdAih.s:500    .text:00000000000002d4 .L0 
     /tmp/cczDdAih.s:501    .text:00000000000002d4 .L0 
     /tmp/cczDdAih.s:503    .text:00000000000002d8 .L0 
     /tmp/cczDdAih.s:506    .text:00000000000002dc .L0 
     /tmp/cczDdAih.s:507    .text:00000000000002dc .L0 
     /tmp/cczDdAih.s:513    .text:00000000000002f0 .L0 
     /tmp/cczDdAih.s:514    .text:00000000000002f0 .L0 
     /tmp/cczDdAih.s:519    .text:00000000000002f4 .L0 
     /tmp/cczDdAih.s:520    .text:00000000000002f4 .L0 
     /tmp/cczDdAih.s:526    .text:00000000000002fc .L0 
     /tmp/cczDdAih.s:527    .text:00000000000002fc .L0 
     /tmp/cczDdAih.s:530    .text:0000000000000304 .L0 
     /tmp/cczDdAih.s:531    .text:0000000000000304 .L0 
     /tmp/cczDdAih.s:533    .text:000000000000030c .L0 
     /tmp/cczDdAih.s:535    .text:0000000000000310 .L0 
     /tmp/cczDdAih.s:536    .text:0000000000000310 .L0 
     /tmp/cczDdAih.s:538    .text:0000000000000314 .L0 
     /tmp/cczDdAih.s:540    .text:0000000000000318 .L0 
     /tmp/cczDdAih.s:542    .text:000000000000031c .L0 
     /tmp/cczDdAih.s:548    .text:000000000000031c _ZN6Cradle12_thread_wakeEP3TCB
     /tmp/cczDdAih.s:551    .text:000000000000031c .L0 
     /tmp/cczDdAih.s:553    .text:000000000000031c .L0 
     /tmp/cczDdAih.s:556    .text:000000000000031c .L0 
     /tmp/cczDdAih.s:557    .text:000000000000031c .L0 
     /tmp/cczDdAih.s:558    .text:000000000000031c .L0 
     /tmp/cczDdAih.s:563    .text:0000000000000320 .L0 
     /tmp/cczDdAih.s:566    .text:0000000000000328 .L0 
     /tmp/cczDdAih.s:567    .text:000000000000032c .L0 
     /tmp/cczDdAih.s:570    .text:0000000000000334 .L0 
     /tmp/cczDdAih.s:571    .text:0000000000000334 .L0 
GAS LISTING /tmp/cczDdAih.s 			page 21


     /tmp/cczDdAih.s:573    .text:0000000000000338 .L0 
     /tmp/cczDdAih.s:578    .text:0000000000000338 .L0 
     /tmp/cczDdAih.s:579    .text:0000000000000338 .L0 
     /tmp/cczDdAih.s:580    .text:0000000000000338 .L0 
     /tmp/cczDdAih.s:585    .text:000000000000033c .L0 
     /tmp/cczDdAih.s:586    .text:000000000000033c .L0 
     /tmp/cczDdAih.s:589    .text:0000000000000344 .L0 
     /tmp/cczDdAih.s:590    .text:0000000000000344 .L0 
     /tmp/cczDdAih.s:593    .text:000000000000034c .L0 
     /tmp/cczDdAih.s:594    .text:000000000000034c .L0 
     /tmp/cczDdAih.s:596    .text:0000000000000350 .L0 
     /tmp/cczDdAih.s:597    .text:0000000000000354 .L0 
     /tmp/cczDdAih.s:599    .text:0000000000000358 .L0 
     /tmp/cczDdAih.s:600    .text:0000000000000358 .L0 
     /tmp/cczDdAih.s:602    .text:000000000000035c .L0 
     /tmp/cczDdAih.s:607    .text:0000000000000360 .L0 
     /tmp/cczDdAih.s:610    .text:0000000000000364 .L0 
     /tmp/cczDdAih.s:611    .text:0000000000000368 .L0 
     /tmp/cczDdAih.s:625    .bss:0000000000000008 _ZN6Cradle4tailE
     /tmp/cczDdAih.s:621    .bss:0000000000000000 _ZN6Cradle4headE
     /tmp/cczDdAih.s:618    .bss:0000000000000000 .LANCHOR0
     /tmp/cczDdAih.s:634    .text:0000000000000368 .L0 
     /tmp/cczDdAih.s:101    .text:000000000000007c .L0 
     /tmp/cczDdAih.s:115    .text:000000000000009c .L0 
     /tmp/cczDdAih.s:157    .text:00000000000000e0 .L0 
     /tmp/cczDdAih.s:234    .text:0000000000000164 .L0 
     /tmp/cczDdAih.s:285    .text:00000000000001b0 .L0 
     /tmp/cczDdAih.s:336    .text:00000000000001f8 .L0 
     /tmp/cczDdAih.s:374    .text:0000000000000228 .L0 
     /tmp/cczDdAih.s:394    .text:0000000000000240 .L0 
     /tmp/cczDdAih.s:507    .text:00000000000002dc .L0 
     /tmp/cczDdAih.s:140    .text:00000000000000c8 .L12
     /tmp/cczDdAih.s:169    .text:00000000000000f8 .L8
     /tmp/cczDdAih.s:242    .text:0000000000000178 .L5
     /tmp/cczDdAih.s:216    .text:000000000000014c .L9
     /tmp/cczDdAih.s:164    .text:00000000000000f4 .L10
     /tmp/cczDdAih.s:304    .text:00000000000001d4 .L13
     /tmp/cczDdAih.s:351    .text:0000000000000214 .L18
     /tmp/cczDdAih.s:342    .text:0000000000000208 .L17
     /tmp/cczDdAih.s:481    .text:00000000000002c0 .L28
     /tmp/cczDdAih.s:430    .text:0000000000000278 .L24
     /tmp/cczDdAih.s:470    .text:00000000000002b0 .L22
     /tmp/cczDdAih.s:414    .text:000000000000026c .L25
     /tmp/cczDdAih.s:605    .text:0000000000000360 .L35
     /tmp/cczDdAih.s:2422   .debug_abbrev:0000000000000000 .Ldebug_abbrev0
     /tmp/cczDdAih.s:4151   .debug_str:0000000000000913 .LASF177
     /tmp/cczDdAih.s:4077   .debug_str:0000000000000706 .LASF178
     /tmp/cczDdAih.s:3967   .debug_str:000000000000034e .LASF179
     /tmp/cczDdAih.s:5      .text:0000000000000000 .Ltext0
     /tmp/cczDdAih.s:628    .text:0000000000000368 .Letext0
     /tmp/cczDdAih.s:3859   .debug_line:0000000000000000 .Ldebug_line0
     /tmp/cczDdAih.s:3991   .debug_str:0000000000000443 .LASF0
     /tmp/cczDdAih.s:4021   .debug_str:0000000000000540 .LASF1
     /tmp/cczDdAih.s:4109   .debug_str:00000000000007db .LASF2
     /tmp/cczDdAih.s:4117   .debug_str:000000000000082b .LASF4
     /tmp/cczDdAih.s:4003   .debug_str:00000000000004b0 .LASF3
     /tmp/cczDdAih.s:3877   .debug_str:0000000000000052 .LASF5
GAS LISTING /tmp/cczDdAih.s 			page 22


     /tmp/cczDdAih.s:4093   .debug_str:0000000000000788 .LASF6
     /tmp/cczDdAih.s:4083   .debug_str:0000000000000737 .LASF7
     /tmp/cczDdAih.s:4013   .debug_str:0000000000000517 .LASF8
     /tmp/cczDdAih.s:3965   .debug_str:000000000000033e .LASF9
     /tmp/cczDdAih.s:3969   .debug_str:000000000000036c .LASF10
     /tmp/cczDdAih.s:3909   .debug_str:0000000000000142 .LASF11
     /tmp/cczDdAih.s:3957   .debug_str:0000000000000312 .LASF12
     /tmp/cczDdAih.s:3925   .debug_str:00000000000001d3 .LASF13
     /tmp/cczDdAih.s:3907   .debug_str:0000000000000132 .LASF14
     /tmp/cczDdAih.s:4137   .debug_str:00000000000008bf .LASF15
     /tmp/cczDdAih.s:3947   .debug_str:00000000000002b5 .LASF16
     /tmp/cczDdAih.s:4129   .debug_str:0000000000000881 .LASF17
     /tmp/cczDdAih.s:4195   .debug_str:0000000000000b30 .LASF18
     /tmp/cczDdAih.s:4027   .debug_str:000000000000056d .LASF27
     /tmp/cczDdAih.s:4029   .debug_str:000000000000057c .LASF29
     /tmp/cczDdAih.s:4147   .debug_str:00000000000008fe .LASF19
     /tmp/cczDdAih.s:4047   .debug_str:0000000000000624 .LASF21
     /tmp/cczDdAih.s:4125   .debug_str:0000000000000867 .LASF20
     /tmp/cczDdAih.s:4155   .debug_str:00000000000009de .LASF22
     /tmp/cczDdAih.s:4177   .debug_str:0000000000000ab5 .LASF23
     /tmp/cczDdAih.s:3971   .debug_str:000000000000037a .LASF25
     /tmp/cczDdAih.s:4105   .debug_str:00000000000007c2 .LASF24
     /tmp/cczDdAih.s:4089   .debug_str:000000000000075c .LASF26
     /tmp/cczDdAih.s:3893   .debug_str:00000000000000cb .LASF97
     /tmp/cczDdAih.s:4071   .debug_str:00000000000006e2 .LASF99
     /tmp/cczDdAih.s:4163   .debug_str:0000000000000a4b .LASF28
     /tmp/cczDdAih.s:4193   .debug_str:0000000000000b1e .LASF30
     /tmp/cczDdAih.s:4085   .debug_str:000000000000074a .LASF31
     /tmp/cczDdAih.s:4223   .debug_str:0000000000000c13 .LASF32
     /tmp/cczDdAih.s:4073   .debug_str:00000000000006f2 .LASF33
     /tmp/cczDdAih.s:4145   .debug_str:00000000000008e6 .LASF34
     /tmp/cczDdAih.s:4041   .debug_str:00000000000005fa .LASF35
     /tmp/cczDdAih.s:3931   .debug_str:0000000000000202 .LASF36
     /tmp/cczDdAih.s:4115   .debug_str:000000000000081b .LASF37
     /tmp/cczDdAih.s:3899   .debug_str:00000000000000e4 .LASF38
     /tmp/cczDdAih.s:4051   .debug_str:0000000000000643 .LASF39
     /tmp/cczDdAih.s:4159   .debug_str:0000000000000a09 .LASF40
     /tmp/cczDdAih.s:4201   .debug_str:0000000000000b5c .LASF41
     /tmp/cczDdAih.s:3937   .debug_str:000000000000025c .LASF42
     /tmp/cczDdAih.s:4053   .debug_str:0000000000000652 .LASF43
     /tmp/cczDdAih.s:4139   .debug_str:00000000000008cb .LASF44
     /tmp/cczDdAih.s:4165   .debug_str:0000000000000a51 .LASF45
     /tmp/cczDdAih.s:4187   .debug_str:0000000000000ae6 .LASF47
     /tmp/cczDdAih.s:4211   .debug_str:0000000000000bac .LASF46
     /tmp/cczDdAih.s:3889   .debug_str:0000000000000099 .LASF48
     /tmp/cczDdAih.s:4091   .debug_str:000000000000077c .LASF49
     /tmp/cczDdAih.s:3935   .debug_str:0000000000000244 .LASF50
     /tmp/cczDdAih.s:4045   .debug_str:000000000000061a .LASF51
     /tmp/cczDdAih.s:4217   .debug_str:0000000000000be4 .LASF52
     /tmp/cczDdAih.s:4079   .debug_str:0000000000000716 .LASF53
     /tmp/cczDdAih.s:4063   .debug_str:00000000000006a2 .LASF54
     /tmp/cczDdAih.s:3905   .debug_str:0000000000000124 .LASF55
     /tmp/cczDdAih.s:3989   .debug_str:000000000000043d .LASF56
     /tmp/cczDdAih.s:3879   .debug_str:0000000000000059 .LASF57
     /tmp/cczDdAih.s:4025   .debug_str:0000000000000567 .LASF58
     /tmp/cczDdAih.s:4119   .debug_str:0000000000000832 .LASF59
     /tmp/cczDdAih.s:4075   .debug_str:00000000000006ff .LASF60
GAS LISTING /tmp/cczDdAih.s 			page 23


     /tmp/cczDdAih.s:3903   .debug_str:0000000000000113 .LASF61
     /tmp/cczDdAih.s:4049   .debug_str:000000000000063c .LASF62
     /tmp/cczDdAih.s:3955   .debug_str:0000000000000301 .LASF63
     /tmp/cczDdAih.s:4135   .debug_str:00000000000008b1 .LASF64
     /tmp/cczDdAih.s:3995   .debug_str:0000000000000455 .LASF65
     /tmp/cczDdAih.s:3883   .debug_str:0000000000000076 .LASF66
     /tmp/cczDdAih.s:3945   .debug_str:000000000000029c .LASF67
     /tmp/cczDdAih.s:3973   .debug_str:0000000000000394 .LASF68
     /tmp/cczDdAih.s:3891   .debug_str:00000000000000b0 .LASF69
     /tmp/cczDdAih.s:4157   .debug_str:00000000000009fa .LASF70
     /tmp/cczDdAih.s:3999   .debug_str:0000000000000479 .LASF71
     /tmp/cczDdAih.s:4005   .debug_str:00000000000004c2 .LASF72
     /tmp/cczDdAih.s:4209   .debug_str:0000000000000b92 .LASF73
     /tmp/cczDdAih.s:3917   .debug_str:000000000000018a .LASF74
     /tmp/cczDdAih.s:3943   .debug_str:0000000000000289 .LASF75
     /tmp/cczDdAih.s:3959   .debug_str:0000000000000321 .LASF76
     /tmp/cczDdAih.s:4149   .debug_str:000000000000090b .LASF77
     /tmp/cczDdAih.s:4167   .debug_str:0000000000000a5d .LASF111
     /tmp/cczDdAih.s:4179   .debug_str:0000000000000ac2 .LASF78
     /tmp/cczDdAih.s:3873   .debug_str:0000000000000048 .LASF79
     /tmp/cczDdAih.s:4221   .debug_str:0000000000000c0d .LASF80
     /tmp/cczDdAih.s:3939   .debug_str:0000000000000275 .LASF81
     /tmp/cczDdAih.s:4017   .debug_str:0000000000000533 .LASF82
     /tmp/cczDdAih.s:4191   .debug_str:0000000000000b17 .LASF83
     /tmp/cczDdAih.s:4101   .debug_str:00000000000007ae .LASF84
     /tmp/cczDdAih.s:4169   .debug_str:0000000000000a62 .LASF85
     /tmp/cczDdAih.s:4033   .debug_str:00000000000005b0 .LASF86
     /tmp/cczDdAih.s:4207   .debug_str:0000000000000b8b .LASF87
     /tmp/cczDdAih.s:3993   .debug_str:0000000000000450 .LASF90
     /tmp/cczDdAih.s:4225   .debug_str:0000000000000c2b .LASF88
     /tmp/cczDdAih.s:4023   .debug_str:0000000000000553 .LASF89
     /tmp/cczDdAih.s:3871   .debug_str:0000000000000038 .LASF132
     /tmp/cczDdAih.s:4081   .debug_str:0000000000000722 .LASF134
     /tmp/cczDdAih.s:4203   .debug_str:0000000000000b66 .LASF91
     /tmp/cczDdAih.s:4059   .debug_str:0000000000000692 .LASF92
     /tmp/cczDdAih.s:4065   .debug_str:00000000000006ba .LASF93
     /tmp/cczDdAih.s:3911   .debug_str:0000000000000151 .LASF94
     /tmp/cczDdAih.s:3985   .debug_str:0000000000000425 .LASF95
     /tmp/cczDdAih.s:4189   .debug_str:0000000000000afe .LASF96
     /tmp/cczDdAih.s:3869   .debug_str:0000000000000031 .LASF98
     /tmp/cczDdAih.s:4229   .debug_str:0000000000000c3e .LASF100
     /tmp/cczDdAih.s:4181   .debug_str:0000000000000ac7 .LASF101
     /tmp/cczDdAih.s:4057   .debug_str:000000000000067e .LASF102
     /tmp/cczDdAih.s:3927   .debug_str:00000000000001e3 .LASF103
     /tmp/cczDdAih.s:3977   .debug_str:00000000000003ad .LASF104
     /tmp/cczDdAih.s:4103   .debug_str:00000000000007b9 .LASF105
     /tmp/cczDdAih.s:3951   .debug_str:00000000000002e5 .LASF106
     /tmp/cczDdAih.s:3887   .debug_str:000000000000008d .LASF107
     /tmp/cczDdAih.s:3949   .debug_str:00000000000002cb .LASF108
     /tmp/cczDdAih.s:3941   .debug_str:000000000000027c .LASF109
     /tmp/cczDdAih.s:3921   .debug_str:00000000000001ad .LASF110
     /tmp/cczDdAih.s:4131   .debug_str:0000000000000897 .LASF112
     /tmp/cczDdAih.s:4069   .debug_str:00000000000006dd .LASF113
     /tmp/cczDdAih.s:4099   .debug_str:00000000000007a9 .LASF114
     /tmp/cczDdAih.s:3895   .debug_str:00000000000000d1 .LASF115
     /tmp/cczDdAih.s:3901   .debug_str:0000000000000107 .LASF116
     /tmp/cczDdAih.s:4019   .debug_str:000000000000053b .LASF117
GAS LISTING /tmp/cczDdAih.s 			page 24


     /tmp/cczDdAih.s:3861   .debug_str:0000000000000000 .LASF118
     /tmp/cczDdAih.s:4001   .debug_str:0000000000000494 .LASF119
     /tmp/cczDdAih.s:3997   .debug_str:000000000000046f .LASF120
     /tmp/cczDdAih.s:4121   .debug_str:0000000000000842 .LASF121
     /tmp/cczDdAih.s:4123   .debug_str:000000000000085e .LASF122
     /tmp/cczDdAih.s:4173   .debug_str:0000000000000a74 .LASF123
     /tmp/cczDdAih.s:4185   .debug_str:0000000000000adc .LASF124
     /tmp/cczDdAih.s:3919   .debug_str:0000000000000193 .LASF125
     /tmp/cczDdAih.s:4061   .debug_str:0000000000000699 .LASF126
     /tmp/cczDdAih.s:4007   .debug_str:00000000000004d1 .LASF127
     /tmp/cczDdAih.s:4127   .debug_str:0000000000000878 .LASF128
     /tmp/cczDdAih.s:4199   .debug_str:0000000000000b43 .LASF129
     /tmp/cczDdAih.s:3885   .debug_str:0000000000000084 .LASF130
     /tmp/cczDdAih.s:4113   .debug_str:00000000000007ee .LASF131
     /tmp/cczDdAih.s:4227   .debug_str:0000000000000c38 .LASF133
     /tmp/cczDdAih.s:4035   .debug_str:00000000000005b7 .LASF135
     /tmp/cczDdAih.s:4037   .debug_str:00000000000005e1 .LASF156
     /tmp/cczDdAih.s:4055   .debug_str:0000000000000671 .LASF136
     /tmp/cczDdAih.s:4011   .debug_str:0000000000000511 .LASF137
     /tmp/cczDdAih.s:4141   .debug_str:00000000000008d9 .LASF138
     /tmp/cczDdAih.s:4205   .debug_str:0000000000000b83 .LASF139
     /tmp/cczDdAih.s:4215   .debug_str:0000000000000bdd .LASF180
     /tmp/cczDdAih.s:4015   .debug_str:000000000000052a .LASF140
     /tmp/cczDdAih.s:3863   .debug_str:000000000000000b .LASF141
     /tmp/cczDdAih.s:3913   .debug_str:0000000000000156 .LASF142
     /tmp/cczDdAih.s:4153   .debug_str:00000000000009d7 .LASF143
     /tmp/cczDdAih.s:3897   .debug_str:00000000000000db .LASF144
     /tmp/cczDdAih.s:3867   .debug_str:000000000000001c .LASF145
     /tmp/cczDdAih.s:4097   .debug_str:00000000000007a4 .LASF146
     /tmp/cczDdAih.s:4213   .debug_str:0000000000000bb7 .LASF147
     /tmp/cczDdAih.s:4009   .debug_str:00000000000004ea .LASF148
     /tmp/cczDdAih.s:3983   .debug_str:0000000000000400 .LASF181
     /tmp/cczDdAih.s:3875   .debug_str:000000000000004d .LASF149
     /tmp/cczDdAih.s:4161   .debug_str:0000000000000a25 .LASF150
     /tmp/cczDdAih.s:3915   .debug_str:000000000000015f .LASF151
     /tmp/cczDdAih.s:4171   .debug_str:0000000000000a6c .LASF152
     /tmp/cczDdAih.s:3979   .debug_str:00000000000003bf .LASF153
     /tmp/cczDdAih.s:3923   .debug_str:00000000000001cc .LASF154
     /tmp/cczDdAih.s:4175   .debug_str:0000000000000a8d .LASF155
     /tmp/cczDdAih.s:3975   .debug_str:00000000000003a4 .LASF157
     /tmp/cczDdAih.s:3953   .debug_str:00000000000002fb .LASF158
     /tmp/cczDdAih.s:3865   .debug_str:0000000000000013 .LASF159
     /tmp/cczDdAih.s:4143   .debug_str:00000000000008e1 .LASF160
     /tmp/cczDdAih.s:3963   .debug_str:0000000000000334 .LASF161
     /tmp/cczDdAih.s:4133   .debug_str:000000000000089c .LASF162
     /tmp/cczDdAih.s:3981   .debug_str:00000000000003e8 .LASF182
     /tmp/cczDdAih.s:4219   .debug_str:0000000000000bf9 .LASF183
     /tmp/cczDdAih.s:4067   .debug_str:00000000000006c4 .LASF163
     /tmp/cczDdAih.s:4095   .debug_str:000000000000078f .LASF164
     /tmp/cczDdAih.s:4197   .debug_str:0000000000000b39 .LASF165
     /tmp/cczDdAih.s:3929   .debug_str:00000000000001e8 .LASF166
     /tmp/cczDdAih.s:4031   .debug_str:00000000000005a4 .LASF167
     /tmp/cczDdAih.s:4183   .debug_str:0000000000000ace .LASF168
     /tmp/cczDdAih.s:4039   .debug_str:00000000000005ed .LASF169
     /tmp/cczDdAih.s:3881   .debug_str:0000000000000069 .LASF170
     /tmp/cczDdAih.s:4043   .debug_str:0000000000000609 .LASF171
     /tmp/cczDdAih.s:3987   .debug_str:000000000000042c .LASF172
GAS LISTING /tmp/cczDdAih.s 			page 25


     /tmp/cczDdAih.s:549    .text:000000000000031c .LFB36
     /tmp/cczDdAih.s:612    .text:0000000000000368 .LFE36
     /tmp/cczDdAih.s:4107   .debug_str:00000000000007d4 .LASF173
     /tmp/cczDdAih.s:3483   .debug_loc:0000000000000000 .LLST28
     /tmp/cczDdAih.s:554    .text:000000000000031c .LBB46
     /tmp/cczDdAih.s:561    .text:0000000000000320 .LBE46
     /tmp/cczDdAih.s:3508   .debug_loc:0000000000000062 .LLST29
     /tmp/cczDdAih.s:576    .text:0000000000000338 .LBB48
     /tmp/cczDdAih.s:583    .text:000000000000033c .LBE48
     /tmp/cczDdAih.s:3515   .debug_loc:0000000000000085 .LLST30
     /tmp/cczDdAih.s:587    .text:0000000000000344 .LVL52
     /tmp/cczDdAih.s:591    .text:000000000000034c .LVL53
     /tmp/cczDdAih.s:490    .text:00000000000002c4 .LFB35
     /tmp/cczDdAih.s:543    .text:000000000000031c .LFE35
     /tmp/cczDdAih.s:3522   .debug_loc:00000000000000a8 .LLST26
     /tmp/cczDdAih.s:516    .text:00000000000002f4 .LBB44
     /tmp/cczDdAih.s:524    .text:00000000000002fc .LBE44
     /tmp/cczDdAih.s:3540   .debug_loc:00000000000000f4 .LLST27
     /tmp/cczDdAih.s:511    .text:00000000000002f0 .LVL44
     /tmp/cczDdAih.s:528    .text:0000000000000304 .LVL47
     /tmp/cczDdAih.s:363    .text:000000000000021c .LFB34
     /tmp/cczDdAih.s:383    .text:0000000000000240 .LFE34
     /tmp/cczDdAih.s:325    .text:00000000000001ec .LFB33
     /tmp/cczDdAih.s:357    .text:000000000000021c .LFE33
     /tmp/cczDdAih.s:389    .text:0000000000000240 .LFB32
     /tmp/cczDdAih.s:484    .text:00000000000002c4 .LFE32
     /tmp/cczDdAih.s:3849   .debug_ranges:0000000000000000 .Ldebug_ranges0
     /tmp/cczDdAih.s:3547   .debug_loc:0000000000000117 .LLST23
     /tmp/cczDdAih.s:417    .text:000000000000026c .LBB38
     /tmp/cczDdAih.s:425    .text:0000000000000270 .LBE38
     /tmp/cczDdAih.s:3558   .debug_loc:000000000000014d .LLST24
     /tmp/cczDdAih.s:450    .text:0000000000000298 .LBB40
     /tmp/cczDdAih.s:457    .text:000000000000029c .LBE40
     /tmp/cczDdAih.s:3565   .debug_loc:0000000000000170 .LLST25
     /tmp/cczDdAih.s:429    .text:0000000000000278 .LVL35
     /tmp/cczDdAih.s:448    .text:0000000000000298 .LVL38
     /tmp/cczDdAih.s:436    .text:0000000000000280 .LVL36
     /tmp/cczDdAih.s:441    .text:000000000000028c .LVL37
     /tmp/cczDdAih.s:270    .text:000000000000019c .LFB31
     /tmp/cczDdAih.s:319    .text:00000000000001ec .LFE31
     /tmp/cczDdAih.s:3572   .debug_loc:0000000000000193 .LLST21
     /tmp/cczDdAih.s:3579   .debug_loc:00000000000001b6 .LLST22
     /tmp/cczDdAih.s:302    .text:00000000000001d4 .LVL31
     /tmp/cczDdAih.s:75     .text:0000000000000050 .LFB30
     /tmp/cczDdAih.s:264    .text:000000000000019c .LFE30
     /tmp/cczDdAih.s:3590   .debug_loc:00000000000001ec .LLST2
     /tmp/cczDdAih.s:4087   .debug_str:0000000000000757 .LASF174
     /tmp/cczDdAih.s:3632   .debug_loc:00000000000002aa .LLST3
     /tmp/cczDdAih.s:165    .text:00000000000000f4 .LBB32
     /tmp/cczDdAih.s:217    .text:000000000000014c .LBE32
     /tmp/cczDdAih.s:4111   .debug_str:00000000000007e9 .LASF175
     /tmp/cczDdAih.s:3679   .debug_loc:000000000000037c .LLST12
     /tmp/cczDdAih.s:194    .text:0000000000000124 .LBB33
     /tmp/cczDdAih.s:202    .text:0000000000000130 .LBE33
     /tmp/cczDdAih.s:3694   .debug_loc:00000000000003c5 .LLST13
     /tmp/cczDdAih.s:3701   .debug_loc:00000000000003e8 .LLST14
     /tmp/cczDdAih.s:3708   .debug_loc:000000000000040b .LLST15
GAS LISTING /tmp/cczDdAih.s 			page 26


     /tmp/cczDdAih.s:3715   .debug_loc:000000000000042e .LLST16
     /tmp/cczDdAih.s:191    .text:0000000000000120 .LVL20
     /tmp/cczDdAih.s:118    .text:00000000000000a8 .LBB28
     /tmp/cczDdAih.s:127    .text:00000000000000b4 .LBE28
     /tmp/cczDdAih.s:3722   .debug_loc:0000000000000451 .LLST4
     /tmp/cczDdAih.s:3729   .debug_loc:0000000000000474 .LLST5
     /tmp/cczDdAih.s:3736   .debug_loc:0000000000000497 .LLST6
     /tmp/cczDdAih.s:3743   .debug_loc:00000000000004ba .LLST7
     /tmp/cczDdAih.s:147    .text:00000000000000d4 .LBB30
     /tmp/cczDdAih.s:155    .text:00000000000000e0 .LBE30
     /tmp/cczDdAih.s:3750   .debug_loc:00000000000004dd .LLST8
     /tmp/cczDdAih.s:3758   .debug_loc:0000000000000501 .LLST9
     /tmp/cczDdAih.s:3765   .debug_loc:0000000000000524 .LLST10
     /tmp/cczDdAih.s:3772   .debug_loc:0000000000000547 .LLST11
     /tmp/cczDdAih.s:224    .text:0000000000000158 .LBB35
     /tmp/cczDdAih.s:232    .text:0000000000000164 .LBE35
     /tmp/cczDdAih.s:3779   .debug_loc:000000000000056a .LLST17
     /tmp/cczDdAih.s:3787   .debug_loc:000000000000058e .LLST18
     /tmp/cczDdAih.s:3794   .debug_loc:00000000000005b1 .LLST19
     /tmp/cczDdAih.s:3801   .debug_loc:00000000000005d4 .LLST20
     /tmp/cczDdAih.s:114    .text:000000000000009c .LVL6
     /tmp/cczDdAih.s:146    .text:00000000000000d4 .LVL13
     /tmp/cczDdAih.s:223    .text:0000000000000158 .LVL25
     /tmp/cczDdAih.s:43     .text:0000000000000028 .LFB29
     /tmp/cczDdAih.s:69     .text:0000000000000050 .LFE29
     /tmp/cczDdAih.s:3808   .debug_loc:00000000000005f7 .LLST1
     /tmp/cczDdAih.s:58     .text:0000000000000040 .LVL3
     /tmp/cczDdAih.s:10     .text:0000000000000000 .LFB28
     /tmp/cczDdAih.s:37     .text:0000000000000028 .LFE28
     /tmp/cczDdAih.s:3822   .debug_loc:0000000000000630 .LLST0
     /tmp/cczDdAih.s:26     .text:0000000000000018 .LVL1
     /tmp/cczDdAih.s:3961   .debug_str:000000000000032f .LASF176
     /tmp/cczDdAih.s:3933   .debug_str:0000000000000227 .LASF184
     /tmp/cczDdAih.s:552    .text:000000000000031c .LVL48
     /tmp/cczDdAih.s:604    .text:0000000000000360 .LVL54
     /tmp/cczDdAih.s:608    .text:0000000000000364 .LVL55
     /tmp/cczDdAih.s:559    .text:0000000000000320 .LVL49
     /tmp/cczDdAih.s:575    .text:0000000000000338 .LVL50
     /tmp/cczDdAih.s:581    .text:000000000000033c .LVL51
     /tmp/cczDdAih.s:493    .text:00000000000002c4 .LVL42
     /tmp/cczDdAih.s:509    .text:00000000000002e8 .LVL43
     /tmp/cczDdAih.s:515    .text:00000000000002f4 .LVL45
     /tmp/cczDdAih.s:522    .text:00000000000002fc .LVL46
     /tmp/cczDdAih.s:413    .text:000000000000026c .LVL33
     /tmp/cczDdAih.s:469    .text:00000000000002b0 .LVL41
     /tmp/cczDdAih.s:423    .text:0000000000000270 .LVL34
     /tmp/cczDdAih.s:455    .text:000000000000029c .LVL39
     /tmp/cczDdAih.s:287    .text:00000000000001bc .LVL29
     /tmp/cczDdAih.s:291    .text:00000000000001c0 .LVL30
     /tmp/cczDdAih.s:314    .text:00000000000001e4 .LVL32
     /tmp/cczDdAih.s:78     .text:0000000000000050 .LVL4
     /tmp/cczDdAih.s:112    .text:0000000000000094 .LVL5
     /tmp/cczDdAih.s:139    .text:00000000000000c8 .LVL11
     /tmp/cczDdAih.s:144    .text:00000000000000cc .LVL12
     /tmp/cczDdAih.s:163    .text:00000000000000f4 .LVL15
     /tmp/cczDdAih.s:189    .text:0000000000000118 .LVL19
     /tmp/cczDdAih.s:215    .text:000000000000014c .LVL23
GAS LISTING /tmp/cczDdAih.s 			page 27


     /tmp/cczDdAih.s:221    .text:0000000000000150 .LVL24
     /tmp/cczDdAih.s:259    .text:0000000000000194 .LVL28
     /tmp/cczDdAih.s:134    .text:00000000000000c0 .LVL9
     /tmp/cczDdAih.s:136    .text:00000000000000c4 .LVL10
     /tmp/cczDdAih.s:168    .text:00000000000000f8 .LVL16
     /tmp/cczDdAih.s:180    .text:000000000000010c .LVL18
     /tmp/cczDdAih.s:241    .text:0000000000000178 .LVL27
     /tmp/cczDdAih.s:173    .text:0000000000000100 .LVL17
     /tmp/cczDdAih.s:193    .text:0000000000000124 .LVL21
     /tmp/cczDdAih.s:200    .text:0000000000000130 .LVL22
     /tmp/cczDdAih.s:117    .text:00000000000000a8 .LVL7
     /tmp/cczDdAih.s:125    .text:00000000000000b4 .LVL8
     /tmp/cczDdAih.s:153    .text:00000000000000e0 .LVL14
     /tmp/cczDdAih.s:230    .text:0000000000000164 .LVL26
     /tmp/cczDdAih.s:46     .text:0000000000000028 .LVL2
     /tmp/cczDdAih.s:14     .text:0000000000000000 .LVL0
     /tmp/cczDdAih.s:635    .debug_info:0000000000000000 .Ldebug_info0
     /tmp/cczDdAih.s:415    .text:000000000000026c .LBB37
     /tmp/cczDdAih.s:431    .text:0000000000000278 .LBE37
     /tmp/cczDdAih.s:444    .text:0000000000000290 .LBB42
     /tmp/cczDdAih.s:462    .text:00000000000002a4 .LBE42
     /tmp/cczDdAih.s:464    .text:00000000000002a4 .LBB43
     /tmp/cczDdAih.s:471    .text:00000000000002b0 .LBE43

UNDEFINED SYMBOLS
_ZN9Allocator10_mem_allocEm
_ZN9Allocator9_mem_freeEPKv
_ZN9Scheduler3putEP3TCB
_ZN3TCB7runningE
_ZN3TCB16_thread_dispatchEv
