GAS LISTING /tmp/ccAwybUB.s 			page 1


   1              		.file	"c_sleep.cpp"
   2              		.option pic
   3              		.option norelax
   4              		.text
   5              	.Ltext0:
   6              		.align	2
   7              		.globl	_ZN6Cradle4elemnwEm
   9              	_ZN6Cradle4elemnwEm:
  10              	.LFB27:
  11              		.file 1 "src/c_sleep.cpp"
   1:src/c_sleep.cpp **** #include "../h/c_sleep.hpp"
   2:src/c_sleep.cpp **** #include "../h/c_thread.hpp"
   3:src/c_sleep.cpp **** #include "../h/scheduler.hpp"
   4:src/c_sleep.cpp **** 
   5:src/c_sleep.cpp **** Cradle::elem *Cradle::head = nullptr;
   6:src/c_sleep.cpp **** Cradle::elem *Cradle::tail = nullptr;
   7:src/c_sleep.cpp **** 
   8:src/c_sleep.cpp **** void *Cradle::elem::operator new(size_t size) {
  12              		.loc 1 8 47
  13              		.cfi_startproc
  14              	.LVL0:
  15 0000 130101FF 		addi	sp,sp,-16
  16              		.cfi_def_cfa_offset 16
  17 0004 23341100 		sd	ra,8(sp)
  18 0008 23308100 		sd	s0,0(sp)
  19              		.cfi_offset 1, -8
  20              		.cfi_offset 8, -16
  21 000c 13040101 		addi	s0,sp,16
  22              		.cfi_def_cfa 8, 0
   9:src/c_sleep.cpp ****     return Allocator::_mem_alloc(size);
  23              		.loc 1 9 5
  24              		.loc 1 9 33 is_stmt 0
  25 0010 97000000 		call	_ZN9Allocator10_mem_allocEm@plt
  25      E7800000 
  26              	.LVL1:
  10:src/c_sleep.cpp **** }
  27              		.loc 1 10 1
  28 0018 83308100 		ld	ra,8(sp)
  29              		.cfi_restore 1
  30 001c 03340100 		ld	s0,0(sp)
  31              		.cfi_restore 8
  32              		.cfi_def_cfa 2, 16
  33 0020 13010101 		addi	sp,sp,16
  34              		.cfi_def_cfa_offset 0
  35 0024 67800000 		jr	ra
  36              		.cfi_endproc
  37              	.LFE27:
  39              		.align	2
  40              		.globl	_ZN6Cradle4elemdlEPv
  42              	_ZN6Cradle4elemdlEPv:
  43              	.LFB28:
  11:src/c_sleep.cpp **** 
  12:src/c_sleep.cpp **** void Cradle::elem::operator delete(void *mem) {
  44              		.loc 1 12 47 is_stmt 1
  45              		.cfi_startproc
  46              	.LVL2:
  47 0028 130101FF 		addi	sp,sp,-16
GAS LISTING /tmp/ccAwybUB.s 			page 2


  48              		.cfi_def_cfa_offset 16
  49 002c 23341100 		sd	ra,8(sp)
  50 0030 23308100 		sd	s0,0(sp)
  51              		.cfi_offset 1, -8
  52              		.cfi_offset 8, -16
  53 0034 13040101 		addi	s0,sp,16
  54              		.cfi_def_cfa 8, 0
  13:src/c_sleep.cpp ****     Allocator::_mem_free(mem);
  55              		.loc 1 13 5
  56              		.loc 1 13 25 is_stmt 0
  57 0038 97000000 		call	_ZN9Allocator9_mem_freeEPKv@plt
  57      E7800000 
  58              	.LVL3:
  14:src/c_sleep.cpp **** }
  59              		.loc 1 14 1
  60 0040 83308100 		ld	ra,8(sp)
  61              		.cfi_restore 1
  62 0044 03340100 		ld	s0,0(sp)
  63              		.cfi_restore 8
  64              		.cfi_def_cfa 2, 16
  65 0048 13010101 		addi	sp,sp,16
  66              		.cfi_def_cfa_offset 0
  67 004c 67800000 		jr	ra
  68              		.cfi_endproc
  69              	.LFE28:
  71              		.align	2
  72              		.globl	_ZN6Cradle6insertEP3TCBm
  74              	_ZN6Cradle6insertEP3TCBm:
  75              	.LFB29:
  15:src/c_sleep.cpp **** 
  16:src/c_sleep.cpp **** void Cradle::insert(TCB *thread, time_t time) {
  76              		.loc 1 16 47 is_stmt 1
  77              		.cfi_startproc
  78              	.LVL4:
  79 0050 130101FC 		addi	sp,sp,-64
  80              		.cfi_def_cfa_offset 64
  81 0054 233C1102 		sd	ra,56(sp)
  82 0058 23388102 		sd	s0,48(sp)
  83 005c 23349102 		sd	s1,40(sp)
  84 0060 23302103 		sd	s2,32(sp)
  85 0064 233C3101 		sd	s3,24(sp)
  86 0068 23384101 		sd	s4,16(sp)
  87 006c 23345101 		sd	s5,8(sp)
  88              		.cfi_offset 1, -8
  89              		.cfi_offset 8, -16
  90              		.cfi_offset 9, -24
  91              		.cfi_offset 18, -32
  92              		.cfi_offset 19, -40
  93              		.cfi_offset 20, -48
  94              		.cfi_offset 21, -56
  95 0070 13040104 		addi	s0,sp,64
  96              		.cfi_def_cfa 8, 0
  97 0074 930A0500 		mv	s5,a0
  98 0078 13890500 		mv	s2,a1
  17:src/c_sleep.cpp ****     if (head == nullptr) {
  99              		.loc 1 17 5
 100              		.loc 1 17 14 is_stmt 0
GAS LISTING /tmp/ccAwybUB.s 			page 3


 101 007c 97070000 		ld	a5,.LANCHOR0
 101      83B70700 
 102              		.loc 1 17 5
 103 0084 63820704 		beqz	a5,.L12
  18:src/c_sleep.cpp ****         head = tail = new elem(thread, time);
  19:src/c_sleep.cpp ****         return;
  20:src/c_sleep.cpp ****     } else if (time < head->time_left) {
 104              		.loc 1 20 12 is_stmt 1
 105              		.loc 1 20 29 is_stmt 0
 106 0088 03B78700 		ld	a4,8(a5)
 107              		.loc 1 20 12
 108 008c 63F6E506 		bleu	a4,a1,.L8
  21:src/c_sleep.cpp ****         head = new elem(thread, time, head);
 109              		.loc 1 21 9 is_stmt 1
 110              		.loc 1 21 43 is_stmt 0
 111 0090 13058001 		li	a0,24
 112              	.LVL5:
 113 0094 97000000 		call	_ZN6Cradle4elemnwEm
 113      E7800000 
 114              	.LVL6:
 115 009c 17070000 		lla	a4,.LANCHOR0
 115      13070700 
 116 00a4 83370700 		ld	a5,0(a4)
 117              	.LVL7:
 118              	.LBB21:
 119              	.LBB22:
 120              		.file 2 "src/../h/c_sleep.hpp"
   1:src/../h/c_sleep.hpp **** #ifndef PROJECT_BASE_RQUEUE_H
   2:src/../h/c_sleep.hpp **** #define PROJECT_BASE_RQUEUE_H
   3:src/../h/c_sleep.hpp **** 
   4:src/../h/c_sleep.hpp **** #include "syscall_c.hpp"
   5:src/../h/c_sleep.hpp **** 
   6:src/../h/c_sleep.hpp **** class TCB;
   7:src/../h/c_sleep.hpp **** 
   8:src/../h/c_sleep.hpp **** class Cradle {
   9:src/../h/c_sleep.hpp **** public:
  10:src/../h/c_sleep.hpp **** 
  11:src/../h/c_sleep.hpp ****     static void insert(TCB *, time_t);
  12:src/../h/c_sleep.hpp **** 
  13:src/../h/c_sleep.hpp ****     static TCB *remove();
  14:src/../h/c_sleep.hpp **** 
  15:src/../h/c_sleep.hpp ****     static void update();
  16:src/../h/c_sleep.hpp **** 
  17:src/../h/c_sleep.hpp ****     static int peak();
  18:src/../h/c_sleep.hpp **** 
  19:src/../h/c_sleep.hpp ****     static bool is_empty();
  20:src/../h/c_sleep.hpp **** 
  21:src/../h/c_sleep.hpp ****     static int _time_sleep(time_t);
  22:src/../h/c_sleep.hpp **** 
  23:src/../h/c_sleep.hpp ****     static int _thread_wake(TCB *);
  24:src/../h/c_sleep.hpp **** 
  25:src/../h/c_sleep.hpp **** private:
  26:src/../h/c_sleep.hpp ****     struct elem {
  27:src/../h/c_sleep.hpp ****         void *operator new(size_t size);
  28:src/../h/c_sleep.hpp **** 
  29:src/../h/c_sleep.hpp ****         void operator delete(void *mem);
  30:src/../h/c_sleep.hpp **** 
GAS LISTING /tmp/ccAwybUB.s 			page 4


  31:src/../h/c_sleep.hpp ****         elem(TCB *handle, time_t time, elem *next = nullptr) : handle(handle), time_left(time), nex
 121              		.loc 2 31 106
 122 00a8 23305501 		sd	s5,0(a0)
 123 00ac 23342501 		sd	s2,8(a0)
 124 00b0 2338F500 		sd	a5,16(a0)
 125              	.LVL8:
 126              	.LBE22:
 127              	.LBE21:
 128              		.loc 1 21 14
 129 00b4 2330A700 		sd	a0,0(a4)
  22:src/c_sleep.cpp ****         head->next->time_left -= time;
 130              		.loc 1 22 9 is_stmt 1
 131              		.loc 1 22 31 is_stmt 0
 132 00b8 03B78700 		ld	a4,8(a5)
 133 00bc 33092741 		sub	s2,a4,s2
 134              	.LVL9:
 135 00c0 23B42701 		sd	s2,8(a5)
 136              	.LVL10:
  23:src/c_sleep.cpp ****         return;
 137              		.loc 1 23 9 is_stmt 1
 138 00c4 6F00400B 		j	.L5
 139              	.LVL11:
 140              	.L12:
  18:src/c_sleep.cpp ****         return;
 141              		.loc 1 18 9
  18:src/c_sleep.cpp ****         return;
 142              		.loc 1 18 44 is_stmt 0
 143 00c8 13058001 		li	a0,24
 144              	.LVL12:
 145 00cc 97000000 		call	_ZN6Cradle4elemnwEm
 145      E7800000 
 146              	.LVL13:
 147              	.LBB23:
 148              	.LBB24:
 149              		.loc 2 31 106
 150 00d4 23305501 		sd	s5,0(a0)
 151 00d8 23342501 		sd	s2,8(a0)
 152 00dc 23380500 		sd	zero,16(a0)
 153              	.LVL14:
 154              	.LBE24:
 155              	.LBE23:
  18:src/c_sleep.cpp ****         return;
 156              		.loc 1 18 21
 157 00e0 97070000 		lla	a5,.LANCHOR0
 157      93870700 
 158 00e8 23B4A700 		sd	a0,8(a5)
  18:src/c_sleep.cpp ****         return;
 159              		.loc 1 18 14
 160 00ec 23B0A700 		sd	a0,0(a5)
  19:src/c_sleep.cpp ****     } else if (time < head->time_left) {
 161              		.loc 1 19 9 is_stmt 1
 162 00f0 6F008008 		j	.L5
 163              	.LVL15:
 164              	.L10:
 165              	.LBB25:
  24:src/c_sleep.cpp ****     }
  25:src/c_sleep.cpp ****     for (elem *curr = head; curr->next; curr = curr->next) {
GAS LISTING /tmp/ccAwybUB.s 			page 5


  26:src/c_sleep.cpp ****         time -= curr->time_left;
 166              		.loc 1 26 14 is_stmt 0
 167 00f4 13890400 		mv	s2,s1
 168              	.LVL16:
 169              	.L8:
  25:src/c_sleep.cpp ****         time -= curr->time_left;
 170              		.loc 1 25 35 is_stmt 1 discriminator 1
 171 00f8 93890700 		mv	s3,a5
 172 00fc 83B70701 		ld	a5,16(a5)
 173              	.LVL17:
 174 0100 63860704 		beqz	a5,.L9
 175              		.loc 1 26 9
 176              		.loc 1 26 23 is_stmt 0
 177 0104 03BA8900 		ld	s4,8(s3)
 178              		.loc 1 26 14
 179 0108 B3044941 		sub	s1,s2,s4
 180              	.LVL18:
  27:src/c_sleep.cpp ****         if (time < curr->next->time_left) {
 181              		.loc 1 27 9 is_stmt 1
 182              		.loc 1 27 32 is_stmt 0
 183 010c 03B78700 		ld	a4,8(a5)
 184              		.loc 1 27 9
 185 0110 E3F2E4FE 		bleu	a4,s1,.L10
  28:src/c_sleep.cpp ****             curr->next = new elem(thread, time, curr->next);
 186              		.loc 1 28 13 is_stmt 1
 187              		.loc 1 28 59 is_stmt 0
 188 0114 13058001 		li	a0,24
 189              	.LVL19:
 190 0118 97000000 		call	_ZN6Cradle4elemnwEm
 190      E7800000 
 191              	.LVL20:
 192 0120 83B70901 		ld	a5,16(s3)
 193              	.LVL21:
 194              	.LBB26:
 195              	.LBB27:
 196              		.loc 2 31 106
 197 0124 23305501 		sd	s5,0(a0)
 198 0128 23349500 		sd	s1,8(a0)
 199 012c 2338F500 		sd	a5,16(a0)
 200              	.LVL22:
 201              	.LBE27:
 202              	.LBE26:
 203              		.loc 1 28 24
 204 0130 23B8A900 		sd	a0,16(s3)
  29:src/c_sleep.cpp ****             curr->next->next->time_left -= time;
 205              		.loc 1 29 13 is_stmt 1
 206              		.loc 1 29 25 is_stmt 0
 207 0134 83370501 		ld	a5,16(a0)
 208              		.loc 1 29 41
 209 0138 33092A41 		sub	s2,s4,s2
 210 013c 03BA8700 		ld	s4,8(a5)
 211 0140 33092A01 		add	s2,s4,s2
 212 0144 23B42701 		sd	s2,8(a5)
  30:src/c_sleep.cpp ****             return;
 213              		.loc 1 30 13 is_stmt 1
 214 0148 6F000003 		j	.L5
 215              	.LVL23:
GAS LISTING /tmp/ccAwybUB.s 			page 6


 216              	.L9:
 217              	.LBE25:
  31:src/c_sleep.cpp ****         }
  32:src/c_sleep.cpp ****     }
  33:src/c_sleep.cpp ****     tail->next = new elem(thread, time);
 218              		.loc 1 33 5
 219              		.loc 1 33 39 is_stmt 0
 220 014c 13058001 		li	a0,24
 221              	.LVL24:
 222 0150 97000000 		call	_ZN6Cradle4elemnwEm
 222      E7800000 
 223              	.LVL25:
 224              	.LBB28:
 225              	.LBB29:
 226              		.loc 2 31 106
 227 0158 23305501 		sd	s5,0(a0)
 228 015c 23342501 		sd	s2,8(a0)
 229 0160 23380500 		sd	zero,16(a0)
 230              	.LVL26:
 231              	.LBE29:
 232              	.LBE28:
 233              		.loc 1 33 11
 234 0164 97070000 		lla	a5,.LANCHOR0
 234      93870700 
 235 016c 03B78700 		ld	a4,8(a5)
 236              		.loc 1 33 16
 237 0170 2338A700 		sd	a0,16(a4)
  34:src/c_sleep.cpp ****     tail = tail->next;
 238              		.loc 1 34 5 is_stmt 1
 239              		.loc 1 34 10 is_stmt 0
 240 0174 23B4A700 		sd	a0,8(a5)
 241              	.LVL27:
 242              	.L5:
  35:src/c_sleep.cpp **** }
 243              		.loc 1 35 1
 244 0178 83308103 		ld	ra,56(sp)
 245              		.cfi_restore 1
 246 017c 03340103 		ld	s0,48(sp)
 247              		.cfi_restore 8
 248              		.cfi_def_cfa 2, 64
 249 0180 83348102 		ld	s1,40(sp)
 250              		.cfi_restore 9
 251 0184 03390102 		ld	s2,32(sp)
 252              		.cfi_restore 18
 253 0188 83398101 		ld	s3,24(sp)
 254              		.cfi_restore 19
 255 018c 033A0101 		ld	s4,16(sp)
 256              		.cfi_restore 20
 257 0190 833A8100 		ld	s5,8(sp)
 258              		.cfi_restore 21
 259              	.LVL28:
 260 0194 13010104 		addi	sp,sp,64
 261              		.cfi_def_cfa_offset 0
 262 0198 67800000 		jr	ra
 263              		.cfi_endproc
 264              	.LFE29:
 266              		.align	2
GAS LISTING /tmp/ccAwybUB.s 			page 7


 267              		.globl	_ZN6Cradle6removeEv
 269              	_ZN6Cradle6removeEv:
 270              	.LFB30:
  36:src/c_sleep.cpp **** 
  37:src/c_sleep.cpp **** TCB *Cradle::remove() {
 271              		.loc 1 37 23 is_stmt 1
 272              		.cfi_startproc
 273 019c 130101FE 		addi	sp,sp,-32
 274              		.cfi_def_cfa_offset 32
 275 01a0 233C1100 		sd	ra,24(sp)
 276 01a4 23388100 		sd	s0,16(sp)
 277 01a8 23349100 		sd	s1,8(sp)
 278              		.cfi_offset 1, -8
 279              		.cfi_offset 8, -16
 280              		.cfi_offset 9, -24
 281 01ac 13040102 		addi	s0,sp,32
 282              		.cfi_def_cfa 8, 0
  38:src/c_sleep.cpp ****     elem *old = head;
 283              		.loc 1 38 5
 284              		.loc 1 38 11 is_stmt 0
 285 01b0 97070000 		lla	a5,.LANCHOR0
 285      93870700 
 286 01b8 03B50700 		ld	a0,0(a5)
 287              	.LVL29:
  39:src/c_sleep.cpp ****     TCB *ret = old->handle;
 288              		.loc 1 39 5 is_stmt 1
 289              		.loc 1 39 10 is_stmt 0
 290 01bc 83340500 		ld	s1,0(a0)
 291              	.LVL30:
  40:src/c_sleep.cpp ****     head = head->next;
 292              		.loc 1 40 5 is_stmt 1
 293              		.loc 1 40 18 is_stmt 0
 294 01c0 03370501 		ld	a4,16(a0)
 295              		.loc 1 40 10
 296 01c4 23B0E700 		sd	a4,0(a5)
  41:src/c_sleep.cpp ****     delete old;
 297              		.loc 1 41 5 is_stmt 1
 298              		.loc 1 41 15 is_stmt 0
 299 01c8 63060500 		beqz	a0,.L13
 300              		.loc 1 41 12 discriminator 1
 301 01cc 97000000 		call	_ZN6Cradle4elemdlEPv
 301      E7800000 
 302              	.LVL31:
  42:src/c_sleep.cpp ****     return ret;
 303              		.loc 1 42 5 is_stmt 1 discriminator 1
 304              	.L13:
  43:src/c_sleep.cpp **** }
 305              		.loc 1 43 1 is_stmt 0
 306 01d4 13850400 		mv	a0,s1
 307 01d8 83308101 		ld	ra,24(sp)
 308              		.cfi_restore 1
 309 01dc 03340101 		ld	s0,16(sp)
 310              		.cfi_restore 8
 311              		.cfi_def_cfa 2, 32
 312 01e0 83348100 		ld	s1,8(sp)
 313              		.cfi_restore 9
 314              	.LVL32:
GAS LISTING /tmp/ccAwybUB.s 			page 8


 315 01e4 13010102 		addi	sp,sp,32
 316              		.cfi_def_cfa_offset 0
 317 01e8 67800000 		jr	ra
 318              		.cfi_endproc
 319              	.LFE30:
 321              		.align	2
 322              		.globl	_ZN6Cradle6updateEv
 324              	_ZN6Cradle6updateEv:
 325              	.LFB31:
  44:src/c_sleep.cpp **** 
  45:src/c_sleep.cpp **** void Cradle::update() {
 326              		.loc 1 45 23 is_stmt 1
 327              		.cfi_startproc
 328 01ec 130101FF 		addi	sp,sp,-16
 329              		.cfi_def_cfa_offset 16
 330 01f0 23348100 		sd	s0,8(sp)
 331              		.cfi_offset 8, -8
 332 01f4 13040101 		addi	s0,sp,16
 333              		.cfi_def_cfa 8, 0
  46:src/c_sleep.cpp ****     if (!head)
 334              		.loc 1 46 5
 335              		.loc 1 46 9 is_stmt 0
 336 01f8 97070000 		ld	a5,.LANCHOR0
 336      83B70700 
 337              		.loc 1 46 5
 338 0200 63880700 		beqz	a5,.L16
  47:src/c_sleep.cpp ****         return;
  48:src/c_sleep.cpp ****     head->time_left--;
 339              		.loc 1 48 5 is_stmt 1
 340              		.loc 1 48 11 is_stmt 0
 341 0204 03B78700 		ld	a4,8(a5)
 342              		.loc 1 48 20
 343 0208 1307F7FF 		addi	a4,a4,-1
 344 020c 23B4E700 		sd	a4,8(a5)
 345              	.L16:
  49:src/c_sleep.cpp **** }
 346              		.loc 1 49 1
 347 0210 03348100 		ld	s0,8(sp)
 348              		.cfi_restore 8
 349              		.cfi_def_cfa 2, 16
 350 0214 13010101 		addi	sp,sp,16
 351              		.cfi_def_cfa_offset 0
 352 0218 67800000 		jr	ra
 353              		.cfi_endproc
 354              	.LFE31:
 356              		.align	2
 357              		.globl	_ZN6Cradle4peakEv
 359              	_ZN6Cradle4peakEv:
 360              	.LFB32:
  50:src/c_sleep.cpp **** 
  51:src/c_sleep.cpp **** int Cradle::peak() {
 361              		.loc 1 51 20 is_stmt 1
 362              		.cfi_startproc
 363 021c 130101FF 		addi	sp,sp,-16
 364              		.cfi_def_cfa_offset 16
 365 0220 23348100 		sd	s0,8(sp)
 366              		.cfi_offset 8, -8
GAS LISTING /tmp/ccAwybUB.s 			page 9


 367 0224 13040101 		addi	s0,sp,16
 368              		.cfi_def_cfa 8, 0
  52:src/c_sleep.cpp ****     if (head)
 369              		.loc 1 52 5
 370              		.loc 1 52 13 is_stmt 0
 371 0228 97070000 		ld	a5,.LANCHOR0
 371      83B70700 
 372              		.loc 1 52 5
 373 0230 638A0700 		beqz	a5,.L21
  53:src/c_sleep.cpp ****         return head->time_left;
 374              		.loc 1 53 9 is_stmt 1
 375              		.loc 1 53 22 is_stmt 0
 376 0234 03A58700 		lw	a0,8(a5)
 377              	.L20:
  54:src/c_sleep.cpp ****     else
  55:src/c_sleep.cpp ****         return -1;
  56:src/c_sleep.cpp **** }
 378              		.loc 1 56 1
 379 0238 03348100 		ld	s0,8(sp)
 380              		.cfi_remember_state
 381              		.cfi_restore 8
 382              		.cfi_def_cfa 2, 16
 383 023c 13010101 		addi	sp,sp,16
 384              		.cfi_def_cfa_offset 0
 385 0240 67800000 		jr	ra
 386              	.L21:
 387              		.cfi_restore_state
  55:src/c_sleep.cpp **** }
 388              		.loc 1 55 17
 389 0244 1305F0FF 		li	a0,-1
 390 0248 6FF01FFF 		j	.L20
 391              		.cfi_endproc
 392              	.LFE32:
 394              		.align	2
 395              		.globl	_ZN6Cradle8is_emptyEv
 397              	_ZN6Cradle8is_emptyEv:
 398              	.LFB33:
  57:src/c_sleep.cpp **** 
  58:src/c_sleep.cpp **** bool Cradle::is_empty() {
 399              		.loc 1 58 25 is_stmt 1
 400              		.cfi_startproc
 401 024c 130101FF 		addi	sp,sp,-16
 402              		.cfi_def_cfa_offset 16
 403 0250 23348100 		sd	s0,8(sp)
 404              		.cfi_offset 8, -8
 405 0254 13040101 		addi	s0,sp,16
 406              		.cfi_def_cfa 8, 0
  59:src/c_sleep.cpp ****     return head == nullptr;
 407              		.loc 1 59 5
  60:src/c_sleep.cpp **** }
 408              		.loc 1 60 1 is_stmt 0
 409 0258 17050000 		ld	a0,.LANCHOR0
 409      03350500 
 410 0260 13351500 		seqz	a0,a0
 411 0264 03348100 		ld	s0,8(sp)
 412              		.cfi_restore 8
 413              		.cfi_def_cfa 2, 16
GAS LISTING /tmp/ccAwybUB.s 			page 10


 414 0268 13010101 		addi	sp,sp,16
 415              		.cfi_def_cfa_offset 0
 416 026c 67800000 		jr	ra
 417              		.cfi_endproc
 418              	.LFE33:
 420              		.align	2
 421              		.globl	_ZN6Cradle11_time_sleepEm
 423              	_ZN6Cradle11_time_sleepEm:
 424              	.LFB34:
  61:src/c_sleep.cpp **** 
  62:src/c_sleep.cpp **** int Cradle::_time_sleep(time_t ms) {
 425              		.loc 1 62 36 is_stmt 1
 426              		.cfi_startproc
 427              	.LVL33:
 428 0270 130101FE 		addi	sp,sp,-32
 429              		.cfi_def_cfa_offset 32
 430 0274 233C1100 		sd	ra,24(sp)
 431 0278 23388100 		sd	s0,16(sp)
 432 027c 23349100 		sd	s1,8(sp)
 433              		.cfi_offset 1, -8
 434              		.cfi_offset 8, -16
 435              		.cfi_offset 9, -24
 436 0280 13040102 		addi	s0,sp,32
 437              		.cfi_def_cfa 8, 0
 438 0284 93050500 		mv	a1,a0
  63:src/c_sleep.cpp ****     insert(TCB::running, ms);
 439              		.loc 1 63 5
 440              		.loc 1 63 11 is_stmt 0
 441 0288 97040000 		la	s1,_ZN3TCB7runningE
 441      83B40400 
 442 0290 03B50400 		ld	a0,0(s1)
 443              	.LVL34:
 444 0294 97000000 		call	_ZN6Cradle6insertEP3TCBm
 444      E7800000 
 445              	.LVL35:
  64:src/c_sleep.cpp ****     TCB::running->sleep();
 446              		.loc 1 64 5 is_stmt 1
 447              		.loc 1 64 24 is_stmt 0
 448 029c 83B70400 		ld	a5,0(s1)
 449              	.LVL36:
 450              	.LBB30:
 451              	.LBB31:
 452              		.file 3 "src/../h/c_thread.hpp"
   1:src/../h/c_thread.hpp **** #ifndef PROJECT_BASE_C_THREAD_HPP
   2:src/../h/c_thread.hpp **** #define PROJECT_BASE_C_THREAD_HPP
   3:src/../h/c_thread.hpp **** 
   4:src/../h/c_thread.hpp **** #include "syscall_c.hpp"
   5:src/../h/c_thread.hpp **** #include "../lib/hw.h"
   6:src/../h/c_thread.hpp **** #include "circular_buffer.hpp"
   7:src/../h/c_thread.hpp **** 
   8:src/../h/c_thread.hpp **** using run_t = void (*)(void *);
   9:src/../h/c_thread.hpp **** 
  10:src/../h/c_thread.hpp **** struct Context {
  11:src/../h/c_thread.hpp ****     uint64 ra;
  12:src/../h/c_thread.hpp ****     uint64 sp;
  13:src/../h/c_thread.hpp ****     uint64 sstatus;
  14:src/../h/c_thread.hpp ****     uint64 sepc;
GAS LISTING /tmp/ccAwybUB.s 			page 11


  15:src/../h/c_thread.hpp **** };
  16:src/../h/c_thread.hpp **** 
  17:src/../h/c_thread.hpp **** enum Status {
  18:src/../h/c_thread.hpp ****     RUNNABLE, BLOCKED, SLEEPING, JOINED, FINISHED
  19:src/../h/c_thread.hpp **** };
  20:src/../h/c_thread.hpp **** 
  21:src/../h/c_thread.hpp **** class TCB final {
  22:src/../h/c_thread.hpp **** public:
  23:src/../h/c_thread.hpp ****     static int _thread_create(thread_t *, void(*)(void *), void *, void *);
  24:src/../h/c_thread.hpp **** 
  25:src/../h/c_thread.hpp ****     static void _thread_exit();
  26:src/../h/c_thread.hpp **** 
  27:src/../h/c_thread.hpp ****     static void _thread_dispatch();
  28:src/../h/c_thread.hpp **** 
  29:src/../h/c_thread.hpp ****     static void _thread_join(thread_t);
  30:src/../h/c_thread.hpp **** 
  31:src/../h/c_thread.hpp ****     static void _thread_join_time(thread_t, time_t);
  32:src/../h/c_thread.hpp **** 
  33:src/../h/c_thread.hpp ****     static int _fork();
  34:src/../h/c_thread.hpp **** 
  35:src/../h/c_thread.hpp ****     static int _kill(TCB *);
  36:src/../h/c_thread.hpp **** 
  37:src/../h/c_thread.hpp ****     static void thread_start();
  38:src/../h/c_thread.hpp **** 
  39:src/../h/c_thread.hpp ****     static void context_switch(Context *, Context *);
  40:src/../h/c_thread.hpp **** 
  41:src/../h/c_thread.hpp ****     static void yield();
  42:src/../h/c_thread.hpp **** 
  43:src/../h/c_thread.hpp ****     static TCB *destroy_thread(TCB *);
  44:src/../h/c_thread.hpp **** 
  45:src/../h/c_thread.hpp ****     static void duplicate(TCB *, TCB *);
  46:src/../h/c_thread.hpp **** 
  47:src/../h/c_thread.hpp ****     TCB(run_t, void *, void *, Context);
  48:src/../h/c_thread.hpp **** 
  49:src/../h/c_thread.hpp ****     TCB(TCB &);
  50:src/../h/c_thread.hpp **** 
  51:src/../h/c_thread.hpp ****     bool is_runnable() const { return this->status == RUNNABLE; }
  52:src/../h/c_thread.hpp **** 
  53:src/../h/c_thread.hpp ****     bool is_blocked() const { return this->status == BLOCKED; }
  54:src/../h/c_thread.hpp **** 
  55:src/../h/c_thread.hpp ****     bool is_sleeping() const { return this->status == SLEEPING; }
  56:src/../h/c_thread.hpp **** 
  57:src/../h/c_thread.hpp ****     bool is_joined() const { return this->status == JOINED; }
  58:src/../h/c_thread.hpp **** 
  59:src/../h/c_thread.hpp ****     bool is_finished() const { return this->status == FINISHED; }
  60:src/../h/c_thread.hpp **** 
  61:src/../h/c_thread.hpp ****     void run() { this->status = RUNNABLE; }
  62:src/../h/c_thread.hpp **** 
  63:src/../h/c_thread.hpp ****     void block() { this->status = BLOCKED; }
  64:src/../h/c_thread.hpp **** 
  65:src/../h/c_thread.hpp ****     void sleep() { this->status = SLEEPING; }
 453              		.loc 3 65 20 is_stmt 1
 454              		.loc 3 65 33 is_stmt 0
 455 02a0 13072000 		li	a4,2
 456 02a4 23A4E704 		sw	a4,72(a5)
 457              	.LVL37:
 458              	.LBE31:
GAS LISTING /tmp/ccAwybUB.s 			page 12


 459              	.LBE30:
  65:src/c_sleep.cpp ****     TCB::_thread_dispatch();
 460              		.loc 1 65 5 is_stmt 1
 461              		.loc 1 65 26 is_stmt 0
 462 02a8 97000000 		call	_ZN3TCB16_thread_dispatchEv@plt
 462      E7800000 
 463              	.LVL38:
  66:src/c_sleep.cpp ****     return 0;
 464              		.loc 1 66 5 is_stmt 1
  67:src/c_sleep.cpp **** }
 465              		.loc 1 67 1 is_stmt 0
 466 02b0 13050000 		li	a0,0
 467 02b4 83308101 		ld	ra,24(sp)
 468              		.cfi_restore 1
 469 02b8 03340101 		ld	s0,16(sp)
 470              		.cfi_restore 8
 471              		.cfi_def_cfa 2, 32
 472 02bc 83348100 		ld	s1,8(sp)
 473              		.cfi_restore 9
 474 02c0 13010102 		addi	sp,sp,32
 475              		.cfi_def_cfa_offset 0
 476 02c4 67800000 		jr	ra
 477              		.cfi_endproc
 478              	.LFE34:
 480              		.align	2
 481              		.globl	_ZN6Cradle12_thread_wakeEP3TCB
 483              	_ZN6Cradle12_thread_wakeEP3TCB:
 484              	.LFB35:
  68:src/c_sleep.cpp **** 
  69:src/c_sleep.cpp **** int Cradle::_thread_wake(thread_t thread) {
 485              		.loc 1 69 43 is_stmt 1
 486              		.cfi_startproc
 487              	.LVL39:
  70:src/c_sleep.cpp ****     if (!thread->is_sleeping())
 488              		.loc 1 70 5
 489              	.LBB32:
 490              	.LBB33:
  55:src/../h/c_thread.hpp **** 
 491              		.loc 3 55 32
  55:src/../h/c_thread.hpp **** 
 492              		.loc 3 55 45 is_stmt 0
 493 02c8 03278504 		lw	a4,72(a0)
 494              	.LVL40:
 495              	.LBE33:
 496              	.LBE32:
 497              		.loc 1 70 5
 498 02cc 93072000 		li	a5,2
 499 02d0 631EF702 		bne	a4,a5,.L29
  69:src/c_sleep.cpp ****     if (!thread->is_sleeping())
 500              		.loc 1 69 43
 501 02d4 130101FF 		addi	sp,sp,-16
 502              		.cfi_def_cfa_offset 16
 503 02d8 23341100 		sd	ra,8(sp)
 504 02dc 23308100 		sd	s0,0(sp)
 505              		.cfi_offset 1, -8
 506              		.cfi_offset 8, -16
 507 02e0 13040101 		addi	s0,sp,16
GAS LISTING /tmp/ccAwybUB.s 			page 13


 508              		.cfi_def_cfa 8, 0
  71:src/c_sleep.cpp ****         return -1;
  72:src/c_sleep.cpp ****     thread->run();
 509              		.loc 1 72 5 is_stmt 1
 510              	.LVL41:
 511              	.LBB34:
 512              	.LBB35:
  61:src/../h/c_thread.hpp **** 
 513              		.loc 3 61 18
  61:src/../h/c_thread.hpp **** 
 514              		.loc 3 61 31 is_stmt 0
 515 02e4 23240504 		sw	zero,72(a0)
 516              	.LVL42:
 517              	.LBE35:
 518              	.LBE34:
  73:src/c_sleep.cpp ****     Scheduler::put(thread);
 519              		.loc 1 73 5 is_stmt 1
 520              		.loc 1 73 19 is_stmt 0
 521 02e8 97000000 		call	_ZN9Scheduler3putEP3TCB@plt
 521      E7800000 
 522              	.LVL43:
  74:src/c_sleep.cpp ****     TCB::_thread_dispatch();
 523              		.loc 1 74 5 is_stmt 1
 524              		.loc 1 74 26 is_stmt 0
 525 02f0 97000000 		call	_ZN3TCB16_thread_dispatchEv@plt
 525      E7800000 
 526              	.LVL44:
  75:src/c_sleep.cpp ****     return 0;
 527              		.loc 1 75 5 is_stmt 1
 528              		.loc 1 75 12 is_stmt 0
 529 02f8 13050000 		li	a0,0
  76:src/c_sleep.cpp **** }
 530              		.loc 1 76 1
 531 02fc 83308100 		ld	ra,8(sp)
 532              		.cfi_restore 1
 533 0300 03340100 		ld	s0,0(sp)
 534              		.cfi_restore 8
 535              		.cfi_def_cfa 2, 16
 536 0304 13010101 		addi	sp,sp,16
 537              		.cfi_def_cfa_offset 0
 538 0308 67800000 		jr	ra
 539              	.LVL45:
 540              	.L29:
  71:src/c_sleep.cpp ****     thread->run();
 541              		.loc 1 71 17
 542 030c 1305F0FF 		li	a0,-1
 543              	.LVL46:
 544              		.loc 1 76 1
 545 0310 67800000 		ret
 546              		.cfi_endproc
 547              	.LFE35:
 549              		.globl	_ZN6Cradle4tailE
 550              		.globl	_ZN6Cradle4headE
 551              		.bss
 552              		.align	3
 553              		.set	.LANCHOR0,. + 0
 556              	_ZN6Cradle4headE:
GAS LISTING /tmp/ccAwybUB.s 			page 14


 557 0000 00000000 		.zero	8
 557      00000000 
 560              	_ZN6Cradle4tailE:
 561 0008 00000000 		.zero	8
 561      00000000 
 562              		.text
 563              	.Letext0:
 564              		.file 4 "src/../h/../lib/hw.h"
 565              		.file 5 "src/../h/syscall_c.hpp"
 566              		.file 6 "src/../h/c_memory.hpp"
 567              		.file 7 "src/../h/circular_buffer.hpp"
 568              		.file 8 "src/../h/scheduler.hpp"
GAS LISTING /tmp/ccAwybUB.s 			page 15

