GAS LISTING /tmp/ccpRKKRm.s 			page 1


   1              		.file	"c_thread.cpp"
   2              		.option pic
   3              		.option norelax
   4              		.text
   5              	.Ltext0:
   6              		.align	2
   7              		.globl	_ZN3TCB12thread_startEv
   9              	_ZN3TCB12thread_startEv:
  10              	.LFB65:
  11              		.file 1 "src/c_thread.cpp"
   1:src/c_thread.cpp **** #include "../h/scheduler.hpp"
   2:src/c_thread.cpp **** #include "../h/riscv.hpp"
   3:src/c_thread.cpp **** #include "../h/c_console.hpp"
   4:src/c_thread.cpp **** #include "../h/c_thread.hpp"
   5:src/c_thread.cpp **** #include "../h/c_sleep.hpp"
   6:src/c_thread.cpp **** 
   7:src/c_thread.cpp **** int TCB::ID = 0;
   8:src/c_thread.cpp **** TCB *TCB::running = nullptr;
   9:src/c_thread.cpp **** time_t TCB::timer_counter = 0;
  10:src/c_thread.cpp **** typedef TCB *thread_t;
  11:src/c_thread.cpp **** extern thread_t handle_bleya;
  12:src/c_thread.cpp **** 
  13:src/c_thread.cpp **** TCB::TCB(run_t start_routine, void *arg, void *stack, Context context) :
  14:src/c_thread.cpp ****         t_id(TCB::ID++), _run(start_routine), arg(arg),
  15:src/c_thread.cpp ****         stack(stack), parent(TCB::running),
  16:src/c_thread.cpp ****         context(context), status(RUNNABLE),
  17:src/c_thread.cpp ****         time_slice(DEFAULT_TIME_SLICE), preempted(false), joiner() {
  18:src/c_thread.cpp ****     this->joiner.init();
  19:src/c_thread.cpp ****     if (TCB::running) {
  20:src/c_thread.cpp ****         this->parent = TCB::running;
  21:src/c_thread.cpp ****     }
  22:src/c_thread.cpp **** }
  23:src/c_thread.cpp **** 
  24:src/c_thread.cpp **** TCB::TCB(TCB &parent) :
  25:src/c_thread.cpp ****         t_id(TCB::ID++), _run(parent._run), arg(parent.arg),
  26:src/c_thread.cpp ****         stack(Allocator::_mem_alloc(DEFAULT_STACK_SIZE)),
  27:src/c_thread.cpp ****         parent(&parent), context(parent.context), status(RUNNABLE), time_slice(DEFAULT_TIME_SLICE),
  28:src/c_thread.cpp ****         preempted(false), joiner() {
  29:src/c_thread.cpp ****     this->joiner.init();
  30:src/c_thread.cpp **** }
  31:src/c_thread.cpp **** 
  32:src/c_thread.cpp **** int TCB::_thread_create(thread_t *handle, void(*start_routine)(void *), void *arg, void *stack) {
  33:src/c_thread.cpp ****     *handle = new TCB(start_routine, arg, stack, {(uint64) thread_start, (uint64) stack + DEFAULT_S
  34:src/c_thread.cpp ****     if (start_routine) Scheduler::put(*handle);
  35:src/c_thread.cpp ****     return (*handle)->t_id;
  36:src/c_thread.cpp **** }
  37:src/c_thread.cpp **** 
  38:src/c_thread.cpp **** void TCB::yield() {
  39:src/c_thread.cpp ****     thread_t old = TCB::running;
  40:src/c_thread.cpp ****     old->context.sstatus = Riscv::r_sstatus();
  41:src/c_thread.cpp ****     old->context.sepc = Riscv::r_sepc();
  42:src/c_thread.cpp ****     if (old->is_runnable() && old != handle_bleya) {
  43:src/c_thread.cpp ****         Scheduler::put(old);
  44:src/c_thread.cpp ****     } else if (old->is_finished()) {
  45:src/c_thread.cpp ****         Allocator::_mem_free(old->stack);
  46:src/c_thread.cpp ****     }
  47:src/c_thread.cpp ****     if (Scheduler::is_empty()) {
GAS LISTING /tmp/ccpRKKRm.s 			page 2


  48:src/c_thread.cpp ****         TCB::running = handle_bleya;
  49:src/c_thread.cpp ****     } else {
  50:src/c_thread.cpp ****         while (Scheduler::peek()->is_finished()) {
  51:src/c_thread.cpp ****             Allocator::_mem_free(TCB::destroy_thread(Scheduler::get())->stack);
  52:src/c_thread.cpp ****         }
  53:src/c_thread.cpp ****         TCB::running = Scheduler::get();
  54:src/c_thread.cpp ****     }
  55:src/c_thread.cpp ****     Riscv::w_sstatus(TCB::running->context.sstatus);
  56:src/c_thread.cpp ****     Riscv::w_sepc(TCB::running->context.sepc);
  57:src/c_thread.cpp ****     TCB::context_switch(&old->context, &TCB::running->context);
  58:src/c_thread.cpp **** }
  59:src/c_thread.cpp **** 
  60:src/c_thread.cpp **** void TCB::_thread_dispatch() {
  61:src/c_thread.cpp ****     Riscv::push();
  62:src/c_thread.cpp ****     TCB::yield();
  63:src/c_thread.cpp ****     Riscv::pop();
  64:src/c_thread.cpp **** }
  65:src/c_thread.cpp **** 
  66:src/c_thread.cpp **** TCB *TCB::destroy_thread(TCB *thread) {
  67:src/c_thread.cpp ****     while (!thread->joiner.is_empty()) {
  68:src/c_thread.cpp ****         TCB *next = thread->joiner.get();
  69:src/c_thread.cpp ****         if (next->is_joined()) {
  70:src/c_thread.cpp ****             next->run();
  71:src/c_thread.cpp ****             Scheduler::put(next);
  72:src/c_thread.cpp ****         }
  73:src/c_thread.cpp ****     }
  74:src/c_thread.cpp ****     thread->joiner.destroy();
  75:src/c_thread.cpp ****     return thread;
  76:src/c_thread.cpp **** }
  77:src/c_thread.cpp **** 
  78:src/c_thread.cpp **** void TCB::_thread_exit() {
  79:src/c_thread.cpp ****     TCB::running->finish();
  80:src/c_thread.cpp ****     TCB::destroy_thread(TCB::running);
  81:src/c_thread.cpp ****     TCB::_thread_dispatch();
  82:src/c_thread.cpp **** }
  83:src/c_thread.cpp **** 
  84:src/c_thread.cpp **** void TCB::_thread_join(thread_t handle) {
  85:src/c_thread.cpp ****     if (handle->is_finished())
  86:src/c_thread.cpp ****         return;
  87:src/c_thread.cpp ****     TCB::running->enjoin();
  88:src/c_thread.cpp ****     handle->joiner.put(TCB::running);
  89:src/c_thread.cpp ****     TCB::_thread_dispatch();
  90:src/c_thread.cpp **** }
  91:src/c_thread.cpp **** 
  92:src/c_thread.cpp **** void TCB::_thread_join(thread_t handle, time_t time) {
  93:src/c_thread.cpp ****     if (handle->is_finished())
  94:src/c_thread.cpp ****         return;
  95:src/c_thread.cpp ****     TCB::running->enjoin();
  96:src/c_thread.cpp ****     handle->joiner.put(TCB::running);
  97:src/c_thread.cpp ****     Cradle::insert(TCB::running, time);
  98:src/c_thread.cpp ****     TCB::_thread_dispatch();
  99:src/c_thread.cpp **** }
 100:src/c_thread.cpp **** 
 101:src/c_thread.cpp **** void TCB::duplicate(TCB *parent, TCB *child) {
 102:src/c_thread.cpp ****     Riscv::push();
 103:src/c_thread.cpp ****     memcpy(parent->stack, child->stack, DEFAULT_STACK_SIZE);
 104:src/c_thread.cpp ****     child->context = parent->context;
GAS LISTING /tmp/ccpRKKRm.s 			page 3


 105:src/c_thread.cpp ****     Riscv::pop();
 106:src/c_thread.cpp **** }
 107:src/c_thread.cpp **** 
 108:src/c_thread.cpp **** int TCB::_fork() {
 109:src/c_thread.cpp ****     int id_parent = TCB::running->t_id;
 110:src/c_thread.cpp ****     TCB *handle = new TCB(*TCB::running);
 111:src/c_thread.cpp ****     TCB::duplicate(TCB::running, handle);
 112:src/c_thread.cpp ****     print(TCB::running->t_id);
 113:src/c_thread.cpp ****     putc(' ');
 114:src/c_thread.cpp ****     print(id_parent);
 115:src/c_thread.cpp ****     putc(' ');
 116:src/c_thread.cpp ****     print(handle->t_id);
 117:src/c_thread.cpp ****     putc('\n');
 118:src/c_thread.cpp ****     if (TCB::running->t_id == id_parent) {
 119:src/c_thread.cpp ****         Scheduler::put(handle);
 120:src/c_thread.cpp ****         return handle->t_id;
 121:src/c_thread.cpp ****     } else {
 122:src/c_thread.cpp ****         print(TCB::running->t_id);
 123:src/c_thread.cpp ****         return 0;
 124:src/c_thread.cpp ****     }
 125:src/c_thread.cpp **** }
 126:src/c_thread.cpp **** 
 127:src/c_thread.cpp **** int TCB::_kill(TCB* thread) {
 128:src/c_thread.cpp ****     if (!thread) return -1;
 129:src/c_thread.cpp ****     if (thread->is_finished()) return -2;
 130:src/c_thread.cpp ****     if (TCB::running != thread->parent) return -4;
 131:src/c_thread.cpp ****     thread->finish();
 132:src/c_thread.cpp ****     return 0;
 133:src/c_thread.cpp **** }
 134:src/c_thread.cpp **** 
 135:src/c_thread.cpp **** void TCB::thread_start() {
  12              		.loc 1 135 26
  13              		.cfi_startproc
  14 0000 130101FF 		addi	sp,sp,-16
  15              		.cfi_def_cfa_offset 16
  16 0004 23341100 		sd	ra,8(sp)
  17 0008 23308100 		sd	s0,0(sp)
  18              		.cfi_offset 1, -8
  19              		.cfi_offset 8, -16
  20 000c 13040101 		addi	s0,sp,16
  21              		.cfi_def_cfa 8, 0
 136:src/c_thread.cpp ****     Riscv::popSppSpie();
  22              		.loc 1 136 5
  23              		.loc 1 136 22 is_stmt 0
  24 0010 97000000 		call	_ZN5Riscv10popSppSpieEv@plt
  24      E7800000 
  25              	.LVL0:
 137:src/c_thread.cpp ****     TCB::running->_run(TCB::running->arg);
  26              		.loc 1 137 5 is_stmt 1
  27              		.loc 1 137 19 is_stmt 0
  28 0018 97070000 		ld	a5,.LANCHOR0
  28      83B70700 
  29 0020 03B78700 		ld	a4,8(a5)
  30              		.loc 1 137 23
  31 0024 03B50701 		ld	a0,16(a5)
  32 0028 E7000700 		jalr	a4
  33              	.LVL1:
GAS LISTING /tmp/ccpRKKRm.s 			page 4


 138:src/c_thread.cpp ****     thread_exit();
  34              		.loc 1 138 5 is_stmt 1
  35              		.loc 1 138 16 is_stmt 0
  36 002c 97000000 		call	_Z11thread_exitv@plt
  36      E7800000 
  37              	.LVL2:
 139:src/c_thread.cpp **** }...
  38              		.loc 1 139 1
  39 0034 83308100 		ld	ra,8(sp)
  40              		.cfi_restore 1
  41 0038 03340100 		ld	s0,0(sp)
  42              		.cfi_restore 8
  43              		.cfi_def_cfa 2, 16
  44 003c 13010101 		addi	sp,sp,16
  45              		.cfi_def_cfa_offset 0
  46 0040 67800000 		jr	ra
  47              		.cfi_endproc
  48              	.LFE65:
  50              		.align	2
  51              		.globl	_ZN3TCB9duplicateEPS_S0_
  53              	_ZN3TCB9duplicateEPS_S0_:
  54              	.LFB62:
 101:src/c_thread.cpp **** void TCB::duplicate(TCB *parent, TCB *child) {
  55              		.loc 1 101 46 is_stmt 1
  56              		.cfi_startproc
  57              	.LVL3:
  58 0044 130101FE 		addi	sp,sp,-32
  59              		.cfi_def_cfa_offset 32
  60 0048 233C1100 		sd	ra,24(sp)
  61 004c 23388100 		sd	s0,16(sp)
  62 0050 23349100 		sd	s1,8(sp)
  63 0054 23302101 		sd	s2,0(sp)
  64              		.cfi_offset 1, -8
  65              		.cfi_offset 8, -16
  66              		.cfi_offset 9, -24
  67              		.cfi_offset 18, -32
  68 0058 13040102 		addi	s0,sp,32
  69              		.cfi_def_cfa 8, 0
  70 005c 13090500 		mv	s2,a0
  71 0060 93840500 		mv	s1,a1
 102:src/c_thread.cpp ****     Riscv::push();
  72              		.loc 1 102 5
 102:src/c_thread.cpp ****     Riscv::push();
  73              		.loc 1 102 16 is_stmt 0
  74 0064 97000000 		call	_ZN5Riscv4pushEv@plt
  74      E7800000 
  75              	.LVL4:
 103:src/c_thread.cpp ****     memcpy(parent->stack, child->stack, DEFAULT_STACK_SIZE);
  76              		.loc 1 103 5 is_stmt 1
 103:src/c_thread.cpp ****     memcpy(parent->stack, child->stack, DEFAULT_STACK_SIZE);
  77              		.loc 1 103 11 is_stmt 0
  78 006c 37460000 		li	a2,16384
  79 0070 83B58401 		ld	a1,24(s1)
  80 0074 03358901 		ld	a0,24(s2)
  81 0078 97000000 		call	_Z6memcpyPKvS0_i@plt
  81      E7800000 
  82              	.LVL5:
GAS LISTING /tmp/ccpRKKRm.s 			page 5


 104:src/c_thread.cpp ****     child->context = parent->context;
  83              		.loc 1 104 5 is_stmt 1
 104:src/c_thread.cpp ****     child->context = parent->context;
  84              		.loc 1 104 20 is_stmt 0
  85 0080 03368902 		ld	a2,40(s2)
  86 0084 83360903 		ld	a3,48(s2)
  87 0088 03378903 		ld	a4,56(s2)
  88 008c 83370904 		ld	a5,64(s2)
  89 0090 23B4C402 		sd	a2,40(s1)
  90 0094 23B8D402 		sd	a3,48(s1)
  91 0098 23BCE402 		sd	a4,56(s1)
  92 009c 23B0F404 		sd	a5,64(s1)
 105:src/c_thread.cpp ****     Riscv::pop();
  93              		.loc 1 105 5 is_stmt 1
 105:src/c_thread.cpp ****     Riscv::pop();
  94              		.loc 1 105 15 is_stmt 0
  95 00a0 97000000 		call	_ZN5Riscv3popEv@plt
  95      E7800000 
  96              	.LVL6:
 106:src/c_thread.cpp **** }
  97              		.loc 1 106 1
  98 00a8 83308101 		ld	ra,24(sp)
  99              		.cfi_restore 1
 100 00ac 03340101 		ld	s0,16(sp)
 101              		.cfi_restore 8
 102              		.cfi_def_cfa 2, 32
 103 00b0 83348100 		ld	s1,8(sp)
 104              		.cfi_restore 9
 105              	.LVL7:
 106 00b4 03390100 		ld	s2,0(sp)
 107              		.cfi_restore 18
 108              	.LVL8:
 109 00b8 13010102 		addi	sp,sp,32
 110              		.cfi_def_cfa_offset 0
 111 00bc 67800000 		jr	ra
 112              		.cfi_endproc
 113              	.LFE62:
 115              		.align	2
 116              		.globl	_ZN3TCB5_killEPS_
 118              	_ZN3TCB5_killEPS_:
 119              	.LFB64:
 127:src/c_thread.cpp **** int TCB::_kill(TCB* thread) {
 120              		.loc 1 127 29 is_stmt 1
 121              		.cfi_startproc
 122              	.LVL9:
 123 00c0 130101FF 		addi	sp,sp,-16
 124              		.cfi_def_cfa_offset 16
 125 00c4 23348100 		sd	s0,8(sp)
 126              		.cfi_offset 8, -8
 127 00c8 13040101 		addi	s0,sp,16
 128              		.cfi_def_cfa 8, 0
 128:src/c_thread.cpp ****     if (!thread) return -1;
 129              		.loc 1 128 5
 130 00cc 630C0502 		beqz	a0,.L7
 129:src/c_thread.cpp ****     if (thread->is_finished()) return -2;
 131              		.loc 1 129 5
 132              	.LVL10:
GAS LISTING /tmp/ccpRKKRm.s 			page 6


 133              	.LBB59:
 134              	.LBB60:
 135              		.file 2 "src/../h/c_thread.hpp"
   1:src/../h/c_thread.hpp **** #ifndef PROJECT_BASE_C_THREAD_HPP
   2:src/../h/c_thread.hpp **** #define PROJECT_BASE_C_THREAD_HPP
   3:src/../h/c_thread.hpp **** 
   4:src/../h/c_thread.hpp **** #include "syscall_c.hpp"
   5:src/../h/c_thread.hpp **** #include "../lib/hw.h"
   6:src/../h/c_thread.hpp **** #include "circular_buffer.hpp"
   7:src/../h/c_thread.hpp **** 
   8:src/../h/c_thread.hpp **** using run_t = void (*)(void *);
   9:src/../h/c_thread.hpp **** 
  10:src/../h/c_thread.hpp **** struct Context {
  11:src/../h/c_thread.hpp ****     uint64 ra;
  12:src/../h/c_thread.hpp ****     uint64 sp;
  13:src/../h/c_thread.hpp ****     uint64 sstatus;
  14:src/../h/c_thread.hpp ****     uint64 sepc;
  15:src/../h/c_thread.hpp **** };
  16:src/../h/c_thread.hpp **** 
  17:src/../h/c_thread.hpp **** enum Status {
  18:src/../h/c_thread.hpp ****     RUNNABLE, BLOCKED, SLEEPING, JOINED, FINISHED
  19:src/../h/c_thread.hpp **** };
  20:src/../h/c_thread.hpp **** 
  21:src/../h/c_thread.hpp **** class TCB final {
  22:src/../h/c_thread.hpp **** public:
  23:src/../h/c_thread.hpp ****     static int _thread_create(thread_t *, void(*)(void *), void *, void *);
  24:src/../h/c_thread.hpp **** 
  25:src/../h/c_thread.hpp ****     static void _thread_exit();
  26:src/../h/c_thread.hpp **** 
  27:src/../h/c_thread.hpp ****     static void _thread_dispatch();
  28:src/../h/c_thread.hpp **** 
  29:src/../h/c_thread.hpp ****     static void _thread_join(thread_t);
  30:src/../h/c_thread.hpp **** 
  31:src/../h/c_thread.hpp ****     static void _thread_join(thread_t, time_t);
  32:src/../h/c_thread.hpp **** 
  33:src/../h/c_thread.hpp ****     static int _fork();
  34:src/../h/c_thread.hpp **** 
  35:src/../h/c_thread.hpp ****     static int _kill(TCB *);
  36:src/../h/c_thread.hpp **** 
  37:src/../h/c_thread.hpp ****     static void thread_start();
  38:src/../h/c_thread.hpp **** 
  39:src/../h/c_thread.hpp ****     static void context_switch(Context *, Context *);
  40:src/../h/c_thread.hpp **** 
  41:src/../h/c_thread.hpp ****     static void yield();
  42:src/../h/c_thread.hpp **** 
  43:src/../h/c_thread.hpp ****     static TCB *destroy_thread(TCB *);
  44:src/../h/c_thread.hpp **** 
  45:src/../h/c_thread.hpp ****     static void duplicate(TCB *, TCB *);
  46:src/../h/c_thread.hpp **** 
  47:src/../h/c_thread.hpp ****     void *operator new(size_t size) { return Allocator::_mem_alloc(size); }
  48:src/../h/c_thread.hpp **** 
  49:src/../h/c_thread.hpp ****     void operator delete(void *pointer) { Allocator::_mem_free(pointer); }
  50:src/../h/c_thread.hpp **** 
  51:src/../h/c_thread.hpp ****     void *operator new[](size_t size) { return Allocator::_mem_alloc(size); }
  52:src/../h/c_thread.hpp **** 
  53:src/../h/c_thread.hpp ****     void operator delete[](void *pointer) { Allocator::_mem_free(pointer); }
  54:src/../h/c_thread.hpp **** 
GAS LISTING /tmp/ccpRKKRm.s 			page 7


  55:src/../h/c_thread.hpp ****     TCB(run_t, void *, void *, Context);
  56:src/../h/c_thread.hpp **** 
  57:src/../h/c_thread.hpp ****     TCB(TCB &);
  58:src/../h/c_thread.hpp **** 
  59:src/../h/c_thread.hpp ****     bool is_runnable() const { return this->status == RUNNABLE; }
  60:src/../h/c_thread.hpp **** 
  61:src/../h/c_thread.hpp ****     bool is_blocked() const { return this->status == BLOCKED; }
  62:src/../h/c_thread.hpp **** 
  63:src/../h/c_thread.hpp ****     bool is_sleeping() const { return this->status == SLEEPING; }
  64:src/../h/c_thread.hpp **** 
  65:src/../h/c_thread.hpp ****     bool is_joined() const { return this->status == JOINED; }
  66:src/../h/c_thread.hpp **** 
  67:src/../h/c_thread.hpp ****     bool is_finished() const { return this->status == FINISHED; }
 136              		.loc 2 67 32
 137              		.loc 2 67 45 is_stmt 0
 138 00d0 03278504 		lw	a4,72(a0)
 139              	.LVL11:
 140              	.LBE60:
 141              	.LBE59:
 129:src/c_thread.cpp ****     if (thread->is_finished()) return -2;
 142              		.loc 1 129 5
 143 00d4 93074000 		li	a5,4
 144 00d8 630AF702 		beq	a4,a5,.L8
 130:src/c_thread.cpp ****     if (TCB::running != thread->parent) return -4;
 145              		.loc 1 130 5 is_stmt 1
 130:src/c_thread.cpp ****     if (TCB::running != thread->parent) return -4;
 146              		.loc 1 130 33 is_stmt 0
 147 00dc 03370502 		ld	a4,32(a0)
 130:src/c_thread.cpp ****     if (TCB::running != thread->parent) return -4;
 148              		.loc 1 130 14
 149 00e0 97070000 		ld	a5,.LANCHOR0
 149      83B70700 
 130:src/c_thread.cpp ****     if (TCB::running != thread->parent) return -4;
 150              		.loc 1 130 5
 151 00e8 6316F702 		bne	a4,a5,.L9
 131:src/c_thread.cpp ****     thread->finish();
 152              		.loc 1 131 5 is_stmt 1
 153              	.LVL12:
 154              	.LBB61:
 155              	.LBB62:
  68:src/../h/c_thread.hpp **** 
  69:src/../h/c_thread.hpp ****     void run() { this->status = RUNNABLE; }
  70:src/../h/c_thread.hpp **** 
  71:src/../h/c_thread.hpp ****     void block() { this->status = BLOCKED; }
  72:src/../h/c_thread.hpp **** 
  73:src/../h/c_thread.hpp ****     void sleep() { this->status = SLEEPING; }
  74:src/../h/c_thread.hpp **** 
  75:src/../h/c_thread.hpp ****     void enjoin() { this->status = JOINED; }
  76:src/../h/c_thread.hpp **** 
  77:src/../h/c_thread.hpp ****     void finish() { this->status = FINISHED; }
 156              		.loc 2 77 21
 157              		.loc 2 77 34 is_stmt 0
 158 00ec 93074000 		li	a5,4
 159 00f0 2324F504 		sw	a5,72(a0)
 160              	.LVL13:
 161              	.LBE62:
 162              	.LBE61:
GAS LISTING /tmp/ccpRKKRm.s 			page 8


 132:src/c_thread.cpp ****     return 0;
 163              		.loc 1 132 5 is_stmt 1
 132:src/c_thread.cpp ****     return 0;
 164              		.loc 1 132 12 is_stmt 0
 165 00f4 13050000 		li	a0,0
 166              	.LVL14:
 167              	.L6:
 133:src/c_thread.cpp **** }
 168              		.loc 1 133 1
 169 00f8 03348100 		ld	s0,8(sp)
 170              		.cfi_remember_state
 171              		.cfi_restore 8
 172              		.cfi_def_cfa 2, 16
 173 00fc 13010101 		addi	sp,sp,16
 174              		.cfi_def_cfa_offset 0
 175 0100 67800000 		jr	ra
 176              	.LVL15:
 177              	.L7:
 178              		.cfi_restore_state
 128:src/c_thread.cpp ****     if (!thread) return -1;
 179              		.loc 1 128 26
 180 0104 1305F0FF 		li	a0,-1
 181              	.LVL16:
 182 0108 6FF01FFF 		j	.L6
 183              	.LVL17:
 184              	.L8:
 129:src/c_thread.cpp ****     if (thread->is_finished()) return -2;
 185              		.loc 1 129 40
 186 010c 1305E0FF 		li	a0,-2
 187              	.LVL18:
 188 0110 6FF09FFE 		j	.L6
 189              	.LVL19:
 190              	.L9:
 130:src/c_thread.cpp ****     if (TCB::running != thread->parent) return -4;
 191              		.loc 1 130 49
 192 0114 1305C0FF 		li	a0,-4
 193              	.LVL20:
 194 0118 6FF01FFE 		j	.L6
 195              		.cfi_endproc
 196              	.LFE64:
 198              		.section	.text._ZN2os14CircularBufferIP3TCBE4initEv,"axG",@progbits,_ZN2os14CircularBufferIP3TCBE4
 199              		.align	2
 200              		.weak	_ZN2os14CircularBufferIP3TCBE4initEv
 202              	_ZN2os14CircularBufferIP3TCBE4initEv:
 203              	.LFB66:
 204              		.file 3 "src/../h/circular_buffer.hpp"
   1:src/../h/circular_buffer.hpp **** #ifndef PROJECT_BASE_CIRCULAR_BUFFER_HPP
   2:src/../h/circular_buffer.hpp **** #define PROJECT_BASE_CIRCULAR_BUFFER_HPP
   3:src/../h/circular_buffer.hpp **** 
   4:src/../h/circular_buffer.hpp **** #include "c_memory.hpp"
   5:src/../h/circular_buffer.hpp **** 
   6:src/../h/circular_buffer.hpp **** 
   7:src/../h/circular_buffer.hpp **** namespace os {
   8:src/../h/circular_buffer.hpp ****     template<typename T>
   9:src/../h/circular_buffer.hpp ****     class CircularBuffer {
  10:src/../h/circular_buffer.hpp ****     public:
  11:src/../h/circular_buffer.hpp **** 
GAS LISTING /tmp/ccpRKKRm.s 			page 9


  12:src/../h/circular_buffer.hpp ****         void init();
  13:src/../h/circular_buffer.hpp **** 
  14:src/../h/circular_buffer.hpp ****         void put(T);
  15:src/../h/circular_buffer.hpp **** 
  16:src/../h/circular_buffer.hpp ****         T get();
  17:src/../h/circular_buffer.hpp **** 
  18:src/../h/circular_buffer.hpp ****         T &peek();
  19:src/../h/circular_buffer.hpp **** 
  20:src/../h/circular_buffer.hpp ****         inline bool is_empty() const { return this->size == 0; }
  21:src/../h/circular_buffer.hpp **** 
  22:src/../h/circular_buffer.hpp ****         void destroy();
  23:src/../h/circular_buffer.hpp **** 
  24:src/../h/circular_buffer.hpp ****     private:
  25:src/../h/circular_buffer.hpp **** 
  26:src/../h/circular_buffer.hpp ****         void extend();
  27:src/../h/circular_buffer.hpp **** 
  28:src/../h/circular_buffer.hpp ****         static int constexpr CAPACITY = 16;
  29:src/../h/circular_buffer.hpp ****         T *queue;
  30:src/../h/circular_buffer.hpp ****         int head;
  31:src/../h/circular_buffer.hpp ****         int tail;
  32:src/../h/circular_buffer.hpp ****         int size;
  33:src/../h/circular_buffer.hpp ****         int capacity;
  34:src/../h/circular_buffer.hpp ****     };
  35:src/../h/circular_buffer.hpp **** }
  36:src/../h/circular_buffer.hpp **** 
  37:src/../h/circular_buffer.hpp **** template<typename T>
  38:src/../h/circular_buffer.hpp **** void os::CircularBuffer<T>::init() {
 205              		.loc 3 38 6 is_stmt 1
 206              		.cfi_startproc
 207              	.LVL21:
 208 0000 130101FE 		addi	sp,sp,-32
 209              		.cfi_def_cfa_offset 32
 210 0004 233C1100 		sd	ra,24(sp)
 211 0008 23388100 		sd	s0,16(sp)
 212 000c 23349100 		sd	s1,8(sp)
 213              		.cfi_offset 1, -8
 214              		.cfi_offset 8, -16
 215              		.cfi_offset 9, -24
 216 0010 13040102 		addi	s0,sp,32
 217              		.cfi_def_cfa 8, 0
 218 0014 93040500 		mv	s1,a0
  39:src/../h/circular_buffer.hpp ****     this->head = 0;
 219              		.loc 3 39 5 is_stmt 0
 220 0018 23240500 		sw	zero,8(a0)
  40:src/../h/circular_buffer.hpp ****     this->tail = 0;
 221              		.loc 3 40 5
 222 001c 23260500 		sw	zero,12(a0)
  41:src/../h/circular_buffer.hpp ****     this->size = 0;
 223              		.loc 3 41 5
 224 0020 23280500 		sw	zero,16(a0)
  42:src/../h/circular_buffer.hpp ****     this->capacity = CAPACITY;
 225              		.loc 3 42 5
 226 0024 93070001 		li	a5,16
 227 0028 232AF500 		sw	a5,20(a0)
  43:src/../h/circular_buffer.hpp ****     this->queue = (T *) Allocator::_mem_alloc(sizeof(T) * CAPACITY);
 228              		.loc 3 43 46
 229 002c 13050008 		li	a0,128
GAS LISTING /tmp/ccpRKKRm.s 			page 10


 230              	.LVL22:
 231 0030 97000000 		call	_ZN9Allocator10_mem_allocEm@plt
 231      E7800000 
 232              	.LVL23:
 233              		.loc 3 43 5
 234 0038 23B0A400 		sd	a0,0(s1)
  44:src/../h/circular_buffer.hpp **** }
 235              		.loc 3 44 1
 236 003c 83308101 		ld	ra,24(sp)
 237              		.cfi_restore 1
 238 0040 03340101 		ld	s0,16(sp)
 239              		.cfi_restore 8
 240              		.cfi_def_cfa 2, 32
 241 0044 83348100 		ld	s1,8(sp)
 242              		.cfi_restore 9
 243              	.LVL24:
 244 0048 13010102 		addi	sp,sp,32
 245              		.cfi_def_cfa_offset 0
 246 004c 67800000 		jr	ra
 247              		.cfi_endproc
 248              	.LFE66:
 250              		.text
 251              		.align	2
 252              		.globl	_ZN3TCBC2EPFvPvES0_S0_7Context
 254              	_ZN3TCBC2EPFvPvES0_S0_7Context:
 255              	.LFB50:
  13:src/c_thread.cpp **** TCB::TCB(run_t start_routine, void *arg, void *stack, Context context) :
 256              		.loc 1 13 1 is_stmt 1
 257              		.cfi_startproc
 258              	.LVL25:
 259 011c 130101FE 		addi	sp,sp,-32
 260              		.cfi_def_cfa_offset 32
 261 0120 233C1100 		sd	ra,24(sp)
 262 0124 23388100 		sd	s0,16(sp)
 263 0128 23349100 		sd	s1,8(sp)
 264 012c 23302101 		sd	s2,0(sp)
 265              		.cfi_offset 1, -8
 266              		.cfi_offset 8, -16
 267              		.cfi_offset 9, -24
 268              		.cfi_offset 18, -32
 269 0130 13040102 		addi	s0,sp,32
 270              		.cfi_def_cfa 8, 0
 271 0134 93040500 		mv	s1,a0
 272              	.LBB63:
  14:src/c_thread.cpp ****         t_id(TCB::ID++), _run(start_routine), arg(arg),
 273              		.loc 1 14 21 is_stmt 0
 274 0138 17090000 		lla	s2,.LANCHOR0
 274      13090900 
 275 0140 83278900 		lw	a5,8(s2)
 276 0144 1B851700 		addiw	a0,a5,1
 277              	.LVL26:
 278 0148 2324A900 		sw	a0,8(s2)
  17:src/c_thread.cpp ****         time_slice(DEFAULT_TIME_SLICE), preempted(false), joiner() {
 279              		.loc 1 17 66
 280 014c 23A0F400 		sw	a5,0(s1)
 281 0150 23B4B400 		sd	a1,8(s1)
 282 0154 23B8C400 		sd	a2,16(s1)
GAS LISTING /tmp/ccpRKKRm.s 			page 11


 283 0158 23BCD400 		sd	a3,24(s1)
 284 015c 83370900 		ld	a5,0(s2)
 285 0160 23B0F402 		sd	a5,32(s1)
 286 0164 83350700 		ld	a1,0(a4)
 287              	.LVL27:
 288 0168 03368700 		ld	a2,8(a4)
 289              	.LVL28:
 290 016c 83360701 		ld	a3,16(a4)
 291              	.LVL29:
 292 0170 83378701 		ld	a5,24(a4)
 293 0174 23B4B402 		sd	a1,40(s1)
 294 0178 23B8C402 		sd	a2,48(s1)
 295 017c 23BCD402 		sd	a3,56(s1)
 296 0180 23B0F404 		sd	a5,64(s1)
 297 0184 23A40404 		sw	zero,72(s1)
 298 0188 93071000 		li	a5,1
 299 018c 23B8F404 		sd	a5,80(s1)
 300 0190 238C0404 		sb	zero,88(s1)
 301 0194 23B00406 		sd	zero,96(s1)
 302 0198 23A40406 		sw	zero,104(s1)
 303 019c 23A60406 		sw	zero,108(s1)
 304 01a0 23A80406 		sw	zero,112(s1)
 305 01a4 23AA0406 		sw	zero,116(s1)
  18:src/c_thread.cpp ****     this->joiner.init();
 306              		.loc 1 18 5 is_stmt 1
  18:src/c_thread.cpp ****     this->joiner.init();
 307              		.loc 1 18 22 is_stmt 0
 308 01a8 13850406 		addi	a0,s1,96
 309 01ac 97000000 		call	_ZN2os14CircularBufferIP3TCBE4initEv
 309      E7800000 
 310              	.LVL30:
  19:src/c_thread.cpp ****     if (TCB::running) {
 311              		.loc 1 19 5 is_stmt 1
  19:src/c_thread.cpp ****     if (TCB::running) {
 312              		.loc 1 19 21 is_stmt 0
 313 01b4 83370900 		ld	a5,0(s2)
  19:src/c_thread.cpp ****     if (TCB::running) {
 314              		.loc 1 19 5
 315 01b8 63840700 		beqz	a5,.L13
  20:src/c_thread.cpp ****         this->parent = TCB::running;
 316              		.loc 1 20 9 is_stmt 1
  20:src/c_thread.cpp ****         this->parent = TCB::running;
 317              		.loc 1 20 22 is_stmt 0
 318 01bc 23B0F402 		sd	a5,32(s1)
 319              	.L13:
 320              	.LBE63:
  22:src/c_thread.cpp **** }
 321              		.loc 1 22 1
 322 01c0 83308101 		ld	ra,24(sp)
 323              		.cfi_restore 1
 324 01c4 03340101 		ld	s0,16(sp)
 325              		.cfi_restore 8
 326              		.cfi_def_cfa 2, 32
 327 01c8 83348100 		ld	s1,8(sp)
 328              		.cfi_restore 9
 329              	.LVL31:
 330 01cc 03390100 		ld	s2,0(sp)
GAS LISTING /tmp/ccpRKKRm.s 			page 12


 331              		.cfi_restore 18
 332 01d0 13010102 		addi	sp,sp,32
 333              		.cfi_def_cfa_offset 0
 334 01d4 67800000 		jr	ra
 335              		.cfi_endproc
 336              	.LFE50:
 338              		.globl	_ZN3TCBC1EPFvPvES0_S0_7Context
 339              		.set	_ZN3TCBC1EPFvPvES0_S0_7Context,_ZN3TCBC2EPFvPvES0_S0_7Context
 340              		.align	2
 341              		.globl	_ZN3TCB14_thread_createEPPS_PFvPvES2_S2_
 343              	_ZN3TCB14_thread_createEPPS_PFvPvES2_S2_:
 344              	.LFB55:
  32:src/c_thread.cpp **** int TCB::_thread_create(thread_t *handle, void(*start_routine)(void *), void *arg, void *stack) {
 345              		.loc 1 32 97 is_stmt 1
 346              		.cfi_startproc
 347              		.cfi_personality 0x9b,DW.ref.__gxx_personality_v0
 348              		.cfi_lsda 0x1b,.LLSDA55
 349              	.LVL32:
 350 01d8 130101F8 		addi	sp,sp,-128
 351              		.cfi_def_cfa_offset 128
 352 01dc 233C1106 		sd	ra,120(sp)
 353 01e0 23388106 		sd	s0,112(sp)
 354 01e4 23349106 		sd	s1,104(sp)
 355 01e8 23302107 		sd	s2,96(sp)
 356 01ec 233C3105 		sd	s3,88(sp)
 357 01f0 23384105 		sd	s4,80(sp)
 358 01f4 23345105 		sd	s5,72(sp)
 359              		.cfi_offset 1, -8
 360              		.cfi_offset 8, -16
 361              		.cfi_offset 9, -24
 362              		.cfi_offset 18, -32
 363              		.cfi_offset 19, -40
 364              		.cfi_offset 20, -48
 365              		.cfi_offset 21, -56
 366 01f8 13040108 		addi	s0,sp,128
 367              		.cfi_def_cfa 8, 0
 368 01fc 93040500 		mv	s1,a0
 369 0200 13890500 		mv	s2,a1
 370 0204 930A0600 		mv	s5,a2
 371 0208 93890600 		mv	s3,a3
  33:src/c_thread.cpp ****     *handle = new TCB(start_routine, arg, stack, {(uint64) thread_start, (uint64) stack + DEFAULT_S
 372              		.loc 1 33 5
  33:src/c_thread.cpp ****     *handle = new TCB(start_routine, arg, stack, {(uint64) thread_start, (uint64) stack + DEFAULT_S
 373              		.loc 1 33 13 is_stmt 0
 374 020c 233804FA 		sd	zero,-80(s0)
 375 0210 233C04FA 		sd	zero,-72(s0)
 376 0214 97070000 		lla	a5,_ZN3TCB12thread_startEv
 376      93870700 
 377 021c 2330F4FA 		sd	a5,-96(s0)
  33:src/c_thread.cpp ****     *handle = new TCB(start_routine, arg, stack, {(uint64) thread_start, (uint64) stack + DEFAULT_S
 378              		.loc 1 33 110
 379 0220 B7470000 		li	a5,16384
 380 0224 9387F7FF 		addi	a5,a5,-1
 381 0228 B387F600 		add	a5,a3,a5
  33:src/c_thread.cpp ****     *handle = new TCB(start_routine, arg, stack, {(uint64) thread_start, (uint64) stack + DEFAULT_S
 382              		.loc 1 33 13
 383 022c 2334F4FA 		sd	a5,-88(s0)
GAS LISTING /tmp/ccpRKKRm.s 			page 13


 384              	.LVL33:
 385              	.LBB64:
 386              	.LBB65:
  47:src/../h/c_thread.hpp **** 
 387              		.loc 2 47 39 is_stmt 1
  47:src/../h/c_thread.hpp **** 
 388              		.loc 2 47 67 is_stmt 0
 389 0230 13058007 		li	a0,120
 390              	.LVL34:
 391              	.LEHB0:
 392 0234 97000000 		call	_ZN9Allocator10_mem_allocEm@plt
 392      E7800000 
 393              	.LVL35:
 394              	.LEHE0:
 395 023c 130A0500 		mv	s4,a0
 396              	.LVL36:
 397              	.LBE65:
 398              	.LBE64:
  33:src/c_thread.cpp ****     *handle = new TCB(start_routine, arg, stack, {(uint64) thread_start, (uint64) stack + DEFAULT_S
 399              		.loc 1 33 114
 400 0240 833704FA 		ld	a5,-96(s0)
 401 0244 2330F4F8 		sd	a5,-128(s0)
 402 0248 833784FA 		ld	a5,-88(s0)
 403 024c 2334F4F8 		sd	a5,-120(s0)
 404 0250 833704FB 		ld	a5,-80(s0)
 405 0254 2338F4F8 		sd	a5,-112(s0)
 406 0258 833784FB 		ld	a5,-72(s0)
 407 025c 233CF4F8 		sd	a5,-104(s0)
 408 0260 130704F8 		addi	a4,s0,-128
 409 0264 93860900 		mv	a3,s3
 410 0268 13860A00 		mv	a2,s5
 411 026c 93050900 		mv	a1,s2
 412              	.LEHB1:
 413 0270 97000000 		call	_ZN3TCBC1EPFvPvES0_S0_7Context
 413      E7800000 
 414              	.LVL37:
 415              	.LEHE1:
  33:src/c_thread.cpp ****     *handle = new TCB(start_routine, arg, stack, {(uint64) thread_start, (uint64) stack + DEFAULT_S
 416              		.loc 1 33 13 discriminator 4
 417 0278 23B04401 		sd	s4,0(s1)
  34:src/c_thread.cpp ****     if (start_routine) Scheduler::put(*handle);
 418              		.loc 1 34 5 is_stmt 1 discriminator 4
 419 027c 63080900 		beqz	s2,.L17
  34:src/c_thread.cpp ****     if (start_routine) Scheduler::put(*handle);
 420              		.loc 1 34 24 discriminator 1
  34:src/c_thread.cpp ****     if (start_routine) Scheduler::put(*handle);
 421              		.loc 1 34 38 is_stmt 0 discriminator 1
 422 0280 13050A00 		mv	a0,s4
 423              	.LEHB2:
 424 0284 97000000 		call	_ZN9Scheduler3putEP3TCB@plt
 424      E7800000 
 425              	.LVL38:
 426              	.LEHE2:
 427              	.L17:
  35:src/c_thread.cpp ****     return (*handle)->t_id;
 428              		.loc 1 35 5 is_stmt 1
  35:src/c_thread.cpp ****     return (*handle)->t_id;
GAS LISTING /tmp/ccpRKKRm.s 			page 14


 429              		.loc 1 35 13 is_stmt 0
 430 028c 83B70400 		ld	a5,0(s1)
  35:src/c_thread.cpp ****     return (*handle)->t_id;
 431              		.loc 1 35 23
 432 0290 03A50700 		lw	a0,0(a5)
  36:src/c_thread.cpp **** }
 433              		.loc 1 36 1
 434 0294 83308107 		ld	ra,120(sp)
 435              		.cfi_remember_state
 436              		.cfi_restore 1
 437 0298 03340107 		ld	s0,112(sp)
 438              		.cfi_restore 8
 439              		.cfi_def_cfa 2, 128
 440 029c 83348106 		ld	s1,104(sp)
 441              		.cfi_restore 9
 442              	.LVL39:
 443 02a0 03390106 		ld	s2,96(sp)
 444              		.cfi_restore 18
 445              	.LVL40:
 446 02a4 83398105 		ld	s3,88(sp)
 447              		.cfi_restore 19
 448              	.LVL41:
 449 02a8 033A0105 		ld	s4,80(sp)
 450              		.cfi_restore 20
 451 02ac 833A8104 		ld	s5,72(sp)
 452              		.cfi_restore 21
 453              	.LVL42:
 454 02b0 13010108 		addi	sp,sp,128
 455              		.cfi_def_cfa_offset 0
 456              	.LVL43:
 457 02b4 67800000 		jr	ra
 458              	.LVL44:
 459              	.L19:
 460              		.cfi_restore_state
 461 02b8 93040500 		mv	s1,a0
 462              	.LVL45:
 463              	.LBB66:
 464              	.LBB67:
  49:src/../h/c_thread.hpp **** 
 465              		.loc 2 49 43 is_stmt 1
  49:src/../h/c_thread.hpp **** 
 466              		.loc 2 49 63 is_stmt 0
 467 02bc 13050A00 		mv	a0,s4
 468 02c0 97000000 		call	_ZN9Allocator9_mem_freeEPKv@plt
 468      E7800000 
 469              	.LVL46:
 470 02c8 13850400 		mv	a0,s1
 471              	.LEHB3:
 472 02cc 97000000 		call	_Unwind_Resume@plt
 472      E7800000 
 473              	.LVL47:
 474              	.LEHE3:
 475              	.LBE67:
 476              	.LBE66:
 477              		.cfi_endproc
 478              	.LFE55:
 479              		.globl	__gxx_personality_v0
GAS LISTING /tmp/ccpRKKRm.s 			page 15


 480              		.section	.gcc_except_table,"a",@progbits
 481              	.LLSDA55:
 482 0000 FF       		.byte	0xff
 483 0001 FF       		.byte	0xff
 484 0002 03       		.byte	0x3
 485 0003 34       		.byte	0x34
 486 0004 00000000 		.4byte	.LEHB0-.LFB55
 487 0008 00000000 		.4byte	.LEHE0-.LEHB0
 488 000c 00000000 		.4byte	0
 489 0010 00       		.byte	0
 490 0011 00000000 		.4byte	.LEHB1-.LFB55
 491 0015 00000000 		.4byte	.LEHE1-.LEHB1
 492 0019 00000000 		.4byte	.L19-.LFB55
 493 001d 00       		.byte	0
 494 001e 00000000 		.4byte	.LEHB2-.LFB55
 495 0022 00000000 		.4byte	.LEHE2-.LEHB2
 496 0026 00000000 		.4byte	0
 497 002a 00       		.byte	0
 498 002b 00000000 		.4byte	.LEHB3-.LFB55
 499 002f 00000000 		.4byte	.LEHE3-.LEHB3
 500 0033 00000000 		.4byte	0
 501 0037 00       		.byte	0
 502              		.text
 504              		.align	2
 505              		.globl	_ZN3TCBC2ERS_
 507              	_ZN3TCBC2ERS_:
 508              	.LFB53:
  24:src/c_thread.cpp **** TCB::TCB(TCB &parent) :
 509              		.loc 1 24 1 is_stmt 1
 510              		.cfi_startproc
 511              	.LVL48:
 512 02d4 130101FE 		addi	sp,sp,-32
 513              		.cfi_def_cfa_offset 32
 514 02d8 233C1100 		sd	ra,24(sp)
 515 02dc 23388100 		sd	s0,16(sp)
 516 02e0 23349100 		sd	s1,8(sp)
 517 02e4 23302101 		sd	s2,0(sp)
 518              		.cfi_offset 1, -8
 519              		.cfi_offset 8, -16
 520              		.cfi_offset 9, -24
 521              		.cfi_offset 18, -32
 522 02e8 13040102 		addi	s0,sp,32
 523              		.cfi_def_cfa 8, 0
 524 02ec 93040500 		mv	s1,a0
 525 02f0 13890500 		mv	s2,a1
 526              	.LBB68:
  25:src/c_thread.cpp ****         t_id(TCB::ID++), _run(parent._run), arg(parent.arg),
 527              		.loc 1 25 21 is_stmt 0
 528 02f4 17070000 		lla	a4,.LANCHOR0
 528      13070700 
 529 02fc 83278700 		lw	a5,8(a4)
 530 0300 9B861700 		addiw	a3,a5,1
 531 0304 2324D700 		sw	a3,8(a4)
  28:src/c_thread.cpp ****         preempted(false), joiner() {
 532              		.loc 1 28 34
 533 0308 2320F500 		sw	a5,0(a0)
  25:src/c_thread.cpp ****         t_id(TCB::ID++), _run(parent._run), arg(parent.arg),
GAS LISTING /tmp/ccpRKKRm.s 			page 16


 534              		.loc 1 25 38
 535 030c 83B78500 		ld	a5,8(a1)
  28:src/c_thread.cpp ****         preempted(false), joiner() {
 536              		.loc 1 28 34
 537 0310 2334F500 		sd	a5,8(a0)
  25:src/c_thread.cpp ****         t_id(TCB::ID++), _run(parent._run), arg(parent.arg),
 538              		.loc 1 25 56
 539 0314 83B70501 		ld	a5,16(a1)
  28:src/c_thread.cpp ****         preempted(false), joiner() {
 540              		.loc 1 28 34
 541 0318 2338F500 		sd	a5,16(a0)
  26:src/c_thread.cpp ****         stack(Allocator::_mem_alloc(DEFAULT_STACK_SIZE)),
 542              		.loc 1 26 36
 543 031c 37450000 		li	a0,16384
 544              	.LVL49:
 545 0320 97000000 		call	_ZN9Allocator10_mem_allocEm@plt
 545      E7800000 
 546              	.LVL50:
  28:src/c_thread.cpp ****         preempted(false), joiner() {
 547              		.loc 1 28 34
 548 0328 23BCA400 		sd	a0,24(s1)
 549 032c 23B02403 		sd	s2,32(s1)
 550 0330 03368902 		ld	a2,40(s2)
 551 0334 83360903 		ld	a3,48(s2)
 552 0338 03378903 		ld	a4,56(s2)
 553 033c 83370904 		ld	a5,64(s2)
 554 0340 23B4C402 		sd	a2,40(s1)
 555 0344 23B8D402 		sd	a3,48(s1)
 556 0348 23BCE402 		sd	a4,56(s1)
 557 034c 23B0F404 		sd	a5,64(s1)
 558 0350 23A40404 		sw	zero,72(s1)
 559 0354 93071000 		li	a5,1
 560 0358 23B8F404 		sd	a5,80(s1)
 561 035c 238C0404 		sb	zero,88(s1)
 562 0360 23B00406 		sd	zero,96(s1)
 563 0364 23A40406 		sw	zero,104(s1)
 564 0368 23A60406 		sw	zero,108(s1)
 565 036c 23A80406 		sw	zero,112(s1)
 566 0370 23AA0406 		sw	zero,116(s1)
  29:src/c_thread.cpp ****     this->joiner.init();
 567              		.loc 1 29 5 is_stmt 1
  29:src/c_thread.cpp ****     this->joiner.init();
 568              		.loc 1 29 22 is_stmt 0
 569 0374 13850406 		addi	a0,s1,96
 570 0378 97000000 		call	_ZN2os14CircularBufferIP3TCBE4initEv
 570      E7800000 
 571              	.LVL51:
 572              	.LBE68:
  30:src/c_thread.cpp **** }
 573              		.loc 1 30 1
 574 0380 83308101 		ld	ra,24(sp)
 575              		.cfi_restore 1
 576 0384 03340101 		ld	s0,16(sp)
 577              		.cfi_restore 8
 578              		.cfi_def_cfa 2, 32
 579 0388 83348100 		ld	s1,8(sp)
 580              		.cfi_restore 9
GAS LISTING /tmp/ccpRKKRm.s 			page 17


 581              	.LVL52:
 582 038c 03390100 		ld	s2,0(sp)
 583              		.cfi_restore 18
 584              	.LVL53:
 585 0390 13010102 		addi	sp,sp,32
 586              		.cfi_def_cfa_offset 0
 587 0394 67800000 		jr	ra
 588              		.cfi_endproc
 589              	.LFE53:
 591              		.globl	_ZN3TCBC1ERS_
 592              		.set	_ZN3TCBC1ERS_,_ZN3TCBC2ERS_
 593              		.align	2
 594              		.globl	_ZN3TCB5_forkEv
 596              	_ZN3TCB5_forkEv:
 597              	.LFB63:
 108:src/c_thread.cpp **** int TCB::_fork() {
 598              		.loc 1 108 18 is_stmt 1
 599              		.cfi_startproc
 600              		.cfi_personality 0x9b,DW.ref.__gxx_personality_v0
 601              		.cfi_lsda 0x1b,.LLSDA63
 602 0398 130101FD 		addi	sp,sp,-48
 603              		.cfi_def_cfa_offset 48
 604 039c 23341102 		sd	ra,40(sp)
 605 03a0 23308102 		sd	s0,32(sp)
 606 03a4 233C9100 		sd	s1,24(sp)
 607 03a8 23382101 		sd	s2,16(sp)
 608 03ac 23343101 		sd	s3,8(sp)
 609              		.cfi_offset 1, -8
 610              		.cfi_offset 8, -16
 611              		.cfi_offset 9, -24
 612              		.cfi_offset 18, -32
 613              		.cfi_offset 19, -40
 614 03b0 13040103 		addi	s0,sp,48
 615              		.cfi_def_cfa 8, 0
 109:src/c_thread.cpp ****     int id_parent = TCB::running->t_id;
 616              		.loc 1 109 5
 109:src/c_thread.cpp ****     int id_parent = TCB::running->t_id;
 617              		.loc 1 109 35 is_stmt 0
 618 03b4 17090000 		lla	s2,.LANCHOR0
 618      13090900 
 619 03bc 83370900 		ld	a5,0(s2)
 109:src/c_thread.cpp ****     int id_parent = TCB::running->t_id;
 620              		.loc 1 109 9
 621 03c0 83A90700 		lw	s3,0(a5)
 622              	.LVL54:
 110:src/c_thread.cpp ****     TCB *handle = new TCB(*TCB::running);
 623              		.loc 1 110 5 is_stmt 1
 624              	.LBB69:
 625              	.LBB70:
  47:src/../h/c_thread.hpp **** 
 626              		.loc 2 47 39
  47:src/../h/c_thread.hpp **** 
 627              		.loc 2 47 67 is_stmt 0
 628 03c4 13058007 		li	a0,120
 629              	.LEHB4:
 630 03c8 97000000 		call	_ZN9Allocator10_mem_allocEm@plt
 630      E7800000 
GAS LISTING /tmp/ccpRKKRm.s 			page 18


 631              	.LVL55:
 632              	.LEHE4:
 633 03d0 93040500 		mv	s1,a0
 634              	.LVL56:
 635              	.LBE70:
 636              	.LBE69:
 110:src/c_thread.cpp ****     TCB *handle = new TCB(*TCB::running);
 637              		.loc 1 110 40
 638 03d4 83350900 		ld	a1,0(s2)
 639              	.LEHB5:
 640 03d8 97000000 		call	_ZN3TCBC1ERS_
 640      E7800000 
 641              	.LVL57:
 642              	.LEHE5:
 111:src/c_thread.cpp ****     TCB::duplicate(TCB::running, handle);
 643              		.loc 1 111 5 is_stmt 1 discriminator 2
 111:src/c_thread.cpp ****     TCB::duplicate(TCB::running, handle);
 644              		.loc 1 111 19 is_stmt 0 discriminator 2
 645 03e0 93850400 		mv	a1,s1
 646 03e4 03350900 		ld	a0,0(s2)
 647              	.LEHB6:
 648 03e8 97000000 		call	_ZN3TCB9duplicateEPS_S0_
 648      E7800000 
 649              	.LVL58:
 112:src/c_thread.cpp ****     print(TCB::running->t_id);
 650              		.loc 1 112 5 is_stmt 1 discriminator 2
 112:src/c_thread.cpp ****     print(TCB::running->t_id);
 651              		.loc 1 112 10 is_stmt 0 discriminator 2
 652 03f0 83370900 		ld	a5,0(s2)
 653 03f4 03A50700 		lw	a0,0(a5)
 654 03f8 97000000 		call	_Z5printi@plt
 654      E7800000 
 655              	.LVL59:
 113:src/c_thread.cpp ****     putc(' ');
 656              		.loc 1 113 5 is_stmt 1 discriminator 2
 113:src/c_thread.cpp ****     putc(' ');
 657              		.loc 1 113 9 is_stmt 0 discriminator 2
 658 0400 13050002 		li	a0,32
 659 0404 97000000 		call	_Z4putcc@plt
 659      E7800000 
 660              	.LVL60:
 114:src/c_thread.cpp ****     print(id_parent);
 661              		.loc 1 114 5 is_stmt 1 discriminator 2
 114:src/c_thread.cpp ****     print(id_parent);
 662              		.loc 1 114 10 is_stmt 0 discriminator 2
 663 040c 13850900 		mv	a0,s3
 664 0410 97000000 		call	_Z5printi@plt
 664      E7800000 
 665              	.LVL61:
 115:src/c_thread.cpp ****     putc(' ');
 666              		.loc 1 115 5 is_stmt 1 discriminator 2
 115:src/c_thread.cpp ****     putc(' ');
 667              		.loc 1 115 9 is_stmt 0 discriminator 2
 668 0418 13050002 		li	a0,32
 669 041c 97000000 		call	_Z4putcc@plt
 669      E7800000 
 670              	.LVL62:
GAS LISTING /tmp/ccpRKKRm.s 			page 19


 116:src/c_thread.cpp ****     print(handle->t_id);
 671              		.loc 1 116 5 is_stmt 1 discriminator 2
 116:src/c_thread.cpp ****     print(handle->t_id);
 672              		.loc 1 116 10 is_stmt 0 discriminator 2
 673 0424 03A50400 		lw	a0,0(s1)
 674 0428 97000000 		call	_Z5printi@plt
 674      E7800000 
 675              	.LVL63:
 117:src/c_thread.cpp ****     putc('\n');
 676              		.loc 1 117 5 is_stmt 1 discriminator 2
 117:src/c_thread.cpp ****     putc('\n');
 677              		.loc 1 117 9 is_stmt 0 discriminator 2
 678 0430 1305A000 		li	a0,10
 679 0434 97000000 		call	_Z4putcc@plt
 679      E7800000 
 680              	.LVL64:
 118:src/c_thread.cpp ****     if (TCB::running->t_id == id_parent) {
 681              		.loc 1 118 5 is_stmt 1 discriminator 2
 118:src/c_thread.cpp ****     if (TCB::running->t_id == id_parent) {
 682              		.loc 1 118 23 is_stmt 0 discriminator 2
 683 043c 83370900 		ld	a5,0(s2)
 684 0440 03A50700 		lw	a0,0(a5)
 118:src/c_thread.cpp ****     if (TCB::running->t_id == id_parent) {
 685              		.loc 1 118 5 discriminator 2
 686 0444 63063503 		beq	a0,s3,.L31
 122:src/c_thread.cpp ****         print(TCB::running->t_id);
 687              		.loc 1 122 9 is_stmt 1
 122:src/c_thread.cpp ****         print(TCB::running->t_id);
 688              		.loc 1 122 14 is_stmt 0
 689 0448 97000000 		call	_Z5printi@plt
 689      E7800000 
 690              	.LVL65:
 123:src/c_thread.cpp ****         return 0;
 691              		.loc 1 123 9 is_stmt 1
 123:src/c_thread.cpp ****         return 0;
 692              		.loc 1 123 16 is_stmt 0
 693 0450 13050000 		li	a0,0
 694              	.L29:
 125:src/c_thread.cpp **** }
 695              		.loc 1 125 1
 696 0454 83308102 		ld	ra,40(sp)
 697              		.cfi_remember_state
 698              		.cfi_restore 1
 699 0458 03340102 		ld	s0,32(sp)
 700              		.cfi_restore 8
 701              		.cfi_def_cfa 2, 48
 702 045c 83348101 		ld	s1,24(sp)
 703              		.cfi_restore 9
 704              	.LVL66:
 705 0460 03390101 		ld	s2,16(sp)
 706              		.cfi_restore 18
 707 0464 83398100 		ld	s3,8(sp)
 708              		.cfi_restore 19
 709              	.LVL67:
 710 0468 13010103 		addi	sp,sp,48
 711              		.cfi_def_cfa_offset 0
 712 046c 67800000 		jr	ra
GAS LISTING /tmp/ccpRKKRm.s 			page 20


 713              	.LVL68:
 714              	.L31:
 715              		.cfi_restore_state
 119:src/c_thread.cpp ****         Scheduler::put(handle);
 716              		.loc 1 119 9 is_stmt 1
 119:src/c_thread.cpp ****         Scheduler::put(handle);
 717              		.loc 1 119 23 is_stmt 0
 718 0470 13850400 		mv	a0,s1
 719 0474 97000000 		call	_ZN9Scheduler3putEP3TCB@plt
 719      E7800000 
 720              	.LVL69:
 721              	.LEHE6:
 120:src/c_thread.cpp ****         return handle->t_id;
 722              		.loc 1 120 9 is_stmt 1
 120:src/c_thread.cpp ****         return handle->t_id;
 723              		.loc 1 120 24 is_stmt 0
 724 047c 03A50400 		lw	a0,0(s1)
 725 0480 6FF05FFD 		j	.L29
 726              	.LVL70:
 727              	.L28:
 728 0484 13090500 		mv	s2,a0
 729              	.LVL71:
 730              	.LBB71:
 731              	.LBB72:
  49:src/../h/c_thread.hpp **** 
 732              		.loc 2 49 43 is_stmt 1
  49:src/../h/c_thread.hpp **** 
 733              		.loc 2 49 63 is_stmt 0
 734 0488 13850400 		mv	a0,s1
 735 048c 97000000 		call	_ZN9Allocator9_mem_freeEPKv@plt
 735      E7800000 
 736              	.LVL72:
 737 0494 13050900 		mv	a0,s2
 738              	.LEHB7:
 739 0498 97000000 		call	_Unwind_Resume@plt
 739      E7800000 
 740              	.LVL73:
 741              	.LEHE7:
 742              	.LBE72:
 743              	.LBE71:
 744              		.cfi_endproc
 745              	.LFE63:
 746              		.section	.gcc_except_table
 747              	.LLSDA63:
 748 0038 FF       		.byte	0xff
 749 0039 FF       		.byte	0xff
 750 003a 03       		.byte	0x3
 751 003b 34       		.byte	0x34
 752 003c 00000000 		.4byte	.LEHB4-.LFB63
 753 0040 00000000 		.4byte	.LEHE4-.LEHB4
 754 0044 00000000 		.4byte	0
 755 0048 00       		.byte	0
 756 0049 00000000 		.4byte	.LEHB5-.LFB63
 757 004d 00000000 		.4byte	.LEHE5-.LEHB5
 758 0051 00000000 		.4byte	.L28-.LFB63
 759 0055 00       		.byte	0
 760 0056 00000000 		.4byte	.LEHB6-.LFB63
GAS LISTING /tmp/ccpRKKRm.s 			page 21


 761 005a 00000000 		.4byte	.LEHE6-.LEHB6
 762 005e 00000000 		.4byte	0
 763 0062 00       		.byte	0
 764 0063 00000000 		.4byte	.LEHB7-.LFB63
 765 0067 00000000 		.4byte	.LEHE7-.LEHB7
 766 006b 00000000 		.4byte	0
 767 006f 00       		.byte	0
 768              		.text
 770              		.section	.text._ZN2os14CircularBufferIP3TCBE3getEv,"axG",@progbits,_ZN2os14CircularBufferIP3TCBE3g
 771              		.align	2
 772              		.weak	_ZN2os14CircularBufferIP3TCBE3getEv
 774              	_ZN2os14CircularBufferIP3TCBE3getEv:
 775              	.LFB69:
  45:src/../h/circular_buffer.hpp **** 
  46:src/../h/circular_buffer.hpp **** template<typename T>
  47:src/../h/circular_buffer.hpp **** void os::CircularBuffer<T>::put(T element) {
  48:src/../h/circular_buffer.hpp ****     if (this->size == this->capacity) {
  49:src/../h/circular_buffer.hpp ****         this->extend();
  50:src/../h/circular_buffer.hpp ****     }
  51:src/../h/circular_buffer.hpp ****     this->queue[this->tail] = element;
  52:src/../h/circular_buffer.hpp ****     this->tail = (this->tail + 1) % this->capacity;
  53:src/../h/circular_buffer.hpp ****     this->size++;
  54:src/../h/circular_buffer.hpp **** }
  55:src/../h/circular_buffer.hpp **** 
  56:src/../h/circular_buffer.hpp **** template<typename T>
  57:src/../h/circular_buffer.hpp **** T os::CircularBuffer<T>::get() {
 776              		.loc 3 57 3 is_stmt 1
 777              		.cfi_startproc
 778              	.LVL74:
 779 0000 130101FF 		addi	sp,sp,-16
 780              		.cfi_def_cfa_offset 16
 781 0004 23348100 		sd	s0,8(sp)
 782              		.cfi_offset 8, -8
 783 0008 13040101 		addi	s0,sp,16
 784              		.cfi_def_cfa 8, 0
 785 000c 93070500 		mv	a5,a0
  58:src/../h/circular_buffer.hpp ****     T ret = this->queue[this->head];
 786              		.loc 3 58 19 is_stmt 0
 787 0010 83360500 		ld	a3,0(a0)
 788              		.loc 3 58 31
 789 0014 03278500 		lw	a4,8(a0)
 790              		.loc 3 58 24
 791 0018 13163700 		slli	a2,a4,3
 792 001c B386C600 		add	a3,a3,a2
 793              		.loc 3 58 7
 794 0020 03B50600 		ld	a0,0(a3)
 795              	.LVL75:
  59:src/../h/circular_buffer.hpp ****     this->head = (this->head + 1) % this->capacity;
 796              		.loc 3 59 30
 797 0024 1B071700 		addiw	a4,a4,1
 798              		.loc 3 59 43
 799 0028 83A64701 		lw	a3,20(a5)
 800              		.loc 3 59 35
 801 002c 3B67D702 		remw	a4,a4,a3
 802              		.loc 3 59 5
 803 0030 23A4E700 		sw	a4,8(a5)
  60:src/../h/circular_buffer.hpp ****     this->size--;
GAS LISTING /tmp/ccpRKKRm.s 			page 22


 804              		.loc 3 60 11
 805 0034 03A70701 		lw	a4,16(a5)
 806              		.loc 3 60 5
 807 0038 1B07F7FF 		addiw	a4,a4,-1
 808 003c 23A8E700 		sw	a4,16(a5)
  61:src/../h/circular_buffer.hpp ****     return ret;
  62:src/../h/circular_buffer.hpp **** }
 809              		.loc 3 62 1
 810 0040 03348100 		ld	s0,8(sp)
 811              		.cfi_restore 8
 812              		.cfi_def_cfa 2, 16
 813 0044 13010101 		addi	sp,sp,16
 814              		.cfi_def_cfa_offset 0
 815 0048 67800000 		jr	ra
 816              		.cfi_endproc
 817              	.LFE69:
 819              		.section	.text._ZN2os14CircularBufferIP3TCBE7destroyEv,"axG",@progbits,_ZN2os14CircularBufferIP3TC
 820              		.align	2
 821              		.weak	_ZN2os14CircularBufferIP3TCBE7destroyEv
 823              	_ZN2os14CircularBufferIP3TCBE7destroyEv:
 824              	.LFB70:
  63:src/../h/circular_buffer.hpp **** 
  64:src/../h/circular_buffer.hpp **** template<typename T>
  65:src/../h/circular_buffer.hpp **** T &os::CircularBuffer<T>::peek() {
  66:src/../h/circular_buffer.hpp ****     return this->queue[this->head];
  67:src/../h/circular_buffer.hpp **** }
  68:src/../h/circular_buffer.hpp **** 
  69:src/../h/circular_buffer.hpp **** template<typename T>
  70:src/../h/circular_buffer.hpp **** void os::CircularBuffer<T>::extend() {
  71:src/../h/circular_buffer.hpp ****     T *new_queue = (T *) Allocator::_mem_alloc(sizeof(T *) * this->capacity * 2);
  72:src/../h/circular_buffer.hpp ****     for (int i = 0, j = this->head; i < this->capacity; i++, j = (j + 1) % this->capacity)
  73:src/../h/circular_buffer.hpp ****         new_queue[i] = this->queue[j];
  74:src/../h/circular_buffer.hpp ****     Allocator::_mem_free(queue);
  75:src/../h/circular_buffer.hpp ****     this->queue = new_queue;
  76:src/../h/circular_buffer.hpp ****     this->head = 0;
  77:src/../h/circular_buffer.hpp ****     this->tail = this->capacity;
  78:src/../h/circular_buffer.hpp ****     this->capacity *= 2;
  79:src/../h/circular_buffer.hpp **** }
  80:src/../h/circular_buffer.hpp **** 
  81:src/../h/circular_buffer.hpp **** template<typename T>
  82:src/../h/circular_buffer.hpp **** void os::CircularBuffer<T>::destroy() {
 825              		.loc 3 82 6 is_stmt 1
 826              		.cfi_startproc
 827              	.LVL76:
 828 0000 130101FF 		addi	sp,sp,-16
 829              		.cfi_def_cfa_offset 16
 830 0004 23341100 		sd	ra,8(sp)
 831 0008 23308100 		sd	s0,0(sp)
 832              		.cfi_offset 1, -8
 833              		.cfi_offset 8, -16
 834 000c 13040101 		addi	s0,sp,16
 835              		.cfi_def_cfa 8, 0
  83:src/../h/circular_buffer.hpp ****     Allocator::_mem_free(this->queue);
 836              		.loc 3 83 25 is_stmt 0
 837 0010 03350500 		ld	a0,0(a0)
 838              	.LVL77:
 839 0014 97000000 		call	_ZN9Allocator9_mem_freeEPKv@plt
GAS LISTING /tmp/ccpRKKRm.s 			page 23


 839      E7800000 
 840              	.LVL78:
  84:src/../h/circular_buffer.hpp **** }
 841              		.loc 3 84 1
 842 001c 83308100 		ld	ra,8(sp)
 843              		.cfi_restore 1
 844 0020 03340100 		ld	s0,0(sp)
 845              		.cfi_restore 8
 846              		.cfi_def_cfa 2, 16
 847 0024 13010101 		addi	sp,sp,16
 848              		.cfi_def_cfa_offset 0
 849 0028 67800000 		jr	ra
 850              		.cfi_endproc
 851              	.LFE70:
 853              		.text
 854              		.align	2
 855              		.globl	_ZN3TCB14destroy_threadEPS_
 857              	_ZN3TCB14destroy_threadEPS_:
 858              	.LFB58:
  66:src/c_thread.cpp **** TCB *TCB::destroy_thread(TCB *thread) {
 859              		.loc 1 66 39 is_stmt 1
 860              		.cfi_startproc
 861              	.LVL79:
 862 04a0 130101FE 		addi	sp,sp,-32
 863              		.cfi_def_cfa_offset 32
 864 04a4 233C1100 		sd	ra,24(sp)
 865 04a8 23388100 		sd	s0,16(sp)
 866 04ac 23349100 		sd	s1,8(sp)
 867              		.cfi_offset 1, -8
 868              		.cfi_offset 8, -16
 869              		.cfi_offset 9, -24
 870 04b0 13040102 		addi	s0,sp,32
 871              		.cfi_def_cfa 8, 0
 872 04b4 93040500 		mv	s1,a0
 873              	.LVL80:
 874              	.L38:
  67:src/c_thread.cpp ****     while (!thread->joiner.is_empty()) {
 875              		.loc 1 67 5
  67:src/c_thread.cpp ****     while (!thread->joiner.is_empty()) {
 876              		.loc 1 67 12
 877              	.LBB73:
 878              	.LBB74:
  20:src/../h/circular_buffer.hpp **** 
 879              		.loc 3 20 53 is_stmt 0
 880 04b8 83A70407 		lw	a5,112(s1)
 881              	.LVL81:
 882              	.LBE74:
 883              	.LBE73:
  67:src/c_thread.cpp ****     while (!thread->joiner.is_empty()) {
 884              		.loc 1 67 12
 885 04bc 63860702 		beqz	a5,.L37
 886              	.LBB75:
  68:src/c_thread.cpp ****         TCB *next = thread->joiner.get();
 887              		.loc 1 68 9 is_stmt 1
  68:src/c_thread.cpp ****         TCB *next = thread->joiner.get();
 888              		.loc 1 68 39 is_stmt 0
 889 04c0 13850406 		addi	a0,s1,96
GAS LISTING /tmp/ccpRKKRm.s 			page 24


 890 04c4 97000000 		call	_ZN2os14CircularBufferIP3TCBE3getEv
 890      E7800000 
 891              	.LVL82:
  69:src/c_thread.cpp ****         if (next->is_joined()) {
 892              		.loc 1 69 9 is_stmt 1
 893              	.LBB76:
 894              	.LBB77:
  65:src/../h/c_thread.hpp **** 
 895              		.loc 2 65 30
  65:src/../h/c_thread.hpp **** 
 896              		.loc 2 65 43 is_stmt 0
 897 04cc 03278504 		lw	a4,72(a0)
 898              	.LVL83:
 899              	.LBE77:
 900              	.LBE76:
  69:src/c_thread.cpp ****         if (next->is_joined()) {
 901              		.loc 1 69 9
 902 04d0 93073000 		li	a5,3
 903 04d4 E312F7FE 		bne	a4,a5,.L38
  70:src/c_thread.cpp ****             next->run();
 904              		.loc 1 70 13 is_stmt 1
 905              	.LVL84:
 906              	.LBB78:
 907              	.LBB79:
  69:src/../h/c_thread.hpp **** 
 908              		.loc 2 69 18
  69:src/../h/c_thread.hpp **** 
 909              		.loc 2 69 31 is_stmt 0
 910 04d8 23240504 		sw	zero,72(a0)
 911              	.LVL85:
 912              	.LBE79:
 913              	.LBE78:
  71:src/c_thread.cpp ****             Scheduler::put(next);
 914              		.loc 1 71 13 is_stmt 1
  71:src/c_thread.cpp ****             Scheduler::put(next);
 915              		.loc 1 71 27 is_stmt 0
 916 04dc 97000000 		call	_ZN9Scheduler3putEP3TCB@plt
 916      E7800000 
 917              	.LVL86:
 918 04e4 6FF05FFD 		j	.L38
 919              	.L37:
 920              	.LBE75:
  74:src/c_thread.cpp ****     thread->joiner.destroy();
 921              		.loc 1 74 5 is_stmt 1
  74:src/c_thread.cpp ****     thread->joiner.destroy();
 922              		.loc 1 74 27 is_stmt 0
 923 04e8 13850406 		addi	a0,s1,96
 924 04ec 97000000 		call	_ZN2os14CircularBufferIP3TCBE7destroyEv
 924      E7800000 
 925              	.LVL87:
  75:src/c_thread.cpp ****     return thread;
 926              		.loc 1 75 5 is_stmt 1
  76:src/c_thread.cpp **** }
 927              		.loc 1 76 1 is_stmt 0
 928 04f4 13850400 		mv	a0,s1
 929 04f8 83308101 		ld	ra,24(sp)
 930              		.cfi_restore 1
GAS LISTING /tmp/ccpRKKRm.s 			page 25


 931 04fc 03340101 		ld	s0,16(sp)
 932              		.cfi_restore 8
 933              		.cfi_def_cfa 2, 32
 934 0500 83348100 		ld	s1,8(sp)
 935              		.cfi_restore 9
 936              	.LVL88:
 937 0504 13010102 		addi	sp,sp,32
 938              		.cfi_def_cfa_offset 0
 939 0508 67800000 		jr	ra
 940              		.cfi_endproc
 941              	.LFE58:
 943              		.align	2
 944              		.globl	_ZN3TCB5yieldEv
 946              	_ZN3TCB5yieldEv:
 947              	.LFB56:
  38:src/c_thread.cpp **** void TCB::yield() {
 948              		.loc 1 38 19 is_stmt 1
 949              		.cfi_startproc
 950 050c 130101FD 		addi	sp,sp,-48
 951              		.cfi_def_cfa_offset 48
 952 0510 23341102 		sd	ra,40(sp)
 953 0514 23308102 		sd	s0,32(sp)
 954 0518 233C9100 		sd	s1,24(sp)
 955              		.cfi_offset 1, -8
 956              		.cfi_offset 8, -16
 957              		.cfi_offset 9, -24
 958 051c 13040103 		addi	s0,sp,48
 959              		.cfi_def_cfa 8, 0
  39:src/c_thread.cpp ****     thread_t old = TCB::running;
 960              		.loc 1 39 5
  39:src/c_thread.cpp ****     thread_t old = TCB::running;
 961              		.loc 1 39 14 is_stmt 0
 962 0520 97040000 		ld	s1,.LANCHOR0
 962      83B40400 
 963              	.LVL89:
  40:src/c_thread.cpp ****     old->context.sstatus = Riscv::r_sstatus();
 964              		.loc 1 40 5 is_stmt 1
 965              	.LBB80:
 966              	.LBB81:
 967              		.file 4 "src/../h/riscv.hpp"
   1:src/../h/riscv.hpp **** #ifndef PROJECT_BASE_RISCV_HPP
   2:src/../h/riscv.hpp **** #define PROJECT_BASE_RISCV_HPP
   3:src/../h/riscv.hpp **** 
   4:src/../h/riscv.hpp **** #include "../lib/hw.h"
   5:src/../h/riscv.hpp **** 
   6:src/../h/riscv.hpp **** extern "C" void supervisorTrap();
   7:src/../h/riscv.hpp **** 
   8:src/../h/riscv.hpp **** class Riscv {
   9:src/../h/riscv.hpp **** public:
  10:src/../h/riscv.hpp **** 
  11:src/../h/riscv.hpp ****     __attribute__((unused)) static void handleSupervisorTrap();
  12:src/../h/riscv.hpp **** 
  13:src/../h/riscv.hpp ****     static void handleTimerTrap();
  14:src/../h/riscv.hpp **** 
  15:src/../h/riscv.hpp ****     static void handleReadTrap();
  16:src/../h/riscv.hpp **** 
  17:src/../h/riscv.hpp ****     static void handleWriteTrap();
GAS LISTING /tmp/ccpRKKRm.s 			page 26


  18:src/../h/riscv.hpp **** 
  19:src/../h/riscv.hpp ****     static void popSppSpie();
  20:src/../h/riscv.hpp **** 
  21:src/../h/riscv.hpp ****     static void handleConsoleTrap();
  22:src/../h/riscv.hpp **** 
  23:src/../h/riscv.hpp ****     static void push();
  24:src/../h/riscv.hpp **** 
  25:src/../h/riscv.hpp ****     static void pop();
  26:src/../h/riscv.hpp **** 
  27:src/../h/riscv.hpp ****     // read register scause
  28:src/../h/riscv.hpp ****     static uint64 r_scause();
  29:src/../h/riscv.hpp **** 
  30:src/../h/riscv.hpp ****     // write register scause
  31:src/../h/riscv.hpp ****     static void w_scause(uint64 scause);
  32:src/../h/riscv.hpp **** 
  33:src/../h/riscv.hpp ****     // read register sepc
  34:src/../h/riscv.hpp ****     static uint64 r_sepc();
  35:src/../h/riscv.hpp **** 
  36:src/../h/riscv.hpp ****     // write register sepc
  37:src/../h/riscv.hpp ****     static void w_sepc(uint64 sepc);
  38:src/../h/riscv.hpp **** 
  39:src/../h/riscv.hpp ****     // read register stvec
  40:src/../h/riscv.hpp ****     static uint64 r_stvec();
  41:src/../h/riscv.hpp **** 
  42:src/../h/riscv.hpp ****     // write register stvec
  43:src/../h/riscv.hpp ****     static void w_stvec(uint64 stvec);
  44:src/../h/riscv.hpp **** 
  45:src/../h/riscv.hpp ****     // read register stval
  46:src/../h/riscv.hpp ****     static uint64 r_stval();
  47:src/../h/riscv.hpp **** 
  48:src/../h/riscv.hpp ****     // write register stval
  49:src/../h/riscv.hpp ****     static void w_stval(uint64 stval);
  50:src/../h/riscv.hpp **** 
  51:src/../h/riscv.hpp ****     enum BitMaskSip {
  52:src/../h/riscv.hpp ****         SIP_SSIE = (1 << 1),
  53:src/../h/riscv.hpp ****         SIP_STIE = (1 << 5),
  54:src/../h/riscv.hpp ****         SIP_SEIE = (1 << 9),
  55:src/../h/riscv.hpp ****     };
  56:src/../h/riscv.hpp **** 
  57:src/../h/riscv.hpp ****     // mask set register sip
  58:src/../h/riscv.hpp ****     static void ms_sip(uint64 mask);
  59:src/../h/riscv.hpp **** 
  60:src/../h/riscv.hpp ****     // mask clear register sip
  61:src/../h/riscv.hpp ****     static void mc_sip(uint64 mask);
  62:src/../h/riscv.hpp **** 
  63:src/../h/riscv.hpp ****     // read register sip
  64:src/../h/riscv.hpp ****     static uint64 r_sip();
  65:src/../h/riscv.hpp **** 
  66:src/../h/riscv.hpp ****     // write register sip
  67:src/../h/riscv.hpp ****     static void w_sip(uint64 sip);
  68:src/../h/riscv.hpp **** 
  69:src/../h/riscv.hpp ****     enum BitMaskSstatus {
  70:src/../h/riscv.hpp ****         SSTATUS_SIE = (1 << 1),
  71:src/../h/riscv.hpp ****         SSTATUS_SPIE = (1 << 5),
  72:src/../h/riscv.hpp ****         SSTATUS_SPP = (1 << 8),
  73:src/../h/riscv.hpp ****     };
  74:src/../h/riscv.hpp **** 
GAS LISTING /tmp/ccpRKKRm.s 			page 27


  75:src/../h/riscv.hpp ****     // mask set register sstatus
  76:src/../h/riscv.hpp ****     static void ms_sstatus(uint64 mask);
  77:src/../h/riscv.hpp **** 
  78:src/../h/riscv.hpp ****     // mask clear register sstatus
  79:src/../h/riscv.hpp ****     static void mc_sstatus(uint64 mask);
  80:src/../h/riscv.hpp **** 
  81:src/../h/riscv.hpp ****     // read register sstatus
  82:src/../h/riscv.hpp ****     static uint64 r_sstatus();
  83:src/../h/riscv.hpp **** 
  84:src/../h/riscv.hpp ****     // write register sstatus
  85:src/../h/riscv.hpp ****     static void w_sstatus(uint64 sstatus);
  86:src/../h/riscv.hpp **** 
  87:src/../h/riscv.hpp ****     static uint64 r_sscratch();
  88:src/../h/riscv.hpp **** 
  89:src/../h/riscv.hpp **** private:
  90:src/../h/riscv.hpp **** 
  91:src/../h/riscv.hpp **** };
  92:src/../h/riscv.hpp **** 
  93:src/../h/riscv.hpp **** inline uint64 Riscv::r_sscratch() {
  94:src/../h/riscv.hpp ****     uint64 volatile sscratch;
  95:src/../h/riscv.hpp ****     __asm__ volatile ("csrr %[scause], scause" : [scause] "=r"(sscratch));
  96:src/../h/riscv.hpp ****     return sscratch;
  97:src/../h/riscv.hpp **** }
  98:src/../h/riscv.hpp **** 
  99:src/../h/riscv.hpp **** inline uint64 Riscv::r_scause() {
 100:src/../h/riscv.hpp ****     uint64 volatile scause;
 101:src/../h/riscv.hpp ****     __asm__ volatile ("csrr %[scause], scause" : [scause] "=r"(scause));
 102:src/../h/riscv.hpp ****     return scause;
 103:src/../h/riscv.hpp **** }
 104:src/../h/riscv.hpp **** 
 105:src/../h/riscv.hpp **** inline void Riscv::w_scause(uint64 scause) {
 106:src/../h/riscv.hpp ****     __asm__ volatile ("csrw scause, %[scause]" : : [scause] "r"(scause));
 107:src/../h/riscv.hpp **** }
 108:src/../h/riscv.hpp **** 
 109:src/../h/riscv.hpp **** inline uint64 Riscv::r_sepc() {
 110:src/../h/riscv.hpp ****     uint64 volatile sepc;
 111:src/../h/riscv.hpp ****     __asm__ volatile ("csrr %[sepc], sepc" : [sepc] "=r"(sepc));
 112:src/../h/riscv.hpp ****     return sepc;
 113:src/../h/riscv.hpp **** }
 114:src/../h/riscv.hpp **** 
 115:src/../h/riscv.hpp **** inline void Riscv::w_sepc(uint64 sepc) {
 116:src/../h/riscv.hpp ****     __asm__ volatile ("csrw sepc, %[sepc]" : : [sepc] "r"(sepc));
 117:src/../h/riscv.hpp **** }
 118:src/../h/riscv.hpp **** 
 119:src/../h/riscv.hpp **** inline uint64 Riscv::r_stvec() {
 120:src/../h/riscv.hpp ****     uint64 volatile stvec;
 121:src/../h/riscv.hpp ****     __asm__ volatile ("csrr %[stvec], stvec" : [stvec] "=r"(stvec));
 122:src/../h/riscv.hpp ****     return stvec;
 123:src/../h/riscv.hpp **** }
 124:src/../h/riscv.hpp **** 
 125:src/../h/riscv.hpp **** inline void Riscv::w_stvec(uint64 stvec) {
 126:src/../h/riscv.hpp ****     __asm__ volatile ("csrw stvec, %[stvec]" : : [stvec] "r"(stvec));
 127:src/../h/riscv.hpp **** }
 128:src/../h/riscv.hpp **** 
 129:src/../h/riscv.hpp **** inline uint64 Riscv::r_stval() {
 130:src/../h/riscv.hpp ****     uint64 volatile stval;
 131:src/../h/riscv.hpp ****     __asm__ volatile ("csrr %[stval], stval" : [stval] "=r"(stval));
GAS LISTING /tmp/ccpRKKRm.s 			page 28


 132:src/../h/riscv.hpp ****     return stval;
 133:src/../h/riscv.hpp **** }
 134:src/../h/riscv.hpp **** 
 135:src/../h/riscv.hpp **** inline void Riscv::w_stval(uint64 stval) {
 136:src/../h/riscv.hpp ****     __asm__ volatile ("csrw stval, %[stval]" : : [stval] "r"(stval));
 137:src/../h/riscv.hpp **** }
 138:src/../h/riscv.hpp **** 
 139:src/../h/riscv.hpp **** inline void Riscv::ms_sip(uint64 mask) {
 140:src/../h/riscv.hpp ****     __asm__ volatile ("csrs sip, %[mask]" : : [mask] "r"(mask));
 141:src/../h/riscv.hpp **** }
 142:src/../h/riscv.hpp **** 
 143:src/../h/riscv.hpp **** inline void Riscv::mc_sip(uint64 mask) {
 144:src/../h/riscv.hpp ****     __asm__ volatile ("csrc sip, %[mask]" : : [mask] "r"(mask));
 145:src/../h/riscv.hpp **** }
 146:src/../h/riscv.hpp **** 
 147:src/../h/riscv.hpp **** inline uint64 Riscv::r_sip() {
 148:src/../h/riscv.hpp ****     uint64 volatile sip;
 149:src/../h/riscv.hpp ****     __asm__ volatile ("csrr %[sip], sip" : [sip] "=r"(sip));
 150:src/../h/riscv.hpp ****     return sip;
 151:src/../h/riscv.hpp **** }
 152:src/../h/riscv.hpp **** 
 153:src/../h/riscv.hpp **** inline void Riscv::w_sip(uint64 sip) {
 154:src/../h/riscv.hpp ****     __asm__ volatile ("csrw sip, %[sip]" : : [sip] "r"(sip));
 155:src/../h/riscv.hpp **** }
 156:src/../h/riscv.hpp **** 
 157:src/../h/riscv.hpp **** inline void Riscv::ms_sstatus(uint64 mask) {
 158:src/../h/riscv.hpp ****     __asm__ volatile ("csrs sstatus, %[mask]" : : [mask] "r"(mask));
 159:src/../h/riscv.hpp **** }
 160:src/../h/riscv.hpp **** 
 161:src/../h/riscv.hpp **** inline void Riscv::mc_sstatus(uint64 mask) {
 162:src/../h/riscv.hpp ****     __asm__ volatile ("csrc sstatus, %[mask]" : : [mask] "r"(mask));
 163:src/../h/riscv.hpp **** }
 164:src/../h/riscv.hpp **** 
 165:src/../h/riscv.hpp **** inline uint64 Riscv::r_sstatus() {
 166:src/../h/riscv.hpp ****     uint64 volatile sstatus;
 968              		.loc 4 166 5
 167:src/../h/riscv.hpp ****     __asm__ volatile ("csrr %[sstatus], sstatus" : [sstatus] "=r"(sstatus));
 969              		.loc 4 167 5
 970              		.loc 4 167 76 is_stmt 0
 971              	#APP
 972              	# 167 "src/../h/riscv.hpp" 1
 168              	    return sstatus;
 973              		csrr a5, sstatus
 974              	# 0 "" 2
 975              	#NO_APP
 976 052c 233CF4FC 		sd	a5,-40(s0)
 977              		.loc 4 168 5 is_stmt 1
 978              		.loc 4 168 12 is_stmt 0
 979 0530 833784FD 		ld	a5,-40(s0)
 980              	.LBE81:
 981              	.LBE80:
  40:src/c_thread.cpp ****     old->context.sstatus = Riscv::r_sstatus();
 982              		.loc 1 40 26
 983 0534 23BCF402 		sd	a5,56(s1)
  41:src/c_thread.cpp ****     old->context.sepc = Riscv::r_sepc();
 984              		.loc 1 41 5 is_stmt 1
 985              	.LBB82:
GAS LISTING /tmp/ccpRKKRm.s 			page 29


 986              	.LBB83:
 110:src/../h/riscv.hpp ****     __asm__ volatile ("csrr %[sepc], sepc" : [sepc] "=r"(sepc));
 987              		.loc 4 110 5
 111:src/../h/riscv.hpp ****     return sepc;
 988              		.loc 4 111 5
 111:src/../h/riscv.hpp ****     return sepc;
 989              		.loc 4 111 64 is_stmt 0
 990              	#APP
 991              	# 111 "src/../h/riscv.hpp" 1
 992              		csrr a5, sepc
 993              	# 0 "" 2
 994              	#NO_APP
 995 053c 2338F4FC 		sd	a5,-48(s0)
 112:src/../h/riscv.hpp **** }
 996              		.loc 4 112 5 is_stmt 1
 112:src/../h/riscv.hpp **** }
 997              		.loc 4 112 12 is_stmt 0
 998 0540 833704FD 		ld	a5,-48(s0)
 999              	.LBE83:
 1000              	.LBE82:
  41:src/c_thread.cpp ****     old->context.sepc = Riscv::r_sepc();
 1001              		.loc 1 41 23
 1002 0544 23B0F404 		sd	a5,64(s1)
  42:src/c_thread.cpp ****     if (old->is_runnable() && old != handle_bleya) {
 1003              		.loc 1 42 5 is_stmt 1
 1004              	.LVL90:
 1005              	.LBB84:
 1006              	.LBB85:
  59:src/../h/c_thread.hpp **** 
 1007              		.loc 2 59 32
  59:src/../h/c_thread.hpp **** 
 1008              		.loc 2 59 45 is_stmt 0
 1009 0548 83A78404 		lw	a5,72(s1)
 1010              	.LVL91:
 1011              	.LBE85:
 1012              	.LBE84:
  42:src/c_thread.cpp ****     if (old->is_runnable() && old != handle_bleya) {
 1013              		.loc 1 42 28
 1014 054c 63920702 		bnez	a5,.L42
  42:src/c_thread.cpp ****     if (old->is_runnable() && old != handle_bleya) {
 1015              		.loc 1 42 35 discriminator 1
 1016 0550 17070000 		la	a4,handle_bleya
 1016      03370700 
 1017 0558 03370700 		ld	a4,0(a4)
  42:src/c_thread.cpp ****     if (old->is_runnable() && old != handle_bleya) {
 1018              		.loc 1 42 28 discriminator 1
 1019 055c 630A9700 		beq	a4,s1,.L42
  43:src/c_thread.cpp ****         Scheduler::put(old);
 1020              		.loc 1 43 9 is_stmt 1
  43:src/c_thread.cpp ****         Scheduler::put(old);
 1021              		.loc 1 43 23 is_stmt 0
 1022 0560 13850400 		mv	a0,s1
 1023 0564 97000000 		call	_ZN9Scheduler3putEP3TCB@plt
 1023      E7800000 
 1024              	.LVL92:
 1025 056c 6F00C000 		j	.L43
 1026              	.L42:
GAS LISTING /tmp/ccpRKKRm.s 			page 30


  44:src/c_thread.cpp ****     } else if (old->is_finished()) {
 1027              		.loc 1 44 12 is_stmt 1
 1028              	.LVL93:
  67:src/../h/c_thread.hpp **** 
 1029              		.loc 2 67 32
  44:src/c_thread.cpp ****     } else if (old->is_finished()) {
 1030              		.loc 1 44 12 is_stmt 0
 1031 0570 13074000 		li	a4,4
 1032 0574 6386E704 		beq	a5,a4,.L49
 1033              	.L43:
  47:src/c_thread.cpp ****     if (Scheduler::is_empty()) {
 1034              		.loc 1 47 5 is_stmt 1
 1035              	.LBB86:
 1036              	.LBB87:
 1037              		.file 5 "src/../h/scheduler.hpp"
   1:src/../h/scheduler.hpp **** #ifndef PROJECT_BASE_SCHEDULER_HPP
   2:src/../h/scheduler.hpp **** #define PROJECT_BASE_SCHEDULER_HPP
   3:src/../h/scheduler.hpp **** 
   4:src/../h/scheduler.hpp **** #include "circular_buffer.hpp"
   5:src/../h/scheduler.hpp **** #include "syscall_c.hpp"
   6:src/../h/scheduler.hpp **** 
   7:src/../h/scheduler.hpp **** class Scheduler final {
   8:src/../h/scheduler.hpp **** public:
   9:src/../h/scheduler.hpp **** 
  10:src/../h/scheduler.hpp ****     static void init() { high_priority.init(); mid_priority.init(); low_priority.init(); }
  11:src/../h/scheduler.hpp **** 
  12:src/../h/scheduler.hpp ****     static void put(TCB *thread);
  13:src/../h/scheduler.hpp **** 
  14:src/../h/scheduler.hpp ****     static TCB *get();
  15:src/../h/scheduler.hpp **** 
  16:src/../h/scheduler.hpp ****     static inline bool is_empty() {
  17:src/../h/scheduler.hpp ****         return high_priority.is_empty() && mid_priority.is_empty() && low_priority.is_empty();
 1038              		.loc 5 17 9
 1039              	.LVL94:
 1040              	.LBB88:
 1041              	.LBB89:
  20:src/../h/circular_buffer.hpp **** 
 1042              		.loc 3 20 53 is_stmt 0
 1043 0578 97070000 		la	a5,_ZN9Scheduler13high_priorityE
 1043      83B70700 
 1044 0580 83A70701 		lw	a5,16(a5)
 1045              	.LVL95:
 1046              	.LBE89:
 1047              	.LBE88:
 1048              		.loc 5 17 68
 1049 0584 63940706 		bnez	a5,.L47
 1050              	.LVL96:
 1051              	.LBB90:
 1052              	.LBB91:
  20:src/../h/circular_buffer.hpp **** 
 1053              		.loc 3 20 53
 1054 0588 97070000 		la	a5,_ZN9Scheduler12mid_priorityE
 1054      83B70700 
 1055 0590 83A70701 		lw	a5,16(a5)
 1056              	.LVL97:
 1057              	.LBE91:
 1058              	.LBE90:
GAS LISTING /tmp/ccpRKKRm.s 			page 31


 1059              		.loc 5 17 41
 1060 0594 639C0704 		bnez	a5,.L47
 1061              	.LVL98:
 1062              	.LBB92:
 1063              	.LBB93:
  20:src/../h/circular_buffer.hpp **** 
 1064              		.loc 3 20 53
 1065 0598 97070000 		la	a5,_ZN9Scheduler12low_priorityE
 1065      83B70700 
 1066 05a0 83A70701 		lw	a5,16(a5)
 1067              	.LVL99:
 1068              	.LBE93:
 1069              	.LBE92:
 1070              		.loc 5 17 68
 1071 05a4 63940704 		bnez	a5,.L47
 1072              	.LBE87:
 1073              	.LBE86:
  48:src/c_thread.cpp ****         TCB::running = handle_bleya;
 1074              		.loc 1 48 9 is_stmt 1
  48:src/c_thread.cpp ****         TCB::running = handle_bleya;
 1075              		.loc 1 48 22 is_stmt 0
 1076 05a8 97070000 		la	a5,handle_bleya
 1076      83B70700 
 1077 05b0 83B70700 		ld	a5,0(a5)
 1078 05b4 17070000 		sd	a5,.LANCHOR0,a4
 1078      2330F700 
 1079 05bc 6F004005 		j	.L45
 1080              	.L49:
  45:src/c_thread.cpp ****         Allocator::_mem_free(old->stack);
 1081              		.loc 1 45 9 is_stmt 1
  45:src/c_thread.cpp ****         Allocator::_mem_free(old->stack);
 1082              		.loc 1 45 29 is_stmt 0
 1083 05c0 03B58401 		ld	a0,24(s1)
 1084 05c4 97000000 		call	_ZN9Allocator9_mem_freeEPKv@plt
 1084      E7800000 
 1085              	.LVL100:
 1086 05cc 6FF0DFFA 		j	.L43
 1087              	.L50:
  51:src/c_thread.cpp ****             Allocator::_mem_free(TCB::destroy_thread(Scheduler::get())->stack);
 1088              		.loc 1 51 13 is_stmt 1
  51:src/c_thread.cpp ****             Allocator::_mem_free(TCB::destroy_thread(Scheduler::get())->stack);
 1089              		.loc 1 51 53 is_stmt 0
 1090 05d0 97000000 		call	_ZN9Scheduler3getEv@plt
 1090      E7800000 
 1091              	.LVL101:
 1092 05d8 97000000 		call	_ZN3TCB14destroy_threadEPS_
 1092      E7800000 
 1093              	.LVL102:
  51:src/c_thread.cpp ****             Allocator::_mem_free(TCB::destroy_thread(Scheduler::get())->stack);
 1094              		.loc 1 51 33
 1095 05e0 03358501 		ld	a0,24(a0)
 1096 05e4 97000000 		call	_ZN9Allocator9_mem_freeEPKv@plt
 1096      E7800000 
 1097              	.LVL103:
 1098              	.L47:
  50:src/c_thread.cpp ****         while (Scheduler::peek()->is_finished()) {
 1099              		.loc 1 50 9 is_stmt 1
GAS LISTING /tmp/ccpRKKRm.s 			page 32


  50:src/c_thread.cpp ****         while (Scheduler::peek()->is_finished()) {
 1100              		.loc 1 50 46
 1101 05ec 97000000 		call	_ZN9Scheduler4peekEv@plt
 1101      E7800000 
 1102              	.LVL104:
 1103              	.LBB94:
 1104              	.LBB95:
  67:src/../h/c_thread.hpp **** 
 1105              		.loc 2 67 32
  67:src/../h/c_thread.hpp **** 
 1106              		.loc 2 67 45 is_stmt 0
 1107 05f4 03278504 		lw	a4,72(a0)
 1108              	.LVL105:
 1109              	.LBE95:
 1110              	.LBE94:
  50:src/c_thread.cpp ****         while (Scheduler::peek()->is_finished()) {
 1111              		.loc 1 50 46
 1112 05f8 93074000 		li	a5,4
 1113 05fc E30AF7FC 		beq	a4,a5,.L50
  53:src/c_thread.cpp ****         TCB::running = Scheduler::get();
 1114              		.loc 1 53 9 is_stmt 1
  53:src/c_thread.cpp ****         TCB::running = Scheduler::get();
 1115              		.loc 1 53 38 is_stmt 0
 1116 0600 97000000 		call	_ZN9Scheduler3getEv@plt
 1116      E7800000 
 1117              	.LVL106:
  53:src/c_thread.cpp ****         TCB::running = Scheduler::get();
 1118              		.loc 1 53 22
 1119 0608 97070000 		sd	a0,.LANCHOR0,a5
 1119      23B0A700 
 1120              	.L45:
  55:src/c_thread.cpp ****     Riscv::w_sstatus(TCB::running->context.sstatus);
 1121              		.loc 1 55 5 is_stmt 1
  55:src/c_thread.cpp ****     Riscv::w_sstatus(TCB::running->context.sstatus);
 1122              		.loc 1 55 21 is_stmt 0
 1123 0610 97050000 		ld	a1,.LANCHOR0
 1123      83B50500 
 1124 0618 83B78503 		ld	a5,56(a1)
 1125              	.LVL107:
 1126              	.LBB96:
 1127              	.LBB97:
 169:src/../h/riscv.hpp **** }
 170:src/../h/riscv.hpp **** 
 171:src/../h/riscv.hpp **** inline void Riscv::w_sstatus(uint64 sstatus) {
 172:src/../h/riscv.hpp ****     __asm__ volatile ("csrw sstatus, %[sstatus]" : : [sstatus] "r"(sstatus));
 1128              		.loc 4 172 5 is_stmt 1
 1129              		.loc 4 172 77 is_stmt 0
 1130              	#APP
 1131              	# 172 "src/../h/riscv.hpp" 1
 173              	}
 1132              		csrw sstatus, a5
 1133              	# 0 "" 2
 1134              	.LVL108:
 1135              	#NO_APP
 1136              	.LBE97:
 1137              	.LBE96:
  56:src/c_thread.cpp ****     Riscv::w_sepc(TCB::running->context.sepc);
GAS LISTING /tmp/ccpRKKRm.s 			page 33


 1138              		.loc 1 56 5 is_stmt 1
  56:src/c_thread.cpp ****     Riscv::w_sepc(TCB::running->context.sepc);
 1139              		.loc 1 56 18 is_stmt 0
 1140 0620 83B70504 		ld	a5,64(a1)
 1141              	.LVL109:
 1142              	.LBB98:
 1143              	.LBB99:
 116:src/../h/riscv.hpp **** }
 1144              		.loc 4 116 5 is_stmt 1
 116:src/../h/riscv.hpp **** }
 1145              		.loc 4 116 65 is_stmt 0
 1146              	#APP
 1147              	# 116 "src/../h/riscv.hpp" 1
 1148              		csrw sepc, a5
 1149              	# 0 "" 2
 1150              	.LVL110:
 1151              	#NO_APP
 1152              	.LBE99:
 1153              	.LBE98:
  57:src/c_thread.cpp ****     TCB::context_switch(&old->context, &TCB::running->context);
 1154              		.loc 1 57 5 is_stmt 1
  57:src/c_thread.cpp ****     TCB::context_switch(&old->context, &TCB::running->context);
 1155              		.loc 1 57 24 is_stmt 0
 1156 0628 93858502 		addi	a1,a1,40
 1157 062c 13858402 		addi	a0,s1,40
 1158 0630 97000000 		call	_ZN3TCB14context_switchEP7ContextS1_@plt
 1158      E7800000 
 1159              	.LVL111:
  58:src/c_thread.cpp **** }
 1160              		.loc 1 58 1
 1161 0638 83308102 		ld	ra,40(sp)
 1162              		.cfi_restore 1
 1163 063c 03340102 		ld	s0,32(sp)
 1164              		.cfi_restore 8
 1165              		.cfi_def_cfa 2, 48
 1166 0640 83348101 		ld	s1,24(sp)
 1167              		.cfi_restore 9
 1168              	.LVL112:
 1169 0644 13010103 		addi	sp,sp,48
 1170              		.cfi_def_cfa_offset 0
 1171 0648 67800000 		jr	ra
 1172              		.cfi_endproc
 1173              	.LFE56:
 1175              		.align	2
 1176              		.globl	_ZN3TCB16_thread_dispatchEv
 1178              	_ZN3TCB16_thread_dispatchEv:
 1179              	.LFB57:
  60:src/c_thread.cpp **** void TCB::_thread_dispatch() {
 1180              		.loc 1 60 30 is_stmt 1
 1181              		.cfi_startproc
 1182 064c 130101FF 		addi	sp,sp,-16
 1183              		.cfi_def_cfa_offset 16
 1184 0650 23341100 		sd	ra,8(sp)
 1185 0654 23308100 		sd	s0,0(sp)
 1186              		.cfi_offset 1, -8
 1187              		.cfi_offset 8, -16
 1188 0658 13040101 		addi	s0,sp,16
GAS LISTING /tmp/ccpRKKRm.s 			page 34


 1189              		.cfi_def_cfa 8, 0
  61:src/c_thread.cpp ****     Riscv::push();
 1190              		.loc 1 61 5
  61:src/c_thread.cpp ****     Riscv::push();
 1191              		.loc 1 61 16 is_stmt 0
 1192 065c 97000000 		call	_ZN5Riscv4pushEv@plt
 1192      E7800000 
 1193              	.LVL113:
  62:src/c_thread.cpp ****     TCB::yield();
 1194              		.loc 1 62 5 is_stmt 1
  62:src/c_thread.cpp ****     TCB::yield();
 1195              		.loc 1 62 15 is_stmt 0
 1196 0664 97000000 		call	_ZN3TCB5yieldEv
 1196      E7800000 
 1197              	.LVL114:
  63:src/c_thread.cpp ****     Riscv::pop();
 1198              		.loc 1 63 5 is_stmt 1
  63:src/c_thread.cpp ****     Riscv::pop();
 1199              		.loc 1 63 15 is_stmt 0
 1200 066c 97000000 		call	_ZN5Riscv3popEv@plt
 1200      E7800000 
 1201              	.LVL115:
  64:src/c_thread.cpp **** }
 1202              		.loc 1 64 1
 1203 0674 83308100 		ld	ra,8(sp)
 1204              		.cfi_restore 1
 1205 0678 03340100 		ld	s0,0(sp)
 1206              		.cfi_restore 8
 1207              		.cfi_def_cfa 2, 16
 1208 067c 13010101 		addi	sp,sp,16
 1209              		.cfi_def_cfa_offset 0
 1210 0680 67800000 		jr	ra
 1211              		.cfi_endproc
 1212              	.LFE57:
 1214              		.align	2
 1215              		.globl	_ZN3TCB12_thread_exitEv
 1217              	_ZN3TCB12_thread_exitEv:
 1218              	.LFB59:
  78:src/c_thread.cpp **** void TCB::_thread_exit() {
 1219              		.loc 1 78 26 is_stmt 1
 1220              		.cfi_startproc
 1221 0684 130101FF 		addi	sp,sp,-16
 1222              		.cfi_def_cfa_offset 16
 1223 0688 23341100 		sd	ra,8(sp)
 1224 068c 23308100 		sd	s0,0(sp)
 1225              		.cfi_offset 1, -8
 1226              		.cfi_offset 8, -16
 1227 0690 13040101 		addi	s0,sp,16
 1228              		.cfi_def_cfa 8, 0
  79:src/c_thread.cpp ****     TCB::running->finish();
 1229              		.loc 1 79 5
  79:src/c_thread.cpp ****     TCB::running->finish();
 1230              		.loc 1 79 25 is_stmt 0
 1231 0694 17050000 		ld	a0,.LANCHOR0
 1231      03350500 
 1232              	.LVL116:
 1233              	.LBB100:
GAS LISTING /tmp/ccpRKKRm.s 			page 35


 1234              	.LBB101:
 1235              		.loc 2 77 21 is_stmt 1
 1236              		.loc 2 77 34 is_stmt 0
 1237 069c 93074000 		li	a5,4
 1238 06a0 2324F504 		sw	a5,72(a0)
 1239              	.LVL117:
 1240              	.LBE101:
 1241              	.LBE100:
  80:src/c_thread.cpp ****     TCB::destroy_thread(TCB::running);
 1242              		.loc 1 80 5 is_stmt 1
  80:src/c_thread.cpp ****     TCB::destroy_thread(TCB::running);
 1243              		.loc 1 80 24 is_stmt 0
 1244 06a4 97000000 		call	_ZN3TCB14destroy_threadEPS_
 1244      E7800000 
 1245              	.LVL118:
  81:src/c_thread.cpp ****     TCB::_thread_dispatch();
 1246              		.loc 1 81 5 is_stmt 1
  81:src/c_thread.cpp ****     TCB::_thread_dispatch();
 1247              		.loc 1 81 26 is_stmt 0
 1248 06ac 97000000 		call	_ZN3TCB16_thread_dispatchEv
 1248      E7800000 
 1249              	.LVL119:
  82:src/c_thread.cpp **** }
 1250              		.loc 1 82 1
 1251 06b4 83308100 		ld	ra,8(sp)
 1252              		.cfi_restore 1
 1253 06b8 03340100 		ld	s0,0(sp)
 1254              		.cfi_restore 8
 1255              		.cfi_def_cfa 2, 16
 1256 06bc 13010101 		addi	sp,sp,16
 1257              		.cfi_def_cfa_offset 0
 1258 06c0 67800000 		jr	ra
 1259              		.cfi_endproc
 1260              	.LFE59:
 1262              		.section	.text._ZN2os14CircularBufferIP3TCBE6extendEv,"axG",@progbits,_ZN2os14CircularBufferIP3TCB
 1263              		.align	2
 1264              		.weak	_ZN2os14CircularBufferIP3TCBE6extendEv
 1266              	_ZN2os14CircularBufferIP3TCBE6extendEv:
 1267              	.LFB72:
  70:src/../h/circular_buffer.hpp ****     T *new_queue = (T *) Allocator::_mem_alloc(sizeof(T *) * this->capacity * 2);
 1268              		.loc 3 70 6 is_stmt 1
 1269              		.cfi_startproc
 1270              	.LVL120:
 1271 0000 130101FE 		addi	sp,sp,-32
 1272              		.cfi_def_cfa_offset 32
 1273 0004 233C1100 		sd	ra,24(sp)
 1274 0008 23388100 		sd	s0,16(sp)
 1275 000c 23349100 		sd	s1,8(sp)
 1276 0010 23302101 		sd	s2,0(sp)
 1277              		.cfi_offset 1, -8
 1278              		.cfi_offset 8, -16
 1279              		.cfi_offset 9, -24
 1280              		.cfi_offset 18, -32
 1281 0014 13040102 		addi	s0,sp,32
 1282              		.cfi_def_cfa 8, 0
 1283 0018 93040500 		mv	s1,a0
  71:src/../h/circular_buffer.hpp ****     for (int i = 0, j = this->head; i < this->capacity; i++, j = (j + 1) % this->capacity)
GAS LISTING /tmp/ccpRKKRm.s 			page 36


 1284              		.loc 3 71 68 is_stmt 0
 1285 001c 03254501 		lw	a0,20(a0)
 1286              	.LVL121:
  71:src/../h/circular_buffer.hpp ****     for (int i = 0, j = this->head; i < this->capacity; i++, j = (j + 1) % this->capacity)
 1287              		.loc 3 71 47
 1288 0020 13154500 		slli	a0,a0,4
 1289 0024 97000000 		call	_ZN9Allocator10_mem_allocEm@plt
 1289      E7800000 
 1290              	.LVL122:
 1291 002c 13090500 		mv	s2,a0
 1292              	.LVL123:
 1293              	.LBB102:
  72:src/../h/circular_buffer.hpp ****         new_queue[i] = this->queue[j];
 1294              		.loc 3 72 21
 1295 0030 83A78400 		lw	a5,8(s1)
 1296              	.LVL124:
  72:src/../h/circular_buffer.hpp ****         new_queue[i] = this->queue[j];
 1297              		.loc 3 72 14
 1298 0034 13070000 		li	a4,0
 1299              	.LVL125:
 1300              	.L57:
  72:src/../h/circular_buffer.hpp ****         new_queue[i] = this->queue[j];
 1301              		.loc 3 72 39 is_stmt 1 discriminator 3
  72:src/../h/circular_buffer.hpp ****         new_queue[i] = this->queue[j];
 1302              		.loc 3 72 47 is_stmt 0 discriminator 3
 1303 0038 83A64401 		lw	a3,20(s1)
  72:src/../h/circular_buffer.hpp ****         new_queue[i] = this->queue[j];
 1304              		.loc 3 72 39 discriminator 3
 1305 003c 635AD702 		ble	a3,a4,.L56
  73:src/../h/circular_buffer.hpp ****     Allocator::_mem_free(queue);
 1306              		.loc 3 73 30 discriminator 2
 1307 0040 03B60400 		ld	a2,0(s1)
  73:src/../h/circular_buffer.hpp ****     Allocator::_mem_free(queue);
 1308              		.loc 3 73 18 discriminator 2
 1309 0044 93163700 		slli	a3,a4,3
 1310 0048 B306D900 		add	a3,s2,a3
  73:src/../h/circular_buffer.hpp ****     Allocator::_mem_free(queue);
 1311              		.loc 3 73 35 discriminator 2
 1312 004c 93953700 		slli	a1,a5,3
 1313 0050 3306B600 		add	a2,a2,a1
 1314 0054 03360600 		ld	a2,0(a2)
  73:src/../h/circular_buffer.hpp ****     Allocator::_mem_free(queue);
 1315              		.loc 3 73 9 discriminator 2
 1316 0058 23B0C600 		sd	a2,0(a3)
  72:src/../h/circular_buffer.hpp ****         new_queue[i] = this->queue[j];
 1317              		.loc 3 72 5 is_stmt 1 discriminator 2
 1318 005c 1B071700 		addiw	a4,a4,1
 1319              	.LVL126:
  72:src/../h/circular_buffer.hpp ****         new_queue[i] = this->queue[j];
 1320              		.loc 3 72 69 is_stmt 0 discriminator 2
 1321 0060 9B871700 		addiw	a5,a5,1
 1322              	.LVL127:
  72:src/../h/circular_buffer.hpp ****         new_queue[i] = this->queue[j];
 1323              		.loc 3 72 82 discriminator 2
 1324 0064 83A64401 		lw	a3,20(s1)
  72:src/../h/circular_buffer.hpp ****         new_queue[i] = this->queue[j];
 1325              		.loc 3 72 5 discriminator 2
GAS LISTING /tmp/ccpRKKRm.s 			page 37


 1326 0068 BBE7D702 		remw	a5,a5,a3
 1327              	.LVL128:
 1328 006c 6FF0DFFC 		j	.L57
 1329              	.LVL129:
 1330              	.L56:
 1331              	.LBE102:
  74:src/../h/circular_buffer.hpp ****     this->queue = new_queue;
 1332              		.loc 3 74 25
 1333 0070 03B50400 		ld	a0,0(s1)
 1334              	.LVL130:
 1335 0074 97000000 		call	_ZN9Allocator9_mem_freeEPKv@plt
 1335      E7800000 
 1336              	.LVL131:
  75:src/../h/circular_buffer.hpp ****     this->head = 0;
 1337              		.loc 3 75 5
 1338 007c 23B02401 		sd	s2,0(s1)
  76:src/../h/circular_buffer.hpp ****     this->tail = this->capacity;
 1339              		.loc 3 76 5
 1340 0080 23A40400 		sw	zero,8(s1)
  77:src/../h/circular_buffer.hpp ****     this->capacity *= 2;
 1341              		.loc 3 77 24
 1342 0084 83A74401 		lw	a5,20(s1)
  77:src/../h/circular_buffer.hpp ****     this->capacity *= 2;
 1343              		.loc 3 77 5
 1344 0088 23A6F400 		sw	a5,12(s1)
  78:src/../h/circular_buffer.hpp **** }
 1345              		.loc 3 78 20
 1346 008c 9B971700 		slliw	a5,a5,1
  78:src/../h/circular_buffer.hpp **** }
 1347              		.loc 3 78 5
 1348 0090 23AAF400 		sw	a5,20(s1)
  79:src/../h/circular_buffer.hpp **** 
 1349              		.loc 3 79 1
 1350 0094 83308101 		ld	ra,24(sp)
 1351              		.cfi_restore 1
 1352 0098 03340101 		ld	s0,16(sp)
 1353              		.cfi_restore 8
 1354              		.cfi_def_cfa 2, 32
 1355 009c 83348100 		ld	s1,8(sp)
 1356              		.cfi_restore 9
 1357              	.LVL132:
 1358 00a0 03390100 		ld	s2,0(sp)
 1359              		.cfi_restore 18
 1360              	.LVL133:
 1361 00a4 13010102 		addi	sp,sp,32
 1362              		.cfi_def_cfa_offset 0
 1363 00a8 67800000 		jr	ra
 1364              		.cfi_endproc
 1365              	.LFE72:
 1367              		.section	.text._ZN2os14CircularBufferIP3TCBE3putES2_,"axG",@progbits,_ZN2os14CircularBufferIP3TCBE
 1368              		.align	2
 1369              		.weak	_ZN2os14CircularBufferIP3TCBE3putES2_
 1371              	_ZN2os14CircularBufferIP3TCBE3putES2_:
 1372              	.LFB71:
  47:src/../h/circular_buffer.hpp ****     if (this->size == this->capacity) {
 1373              		.loc 3 47 6 is_stmt 1
 1374              		.cfi_startproc
GAS LISTING /tmp/ccpRKKRm.s 			page 38


 1375              	.LVL134:
 1376 0000 130101FE 		addi	sp,sp,-32
 1377              		.cfi_def_cfa_offset 32
 1378 0004 233C1100 		sd	ra,24(sp)
 1379 0008 23388100 		sd	s0,16(sp)
 1380 000c 23349100 		sd	s1,8(sp)
 1381 0010 23302101 		sd	s2,0(sp)
 1382              		.cfi_offset 1, -8
 1383              		.cfi_offset 8, -16
 1384              		.cfi_offset 9, -24
 1385              		.cfi_offset 18, -32
 1386 0014 13040102 		addi	s0,sp,32
 1387              		.cfi_def_cfa 8, 0
 1388 0018 93040500 		mv	s1,a0
 1389 001c 13890500 		mv	s2,a1
  48:src/../h/circular_buffer.hpp ****         this->extend();
 1390              		.loc 3 48 15 is_stmt 0
 1391 0020 03270501 		lw	a4,16(a0)
  48:src/../h/circular_buffer.hpp ****         this->extend();
 1392              		.loc 3 48 29
 1393 0024 83274501 		lw	a5,20(a0)
  48:src/../h/circular_buffer.hpp ****         this->extend();
 1394              		.loc 3 48 5
 1395 0028 6308F704 		beq	a4,a5,.L62
 1396              	.LVL135:
 1397              	.L60:
  51:src/../h/circular_buffer.hpp ****     this->tail = (this->tail + 1) % this->capacity;
 1398              		.loc 3 51 11
 1399 002c 83B70400 		ld	a5,0(s1)
  51:src/../h/circular_buffer.hpp ****     this->tail = (this->tail + 1) % this->capacity;
 1400              		.loc 3 51 23
 1401 0030 03A7C400 		lw	a4,12(s1)
  51:src/../h/circular_buffer.hpp ****     this->tail = (this->tail + 1) % this->capacity;
 1402              		.loc 3 51 16
 1403 0034 13173700 		slli	a4,a4,3
 1404 0038 B387E700 		add	a5,a5,a4
  51:src/../h/circular_buffer.hpp ****     this->tail = (this->tail + 1) % this->capacity;
 1405              		.loc 3 51 5
 1406 003c 23B02701 		sd	s2,0(a5)
  52:src/../h/circular_buffer.hpp ****     this->size++;
 1407              		.loc 3 52 25
 1408 0040 83A7C400 		lw	a5,12(s1)
  52:src/../h/circular_buffer.hpp ****     this->size++;
 1409              		.loc 3 52 30
 1410 0044 9B871700 		addiw	a5,a5,1
  52:src/../h/circular_buffer.hpp ****     this->size++;
 1411              		.loc 3 52 43
 1412 0048 03A74401 		lw	a4,20(s1)
  52:src/../h/circular_buffer.hpp ****     this->size++;
 1413              		.loc 3 52 35
 1414 004c BBE7E702 		remw	a5,a5,a4
  52:src/../h/circular_buffer.hpp ****     this->size++;
 1415              		.loc 3 52 5
 1416 0050 23A6F400 		sw	a5,12(s1)
  53:src/../h/circular_buffer.hpp **** }
 1417              		.loc 3 53 11
 1418 0054 83A70401 		lw	a5,16(s1)
GAS LISTING /tmp/ccpRKKRm.s 			page 39


  53:src/../h/circular_buffer.hpp **** }
 1419              		.loc 3 53 5
 1420 0058 9B871700 		addiw	a5,a5,1
 1421 005c 23A8F400 		sw	a5,16(s1)
  54:src/../h/circular_buffer.hpp **** 
 1422              		.loc 3 54 1
 1423 0060 83308101 		ld	ra,24(sp)
 1424              		.cfi_remember_state
 1425              		.cfi_restore 1
 1426 0064 03340101 		ld	s0,16(sp)
 1427              		.cfi_restore 8
 1428              		.cfi_def_cfa 2, 32
 1429 0068 83348100 		ld	s1,8(sp)
 1430              		.cfi_restore 9
 1431              	.LVL136:
 1432 006c 03390100 		ld	s2,0(sp)
 1433              		.cfi_restore 18
 1434              	.LVL137:
 1435 0070 13010102 		addi	sp,sp,32
 1436              		.cfi_def_cfa_offset 0
 1437 0074 67800000 		jr	ra
 1438              	.LVL138:
 1439              	.L62:
 1440              		.cfi_restore_state
  49:src/../h/circular_buffer.hpp ****     }
 1441              		.loc 3 49 9
 1442 0078 97000000 		call	_ZN2os14CircularBufferIP3TCBE6extendEv
 1442      E7800000 
 1443              	.LVL139:
 1444 0080 6FF0DFFA 		j	.L60
 1445              		.cfi_endproc
 1446              	.LFE71:
 1448              		.text
 1449              		.align	2
 1450              		.globl	_ZN3TCB12_thread_joinEPS_
 1452              	_ZN3TCB12_thread_joinEPS_:
 1453              	.LFB60:
  84:src/c_thread.cpp **** void TCB::_thread_join(thread_t handle) {
 1454              		.loc 1 84 41 is_stmt 1
 1455              		.cfi_startproc
 1456              	.LVL140:
  85:src/c_thread.cpp ****     if (handle->is_finished())
 1457              		.loc 1 85 5
 1458              	.LBB103:
 1459              	.LBB104:
  67:src/../h/c_thread.hpp **** 
 1460              		.loc 2 67 32
  67:src/../h/c_thread.hpp **** 
 1461              		.loc 2 67 45 is_stmt 0
 1462 06c4 03278504 		lw	a4,72(a0)
 1463              	.LVL141:
 1464              	.LBE104:
 1465              	.LBE103:
  85:src/c_thread.cpp ****     if (handle->is_finished())
 1466              		.loc 1 85 5
 1467 06c8 93074000 		li	a5,4
 1468 06cc 6304F704 		beq	a4,a5,.L66
GAS LISTING /tmp/ccpRKKRm.s 			page 40


  84:src/c_thread.cpp **** void TCB::_thread_join(thread_t handle) {
 1469              		.loc 1 84 41
 1470 06d0 130101FF 		addi	sp,sp,-16
 1471              		.cfi_def_cfa_offset 16
 1472 06d4 23341100 		sd	ra,8(sp)
 1473 06d8 23308100 		sd	s0,0(sp)
 1474              		.cfi_offset 1, -8
 1475              		.cfi_offset 8, -16
 1476 06dc 13040101 		addi	s0,sp,16
 1477              		.cfi_def_cfa 8, 0
  87:src/c_thread.cpp ****     TCB::running->enjoin();
 1478              		.loc 1 87 5 is_stmt 1
  87:src/c_thread.cpp ****     TCB::running->enjoin();
 1479              		.loc 1 87 25 is_stmt 0
 1480 06e0 97050000 		ld	a1,.LANCHOR0
 1480      83B50500 
 1481              	.LVL142:
 1482              	.LBB105:
 1483              	.LBB106:
  75:src/../h/c_thread.hpp **** 
 1484              		.loc 2 75 21 is_stmt 1
  75:src/../h/c_thread.hpp **** 
 1485              		.loc 2 75 34 is_stmt 0
 1486 06e8 93073000 		li	a5,3
 1487 06ec 23A4F504 		sw	a5,72(a1)
 1488              	.LVL143:
 1489              	.LBE106:
 1490              	.LBE105:
  88:src/c_thread.cpp ****     handle->joiner.put(TCB::running);
 1491              		.loc 1 88 5 is_stmt 1
  88:src/c_thread.cpp ****     handle->joiner.put(TCB::running);
 1492              		.loc 1 88 23 is_stmt 0
 1493 06f0 13050506 		addi	a0,a0,96
 1494              	.LVL144:
 1495 06f4 97000000 		call	_ZN2os14CircularBufferIP3TCBE3putES2_
 1495      E7800000 
 1496              	.LVL145:
  89:src/c_thread.cpp ****     TCB::_thread_dispatch();
 1497              		.loc 1 89 5 is_stmt 1
  89:src/c_thread.cpp ****     TCB::_thread_dispatch();
 1498              		.loc 1 89 26 is_stmt 0
 1499 06fc 97000000 		call	_ZN3TCB16_thread_dispatchEv
 1499      E7800000 
 1500              	.LVL146:
  90:src/c_thread.cpp **** }
 1501              		.loc 1 90 1
 1502 0704 83308100 		ld	ra,8(sp)
 1503              		.cfi_restore 1
 1504 0708 03340100 		ld	s0,0(sp)
 1505              		.cfi_restore 8
 1506              		.cfi_def_cfa 2, 16
 1507 070c 13010101 		addi	sp,sp,16
 1508              		.cfi_def_cfa_offset 0
 1509 0710 67800000 		jr	ra
 1510              	.LVL147:
 1511              	.L66:
 1512 0714 67800000 		ret
GAS LISTING /tmp/ccpRKKRm.s 			page 41


 1513              		.cfi_endproc
 1514              	.LFE60:
 1516              		.align	2
 1517              		.globl	_ZN3TCB12_thread_joinEPS_m
 1519              	_ZN3TCB12_thread_joinEPS_m:
 1520              	.LFB61:
  92:src/c_thread.cpp **** void TCB::_thread_join(thread_t handle, time_t time) {
 1521              		.loc 1 92 54 is_stmt 1
 1522              		.cfi_startproc
 1523              	.LVL148:
  93:src/c_thread.cpp ****     if (handle->is_finished())
 1524              		.loc 1 93 5
 1525              	.LBB107:
 1526              	.LBB108:
  67:src/../h/c_thread.hpp **** 
 1527              		.loc 2 67 32
  67:src/../h/c_thread.hpp **** 
 1528              		.loc 2 67 45 is_stmt 0
 1529 0718 03278504 		lw	a4,72(a0)
 1530              	.LVL149:
 1531              	.LBE108:
 1532              	.LBE107:
  93:src/c_thread.cpp ****     if (handle->is_finished())
 1533              		.loc 1 93 5
 1534 071c 93074000 		li	a5,4
 1535 0720 6308F706 		beq	a4,a5,.L72
  92:src/c_thread.cpp **** void TCB::_thread_join(thread_t handle, time_t time) {
 1536              		.loc 1 92 54
 1537 0724 130101FE 		addi	sp,sp,-32
 1538              		.cfi_def_cfa_offset 32
 1539 0728 233C1100 		sd	ra,24(sp)
 1540 072c 23388100 		sd	s0,16(sp)
 1541 0730 23349100 		sd	s1,8(sp)
 1542 0734 23302101 		sd	s2,0(sp)
 1543              		.cfi_offset 1, -8
 1544              		.cfi_offset 8, -16
 1545              		.cfi_offset 9, -24
 1546              		.cfi_offset 18, -32
 1547 0738 13040102 		addi	s0,sp,32
 1548              		.cfi_def_cfa 8, 0
 1549 073c 93840500 		mv	s1,a1
  95:src/c_thread.cpp ****     TCB::running->enjoin();
 1550              		.loc 1 95 5 is_stmt 1
  95:src/c_thread.cpp ****     TCB::running->enjoin();
 1551              		.loc 1 95 25 is_stmt 0
 1552 0740 17090000 		lla	s2,.LANCHOR0
 1552      13090900 
 1553 0748 83350900 		ld	a1,0(s2)
 1554              	.LVL150:
 1555              	.LBB109:
 1556              	.LBB110:
  75:src/../h/c_thread.hpp **** 
 1557              		.loc 2 75 21 is_stmt 1
  75:src/../h/c_thread.hpp **** 
 1558              		.loc 2 75 34 is_stmt 0
 1559 074c 93073000 		li	a5,3
 1560 0750 23A4F504 		sw	a5,72(a1)
GAS LISTING /tmp/ccpRKKRm.s 			page 42


 1561              	.LVL151:
 1562              	.LBE110:
 1563              	.LBE109:
  96:src/c_thread.cpp ****     handle->joiner.put(TCB::running);
 1564              		.loc 1 96 5 is_stmt 1
  96:src/c_thread.cpp ****     handle->joiner.put(TCB::running);
 1565              		.loc 1 96 23 is_stmt 0
 1566 0754 13050506 		addi	a0,a0,96
 1567              	.LVL152:
 1568 0758 97000000 		call	_ZN2os14CircularBufferIP3TCBE3putES2_
 1568      E7800000 
 1569              	.LVL153:
  97:src/c_thread.cpp ****     Cradle::insert(TCB::running, time);
 1570              		.loc 1 97 5 is_stmt 1
  97:src/c_thread.cpp ****     Cradle::insert(TCB::running, time);
 1571              		.loc 1 97 19 is_stmt 0
 1572 0760 93850400 		mv	a1,s1
 1573 0764 03350900 		ld	a0,0(s2)
 1574 0768 97000000 		call	_ZN6Cradle6insertEP3TCBm@plt
 1574      E7800000 
 1575              	.LVL154:
  98:src/c_thread.cpp ****     TCB::_thread_dispatch();
 1576              		.loc 1 98 5 is_stmt 1
  98:src/c_thread.cpp ****     TCB::_thread_dispatch();
 1577              		.loc 1 98 26 is_stmt 0
 1578 0770 97000000 		call	_ZN3TCB16_thread_dispatchEv
 1578      E7800000 
 1579              	.LVL155:
  99:src/c_thread.cpp **** }
 1580              		.loc 1 99 1
 1581 0778 83308101 		ld	ra,24(sp)
 1582              		.cfi_restore 1
 1583 077c 03340101 		ld	s0,16(sp)
 1584              		.cfi_restore 8
 1585              		.cfi_def_cfa 2, 32
 1586 0780 83348100 		ld	s1,8(sp)
 1587              		.cfi_restore 9
 1588              	.LVL156:
 1589 0784 03390100 		ld	s2,0(sp)
 1590              		.cfi_restore 18
 1591 0788 13010102 		addi	sp,sp,32
 1592              		.cfi_def_cfa_offset 0
 1593 078c 67800000 		jr	ra
 1594              	.LVL157:
 1595              	.L72:
 1596 0790 67800000 		ret
 1597              		.cfi_endproc
 1598              	.LFE61:
 1600              		.globl	_ZN3TCB13timer_counterE
 1601              		.globl	_ZN3TCB7runningE
 1602              		.globl	_ZN3TCB2IDE
 1603              		.bss
 1604              		.align	3
 1605              		.set	.LANCHOR0,. + 0
 1608              	_ZN3TCB7runningE:
 1609 0000 00000000 		.zero	8
 1609      00000000 
GAS LISTING /tmp/ccpRKKRm.s 			page 43


 1612              	_ZN3TCB2IDE:
 1613 0008 00000000 		.zero	4
 1614 000c 00000000 		.zero	4
 1617              	_ZN3TCB13timer_counterE:
 1618 0010 00000000 		.zero	8
 1618      00000000 
 1619              		.text
 1620              	.Letext0:
 1621              		.file 6 "src/../h/../lib/hw.h"
 1622              		.file 7 "src/../h/c_memory.hpp"
 1623              		.file 8 "src/../h/syscall_c.hpp"
 1624              		.file 9 "src/../h/c_sleep.hpp"
 1625              		.file 10 "src/../h/c_console.hpp"
 7007              		.align	3
 7010              	DW.ref.__gxx_personality_v0:
 7011 0000 00000000 		.dword	__gxx_personality_v0
 7011      00000000 
 7012              		.ident	"GCC: (Ubuntu 9.4.0-1ubuntu1~20.04) 9.4.0"
 7013              		.section	.note.GNU-stack,"",@progbits
GAS LISTING /tmp/ccpRKKRm.s 			page 44

