GAS LISTING /tmp/ccSq2scT.s 			page 1


   1              		.file	"c_thread.cpp"
   2              		.option pic
   3              		.option norelax
   4              		.text
   5              	.Ltext0:
   6              		.align	2
   7              		.globl	_ZN3TCB12thread_startEv
   9              	_ZN3TCB12thread_startEv:
  10              	.LFB59:
  11              		.file 1 "src/c_thread.cpp"
   1:src/c_thread.cpp **** #include "../h/scheduler.hpp"
   2:src/c_thread.cpp **** #include "../h/riscv.hpp"
   3:src/c_thread.cpp **** #include "../h/c_console.hpp"
   4:src/c_thread.cpp **** #include "../h/c_thread.hpp"
   5:src/c_thread.cpp **** #include "../h/c_sleep.hpp"
   6:src/c_thread.cpp **** 
   7:src/c_thread.cpp **** int TCB::ID = 0;
   8:src/c_thread.cpp **** TCB *TCB::running = nullptr;
   9:src/c_thread.cpp **** time_t TCB::timer_counter = 0;
  10:src/c_thread.cpp **** typedef TCB *thread_t;
  11:src/c_thread.cpp **** extern thread_t handle_bleya;
  12:src/c_thread.cpp **** 
  13:src/c_thread.cpp **** TCB::TCB(run_t start_routine, void *arg, void *stack, Context context) :
  14:src/c_thread.cpp ****         t_id(TCB::ID++), _run(start_routine), arg(arg),
  15:src/c_thread.cpp ****         stack(stack), parent(TCB::running),
  16:src/c_thread.cpp ****         context(context), status(RUNNABLE),
  17:src/c_thread.cpp ****         time_slice(DEFAULT_TIME_SLICE), preempted(false), joiner() {
  18:src/c_thread.cpp ****     this->joiner.init();
  19:src/c_thread.cpp ****     this->parent = TCB::running;
  20:src/c_thread.cpp **** }
  21:src/c_thread.cpp **** 
  22:src/c_thread.cpp **** TCB::TCB(TCB &parent) :
  23:src/c_thread.cpp ****         t_id(TCB::ID++), _run(parent._run), arg(parent.arg),
  24:src/c_thread.cpp ****         stack(Allocator::_mem_alloc(DEFAULT_STACK_SIZE)),
  25:src/c_thread.cpp ****         parent(&parent), context(parent.context), status(RUNNABLE), time_slice(DEFAULT_TIME_SLICE),
  26:src/c_thread.cpp ****         preempted(false), joiner() {
  27:src/c_thread.cpp ****     this->joiner.init();
  28:src/c_thread.cpp ****     Scheduler::put(this);
  29:src/c_thread.cpp **** }
  30:src/c_thread.cpp **** 
  31:src/c_thread.cpp **** int TCB::_thread_create(thread_t *handle, void(*start_routine)(void *), void *arg, void *stack) {
  32:src/c_thread.cpp ****     *handle = new TCB(start_routine, arg, stack, {(uint64) thread_start, (uint64) stack + DEFAULT_S
  33:src/c_thread.cpp ****     if (start_routine) Scheduler::put(*handle);
  34:src/c_thread.cpp ****     else TCB::running = *handle;
  35:src/c_thread.cpp ****     return (*handle)->t_id;
  36:src/c_thread.cpp **** }
  37:src/c_thread.cpp **** 
  38:src/c_thread.cpp **** void TCB::_thread_dispatch() {
  39:src/c_thread.cpp ****     thread_t old = TCB::running;
  40:src/c_thread.cpp ****     if (old->is_runnable() && old != handle_bleya) {
  41:src/c_thread.cpp ****         Scheduler::put(old);
  42:src/c_thread.cpp ****     } else if (old->is_finished()) {
  43:src/c_thread.cpp ****         Allocator::_mem_free(old->stack);
  44:src/c_thread.cpp ****     }
  45:src/c_thread.cpp ****     if (Scheduler::is_empty()) {
  46:src/c_thread.cpp ****         TCB::running = handle_bleya;
  47:src/c_thread.cpp ****     } else {
GAS LISTING /tmp/ccSq2scT.s 			page 2


  48:src/c_thread.cpp ****         while (Scheduler::peek()->is_finished()) {
  49:src/c_thread.cpp ****             Allocator::_mem_free(TCB::destroy_thread(Scheduler::get())->stack);
  50:src/c_thread.cpp ****         }
  51:src/c_thread.cpp ****         TCB::running = Scheduler::get();
  52:src/c_thread.cpp ****     }
  53:src/c_thread.cpp ****     if (riscv::setjump()) {
  54:src/c_thread.cpp ****         TCB::context_switch(&old->context, &TCB::running->context);
  55:src/c_thread.cpp ****         riscv::longjump();
  56:src/c_thread.cpp ****     }
  57:src/c_thread.cpp **** }
  58:src/c_thread.cpp **** 
  59:src/c_thread.cpp **** TCB *TCB::destroy_thread(TCB *thread) {
  60:src/c_thread.cpp ****     while (!thread->joiner.is_empty()) {
  61:src/c_thread.cpp ****         TCB *next = thread->joiner.get();
  62:src/c_thread.cpp ****         if (next->is_joined()) {
  63:src/c_thread.cpp ****             next->run();
  64:src/c_thread.cpp ****             Scheduler::put(next);
  65:src/c_thread.cpp ****         }
  66:src/c_thread.cpp ****     }
  67:src/c_thread.cpp ****     thread->joiner.destroy();
  68:src/c_thread.cpp ****     return thread;
  69:src/c_thread.cpp **** }
  70:src/c_thread.cpp **** 
  71:src/c_thread.cpp **** void TCB::_thread_exit() {
  72:src/c_thread.cpp ****     TCB::running->finish();
  73:src/c_thread.cpp ****     TCB::destroy_thread(TCB::running);
  74:src/c_thread.cpp ****     TCB::_thread_dispatch();
  75:src/c_thread.cpp **** }
  76:src/c_thread.cpp **** 
  77:src/c_thread.cpp **** void TCB::_thread_join(thread_t handle) {
  78:src/c_thread.cpp ****     if (handle->is_finished())
  79:src/c_thread.cpp ****         return;
  80:src/c_thread.cpp ****     TCB::running->enjoin();
  81:src/c_thread.cpp ****     handle->joiner.put(TCB::running);
  82:src/c_thread.cpp ****     TCB::_thread_dispatch();
  83:src/c_thread.cpp **** }
  84:src/c_thread.cpp **** 
  85:src/c_thread.cpp **** void TCB::_thread_join_time(thread_t handle, time_t time) {
  86:src/c_thread.cpp ****     if (handle->is_finished())
  87:src/c_thread.cpp ****         return;
  88:src/c_thread.cpp ****     TCB::running->enjoin();
  89:src/c_thread.cpp ****     handle->joiner.put(TCB::running);
  90:src/c_thread.cpp ****     Cradle::insert(TCB::running, time);
  91:src/c_thread.cpp ****     TCB::_thread_dispatch();
  92:src/c_thread.cpp **** }
  93:src/c_thread.cpp **** 
  94:src/c_thread.cpp **** int TCB::_fork() {
  95:src/c_thread.cpp ****     TCB *child = new TCB(*TCB::running);
  96:src/c_thread.cpp ****     int volatile parent_id = TCB::running->t_id;
  97:src/c_thread.cpp ****     memcpy(TCB::running->stack, child->stack, DEFAULT_STACK_SIZE);
  98:src/c_thread.cpp ****     context_inherit(&child->context);
  99:src/c_thread.cpp ****     print_h((uint64)TCB::running);
 100:src/c_thread.cpp ****     if (TCB::running->t_id == parent_id) {
 101:src/c_thread.cpp ****         return child->t_id;
 102:src/c_thread.cpp ****     } else {
 103:src/c_thread.cpp ****         return 0;
 104:src/c_thread.cpp ****     }
GAS LISTING /tmp/ccSq2scT.s 			page 3


 105:src/c_thread.cpp **** }
 106:src/c_thread.cpp **** 
 107:src/c_thread.cpp **** int TCB::_kill(TCB *thread) {
 108:src/c_thread.cpp ****     if (!thread) return -1;
 109:src/c_thread.cpp ****     if (thread->is_finished()) return -2;
 110:src/c_thread.cpp ****     if (TCB::running != thread->parent) return -4;
 111:src/c_thread.cpp ****     thread->finish();
 112:src/c_thread.cpp ****     return 0;
 113:src/c_thread.cpp **** }
 114:src/c_thread.cpp **** 
 115:src/c_thread.cpp **** void TCB::thread_start() {
  12              		.loc 1 115 26
  13              		.cfi_startproc
  14 0000 130101FF 		addi	sp,sp,-16
  15              		.cfi_def_cfa_offset 16
  16 0004 23341100 		sd	ra,8(sp)
  17 0008 23308100 		sd	s0,0(sp)
  18              		.cfi_offset 1, -8
  19              		.cfi_offset 8, -16
  20 000c 13040101 		addi	s0,sp,16
  21              		.cfi_def_cfa 8, 0
 116:src/c_thread.cpp ****     riscv::popSppSpie();
  22              		.loc 1 116 5
  23              		.loc 1 116 22 is_stmt 0
  24 0010 97000000 		call	_ZN5riscv10popSppSpieEv@plt
  24      E7800000 
  25              	.LVL0:
 117:src/c_thread.cpp ****     TCB::running->_run(TCB::running->arg);
  26              		.loc 1 117 5 is_stmt 1
  27              		.loc 1 117 19 is_stmt 0
  28 0018 97070000 		ld	a5,.LANCHOR0
  28      83B70700 
  29 0020 03B78700 		ld	a4,8(a5)
  30              		.loc 1 117 23
  31 0024 03B50701 		ld	a0,16(a5)
  32 0028 E7000700 		jalr	a4
  33              	.LVL1:
 118:src/c_thread.cpp ****     thread_exit();
  34              		.loc 1 118 5 is_stmt 1
  35              		.loc 1 118 16 is_stmt 0
  36 002c 97000000 		call	_Z11thread_exitv@plt
  36      E7800000 
  37              	.LVL2:
 119:src/c_thread.cpp **** }...
  38              		.loc 1 119 1
  39 0034 83308100 		ld	ra,8(sp)
  40              		.cfi_restore 1
  41 0038 03340100 		ld	s0,0(sp)
  42              		.cfi_restore 8
  43              		.cfi_def_cfa 2, 16
  44 003c 13010101 		addi	sp,sp,16
  45              		.cfi_def_cfa_offset 0
  46 0040 67800000 		jr	ra
  47              		.cfi_endproc
  48              	.LFE59:
  50              		.align	2
  51              		.globl	_ZN3TCB5_killEPS_
GAS LISTING /tmp/ccSq2scT.s 			page 4


  53              	_ZN3TCB5_killEPS_:
  54              	.LFB58:
 107:src/c_thread.cpp **** int TCB::_kill(TCB *thread) {
  55              		.loc 1 107 29 is_stmt 1
  56              		.cfi_startproc
  57              	.LVL3:
  58 0044 130101FF 		addi	sp,sp,-16
  59              		.cfi_def_cfa_offset 16
  60 0048 23348100 		sd	s0,8(sp)
  61              		.cfi_offset 8, -8
  62 004c 13040101 		addi	s0,sp,16
  63              		.cfi_def_cfa 8, 0
 108:src/c_thread.cpp ****     if (!thread) return -1;
  64              		.loc 1 108 5
  65 0050 630C0502 		beqz	a0,.L5
 109:src/c_thread.cpp ****     if (thread->is_finished()) return -2;
  66              		.loc 1 109 5
  67              	.LVL4:
  68              	.LBB43:
  69              	.LBB44:
  70              		.file 2 "src/../h/c_thread.hpp"
   1:src/../h/c_thread.hpp **** #ifndef PROJECT_BASE_C_THREAD_HPP
   2:src/../h/c_thread.hpp **** #define PROJECT_BASE_C_THREAD_HPP
   3:src/../h/c_thread.hpp **** 
   4:src/../h/c_thread.hpp **** #include "syscall_c.hpp"
   5:src/../h/c_thread.hpp **** #include "../lib/hw.h"
   6:src/../h/c_thread.hpp **** #include "circular_buffer.hpp"
   7:src/../h/c_thread.hpp **** 
   8:src/../h/c_thread.hpp **** using run_t = void (*)(void *);
   9:src/../h/c_thread.hpp **** 
  10:src/../h/c_thread.hpp **** struct Context {
  11:src/../h/c_thread.hpp ****     uint64 ra;
  12:src/../h/c_thread.hpp ****     uint64 sp;
  13:src/../h/c_thread.hpp ****     uint64 sstatus;
  14:src/../h/c_thread.hpp ****     uint64 sepc;
  15:src/../h/c_thread.hpp **** };
  16:src/../h/c_thread.hpp **** 
  17:src/../h/c_thread.hpp **** enum Status {
  18:src/../h/c_thread.hpp ****     RUNNABLE, BLOCKED, SLEEPING, JOINED, FINISHED
  19:src/../h/c_thread.hpp **** };
  20:src/../h/c_thread.hpp **** 
  21:src/../h/c_thread.hpp **** class TCB final {
  22:src/../h/c_thread.hpp **** public:
  23:src/../h/c_thread.hpp ****     static int _thread_create(thread_t *, void(*)(void *), void *, void *);
  24:src/../h/c_thread.hpp **** 
  25:src/../h/c_thread.hpp ****     static void _thread_exit();
  26:src/../h/c_thread.hpp **** 
  27:src/../h/c_thread.hpp ****     static void _thread_dispatch();
  28:src/../h/c_thread.hpp **** 
  29:src/../h/c_thread.hpp ****     static void _thread_join(thread_t);
  30:src/../h/c_thread.hpp **** 
  31:src/../h/c_thread.hpp ****     static void _thread_join_time(thread_t, time_t);
  32:src/../h/c_thread.hpp **** 
  33:src/../h/c_thread.hpp ****     static int _fork();
  34:src/../h/c_thread.hpp **** 
  35:src/../h/c_thread.hpp ****     static int _kill(TCB *);
  36:src/../h/c_thread.hpp **** 
GAS LISTING /tmp/ccSq2scT.s 			page 5


  37:src/../h/c_thread.hpp ****     static void thread_start();
  38:src/../h/c_thread.hpp **** 
  39:src/../h/c_thread.hpp ****     static void context_switch(Context *, Context *);
  40:src/../h/c_thread.hpp **** 
  41:src/../h/c_thread.hpp ****     static void context_inherit(Context*);
  42:src/../h/c_thread.hpp **** 
  43:src/../h/c_thread.hpp ****     static TCB *destroy_thread(TCB *);
  44:src/../h/c_thread.hpp **** 
  45:src/../h/c_thread.hpp ****     static void duplicate(TCB *, TCB *);
  46:src/../h/c_thread.hpp **** 
  47:src/../h/c_thread.hpp ****     TCB(run_t, void *, void *, Context);
  48:src/../h/c_thread.hpp **** 
  49:src/../h/c_thread.hpp ****     TCB(TCB &);
  50:src/../h/c_thread.hpp **** 
  51:src/../h/c_thread.hpp ****     bool is_runnable() const { return this->status == RUNNABLE; }
  52:src/../h/c_thread.hpp **** 
  53:src/../h/c_thread.hpp ****     bool is_blocked() const { return this->status == BLOCKED; }
  54:src/../h/c_thread.hpp **** 
  55:src/../h/c_thread.hpp ****     bool is_sleeping() const { return this->status == SLEEPING; }
  56:src/../h/c_thread.hpp **** 
  57:src/../h/c_thread.hpp ****     bool is_joined() const { return this->status == JOINED; }
  58:src/../h/c_thread.hpp **** 
  59:src/../h/c_thread.hpp ****     bool is_finished() const { return this->status == FINISHED; }
  71              		.loc 2 59 32
  72              		.loc 2 59 45 is_stmt 0
  73 0054 03278504 		lw	a4,72(a0)
  74              	.LVL5:
  75              	.LBE44:
  76              	.LBE43:
 109:src/c_thread.cpp ****     if (thread->is_finished()) return -2;
  77              		.loc 1 109 5
  78 0058 93074000 		li	a5,4
  79 005c 630AF702 		beq	a4,a5,.L6
 110:src/c_thread.cpp ****     if (TCB::running != thread->parent) return -4;
  80              		.loc 1 110 5 is_stmt 1
 110:src/c_thread.cpp ****     if (TCB::running != thread->parent) return -4;
  81              		.loc 1 110 33 is_stmt 0
  82 0060 03370502 		ld	a4,32(a0)
 110:src/c_thread.cpp ****     if (TCB::running != thread->parent) return -4;
  83              		.loc 1 110 14
  84 0064 97070000 		ld	a5,.LANCHOR0
  84      83B70700 
 110:src/c_thread.cpp ****     if (TCB::running != thread->parent) return -4;
  85              		.loc 1 110 5
  86 006c 6316F702 		bne	a4,a5,.L7
 111:src/c_thread.cpp ****     thread->finish();
  87              		.loc 1 111 5 is_stmt 1
  88              	.LVL6:
  89              	.LBB45:
  90              	.LBB46:
  60:src/../h/c_thread.hpp **** 
  61:src/../h/c_thread.hpp ****     void run() { this->status = RUNNABLE; }
  62:src/../h/c_thread.hpp **** 
  63:src/../h/c_thread.hpp ****     void block() { this->status = BLOCKED; }
  64:src/../h/c_thread.hpp **** 
  65:src/../h/c_thread.hpp ****     void sleep() { this->status = SLEEPING; }
  66:src/../h/c_thread.hpp **** 
GAS LISTING /tmp/ccSq2scT.s 			page 6


  67:src/../h/c_thread.hpp ****     void enjoin() { this->status = JOINED; }
  68:src/../h/c_thread.hpp **** 
  69:src/../h/c_thread.hpp ****     void finish() { this->status = FINISHED; }
  91              		.loc 2 69 21
  92              		.loc 2 69 34 is_stmt 0
  93 0070 93074000 		li	a5,4
  94 0074 2324F504 		sw	a5,72(a0)
  95              	.LVL7:
  96              	.LBE46:
  97              	.LBE45:
 112:src/c_thread.cpp ****     return 0;
  98              		.loc 1 112 5 is_stmt 1
 112:src/c_thread.cpp ****     return 0;
  99              		.loc 1 112 12 is_stmt 0
 100 0078 13050000 		li	a0,0
 101              	.LVL8:
 102              	.L4:
 113:src/c_thread.cpp **** }
 103              		.loc 1 113 1
 104 007c 03348100 		ld	s0,8(sp)
 105              		.cfi_remember_state
 106              		.cfi_restore 8
 107              		.cfi_def_cfa 2, 16
 108 0080 13010101 		addi	sp,sp,16
 109              		.cfi_def_cfa_offset 0
 110 0084 67800000 		jr	ra
 111              	.LVL9:
 112              	.L5:
 113              		.cfi_restore_state
 108:src/c_thread.cpp ****     if (!thread) return -1;
 114              		.loc 1 108 26
 115 0088 1305F0FF 		li	a0,-1
 116              	.LVL10:
 117 008c 6FF01FFF 		j	.L4
 118              	.LVL11:
 119              	.L6:
 109:src/c_thread.cpp ****     if (thread->is_finished()) return -2;
 120              		.loc 1 109 40
 121 0090 1305E0FF 		li	a0,-2
 122              	.LVL12:
 123 0094 6FF09FFE 		j	.L4
 124              	.LVL13:
 125              	.L7:
 110:src/c_thread.cpp ****     if (TCB::running != thread->parent) return -4;
 126              		.loc 1 110 49
 127 0098 1305C0FF 		li	a0,-4
 128              	.LVL14:
 129 009c 6FF01FFE 		j	.L4
 130              		.cfi_endproc
 131              	.LFE58:
 133              		.section	.text._ZN3stm14CircularBufferIP3TCBE4initEv,"axG",@progbits,_ZN3stm14CircularBufferIP3TCB
 134              		.align	2
 135              		.weak	_ZN3stm14CircularBufferIP3TCBE4initEv
 137              	_ZN3stm14CircularBufferIP3TCBE4initEv:
 138              	.LFB60:
 139              		.file 3 "src/../h/circular_buffer.hpp"
   1:src/../h/circular_buffer.hpp **** #ifndef PROJECT_BASE_CIRCULAR_BUFFER_HPP
GAS LISTING /tmp/ccSq2scT.s 			page 7


   2:src/../h/circular_buffer.hpp **** #define PROJECT_BASE_CIRCULAR_BUFFER_HPP
   3:src/../h/circular_buffer.hpp **** 
   4:src/../h/circular_buffer.hpp **** #include "syscall_c.hpp"
   5:src/../h/circular_buffer.hpp **** #include "c_memory.hpp"
   6:src/../h/circular_buffer.hpp **** 
   7:src/../h/circular_buffer.hpp **** namespace stm {
   8:src/../h/circular_buffer.hpp ****     template<typename T>
   9:src/../h/circular_buffer.hpp ****     class CircularBuffer {
  10:src/../h/circular_buffer.hpp ****     public:
  11:src/../h/circular_buffer.hpp **** 
  12:src/../h/circular_buffer.hpp ****         void init();
  13:src/../h/circular_buffer.hpp **** 
  14:src/../h/circular_buffer.hpp ****         void put(T);
  15:src/../h/circular_buffer.hpp **** 
  16:src/../h/circular_buffer.hpp ****         T get();
  17:src/../h/circular_buffer.hpp **** 
  18:src/../h/circular_buffer.hpp ****         T &peek();
  19:src/../h/circular_buffer.hpp **** 
  20:src/../h/circular_buffer.hpp ****         inline bool is_empty() const { return this->size == 0; }
  21:src/../h/circular_buffer.hpp **** 
  22:src/../h/circular_buffer.hpp ****         void destroy();
  23:src/../h/circular_buffer.hpp **** 
  24:src/../h/circular_buffer.hpp ****     private:
  25:src/../h/circular_buffer.hpp **** 
  26:src/../h/circular_buffer.hpp ****         void extend();
  27:src/../h/circular_buffer.hpp **** 
  28:src/../h/circular_buffer.hpp ****         static int constexpr CAPACITY = 16;
  29:src/../h/circular_buffer.hpp ****         T *queue;
  30:src/../h/circular_buffer.hpp ****         int head;
  31:src/../h/circular_buffer.hpp ****         int tail;
  32:src/../h/circular_buffer.hpp ****         int size;
  33:src/../h/circular_buffer.hpp ****         int capacity;
  34:src/../h/circular_buffer.hpp ****     };
  35:src/../h/circular_buffer.hpp **** }
  36:src/../h/circular_buffer.hpp **** 
  37:src/../h/circular_buffer.hpp **** template<typename T>
  38:src/../h/circular_buffer.hpp **** void stm::CircularBuffer<T>::init() {
 140              		.loc 3 38 6 is_stmt 1
 141              		.cfi_startproc
 142              	.LVL15:
 143 0000 130101FE 		addi	sp,sp,-32
 144              		.cfi_def_cfa_offset 32
 145 0004 233C1100 		sd	ra,24(sp)
 146 0008 23388100 		sd	s0,16(sp)
 147 000c 23349100 		sd	s1,8(sp)
 148              		.cfi_offset 1, -8
 149              		.cfi_offset 8, -16
 150              		.cfi_offset 9, -24
 151 0010 13040102 		addi	s0,sp,32
 152              		.cfi_def_cfa 8, 0
 153 0014 93040500 		mv	s1,a0
  39:src/../h/circular_buffer.hpp ****     this->head = 0;
 154              		.loc 3 39 5 is_stmt 0
 155 0018 23240500 		sw	zero,8(a0)
  40:src/../h/circular_buffer.hpp ****     this->tail = 0;
 156              		.loc 3 40 5
 157 001c 23260500 		sw	zero,12(a0)
GAS LISTING /tmp/ccSq2scT.s 			page 8


  41:src/../h/circular_buffer.hpp ****     this->size = 0;
 158              		.loc 3 41 5
 159 0020 23280500 		sw	zero,16(a0)
  42:src/../h/circular_buffer.hpp ****     this->capacity = CAPACITY;
 160              		.loc 3 42 5
 161 0024 93070001 		li	a5,16
 162 0028 232AF500 		sw	a5,20(a0)
  43:src/../h/circular_buffer.hpp ****     this->queue = (T *) mem_alloc(sizeof(T) * CAPACITY);
 163              		.loc 3 43 34
 164 002c 13050008 		li	a0,128
 165              	.LVL16:
 166 0030 97000000 		call	_Z9mem_allocm@plt
 166      E7800000 
 167              	.LVL17:
 168              		.loc 3 43 5
 169 0038 23B0A400 		sd	a0,0(s1)
  44:src/../h/circular_buffer.hpp **** }
 170              		.loc 3 44 1
 171 003c 83308101 		ld	ra,24(sp)
 172              		.cfi_restore 1
 173 0040 03340101 		ld	s0,16(sp)
 174              		.cfi_restore 8
 175              		.cfi_def_cfa 2, 32
 176 0044 83348100 		ld	s1,8(sp)
 177              		.cfi_restore 9
 178              	.LVL18:
 179 0048 13010102 		addi	sp,sp,32
 180              		.cfi_def_cfa_offset 0
 181 004c 67800000 		jr	ra
 182              		.cfi_endproc
 183              	.LFE60:
 185              		.text
 186              		.align	2
 187              		.globl	_ZN3TCBC2EPFvPvES0_S0_7Context
 189              	_ZN3TCBC2EPFvPvES0_S0_7Context:
 190              	.LFB46:
  13:src/c_thread.cpp **** TCB::TCB(run_t start_routine, void *arg, void *stack, Context context) :
 191              		.loc 1 13 1 is_stmt 1
 192              		.cfi_startproc
 193              	.LVL19:
 194 00a0 130101FE 		addi	sp,sp,-32
 195              		.cfi_def_cfa_offset 32
 196 00a4 233C1100 		sd	ra,24(sp)
 197 00a8 23388100 		sd	s0,16(sp)
 198 00ac 23349100 		sd	s1,8(sp)
 199 00b0 23302101 		sd	s2,0(sp)
 200              		.cfi_offset 1, -8
 201              		.cfi_offset 8, -16
 202              		.cfi_offset 9, -24
 203              		.cfi_offset 18, -32
 204 00b4 13040102 		addi	s0,sp,32
 205              		.cfi_def_cfa 8, 0
 206 00b8 93040500 		mv	s1,a0
 207              	.LBB47:
  14:src/c_thread.cpp ****         t_id(TCB::ID++), _run(start_routine), arg(arg),
 208              		.loc 1 14 21 is_stmt 0
 209 00bc 17090000 		lla	s2,.LANCHOR0
GAS LISTING /tmp/ccSq2scT.s 			page 9


 209      13090900 
 210 00c4 83278900 		lw	a5,8(s2)
 211 00c8 1B851700 		addiw	a0,a5,1
 212              	.LVL20:
 213 00cc 2324A900 		sw	a0,8(s2)
  17:src/c_thread.cpp ****         time_slice(DEFAULT_TIME_SLICE), preempted(false), joiner() {
 214              		.loc 1 17 66
 215 00d0 23A0F400 		sw	a5,0(s1)
 216 00d4 23B4B400 		sd	a1,8(s1)
 217 00d8 23B8C400 		sd	a2,16(s1)
 218 00dc 23BCD400 		sd	a3,24(s1)
 219 00e0 83370900 		ld	a5,0(s2)
 220 00e4 23B0F402 		sd	a5,32(s1)
 221 00e8 83350700 		ld	a1,0(a4)
 222              	.LVL21:
 223 00ec 03368700 		ld	a2,8(a4)
 224              	.LVL22:
 225 00f0 83360701 		ld	a3,16(a4)
 226              	.LVL23:
 227 00f4 83378701 		ld	a5,24(a4)
 228 00f8 23B4B402 		sd	a1,40(s1)
 229 00fc 23B8C402 		sd	a2,48(s1)
 230 0100 23BCD402 		sd	a3,56(s1)
 231 0104 23B0F404 		sd	a5,64(s1)
 232 0108 23A40404 		sw	zero,72(s1)
 233 010c 93071000 		li	a5,1
 234 0110 23B8F404 		sd	a5,80(s1)
 235 0114 238C0404 		sb	zero,88(s1)
 236 0118 23B00406 		sd	zero,96(s1)
 237 011c 23A40406 		sw	zero,104(s1)
 238 0120 23A60406 		sw	zero,108(s1)
 239 0124 23A80406 		sw	zero,112(s1)
 240 0128 23AA0406 		sw	zero,116(s1)
  18:src/c_thread.cpp ****     this->joiner.init();
 241              		.loc 1 18 5 is_stmt 1
  18:src/c_thread.cpp ****     this->joiner.init();
 242              		.loc 1 18 22 is_stmt 0
 243 012c 13850406 		addi	a0,s1,96
 244 0130 97000000 		call	_ZN3stm14CircularBufferIP3TCBE4initEv
 244      E7800000 
 245              	.LVL24:
  19:src/c_thread.cpp ****     this->parent = TCB::running;
 246              		.loc 1 19 5 is_stmt 1
  19:src/c_thread.cpp ****     this->parent = TCB::running;
 247              		.loc 1 19 18 is_stmt 0
 248 0138 83370900 		ld	a5,0(s2)
 249 013c 23B0F402 		sd	a5,32(s1)
 250              	.LBE47:
  20:src/c_thread.cpp **** }
 251              		.loc 1 20 1
 252 0140 83308101 		ld	ra,24(sp)
 253              		.cfi_restore 1
 254 0144 03340101 		ld	s0,16(sp)
 255              		.cfi_restore 8
 256              		.cfi_def_cfa 2, 32
 257 0148 83348100 		ld	s1,8(sp)
 258              		.cfi_restore 9
GAS LISTING /tmp/ccSq2scT.s 			page 10


 259              	.LVL25:
 260 014c 03390100 		ld	s2,0(sp)
 261              		.cfi_restore 18
 262 0150 13010102 		addi	sp,sp,32
 263              		.cfi_def_cfa_offset 0
 264 0154 67800000 		jr	ra
 265              		.cfi_endproc
 266              	.LFE46:
 268              		.globl	_ZN3TCBC1EPFvPvES0_S0_7Context
 269              		.set	_ZN3TCBC1EPFvPvES0_S0_7Context,_ZN3TCBC2EPFvPvES0_S0_7Context
 270              		.align	2
 271              		.globl	_ZN3TCB14_thread_createEPPS_PFvPvES2_S2_
 273              	_ZN3TCB14_thread_createEPPS_PFvPvES2_S2_:
 274              	.LFB51:
  31:src/c_thread.cpp **** int TCB::_thread_create(thread_t *handle, void(*start_routine)(void *), void *arg, void *stack) {
 275              		.loc 1 31 97 is_stmt 1
 276              		.cfi_startproc
 277              		.cfi_personality 0x9b,DW.ref.__gxx_personality_v0
 278              		.cfi_lsda 0x1b,.LLSDA51
 279              	.LVL26:
 280 0158 130101F8 		addi	sp,sp,-128
 281              		.cfi_def_cfa_offset 128
 282 015c 233C1106 		sd	ra,120(sp)
 283 0160 23388106 		sd	s0,112(sp)
 284 0164 23349106 		sd	s1,104(sp)
 285 0168 23302107 		sd	s2,96(sp)
 286 016c 233C3105 		sd	s3,88(sp)
 287 0170 23384105 		sd	s4,80(sp)
 288 0174 23345105 		sd	s5,72(sp)
 289              		.cfi_offset 1, -8
 290              		.cfi_offset 8, -16
 291              		.cfi_offset 9, -24
 292              		.cfi_offset 18, -32
 293              		.cfi_offset 19, -40
 294              		.cfi_offset 20, -48
 295              		.cfi_offset 21, -56
 296 0178 13040108 		addi	s0,sp,128
 297              		.cfi_def_cfa 8, 0
 298 017c 13090500 		mv	s2,a0
 299 0180 93890500 		mv	s3,a1
 300 0184 930A0600 		mv	s5,a2
 301 0188 138A0600 		mv	s4,a3
  32:src/c_thread.cpp ****     *handle = new TCB(start_routine, arg, stack, {(uint64) thread_start, (uint64) stack + DEFAULT_S
 302              		.loc 1 32 5
  32:src/c_thread.cpp ****     *handle = new TCB(start_routine, arg, stack, {(uint64) thread_start, (uint64) stack + DEFAULT_S
 303              		.loc 1 32 13 is_stmt 0
 304 018c 233804FA 		sd	zero,-80(s0)
 305 0190 233C04FA 		sd	zero,-72(s0)
 306 0194 97070000 		lla	a5,_ZN3TCB12thread_startEv
 306      93870700 
 307 019c 2330F4FA 		sd	a5,-96(s0)
  32:src/c_thread.cpp ****     *handle = new TCB(start_routine, arg, stack, {(uint64) thread_start, (uint64) stack + DEFAULT_S
 308              		.loc 1 32 110
 309 01a0 B7470000 		li	a5,16384
 310 01a4 9387F7FF 		addi	a5,a5,-1
 311 01a8 B387F600 		add	a5,a3,a5
  32:src/c_thread.cpp ****     *handle = new TCB(start_routine, arg, stack, {(uint64) thread_start, (uint64) stack + DEFAULT_S
GAS LISTING /tmp/ccSq2scT.s 			page 11


 312              		.loc 1 32 13
 313 01ac 2334F4FA 		sd	a5,-88(s0)
  32:src/c_thread.cpp ****     *handle = new TCB(start_routine, arg, stack, {(uint64) thread_start, (uint64) stack + DEFAULT_S
 314              		.loc 1 32 114
 315 01b0 13058007 		li	a0,120
 316              	.LVL27:
 317              	.LEHB0:
 318 01b4 97000000 		call	_Znwm@plt
 318      E7800000 
 319              	.LVL28:
 320              	.LEHE0:
 321 01bc 93040500 		mv	s1,a0
 322 01c0 833704FA 		ld	a5,-96(s0)
 323 01c4 2330F4F8 		sd	a5,-128(s0)
 324 01c8 833784FA 		ld	a5,-88(s0)
 325 01cc 2334F4F8 		sd	a5,-120(s0)
 326 01d0 833704FB 		ld	a5,-80(s0)
 327 01d4 2338F4F8 		sd	a5,-112(s0)
 328 01d8 833784FB 		ld	a5,-72(s0)
 329 01dc 233CF4F8 		sd	a5,-104(s0)
 330 01e0 130704F8 		addi	a4,s0,-128
 331 01e4 93060A00 		mv	a3,s4
 332 01e8 13860A00 		mv	a2,s5
 333 01ec 93850900 		mv	a1,s3
 334              	.LEHB1:
 335 01f0 97000000 		call	_ZN3TCBC1EPFvPvES0_S0_7Context
 335      E7800000 
 336              	.LVL29:
 337              	.LEHE1:
  32:src/c_thread.cpp ****     *handle = new TCB(start_routine, arg, stack, {(uint64) thread_start, (uint64) stack + DEFAULT_S
 338              		.loc 1 32 13 discriminator 4
 339 01f8 23309900 		sd	s1,0(s2)
  33:src/c_thread.cpp ****     if (start_routine) Scheduler::put(*handle);
 340              		.loc 1 33 5 is_stmt 1 discriminator 4
 341 01fc 638E0902 		beqz	s3,.L14
  33:src/c_thread.cpp ****     if (start_routine) Scheduler::put(*handle);
 342              		.loc 1 33 24 discriminator 1
  33:src/c_thread.cpp ****     if (start_routine) Scheduler::put(*handle);
 343              		.loc 1 33 38 is_stmt 0 discriminator 1
 344 0200 13850400 		mv	a0,s1
 345              	.LEHB2:
 346 0204 97000000 		call	_ZN9Scheduler3putEP3TCB@plt
 346      E7800000 
 347              	.LVL30:
 348              	.L15:
  35:src/c_thread.cpp ****     return (*handle)->t_id;
 349              		.loc 1 35 5 is_stmt 1
  35:src/c_thread.cpp ****     return (*handle)->t_id;
 350              		.loc 1 35 13 is_stmt 0
 351 020c 83370900 		ld	a5,0(s2)
  35:src/c_thread.cpp ****     return (*handle)->t_id;
 352              		.loc 1 35 23
 353 0210 03A50700 		lw	a0,0(a5)
  36:src/c_thread.cpp **** }
 354              		.loc 1 36 1
 355 0214 83308107 		ld	ra,120(sp)
 356              		.cfi_remember_state
GAS LISTING /tmp/ccSq2scT.s 			page 12


 357              		.cfi_restore 1
 358 0218 03340107 		ld	s0,112(sp)
 359              		.cfi_restore 8
 360              		.cfi_def_cfa 2, 128
 361 021c 83348106 		ld	s1,104(sp)
 362              		.cfi_restore 9
 363 0220 03390106 		ld	s2,96(sp)
 364              		.cfi_restore 18
 365              	.LVL31:
 366 0224 83398105 		ld	s3,88(sp)
 367              		.cfi_restore 19
 368              	.LVL32:
 369 0228 033A0105 		ld	s4,80(sp)
 370              		.cfi_restore 20
 371              	.LVL33:
 372 022c 833A8104 		ld	s5,72(sp)
 373              		.cfi_restore 21
 374              	.LVL34:
 375 0230 13010108 		addi	sp,sp,128
 376              		.cfi_def_cfa_offset 0
 377              	.LVL35:
 378 0234 67800000 		jr	ra
 379              	.LVL36:
 380              	.L14:
 381              		.cfi_restore_state
  34:src/c_thread.cpp ****     else TCB::running = *handle;
 382              		.loc 1 34 10 is_stmt 1
  34:src/c_thread.cpp ****     else TCB::running = *handle;
 383              		.loc 1 34 23 is_stmt 0
 384 0238 97070000 		sd	s1,.LANCHOR0,a5
 384      23B09700 
 385 0240 6FF0DFFC 		j	.L15
 386              	.L17:
 387 0244 13090500 		mv	s2,a0
 388              	.LVL37:
  32:src/c_thread.cpp ****     *handle = new TCB(start_routine, arg, stack, {(uint64) thread_start, (uint64) stack + DEFAULT_S
 389              		.loc 1 32 114
 390 0248 13850400 		mv	a0,s1
 391 024c 97000000 		call	_ZdlPv@plt
 391      E7800000 
 392              	.LVL38:
 393 0254 13050900 		mv	a0,s2
 394 0258 97000000 		call	_Unwind_Resume@plt
 394      E7800000 
 395              	.LVL39:
 396              	.LEHE2:
 397              		.cfi_endproc
 398              	.LFE51:
 399              		.globl	__gxx_personality_v0
 400              		.section	.gcc_except_table,"a",@progbits
 401              	.LLSDA51:
 402 0000 FF       		.byte	0xff
 403 0001 FF       		.byte	0xff
 404 0002 03       		.byte	0x3
 405 0003 27       		.byte	0x27
 406 0004 00000000 		.4byte	.LEHB0-.LFB51
 407 0008 00000000 		.4byte	.LEHE0-.LEHB0
GAS LISTING /tmp/ccSq2scT.s 			page 13


 408 000c 00000000 		.4byte	0
 409 0010 00       		.byte	0
 410 0011 00000000 		.4byte	.LEHB1-.LFB51
 411 0015 00000000 		.4byte	.LEHE1-.LEHB1
 412 0019 00000000 		.4byte	.L17-.LFB51
 413 001d 00       		.byte	0
 414 001e 00000000 		.4byte	.LEHB2-.LFB51
 415 0022 00000000 		.4byte	.LEHE2-.LEHB2
 416 0026 00000000 		.4byte	0
 417 002a 00       		.byte	0
 418              		.text
 420              		.align	2
 421              		.globl	_ZN3TCBC2ERS_
 423              	_ZN3TCBC2ERS_:
 424              	.LFB49:
  22:src/c_thread.cpp **** TCB::TCB(TCB &parent) :
 425              		.loc 1 22 1 is_stmt 1
 426              		.cfi_startproc
 427              	.LVL40:
 428 0260 130101FE 		addi	sp,sp,-32
 429              		.cfi_def_cfa_offset 32
 430 0264 233C1100 		sd	ra,24(sp)
 431 0268 23388100 		sd	s0,16(sp)
 432 026c 23349100 		sd	s1,8(sp)
 433 0270 23302101 		sd	s2,0(sp)
 434              		.cfi_offset 1, -8
 435              		.cfi_offset 8, -16
 436              		.cfi_offset 9, -24
 437              		.cfi_offset 18, -32
 438 0274 13040102 		addi	s0,sp,32
 439              		.cfi_def_cfa 8, 0
 440 0278 93040500 		mv	s1,a0
 441 027c 13890500 		mv	s2,a1
 442              	.LBB48:
  23:src/c_thread.cpp ****         t_id(TCB::ID++), _run(parent._run), arg(parent.arg),
 443              		.loc 1 23 21 is_stmt 0
 444 0280 17070000 		lla	a4,.LANCHOR0
 444      13070700 
 445 0288 83278700 		lw	a5,8(a4)
 446 028c 9B861700 		addiw	a3,a5,1
 447 0290 2324D700 		sw	a3,8(a4)
  26:src/c_thread.cpp ****         preempted(false), joiner() {
 448              		.loc 1 26 34
 449 0294 2320F500 		sw	a5,0(a0)
  23:src/c_thread.cpp ****         t_id(TCB::ID++), _run(parent._run), arg(parent.arg),
 450              		.loc 1 23 38
 451 0298 83B78500 		ld	a5,8(a1)
  26:src/c_thread.cpp ****         preempted(false), joiner() {
 452              		.loc 1 26 34
 453 029c 2334F500 		sd	a5,8(a0)
  23:src/c_thread.cpp ****         t_id(TCB::ID++), _run(parent._run), arg(parent.arg),
 454              		.loc 1 23 56
 455 02a0 83B70501 		ld	a5,16(a1)
  26:src/c_thread.cpp ****         preempted(false), joiner() {
 456              		.loc 1 26 34
 457 02a4 2338F500 		sd	a5,16(a0)
  24:src/c_thread.cpp ****         stack(Allocator::_mem_alloc(DEFAULT_STACK_SIZE)),
GAS LISTING /tmp/ccSq2scT.s 			page 14


 458              		.loc 1 24 36
 459 02a8 37450000 		li	a0,16384
 460              	.LVL41:
 461 02ac 97000000 		call	_ZN9Allocator10_mem_allocEm@plt
 461      E7800000 
 462              	.LVL42:
  26:src/c_thread.cpp ****         preempted(false), joiner() {
 463              		.loc 1 26 34
 464 02b4 23BCA400 		sd	a0,24(s1)
 465 02b8 23B02403 		sd	s2,32(s1)
 466 02bc 03368902 		ld	a2,40(s2)
 467 02c0 83360903 		ld	a3,48(s2)
 468 02c4 03378903 		ld	a4,56(s2)
 469 02c8 83370904 		ld	a5,64(s2)
 470 02cc 23B4C402 		sd	a2,40(s1)
 471 02d0 23B8D402 		sd	a3,48(s1)
 472 02d4 23BCE402 		sd	a4,56(s1)
 473 02d8 23B0F404 		sd	a5,64(s1)
 474 02dc 23A40404 		sw	zero,72(s1)
 475 02e0 93071000 		li	a5,1
 476 02e4 23B8F404 		sd	a5,80(s1)
 477 02e8 238C0404 		sb	zero,88(s1)
 478 02ec 23B00406 		sd	zero,96(s1)
 479 02f0 23A40406 		sw	zero,104(s1)
 480 02f4 23A60406 		sw	zero,108(s1)
 481 02f8 23A80406 		sw	zero,112(s1)
 482 02fc 23AA0406 		sw	zero,116(s1)
  27:src/c_thread.cpp ****     this->joiner.init();
 483              		.loc 1 27 5 is_stmt 1
  27:src/c_thread.cpp ****     this->joiner.init();
 484              		.loc 1 27 22 is_stmt 0
 485 0300 13850406 		addi	a0,s1,96
 486 0304 97000000 		call	_ZN3stm14CircularBufferIP3TCBE4initEv
 486      E7800000 
 487              	.LVL43:
  28:src/c_thread.cpp ****     Scheduler::put(this);
 488              		.loc 1 28 5 is_stmt 1
  28:src/c_thread.cpp ****     Scheduler::put(this);
 489              		.loc 1 28 19 is_stmt 0
 490 030c 13850400 		mv	a0,s1
 491 0310 97000000 		call	_ZN9Scheduler3putEP3TCB@plt
 491      E7800000 
 492              	.LVL44:
 493              	.LBE48:
  29:src/c_thread.cpp **** }
 494              		.loc 1 29 1
 495 0318 83308101 		ld	ra,24(sp)
 496              		.cfi_restore 1
 497 031c 03340101 		ld	s0,16(sp)
 498              		.cfi_restore 8
 499              		.cfi_def_cfa 2, 32
 500 0320 83348100 		ld	s1,8(sp)
 501              		.cfi_restore 9
 502              	.LVL45:
 503 0324 03390100 		ld	s2,0(sp)
 504              		.cfi_restore 18
 505              	.LVL46:
GAS LISTING /tmp/ccSq2scT.s 			page 15


 506 0328 13010102 		addi	sp,sp,32
 507              		.cfi_def_cfa_offset 0
 508 032c 67800000 		jr	ra
 509              		.cfi_endproc
 510              	.LFE49:
 512              		.globl	_ZN3TCBC1ERS_
 513              		.set	_ZN3TCBC1ERS_,_ZN3TCBC2ERS_
 514              		.align	2
 515              		.globl	_ZN3TCB5_forkEv
 517              	_ZN3TCB5_forkEv:
 518              	.LFB57:
  94:src/c_thread.cpp **** int TCB::_fork() {
 519              		.loc 1 94 18 is_stmt 1
 520              		.cfi_startproc
 521              		.cfi_personality 0x9b,DW.ref.__gxx_personality_v0
 522              		.cfi_lsda 0x1b,.LLSDA57
 523 0330 130101FD 		addi	sp,sp,-48
 524              		.cfi_def_cfa_offset 48
 525 0334 23341102 		sd	ra,40(sp)
 526 0338 23308102 		sd	s0,32(sp)
 527 033c 233C9100 		sd	s1,24(sp)
 528 0340 23382101 		sd	s2,16(sp)
 529              		.cfi_offset 1, -8
 530              		.cfi_offset 8, -16
 531              		.cfi_offset 9, -24
 532              		.cfi_offset 18, -32
 533 0344 13040103 		addi	s0,sp,48
 534              		.cfi_def_cfa 8, 0
  95:src/c_thread.cpp ****     TCB *child = new TCB(*TCB::running);
 535              		.loc 1 95 5
  95:src/c_thread.cpp ****     TCB *child = new TCB(*TCB::running);
 536              		.loc 1 95 39 is_stmt 0
 537 0348 13058007 		li	a0,120
 538              	.LEHB3:
 539 034c 97000000 		call	_Znwm@plt
 539      E7800000 
 540              	.LVL47:
 541              	.LEHE3:
 542 0354 93040500 		mv	s1,a0
 543 0358 97050000 		ld	a1,.LANCHOR0
 543      83B50500 
 544              	.LEHB4:
 545 0360 97000000 		call	_ZN3TCBC1ERS_
 545      E7800000 
 546              	.LVL48:
 547              	.LEHE4:
  96:src/c_thread.cpp ****     int volatile parent_id = TCB::running->t_id;
 548              		.loc 1 96 5 is_stmt 1 discriminator 2
  96:src/c_thread.cpp ****     int volatile parent_id = TCB::running->t_id;
 549              		.loc 1 96 44 is_stmt 0 discriminator 2
 550 0368 17090000 		lla	s2,.LANCHOR0
 550      13090900 
 551 0370 83370900 		ld	a5,0(s2)
 552 0374 03A70700 		lw	a4,0(a5)
  96:src/c_thread.cpp ****     int volatile parent_id = TCB::running->t_id;
 553              		.loc 1 96 18 discriminator 2
 554 0378 232EE4FC 		sw	a4,-36(s0)
GAS LISTING /tmp/ccSq2scT.s 			page 16


  97:src/c_thread.cpp ****     memcpy(TCB::running->stack, child->stack, DEFAULT_STACK_SIZE);
 555              		.loc 1 97 5 is_stmt 1 discriminator 2
  97:src/c_thread.cpp ****     memcpy(TCB::running->stack, child->stack, DEFAULT_STACK_SIZE);
 556              		.loc 1 97 11 is_stmt 0 discriminator 2
 557 037c 37460000 		li	a2,16384
 558 0380 83B58401 		ld	a1,24(s1)
 559 0384 03B58701 		ld	a0,24(a5)
 560              	.LEHB5:
 561 0388 97000000 		call	_Z6memcpyPKvS0_i@plt
 561      E7800000 
 562              	.LVL49:
  98:src/c_thread.cpp ****     context_inherit(&child->context);
 563              		.loc 1 98 5 is_stmt 1 discriminator 2
  98:src/c_thread.cpp ****     context_inherit(&child->context);
 564              		.loc 1 98 20 is_stmt 0 discriminator 2
 565 0390 13858402 		addi	a0,s1,40
 566 0394 97000000 		call	_ZN3TCB15context_inheritEP7Context@plt
 566      E7800000 
 567              	.LVL50:
  99:src/c_thread.cpp ****     print_h((uint64)TCB::running);
 568              		.loc 1 99 5 is_stmt 1 discriminator 2
  99:src/c_thread.cpp ****     print_h((uint64)TCB::running);
 569              		.loc 1 99 12 is_stmt 0 discriminator 2
 570 039c 03350900 		ld	a0,0(s2)
 571 03a0 97000000 		call	_Z7print_hm@plt
 571      E7800000 
 572              	.LVL51:
 100:src/c_thread.cpp ****     if (TCB::running->t_id == parent_id) {
 573              		.loc 1 100 5 is_stmt 1 discriminator 2
 100:src/c_thread.cpp ****     if (TCB::running->t_id == parent_id) {
 574              		.loc 1 100 23 is_stmt 0 discriminator 2
 575 03a8 83370900 		ld	a5,0(s2)
 576 03ac 03A70700 		lw	a4,0(a5)
 100:src/c_thread.cpp ****     if (TCB::running->t_id == parent_id) {
 577              		.loc 1 100 31 discriminator 2
 578 03b0 8327C4FD 		lw	a5,-36(s0)
 579 03b4 9B870700 		sext.w	a5,a5
 100:src/c_thread.cpp ****     if (TCB::running->t_id == parent_id) {
 580              		.loc 1 100 5 discriminator 2
 581 03b8 6300F702 		beq	a4,a5,.L29
 103:src/c_thread.cpp ****         return 0;
 582              		.loc 1 103 16
 583 03bc 13050000 		li	a0,0
 584              	.L27:
 105:src/c_thread.cpp **** }
 585              		.loc 1 105 1
 586 03c0 83308102 		ld	ra,40(sp)
 587              		.cfi_remember_state
 588              		.cfi_restore 1
 589 03c4 03340102 		ld	s0,32(sp)
 590              		.cfi_restore 8
 591              		.cfi_def_cfa 2, 48
 592 03c8 83348101 		ld	s1,24(sp)
 593              		.cfi_restore 9
 594              	.LVL52:
 595 03cc 03390101 		ld	s2,16(sp)
 596              		.cfi_restore 18
GAS LISTING /tmp/ccSq2scT.s 			page 17


 597 03d0 13010103 		addi	sp,sp,48
 598              		.cfi_def_cfa_offset 0
 599 03d4 67800000 		jr	ra
 600              	.LVL53:
 601              	.L29:
 602              		.cfi_restore_state
 101:src/c_thread.cpp ****         return child->t_id;
 603              		.loc 1 101 9 is_stmt 1
 101:src/c_thread.cpp ****         return child->t_id;
 604              		.loc 1 101 23 is_stmt 0
 605 03d8 03A50400 		lw	a0,0(s1)
 606 03dc 6FF05FFE 		j	.L27
 607              	.LVL54:
 608              	.L26:
 609 03e0 13090500 		mv	s2,a0
  95:src/c_thread.cpp ****     TCB *child = new TCB(*TCB::running);
 610              		.loc 1 95 39
 611 03e4 13850400 		mv	a0,s1
 612 03e8 97000000 		call	_ZdlPv@plt
 612      E7800000 
 613              	.LVL55:
 614 03f0 13050900 		mv	a0,s2
 615 03f4 97000000 		call	_Unwind_Resume@plt
 615      E7800000 
 616              	.LVL56:
 617              	.LEHE5:
 618              		.cfi_endproc
 619              	.LFE57:
 620              		.section	.gcc_except_table
 621              	.LLSDA57:
 622 002b FF       		.byte	0xff
 623 002c FF       		.byte	0xff
 624 002d 03       		.byte	0x3
 625 002e 27       		.byte	0x27
 626 002f 00000000 		.4byte	.LEHB3-.LFB57
 627 0033 00000000 		.4byte	.LEHE3-.LEHB3
 628 0037 00000000 		.4byte	0
 629 003b 00       		.byte	0
 630 003c 00000000 		.4byte	.LEHB4-.LFB57
 631 0040 00000000 		.4byte	.LEHE4-.LEHB4
 632 0044 00000000 		.4byte	.L26-.LFB57
 633 0048 00       		.byte	0
 634 0049 00000000 		.4byte	.LEHB5-.LFB57
 635 004d 00000000 		.4byte	.LEHE5-.LEHB5
 636 0051 00000000 		.4byte	0
 637 0055 00       		.byte	0
 638              		.text
 640              		.section	.text._ZN3stm14CircularBufferIP3TCBE3getEv,"axG",@progbits,_ZN3stm14CircularBufferIP3TCBE
 641              		.align	2
 642              		.weak	_ZN3stm14CircularBufferIP3TCBE3getEv
 644              	_ZN3stm14CircularBufferIP3TCBE3getEv:
 645              	.LFB63:
  45:src/../h/circular_buffer.hpp **** 
  46:src/../h/circular_buffer.hpp **** template<typename T>
  47:src/../h/circular_buffer.hpp **** void stm::CircularBuffer<T>::put(T element) {
  48:src/../h/circular_buffer.hpp ****     if (this->size == this->capacity) {
  49:src/../h/circular_buffer.hpp ****         this->extend();
GAS LISTING /tmp/ccSq2scT.s 			page 18


  50:src/../h/circular_buffer.hpp ****     }
  51:src/../h/circular_buffer.hpp ****     this->queue[this->tail] = element;
  52:src/../h/circular_buffer.hpp ****     this->tail = (this->tail + 1) % this->capacity;
  53:src/../h/circular_buffer.hpp ****     this->size++;
  54:src/../h/circular_buffer.hpp **** }
  55:src/../h/circular_buffer.hpp **** 
  56:src/../h/circular_buffer.hpp **** template<typename T>
  57:src/../h/circular_buffer.hpp **** T stm::CircularBuffer<T>::get() {
 646              		.loc 3 57 3 is_stmt 1
 647              		.cfi_startproc
 648              	.LVL57:
 649 0000 130101FF 		addi	sp,sp,-16
 650              		.cfi_def_cfa_offset 16
 651 0004 23348100 		sd	s0,8(sp)
 652              		.cfi_offset 8, -8
 653 0008 13040101 		addi	s0,sp,16
 654              		.cfi_def_cfa 8, 0
 655 000c 93070500 		mv	a5,a0
  58:src/../h/circular_buffer.hpp ****     T ret = this->queue[this->head];
 656              		.loc 3 58 19 is_stmt 0
 657 0010 83360500 		ld	a3,0(a0)
 658              		.loc 3 58 31
 659 0014 03278500 		lw	a4,8(a0)
 660              		.loc 3 58 24
 661 0018 13163700 		slli	a2,a4,3
 662 001c B386C600 		add	a3,a3,a2
 663              		.loc 3 58 7
 664 0020 03B50600 		ld	a0,0(a3)
 665              	.LVL58:
  59:src/../h/circular_buffer.hpp ****     this->head = (this->head + 1) % this->capacity;
 666              		.loc 3 59 30
 667 0024 1B071700 		addiw	a4,a4,1
 668              		.loc 3 59 43
 669 0028 83A64701 		lw	a3,20(a5)
 670              		.loc 3 59 35
 671 002c 3B67D702 		remw	a4,a4,a3
 672              		.loc 3 59 5
 673 0030 23A4E700 		sw	a4,8(a5)
  60:src/../h/circular_buffer.hpp ****     this->size--;
 674              		.loc 3 60 11
 675 0034 03A70701 		lw	a4,16(a5)
 676              		.loc 3 60 5
 677 0038 1B07F7FF 		addiw	a4,a4,-1
 678 003c 23A8E700 		sw	a4,16(a5)
  61:src/../h/circular_buffer.hpp ****     return ret;
  62:src/../h/circular_buffer.hpp **** }
 679              		.loc 3 62 1
 680 0040 03348100 		ld	s0,8(sp)
 681              		.cfi_restore 8
 682              		.cfi_def_cfa 2, 16
 683 0044 13010101 		addi	sp,sp,16
 684              		.cfi_def_cfa_offset 0
 685 0048 67800000 		jr	ra
 686              		.cfi_endproc
 687              	.LFE63:
 689              		.section	.text._ZN3stm14CircularBufferIP3TCBE7destroyEv,"axG",@progbits,_ZN3stm14CircularBufferIP3
 690              		.align	2
GAS LISTING /tmp/ccSq2scT.s 			page 19


 691              		.weak	_ZN3stm14CircularBufferIP3TCBE7destroyEv
 693              	_ZN3stm14CircularBufferIP3TCBE7destroyEv:
 694              	.LFB64:
  63:src/../h/circular_buffer.hpp **** 
  64:src/../h/circular_buffer.hpp **** template<typename T>
  65:src/../h/circular_buffer.hpp **** T &stm::CircularBuffer<T>::peek() {
  66:src/../h/circular_buffer.hpp ****     return this->queue[this->head];
  67:src/../h/circular_buffer.hpp **** }
  68:src/../h/circular_buffer.hpp **** 
  69:src/../h/circular_buffer.hpp **** template<typename T>
  70:src/../h/circular_buffer.hpp **** void stm::CircularBuffer<T>::extend() {
  71:src/../h/circular_buffer.hpp ****     T *new_queue = (T *) mem_alloc(sizeof(T *) * this->capacity * 2);
  72:src/../h/circular_buffer.hpp ****     for (int i = 0, j = this->head; i < this->capacity; i++, j = (j + 1) % this->capacity)
  73:src/../h/circular_buffer.hpp ****         new_queue[i] = this->queue[j];
  74:src/../h/circular_buffer.hpp ****     mem_free(queue);
  75:src/../h/circular_buffer.hpp ****     this->queue = new_queue;
  76:src/../h/circular_buffer.hpp ****     this->head = 0;
  77:src/../h/circular_buffer.hpp ****     this->tail = this->capacity;
  78:src/../h/circular_buffer.hpp ****     this->capacity *= 2;
  79:src/../h/circular_buffer.hpp **** }
  80:src/../h/circular_buffer.hpp **** 
  81:src/../h/circular_buffer.hpp **** template<typename T>
  82:src/../h/circular_buffer.hpp **** void stm::CircularBuffer<T>::destroy() {
 695              		.loc 3 82 6 is_stmt 1
 696              		.cfi_startproc
 697              	.LVL59:
 698 0000 130101FF 		addi	sp,sp,-16
 699              		.cfi_def_cfa_offset 16
 700 0004 23341100 		sd	ra,8(sp)
 701 0008 23308100 		sd	s0,0(sp)
 702              		.cfi_offset 1, -8
 703              		.cfi_offset 8, -16
 704 000c 13040101 		addi	s0,sp,16
 705              		.cfi_def_cfa 8, 0
  83:src/../h/circular_buffer.hpp ****     mem_free(this->queue);
 706              		.loc 3 83 13 is_stmt 0
 707 0010 03350500 		ld	a0,0(a0)
 708              	.LVL60:
 709 0014 97000000 		call	_Z8mem_freePv@plt
 709      E7800000 
 710              	.LVL61:
  84:src/../h/circular_buffer.hpp **** }
 711              		.loc 3 84 1
 712 001c 83308100 		ld	ra,8(sp)
 713              		.cfi_restore 1
 714 0020 03340100 		ld	s0,0(sp)
 715              		.cfi_restore 8
 716              		.cfi_def_cfa 2, 16
 717 0024 13010101 		addi	sp,sp,16
 718              		.cfi_def_cfa_offset 0
 719 0028 67800000 		jr	ra
 720              		.cfi_endproc
 721              	.LFE64:
 723              		.text
 724              		.align	2
 725              		.globl	_ZN3TCB14destroy_threadEPS_
 727              	_ZN3TCB14destroy_threadEPS_:
GAS LISTING /tmp/ccSq2scT.s 			page 20


 728              	.LFB53:
  59:src/c_thread.cpp **** TCB *TCB::destroy_thread(TCB *thread) {
 729              		.loc 1 59 39 is_stmt 1
 730              		.cfi_startproc
 731              	.LVL62:
 732 03fc 130101FE 		addi	sp,sp,-32
 733              		.cfi_def_cfa_offset 32
 734 0400 233C1100 		sd	ra,24(sp)
 735 0404 23388100 		sd	s0,16(sp)
 736 0408 23349100 		sd	s1,8(sp)
 737              		.cfi_offset 1, -8
 738              		.cfi_offset 8, -16
 739              		.cfi_offset 9, -24
 740 040c 13040102 		addi	s0,sp,32
 741              		.cfi_def_cfa 8, 0
 742 0410 93040500 		mv	s1,a0
 743              	.LVL63:
 744              	.L36:
  60:src/c_thread.cpp ****     while (!thread->joiner.is_empty()) {
 745              		.loc 1 60 5
  60:src/c_thread.cpp ****     while (!thread->joiner.is_empty()) {
 746              		.loc 1 60 12
 747              	.LBB49:
 748              	.LBB50:
  20:src/../h/circular_buffer.hpp **** 
 749              		.loc 3 20 53 is_stmt 0
 750 0414 83A70407 		lw	a5,112(s1)
 751              	.LVL64:
 752              	.LBE50:
 753              	.LBE49:
  60:src/c_thread.cpp ****     while (!thread->joiner.is_empty()) {
 754              		.loc 1 60 12
 755 0418 63860702 		beqz	a5,.L35
 756              	.LBB51:
  61:src/c_thread.cpp ****         TCB *next = thread->joiner.get();
 757              		.loc 1 61 9 is_stmt 1
  61:src/c_thread.cpp ****         TCB *next = thread->joiner.get();
 758              		.loc 1 61 39 is_stmt 0
 759 041c 13850406 		addi	a0,s1,96
 760 0420 97000000 		call	_ZN3stm14CircularBufferIP3TCBE3getEv
 760      E7800000 
 761              	.LVL65:
  62:src/c_thread.cpp ****         if (next->is_joined()) {
 762              		.loc 1 62 9 is_stmt 1
 763              	.LBB52:
 764              	.LBB53:
  57:src/../h/c_thread.hpp **** 
 765              		.loc 2 57 30
  57:src/../h/c_thread.hpp **** 
 766              		.loc 2 57 43 is_stmt 0
 767 0428 03278504 		lw	a4,72(a0)
 768              	.LVL66:
 769              	.LBE53:
 770              	.LBE52:
  62:src/c_thread.cpp ****         if (next->is_joined()) {
 771              		.loc 1 62 9
 772 042c 93073000 		li	a5,3
GAS LISTING /tmp/ccSq2scT.s 			page 21


 773 0430 E312F7FE 		bne	a4,a5,.L36
  63:src/c_thread.cpp ****             next->run();
 774              		.loc 1 63 13 is_stmt 1
 775              	.LVL67:
 776              	.LBB54:
 777              	.LBB55:
  61:src/../h/c_thread.hpp **** 
 778              		.loc 2 61 18
  61:src/../h/c_thread.hpp **** 
 779              		.loc 2 61 31 is_stmt 0
 780 0434 23240504 		sw	zero,72(a0)
 781              	.LVL68:
 782              	.LBE55:
 783              	.LBE54:
  64:src/c_thread.cpp ****             Scheduler::put(next);
 784              		.loc 1 64 13 is_stmt 1
  64:src/c_thread.cpp ****             Scheduler::put(next);
 785              		.loc 1 64 27 is_stmt 0
 786 0438 97000000 		call	_ZN9Scheduler3putEP3TCB@plt
 786      E7800000 
 787              	.LVL69:
 788 0440 6FF05FFD 		j	.L36
 789              	.L35:
 790              	.LBE51:
  67:src/c_thread.cpp ****     thread->joiner.destroy();
 791              		.loc 1 67 5 is_stmt 1
  67:src/c_thread.cpp ****     thread->joiner.destroy();
 792              		.loc 1 67 27 is_stmt 0
 793 0444 13850406 		addi	a0,s1,96
 794 0448 97000000 		call	_ZN3stm14CircularBufferIP3TCBE7destroyEv
 794      E7800000 
 795              	.LVL70:
  68:src/c_thread.cpp ****     return thread;
 796              		.loc 1 68 5 is_stmt 1
  69:src/c_thread.cpp **** }
 797              		.loc 1 69 1 is_stmt 0
 798 0450 13850400 		mv	a0,s1
 799 0454 83308101 		ld	ra,24(sp)
 800              		.cfi_restore 1
 801 0458 03340101 		ld	s0,16(sp)
 802              		.cfi_restore 8
 803              		.cfi_def_cfa 2, 32
 804 045c 83348100 		ld	s1,8(sp)
 805              		.cfi_restore 9
 806              	.LVL71:
 807 0460 13010102 		addi	sp,sp,32
 808              		.cfi_def_cfa_offset 0
 809 0464 67800000 		jr	ra
 810              		.cfi_endproc
 811              	.LFE53:
 813              		.align	2
 814              		.globl	_ZN3TCB16_thread_dispatchEv
 816              	_ZN3TCB16_thread_dispatchEv:
 817              	.LFB52:
  38:src/c_thread.cpp **** void TCB::_thread_dispatch() {
 818              		.loc 1 38 30 is_stmt 1
 819              		.cfi_startproc
GAS LISTING /tmp/ccSq2scT.s 			page 22


 820 0468 130101FE 		addi	sp,sp,-32
 821              		.cfi_def_cfa_offset 32
 822 046c 233C1100 		sd	ra,24(sp)
 823 0470 23388100 		sd	s0,16(sp)
 824 0474 23349100 		sd	s1,8(sp)
 825              		.cfi_offset 1, -8
 826              		.cfi_offset 8, -16
 827              		.cfi_offset 9, -24
 828 0478 13040102 		addi	s0,sp,32
 829              		.cfi_def_cfa 8, 0
  39:src/c_thread.cpp ****     thread_t old = TCB::running;
 830              		.loc 1 39 5
  39:src/c_thread.cpp ****     thread_t old = TCB::running;
 831              		.loc 1 39 14 is_stmt 0
 832 047c 97040000 		ld	s1,.LANCHOR0
 832      83B40400 
 833              	.LVL72:
  40:src/c_thread.cpp ****     if (old->is_runnable() && old != handle_bleya) {
 834              		.loc 1 40 5 is_stmt 1
 835              	.LBB56:
 836              	.LBB57:
  51:src/../h/c_thread.hpp **** 
 837              		.loc 2 51 32
  51:src/../h/c_thread.hpp **** 
 838              		.loc 2 51 45 is_stmt 0
 839 0484 83A78404 		lw	a5,72(s1)
 840              	.LVL73:
 841              	.LBE57:
 842              	.LBE56:
  40:src/c_thread.cpp ****     if (old->is_runnable() && old != handle_bleya) {
 843              		.loc 1 40 28
 844 0488 63920702 		bnez	a5,.L40
  40:src/c_thread.cpp ****     if (old->is_runnable() && old != handle_bleya) {
 845              		.loc 1 40 35 discriminator 1
 846 048c 17070000 		la	a4,handle_bleya
 846      03370700 
 847 0494 03370700 		ld	a4,0(a4)
  40:src/c_thread.cpp ****     if (old->is_runnable() && old != handle_bleya) {
 848              		.loc 1 40 28 discriminator 1
 849 0498 630A9700 		beq	a4,s1,.L40
  41:src/c_thread.cpp ****         Scheduler::put(old);
 850              		.loc 1 41 9 is_stmt 1
  41:src/c_thread.cpp ****         Scheduler::put(old);
 851              		.loc 1 41 23 is_stmt 0
 852 049c 13850400 		mv	a0,s1
 853 04a0 97000000 		call	_ZN9Scheduler3putEP3TCB@plt
 853      E7800000 
 854              	.LVL74:
 855 04a8 6F00C000 		j	.L41
 856              	.L40:
  42:src/c_thread.cpp ****     } else if (old->is_finished()) {
 857              		.loc 1 42 12 is_stmt 1
 858              	.LVL75:
  59:src/../h/c_thread.hpp **** 
 859              		.loc 2 59 32
  42:src/c_thread.cpp ****     } else if (old->is_finished()) {
 860              		.loc 1 42 12 is_stmt 0
GAS LISTING /tmp/ccSq2scT.s 			page 23


 861 04ac 13074000 		li	a4,4
 862 04b0 6386E704 		beq	a5,a4,.L48
 863              	.L41:
  45:src/c_thread.cpp ****     if (Scheduler::is_empty()) {
 864              		.loc 1 45 5 is_stmt 1
 865              	.LBB58:
 866              	.LBB59:
 867              		.file 4 "src/../h/scheduler.hpp"
   1:src/../h/scheduler.hpp **** #ifndef PROJECT_BASE_SCHEDULER_HPP
   2:src/../h/scheduler.hpp **** #define PROJECT_BASE_SCHEDULER_HPP
   3:src/../h/scheduler.hpp **** 
   4:src/../h/scheduler.hpp **** #include "circular_buffer.hpp"
   5:src/../h/scheduler.hpp **** #include "syscall_c.hpp"
   6:src/../h/scheduler.hpp **** 
   7:src/../h/scheduler.hpp **** class Scheduler final {
   8:src/../h/scheduler.hpp **** public:
   9:src/../h/scheduler.hpp **** 
  10:src/../h/scheduler.hpp ****     static void init() { high_priority.init(); mid_priority.init(); low_priority.init(); }
  11:src/../h/scheduler.hpp **** 
  12:src/../h/scheduler.hpp ****     static void put(TCB *thread);
  13:src/../h/scheduler.hpp **** 
  14:src/../h/scheduler.hpp ****     static TCB *get();
  15:src/../h/scheduler.hpp **** 
  16:src/../h/scheduler.hpp ****     static inline bool is_empty() {
  17:src/../h/scheduler.hpp ****         return high_priority.is_empty() && mid_priority.is_empty() && low_priority.is_empty();
 868              		.loc 4 17 9
 869              	.LVL76:
 870              	.LBB60:
 871              	.LBB61:
  20:src/../h/circular_buffer.hpp **** 
 872              		.loc 3 20 53 is_stmt 0
 873 04b4 97070000 		la	a5,_ZN9Scheduler13high_priorityE
 873      83B70700 
 874 04bc 83A70701 		lw	a5,16(a5)
 875              	.LVL77:
 876              	.LBE61:
 877              	.LBE60:
 878              		.loc 4 17 68
 879 04c0 63940706 		bnez	a5,.L45
 880              	.LVL78:
 881              	.LBB62:
 882              	.LBB63:
  20:src/../h/circular_buffer.hpp **** 
 883              		.loc 3 20 53
 884 04c4 97070000 		la	a5,_ZN9Scheduler12mid_priorityE
 884      83B70700 
 885 04cc 83A70701 		lw	a5,16(a5)
 886              	.LVL79:
 887              	.LBE63:
 888              	.LBE62:
 889              		.loc 4 17 41
 890 04d0 639C0704 		bnez	a5,.L45
 891              	.LVL80:
 892              	.LBB64:
 893              	.LBB65:
  20:src/../h/circular_buffer.hpp **** 
 894              		.loc 3 20 53
GAS LISTING /tmp/ccSq2scT.s 			page 24


 895 04d4 97070000 		la	a5,_ZN9Scheduler12low_priorityE
 895      83B70700 
 896 04dc 83A70701 		lw	a5,16(a5)
 897              	.LVL81:
 898              	.LBE65:
 899              	.LBE64:
 900              		.loc 4 17 68
 901 04e0 63940704 		bnez	a5,.L45
 902              	.LBE59:
 903              	.LBE58:
  46:src/c_thread.cpp ****         TCB::running = handle_bleya;
 904              		.loc 1 46 9 is_stmt 1
  46:src/c_thread.cpp ****         TCB::running = handle_bleya;
 905              		.loc 1 46 22 is_stmt 0
 906 04e4 97070000 		la	a5,handle_bleya
 906      83B70700 
 907 04ec 83B70700 		ld	a5,0(a5)
 908 04f0 17070000 		sd	a5,.LANCHOR0,a4
 908      2330F700 
 909 04f8 6F004005 		j	.L43
 910              	.L48:
  43:src/c_thread.cpp ****         Allocator::_mem_free(old->stack);
 911              		.loc 1 43 9 is_stmt 1
  43:src/c_thread.cpp ****         Allocator::_mem_free(old->stack);
 912              		.loc 1 43 29 is_stmt 0
 913 04fc 03B58401 		ld	a0,24(s1)
 914 0500 97000000 		call	_ZN9Allocator9_mem_freeEPKv@plt
 914      E7800000 
 915              	.LVL82:
 916 0508 6FF0DFFA 		j	.L41
 917              	.L49:
  49:src/c_thread.cpp ****             Allocator::_mem_free(TCB::destroy_thread(Scheduler::get())->stack);
 918              		.loc 1 49 13 is_stmt 1
  49:src/c_thread.cpp ****             Allocator::_mem_free(TCB::destroy_thread(Scheduler::get())->stack);
 919              		.loc 1 49 53 is_stmt 0
 920 050c 97000000 		call	_ZN9Scheduler3getEv@plt
 920      E7800000 
 921              	.LVL83:
 922 0514 97000000 		call	_ZN3TCB14destroy_threadEPS_
 922      E7800000 
 923              	.LVL84:
  49:src/c_thread.cpp ****             Allocator::_mem_free(TCB::destroy_thread(Scheduler::get())->stack);
 924              		.loc 1 49 33
 925 051c 03358501 		ld	a0,24(a0)
 926 0520 97000000 		call	_ZN9Allocator9_mem_freeEPKv@plt
 926      E7800000 
 927              	.LVL85:
 928              	.L45:
  48:src/c_thread.cpp ****         while (Scheduler::peek()->is_finished()) {
 929              		.loc 1 48 9 is_stmt 1
  48:src/c_thread.cpp ****         while (Scheduler::peek()->is_finished()) {
 930              		.loc 1 48 46
 931 0528 97000000 		call	_ZN9Scheduler4peekEv@plt
 931      E7800000 
 932              	.LVL86:
 933              	.LBB66:
 934              	.LBB67:
GAS LISTING /tmp/ccSq2scT.s 			page 25


  59:src/../h/c_thread.hpp **** 
 935              		.loc 2 59 32
  59:src/../h/c_thread.hpp **** 
 936              		.loc 2 59 45 is_stmt 0
 937 0530 03278504 		lw	a4,72(a0)
 938              	.LVL87:
 939              	.LBE67:
 940              	.LBE66:
  48:src/c_thread.cpp ****         while (Scheduler::peek()->is_finished()) {
 941              		.loc 1 48 46
 942 0534 93074000 		li	a5,4
 943 0538 E30AF7FC 		beq	a4,a5,.L49
  51:src/c_thread.cpp ****         TCB::running = Scheduler::get();
 944              		.loc 1 51 9 is_stmt 1
  51:src/c_thread.cpp ****         TCB::running = Scheduler::get();
 945              		.loc 1 51 38 is_stmt 0
 946 053c 97000000 		call	_ZN9Scheduler3getEv@plt
 946      E7800000 
 947              	.LVL88:
  51:src/c_thread.cpp ****         TCB::running = Scheduler::get();
 948              		.loc 1 51 22
 949 0544 97070000 		sd	a0,.LANCHOR0,a5
 949      23B0A700 
 950              	.L43:
  53:src/c_thread.cpp ****     if (riscv::setjump()) {
 951              		.loc 1 53 5 is_stmt 1
  53:src/c_thread.cpp ****     if (riscv::setjump()) {
 952              		.loc 1 53 23 is_stmt 0
 953 054c 97000000 		call	_ZN5riscv7setjumpEv@plt
 953      E7800000 
 954              	.LVL89:
  53:src/c_thread.cpp ****     if (riscv::setjump()) {
 955              		.loc 1 53 5
 956 0554 631C0500 		bnez	a0,.L50
 957              	.L39:
  57:src/c_thread.cpp **** }
 958              		.loc 1 57 1
 959 0558 83308101 		ld	ra,24(sp)
 960              		.cfi_remember_state
 961              		.cfi_restore 1
 962 055c 03340101 		ld	s0,16(sp)
 963              		.cfi_restore 8
 964              		.cfi_def_cfa 2, 32
 965 0560 83348100 		ld	s1,8(sp)
 966              		.cfi_restore 9
 967              	.LVL90:
 968 0564 13010102 		addi	sp,sp,32
 969              		.cfi_def_cfa_offset 0
 970 0568 67800000 		jr	ra
 971              	.LVL91:
 972              	.L50:
 973              		.cfi_restore_state
  54:src/c_thread.cpp ****         TCB::context_switch(&old->context, &TCB::running->context);
 974              		.loc 1 54 9 is_stmt 1
  54:src/c_thread.cpp ****         TCB::context_switch(&old->context, &TCB::running->context);
 975              		.loc 1 54 28 is_stmt 0
 976 056c 97050000 		ld	a1,.LANCHOR0
GAS LISTING /tmp/ccSq2scT.s 			page 26


 976      83B50500 
 977 0574 93858502 		addi	a1,a1,40
 978 0578 13858402 		addi	a0,s1,40
 979 057c 97000000 		call	_ZN3TCB14context_switchEP7ContextS1_@plt
 979      E7800000 
 980              	.LVL92:
  55:src/c_thread.cpp ****         riscv::longjump();
 981              		.loc 1 55 9 is_stmt 1
  55:src/c_thread.cpp ****         riscv::longjump();
 982              		.loc 1 55 24 is_stmt 0
 983 0584 97000000 		call	_ZN5riscv8longjumpEv@plt
 983      E7800000 
 984              	.LVL93:
  57:src/c_thread.cpp **** }
 985              		.loc 1 57 1
 986 058c 6FF0DFFC 		j	.L39
 987              		.cfi_endproc
 988              	.LFE52:
 990              		.align	2
 991              		.globl	_ZN3TCB12_thread_exitEv
 993              	_ZN3TCB12_thread_exitEv:
 994              	.LFB54:
  71:src/c_thread.cpp **** void TCB::_thread_exit() {
 995              		.loc 1 71 26 is_stmt 1
 996              		.cfi_startproc
 997 0590 130101FF 		addi	sp,sp,-16
 998              		.cfi_def_cfa_offset 16
 999 0594 23341100 		sd	ra,8(sp)
 1000 0598 23308100 		sd	s0,0(sp)
 1001              		.cfi_offset 1, -8
 1002              		.cfi_offset 8, -16
 1003 059c 13040101 		addi	s0,sp,16
 1004              		.cfi_def_cfa 8, 0
  72:src/c_thread.cpp ****     TCB::running->finish();
 1005              		.loc 1 72 5
  72:src/c_thread.cpp ****     TCB::running->finish();
 1006              		.loc 1 72 25 is_stmt 0
 1007 05a0 17050000 		ld	a0,.LANCHOR0
 1007      03350500 
 1008              	.LVL94:
 1009              	.LBB68:
 1010              	.LBB69:
 1011              		.loc 2 69 21 is_stmt 1
 1012              		.loc 2 69 34 is_stmt 0
 1013 05a8 93074000 		li	a5,4
 1014 05ac 2324F504 		sw	a5,72(a0)
 1015              	.LVL95:
 1016              	.LBE69:
 1017              	.LBE68:
  73:src/c_thread.cpp ****     TCB::destroy_thread(TCB::running);
 1018              		.loc 1 73 5 is_stmt 1
  73:src/c_thread.cpp ****     TCB::destroy_thread(TCB::running);
 1019              		.loc 1 73 24 is_stmt 0
 1020 05b0 97000000 		call	_ZN3TCB14destroy_threadEPS_
 1020      E7800000 
 1021              	.LVL96:
  74:src/c_thread.cpp ****     TCB::_thread_dispatch();
GAS LISTING /tmp/ccSq2scT.s 			page 27


 1022              		.loc 1 74 5 is_stmt 1
  74:src/c_thread.cpp ****     TCB::_thread_dispatch();
 1023              		.loc 1 74 26 is_stmt 0
 1024 05b8 97000000 		call	_ZN3TCB16_thread_dispatchEv
 1024      E7800000 
 1025              	.LVL97:
  75:src/c_thread.cpp **** }
 1026              		.loc 1 75 1
 1027 05c0 83308100 		ld	ra,8(sp)
 1028              		.cfi_restore 1
 1029 05c4 03340100 		ld	s0,0(sp)
 1030              		.cfi_restore 8
 1031              		.cfi_def_cfa 2, 16
 1032 05c8 13010101 		addi	sp,sp,16
 1033              		.cfi_def_cfa_offset 0
 1034 05cc 67800000 		jr	ra
 1035              		.cfi_endproc
 1036              	.LFE54:
 1038              		.section	.text._ZN3stm14CircularBufferIP3TCBE6extendEv,"axG",@progbits,_ZN3stm14CircularBufferIP3T
 1039              		.align	2
 1040              		.weak	_ZN3stm14CircularBufferIP3TCBE6extendEv
 1042              	_ZN3stm14CircularBufferIP3TCBE6extendEv:
 1043              	.LFB66:
  70:src/../h/circular_buffer.hpp ****     T *new_queue = (T *) mem_alloc(sizeof(T *) * this->capacity * 2);
 1044              		.loc 3 70 6 is_stmt 1
 1045              		.cfi_startproc
 1046              	.LVL98:
 1047 0000 130101FE 		addi	sp,sp,-32
 1048              		.cfi_def_cfa_offset 32
 1049 0004 233C1100 		sd	ra,24(sp)
 1050 0008 23388100 		sd	s0,16(sp)
 1051 000c 23349100 		sd	s1,8(sp)
 1052 0010 23302101 		sd	s2,0(sp)
 1053              		.cfi_offset 1, -8
 1054              		.cfi_offset 8, -16
 1055              		.cfi_offset 9, -24
 1056              		.cfi_offset 18, -32
 1057 0014 13040102 		addi	s0,sp,32
 1058              		.cfi_def_cfa 8, 0
 1059 0018 93040500 		mv	s1,a0
  71:src/../h/circular_buffer.hpp ****     for (int i = 0, j = this->head; i < this->capacity; i++, j = (j + 1) % this->capacity)
 1060              		.loc 3 71 56 is_stmt 0
 1061 001c 03254501 		lw	a0,20(a0)
 1062              	.LVL99:
  71:src/../h/circular_buffer.hpp ****     for (int i = 0, j = this->head; i < this->capacity; i++, j = (j + 1) % this->capacity)
 1063              		.loc 3 71 35
 1064 0020 13154500 		slli	a0,a0,4
 1065 0024 97000000 		call	_Z9mem_allocm@plt
 1065      E7800000 
 1066              	.LVL100:
 1067 002c 13090500 		mv	s2,a0
 1068              	.LVL101:
 1069              	.LBB70:
  72:src/../h/circular_buffer.hpp ****         new_queue[i] = this->queue[j];
 1070              		.loc 3 72 21
 1071 0030 83A78400 		lw	a5,8(s1)
 1072              	.LVL102:
GAS LISTING /tmp/ccSq2scT.s 			page 28


  72:src/../h/circular_buffer.hpp ****         new_queue[i] = this->queue[j];
 1073              		.loc 3 72 14
 1074 0034 13070000 		li	a4,0
 1075              	.LVL103:
 1076              	.L55:
  72:src/../h/circular_buffer.hpp ****         new_queue[i] = this->queue[j];
 1077              		.loc 3 72 39 is_stmt 1 discriminator 3
  72:src/../h/circular_buffer.hpp ****         new_queue[i] = this->queue[j];
 1078              		.loc 3 72 47 is_stmt 0 discriminator 3
 1079 0038 83A64401 		lw	a3,20(s1)
  72:src/../h/circular_buffer.hpp ****         new_queue[i] = this->queue[j];
 1080              		.loc 3 72 39 discriminator 3
 1081 003c 635AD702 		ble	a3,a4,.L54
  73:src/../h/circular_buffer.hpp ****     mem_free(queue);
 1082              		.loc 3 73 30 discriminator 2
 1083 0040 03B60400 		ld	a2,0(s1)
  73:src/../h/circular_buffer.hpp ****     mem_free(queue);
 1084              		.loc 3 73 18 discriminator 2
 1085 0044 93163700 		slli	a3,a4,3
 1086 0048 B306D900 		add	a3,s2,a3
  73:src/../h/circular_buffer.hpp ****     mem_free(queue);
 1087              		.loc 3 73 35 discriminator 2
 1088 004c 93953700 		slli	a1,a5,3
 1089 0050 3306B600 		add	a2,a2,a1
 1090 0054 03360600 		ld	a2,0(a2)
  73:src/../h/circular_buffer.hpp ****     mem_free(queue);
 1091              		.loc 3 73 9 discriminator 2
 1092 0058 23B0C600 		sd	a2,0(a3)
  72:src/../h/circular_buffer.hpp ****         new_queue[i] = this->queue[j];
 1093              		.loc 3 72 5 is_stmt 1 discriminator 2
 1094 005c 1B071700 		addiw	a4,a4,1
 1095              	.LVL104:
  72:src/../h/circular_buffer.hpp ****         new_queue[i] = this->queue[j];
 1096              		.loc 3 72 69 is_stmt 0 discriminator 2
 1097 0060 9B871700 		addiw	a5,a5,1
 1098              	.LVL105:
  72:src/../h/circular_buffer.hpp ****         new_queue[i] = this->queue[j];
 1099              		.loc 3 72 82 discriminator 2
 1100 0064 83A64401 		lw	a3,20(s1)
  72:src/../h/circular_buffer.hpp ****         new_queue[i] = this->queue[j];
 1101              		.loc 3 72 5 discriminator 2
 1102 0068 BBE7D702 		remw	a5,a5,a3
 1103              	.LVL106:
 1104 006c 6FF0DFFC 		j	.L55
 1105              	.LVL107:
 1106              	.L54:
 1107              	.LBE70:
  74:src/../h/circular_buffer.hpp ****     this->queue = new_queue;
 1108              		.loc 3 74 13
 1109 0070 03B50400 		ld	a0,0(s1)
 1110              	.LVL108:
 1111 0074 97000000 		call	_Z8mem_freePv@plt
 1111      E7800000 
 1112              	.LVL109:
  75:src/../h/circular_buffer.hpp ****     this->head = 0;
 1113              		.loc 3 75 5
 1114 007c 23B02401 		sd	s2,0(s1)
GAS LISTING /tmp/ccSq2scT.s 			page 29


  76:src/../h/circular_buffer.hpp ****     this->tail = this->capacity;
 1115              		.loc 3 76 5
 1116 0080 23A40400 		sw	zero,8(s1)
  77:src/../h/circular_buffer.hpp ****     this->capacity *= 2;
 1117              		.loc 3 77 24
 1118 0084 83A74401 		lw	a5,20(s1)
  77:src/../h/circular_buffer.hpp ****     this->capacity *= 2;
 1119              		.loc 3 77 5
 1120 0088 23A6F400 		sw	a5,12(s1)
  78:src/../h/circular_buffer.hpp **** }
 1121              		.loc 3 78 20
 1122 008c 9B971700 		slliw	a5,a5,1
  78:src/../h/circular_buffer.hpp **** }
 1123              		.loc 3 78 5
 1124 0090 23AAF400 		sw	a5,20(s1)
  79:src/../h/circular_buffer.hpp **** 
 1125              		.loc 3 79 1
 1126 0094 83308101 		ld	ra,24(sp)
 1127              		.cfi_restore 1
 1128 0098 03340101 		ld	s0,16(sp)
 1129              		.cfi_restore 8
 1130              		.cfi_def_cfa 2, 32
 1131 009c 83348100 		ld	s1,8(sp)
 1132              		.cfi_restore 9
 1133              	.LVL110:
 1134 00a0 03390100 		ld	s2,0(sp)
 1135              		.cfi_restore 18
 1136              	.LVL111:
 1137 00a4 13010102 		addi	sp,sp,32
 1138              		.cfi_def_cfa_offset 0
 1139 00a8 67800000 		jr	ra
 1140              		.cfi_endproc
 1141              	.LFE66:
 1143              		.section	.text._ZN3stm14CircularBufferIP3TCBE3putES2_,"axG",@progbits,_ZN3stm14CircularBufferIP3TC
 1144              		.align	2
 1145              		.weak	_ZN3stm14CircularBufferIP3TCBE3putES2_
 1147              	_ZN3stm14CircularBufferIP3TCBE3putES2_:
 1148              	.LFB65:
  47:src/../h/circular_buffer.hpp ****     if (this->size == this->capacity) {
 1149              		.loc 3 47 6 is_stmt 1
 1150              		.cfi_startproc
 1151              	.LVL112:
 1152 0000 130101FE 		addi	sp,sp,-32
 1153              		.cfi_def_cfa_offset 32
 1154 0004 233C1100 		sd	ra,24(sp)
 1155 0008 23388100 		sd	s0,16(sp)
 1156 000c 23349100 		sd	s1,8(sp)
 1157 0010 23302101 		sd	s2,0(sp)
 1158              		.cfi_offset 1, -8
 1159              		.cfi_offset 8, -16
 1160              		.cfi_offset 9, -24
 1161              		.cfi_offset 18, -32
 1162 0014 13040102 		addi	s0,sp,32
 1163              		.cfi_def_cfa 8, 0
 1164 0018 93040500 		mv	s1,a0
 1165 001c 13890500 		mv	s2,a1
  48:src/../h/circular_buffer.hpp ****         this->extend();
GAS LISTING /tmp/ccSq2scT.s 			page 30


 1166              		.loc 3 48 15 is_stmt 0
 1167 0020 03270501 		lw	a4,16(a0)
  48:src/../h/circular_buffer.hpp ****         this->extend();
 1168              		.loc 3 48 29
 1169 0024 83274501 		lw	a5,20(a0)
  48:src/../h/circular_buffer.hpp ****         this->extend();
 1170              		.loc 3 48 5
 1171 0028 6308F704 		beq	a4,a5,.L60
 1172              	.LVL113:
 1173              	.L58:
  51:src/../h/circular_buffer.hpp ****     this->tail = (this->tail + 1) % this->capacity;
 1174              		.loc 3 51 11
 1175 002c 83B70400 		ld	a5,0(s1)
  51:src/../h/circular_buffer.hpp ****     this->tail = (this->tail + 1) % this->capacity;
 1176              		.loc 3 51 23
 1177 0030 03A7C400 		lw	a4,12(s1)
  51:src/../h/circular_buffer.hpp ****     this->tail = (this->tail + 1) % this->capacity;
 1178              		.loc 3 51 16
 1179 0034 13173700 		slli	a4,a4,3
 1180 0038 B387E700 		add	a5,a5,a4
  51:src/../h/circular_buffer.hpp ****     this->tail = (this->tail + 1) % this->capacity;
 1181              		.loc 3 51 5
 1182 003c 23B02701 		sd	s2,0(a5)
  52:src/../h/circular_buffer.hpp ****     this->size++;
 1183              		.loc 3 52 25
 1184 0040 83A7C400 		lw	a5,12(s1)
  52:src/../h/circular_buffer.hpp ****     this->size++;
 1185              		.loc 3 52 30
 1186 0044 9B871700 		addiw	a5,a5,1
  52:src/../h/circular_buffer.hpp ****     this->size++;
 1187              		.loc 3 52 43
 1188 0048 03A74401 		lw	a4,20(s1)
  52:src/../h/circular_buffer.hpp ****     this->size++;
 1189              		.loc 3 52 35
 1190 004c BBE7E702 		remw	a5,a5,a4
  52:src/../h/circular_buffer.hpp ****     this->size++;
 1191              		.loc 3 52 5
 1192 0050 23A6F400 		sw	a5,12(s1)
  53:src/../h/circular_buffer.hpp **** }
 1193              		.loc 3 53 11
 1194 0054 83A70401 		lw	a5,16(s1)
  53:src/../h/circular_buffer.hpp **** }
 1195              		.loc 3 53 5
 1196 0058 9B871700 		addiw	a5,a5,1
 1197 005c 23A8F400 		sw	a5,16(s1)
  54:src/../h/circular_buffer.hpp **** 
 1198              		.loc 3 54 1
 1199 0060 83308101 		ld	ra,24(sp)
 1200              		.cfi_remember_state
 1201              		.cfi_restore 1
 1202 0064 03340101 		ld	s0,16(sp)
 1203              		.cfi_restore 8
 1204              		.cfi_def_cfa 2, 32
 1205 0068 83348100 		ld	s1,8(sp)
 1206              		.cfi_restore 9
 1207              	.LVL114:
 1208 006c 03390100 		ld	s2,0(sp)
GAS LISTING /tmp/ccSq2scT.s 			page 31


 1209              		.cfi_restore 18
 1210              	.LVL115:
 1211 0070 13010102 		addi	sp,sp,32
 1212              		.cfi_def_cfa_offset 0
 1213 0074 67800000 		jr	ra
 1214              	.LVL116:
 1215              	.L60:
 1216              		.cfi_restore_state
  49:src/../h/circular_buffer.hpp ****     }
 1217              		.loc 3 49 9
 1218 0078 97000000 		call	_ZN3stm14CircularBufferIP3TCBE6extendEv
 1218      E7800000 
 1219              	.LVL117:
 1220 0080 6FF0DFFA 		j	.L58
 1221              		.cfi_endproc
 1222              	.LFE65:
 1224              		.text
 1225              		.align	2
 1226              		.globl	_ZN3TCB12_thread_joinEPS_
 1228              	_ZN3TCB12_thread_joinEPS_:
 1229              	.LFB55:
  77:src/c_thread.cpp **** void TCB::_thread_join(thread_t handle) {
 1230              		.loc 1 77 41 is_stmt 1
 1231              		.cfi_startproc
 1232              	.LVL118:
  78:src/c_thread.cpp ****     if (handle->is_finished())
 1233              		.loc 1 78 5
 1234              	.LBB71:
 1235              	.LBB72:
  59:src/../h/c_thread.hpp **** 
 1236              		.loc 2 59 32
  59:src/../h/c_thread.hpp **** 
 1237              		.loc 2 59 45 is_stmt 0
 1238 05d0 03278504 		lw	a4,72(a0)
 1239              	.LVL119:
 1240              	.LBE72:
 1241              	.LBE71:
  78:src/c_thread.cpp ****     if (handle->is_finished())
 1242              		.loc 1 78 5
 1243 05d4 93074000 		li	a5,4
 1244 05d8 6304F704 		beq	a4,a5,.L64
  77:src/c_thread.cpp **** void TCB::_thread_join(thread_t handle) {
 1245              		.loc 1 77 41
 1246 05dc 130101FF 		addi	sp,sp,-16
 1247              		.cfi_def_cfa_offset 16
 1248 05e0 23341100 		sd	ra,8(sp)
 1249 05e4 23308100 		sd	s0,0(sp)
 1250              		.cfi_offset 1, -8
 1251              		.cfi_offset 8, -16
 1252 05e8 13040101 		addi	s0,sp,16
 1253              		.cfi_def_cfa 8, 0
  80:src/c_thread.cpp ****     TCB::running->enjoin();
 1254              		.loc 1 80 5 is_stmt 1
  80:src/c_thread.cpp ****     TCB::running->enjoin();
 1255              		.loc 1 80 25 is_stmt 0
 1256 05ec 97050000 		ld	a1,.LANCHOR0
 1256      83B50500 
GAS LISTING /tmp/ccSq2scT.s 			page 32


 1257              	.LVL120:
 1258              	.LBB73:
 1259              	.LBB74:
  67:src/../h/c_thread.hpp **** 
 1260              		.loc 2 67 21 is_stmt 1
  67:src/../h/c_thread.hpp **** 
 1261              		.loc 2 67 34 is_stmt 0
 1262 05f4 93073000 		li	a5,3
 1263 05f8 23A4F504 		sw	a5,72(a1)
 1264              	.LVL121:
 1265              	.LBE74:
 1266              	.LBE73:
  81:src/c_thread.cpp ****     handle->joiner.put(TCB::running);
 1267              		.loc 1 81 5 is_stmt 1
  81:src/c_thread.cpp ****     handle->joiner.put(TCB::running);
 1268              		.loc 1 81 23 is_stmt 0
 1269 05fc 13050506 		addi	a0,a0,96
 1270              	.LVL122:
 1271 0600 97000000 		call	_ZN3stm14CircularBufferIP3TCBE3putES2_
 1271      E7800000 
 1272              	.LVL123:
  82:src/c_thread.cpp ****     TCB::_thread_dispatch();
 1273              		.loc 1 82 5 is_stmt 1
  82:src/c_thread.cpp ****     TCB::_thread_dispatch();
 1274              		.loc 1 82 26 is_stmt 0
 1275 0608 97000000 		call	_ZN3TCB16_thread_dispatchEv
 1275      E7800000 
 1276              	.LVL124:
  83:src/c_thread.cpp **** }
 1277              		.loc 1 83 1
 1278 0610 83308100 		ld	ra,8(sp)
 1279              		.cfi_restore 1
 1280 0614 03340100 		ld	s0,0(sp)
 1281              		.cfi_restore 8
 1282              		.cfi_def_cfa 2, 16
 1283 0618 13010101 		addi	sp,sp,16
 1284              		.cfi_def_cfa_offset 0
 1285 061c 67800000 		jr	ra
 1286              	.LVL125:
 1287              	.L64:
 1288 0620 67800000 		ret
 1289              		.cfi_endproc
 1290              	.LFE55:
 1292              		.align	2
 1293              		.globl	_ZN3TCB17_thread_join_timeEPS_m
 1295              	_ZN3TCB17_thread_join_timeEPS_m:
 1296              	.LFB56:
  85:src/c_thread.cpp **** void TCB::_thread_join_time(thread_t handle, time_t time) {
 1297              		.loc 1 85 59 is_stmt 1
 1298              		.cfi_startproc
 1299              	.LVL126:
  86:src/c_thread.cpp ****     if (handle->is_finished())
 1300              		.loc 1 86 5
 1301              	.LBB75:
 1302              	.LBB76:
  59:src/../h/c_thread.hpp **** 
 1303              		.loc 2 59 32
GAS LISTING /tmp/ccSq2scT.s 			page 33


  59:src/../h/c_thread.hpp **** 
 1304              		.loc 2 59 45 is_stmt 0
 1305 0624 03278504 		lw	a4,72(a0)
 1306              	.LVL127:
 1307              	.LBE76:
 1308              	.LBE75:
  86:src/c_thread.cpp ****     if (handle->is_finished())
 1309              		.loc 1 86 5
 1310 0628 93074000 		li	a5,4
 1311 062c 6308F706 		beq	a4,a5,.L70
  85:src/c_thread.cpp **** void TCB::_thread_join_time(thread_t handle, time_t time) {
 1312              		.loc 1 85 59
 1313 0630 130101FE 		addi	sp,sp,-32
 1314              		.cfi_def_cfa_offset 32
 1315 0634 233C1100 		sd	ra,24(sp)
 1316 0638 23388100 		sd	s0,16(sp)
 1317 063c 23349100 		sd	s1,8(sp)
 1318 0640 23302101 		sd	s2,0(sp)
 1319              		.cfi_offset 1, -8
 1320              		.cfi_offset 8, -16
 1321              		.cfi_offset 9, -24
 1322              		.cfi_offset 18, -32
 1323 0644 13040102 		addi	s0,sp,32
 1324              		.cfi_def_cfa 8, 0
 1325 0648 93840500 		mv	s1,a1
  88:src/c_thread.cpp ****     TCB::running->enjoin();
 1326              		.loc 1 88 5 is_stmt 1
  88:src/c_thread.cpp ****     TCB::running->enjoin();
 1327              		.loc 1 88 25 is_stmt 0
 1328 064c 17090000 		lla	s2,.LANCHOR0
 1328      13090900 
 1329 0654 83350900 		ld	a1,0(s2)
 1330              	.LVL128:
 1331              	.LBB77:
 1332              	.LBB78:
  67:src/../h/c_thread.hpp **** 
 1333              		.loc 2 67 21 is_stmt 1
  67:src/../h/c_thread.hpp **** 
 1334              		.loc 2 67 34 is_stmt 0
 1335 0658 93073000 		li	a5,3
 1336 065c 23A4F504 		sw	a5,72(a1)
 1337              	.LVL129:
 1338              	.LBE78:
 1339              	.LBE77:
  89:src/c_thread.cpp ****     handle->joiner.put(TCB::running);
 1340              		.loc 1 89 5 is_stmt 1
  89:src/c_thread.cpp ****     handle->joiner.put(TCB::running);
 1341              		.loc 1 89 23 is_stmt 0
 1342 0660 13050506 		addi	a0,a0,96
 1343              	.LVL130:
 1344 0664 97000000 		call	_ZN3stm14CircularBufferIP3TCBE3putES2_
 1344      E7800000 
 1345              	.LVL131:
  90:src/c_thread.cpp ****     Cradle::insert(TCB::running, time);
 1346              		.loc 1 90 5 is_stmt 1
  90:src/c_thread.cpp ****     Cradle::insert(TCB::running, time);
 1347              		.loc 1 90 19 is_stmt 0
GAS LISTING /tmp/ccSq2scT.s 			page 34


 1348 066c 93850400 		mv	a1,s1
 1349 0670 03350900 		ld	a0,0(s2)
 1350 0674 97000000 		call	_ZN6Cradle6insertEP3TCBm@plt
 1350      E7800000 
 1351              	.LVL132:
  91:src/c_thread.cpp ****     TCB::_thread_dispatch();
 1352              		.loc 1 91 5 is_stmt 1
  91:src/c_thread.cpp ****     TCB::_thread_dispatch();
 1353              		.loc 1 91 26 is_stmt 0
 1354 067c 97000000 		call	_ZN3TCB16_thread_dispatchEv
 1354      E7800000 
 1355              	.LVL133:
  92:src/c_thread.cpp **** }
 1356              		.loc 1 92 1
 1357 0684 83308101 		ld	ra,24(sp)
 1358              		.cfi_restore 1
 1359 0688 03340101 		ld	s0,16(sp)
 1360              		.cfi_restore 8
 1361              		.cfi_def_cfa 2, 32
 1362 068c 83348100 		ld	s1,8(sp)
 1363              		.cfi_restore 9
 1364              	.LVL134:
 1365 0690 03390100 		ld	s2,0(sp)
 1366              		.cfi_restore 18
 1367 0694 13010102 		addi	sp,sp,32
 1368              		.cfi_def_cfa_offset 0
 1369 0698 67800000 		jr	ra
 1370              	.LVL135:
 1371              	.L70:
 1372 069c 67800000 		ret
 1373              		.cfi_endproc
 1374              	.LFE56:
 1376              		.globl	_ZN3TCB13timer_counterE
 1377              		.globl	_ZN3TCB7runningE
 1378              		.globl	_ZN3TCB2IDE
 1379              		.bss
 1380              		.align	3
 1381              		.set	.LANCHOR0,. + 0
 1384              	_ZN3TCB7runningE:
 1385 0000 00000000 		.zero	8
 1385      00000000 
 1388              	_ZN3TCB2IDE:
 1389 0008 00000000 		.zero	4
 1390 000c 00000000 		.zero	4
 1393              	_ZN3TCB13timer_counterE:
 1394 0010 00000000 		.zero	8
 1394      00000000 
 1395              		.text
 1396              	.Letext0:
 1397              		.file 5 "src/../h/../lib/hw.h"
 1398              		.file 6 "src/../h/syscall_c.hpp"
 1399              		.file 7 "src/../h/c_memory.hpp"
 1400              		.file 8 "src/../h/riscv.hpp"
 1401              		.file 9 "src/../h/c_sleep.hpp"
 1402              		.file 10 "src/../h/c_console.hpp"
 6412              		.align	3
 6415              	DW.ref.__gxx_personality_v0:
GAS LISTING /tmp/ccSq2scT.s 			page 35


 6416 0000 00000000 		.dword	__gxx_personality_v0
 6416      00000000 
 6417              		.ident	"GCC: (Ubuntu 9.4.0-1ubuntu1~20.04) 9.4.0"
 6418              		.section	.note.GNU-stack,"",@progbits
GAS LISTING /tmp/ccSq2scT.s 			page 36


DEFINED SYMBOLS
                            *ABS*:0000000000000000 c_thread.cpp
     /tmp/ccSq2scT.s:9      .text:0000000000000000 _ZN3TCB12thread_startEv
     /tmp/ccSq2scT.s:13     .text:0000000000000000 .L0 
     /tmp/ccSq2scT.s:14     .text:0000000000000000 .L0 
     /tmp/ccSq2scT.s:15     .text:0000000000000004 .L0 
     /tmp/ccSq2scT.s:18     .text:000000000000000c .L0 
     /tmp/ccSq2scT.s:19     .text:000000000000000c .L0 
     /tmp/ccSq2scT.s:21     .text:0000000000000010 .L0 
     /tmp/ccSq2scT.s:23     .text:0000000000000010 .L0 
     /tmp/ccSq2scT.s:24     .text:0000000000000010 .L0 
     /tmp/ccSq2scT.s:27     .text:0000000000000018 .L0 
     /tmp/ccSq2scT.s:28     .text:0000000000000018 .L0 
     /tmp/ccSq2scT.s:31     .text:0000000000000024 .L0 
     /tmp/ccSq2scT.s:35     .text:000000000000002c .L0 
     /tmp/ccSq2scT.s:36     .text:000000000000002c .L0 
     /tmp/ccSq2scT.s:39     .text:0000000000000034 .L0 
     /tmp/ccSq2scT.s:40     .text:0000000000000038 .L0 
     /tmp/ccSq2scT.s:42     .text:000000000000003c .L0 
     /tmp/ccSq2scT.s:43     .text:000000000000003c .L0 
     /tmp/ccSq2scT.s:45     .text:0000000000000040 .L0 
     /tmp/ccSq2scT.s:47     .text:0000000000000044 .L0 
     /tmp/ccSq2scT.s:53     .text:0000000000000044 _ZN3TCB5_killEPS_
     /tmp/ccSq2scT.s:56     .text:0000000000000044 .L0 
     /tmp/ccSq2scT.s:58     .text:0000000000000044 .L0 
     /tmp/ccSq2scT.s:59     .text:0000000000000048 .L0 
     /tmp/ccSq2scT.s:61     .text:000000000000004c .L0 
     /tmp/ccSq2scT.s:63     .text:0000000000000050 .L0 
     /tmp/ccSq2scT.s:65     .text:0000000000000050 .L0 
     /tmp/ccSq2scT.s:71     .text:0000000000000054 .L0 
     /tmp/ccSq2scT.s:72     .text:0000000000000054 .L0 
     /tmp/ccSq2scT.s:73     .text:0000000000000054 .L0 
     /tmp/ccSq2scT.s:78     .text:0000000000000058 .L0 
     /tmp/ccSq2scT.s:81     .text:0000000000000060 .L0 
     /tmp/ccSq2scT.s:82     .text:0000000000000060 .L0 
     /tmp/ccSq2scT.s:84     .text:0000000000000064 .L0 
     /tmp/ccSq2scT.s:86     .text:000000000000006c .L0 
     /tmp/ccSq2scT.s:91     .text:0000000000000070 .L0 
     /tmp/ccSq2scT.s:92     .text:0000000000000070 .L0 
     /tmp/ccSq2scT.s:93     .text:0000000000000070 .L0 
     /tmp/ccSq2scT.s:99     .text:0000000000000078 .L0 
     /tmp/ccSq2scT.s:100    .text:0000000000000078 .L0 
     /tmp/ccSq2scT.s:104    .text:000000000000007c .L0 
     /tmp/ccSq2scT.s:105    .text:0000000000000080 .L0 
     /tmp/ccSq2scT.s:106    .text:0000000000000080 .L0 
     /tmp/ccSq2scT.s:107    .text:0000000000000080 .L0 
     /tmp/ccSq2scT.s:109    .text:0000000000000084 .L0 
     /tmp/ccSq2scT.s:113    .text:0000000000000088 .L0 
     /tmp/ccSq2scT.s:115    .text:0000000000000088 .L0 
     /tmp/ccSq2scT.s:121    .text:0000000000000090 .L0 
     /tmp/ccSq2scT.s:127    .text:0000000000000098 .L0 
     /tmp/ccSq2scT.s:130    .text:00000000000000a0 .L0 
     /tmp/ccSq2scT.s:137    .text._ZN3stm14CircularBufferIP3TCBE4initEv:0000000000000000 _ZN3stm14CircularBufferIP3TCBE4initEv
     /tmp/ccSq2scT.s:141    .text._ZN3stm14CircularBufferIP3TCBE4initEv:0000000000000000 .L0 
     /tmp/ccSq2scT.s:143    .text._ZN3stm14CircularBufferIP3TCBE4initEv:0000000000000000 .L0 
     /tmp/ccSq2scT.s:144    .text._ZN3stm14CircularBufferIP3TCBE4initEv:0000000000000004 .L0 
     /tmp/ccSq2scT.s:148    .text._ZN3stm14CircularBufferIP3TCBE4initEv:0000000000000010 .L0 
GAS LISTING /tmp/ccSq2scT.s 			page 37


     /tmp/ccSq2scT.s:149    .text._ZN3stm14CircularBufferIP3TCBE4initEv:0000000000000010 .L0 
     /tmp/ccSq2scT.s:150    .text._ZN3stm14CircularBufferIP3TCBE4initEv:0000000000000010 .L0 
     /tmp/ccSq2scT.s:152    .text._ZN3stm14CircularBufferIP3TCBE4initEv:0000000000000014 .L0 
     /tmp/ccSq2scT.s:155    .text._ZN3stm14CircularBufferIP3TCBE4initEv:0000000000000018 .L0 
     /tmp/ccSq2scT.s:157    .text._ZN3stm14CircularBufferIP3TCBE4initEv:000000000000001c .L0 
     /tmp/ccSq2scT.s:159    .text._ZN3stm14CircularBufferIP3TCBE4initEv:0000000000000020 .L0 
     /tmp/ccSq2scT.s:161    .text._ZN3stm14CircularBufferIP3TCBE4initEv:0000000000000024 .L0 
     /tmp/ccSq2scT.s:164    .text._ZN3stm14CircularBufferIP3TCBE4initEv:000000000000002c .L0 
     /tmp/ccSq2scT.s:169    .text._ZN3stm14CircularBufferIP3TCBE4initEv:0000000000000038 .L0 
     /tmp/ccSq2scT.s:171    .text._ZN3stm14CircularBufferIP3TCBE4initEv:000000000000003c .L0 
     /tmp/ccSq2scT.s:172    .text._ZN3stm14CircularBufferIP3TCBE4initEv:0000000000000040 .L0 
     /tmp/ccSq2scT.s:174    .text._ZN3stm14CircularBufferIP3TCBE4initEv:0000000000000044 .L0 
     /tmp/ccSq2scT.s:175    .text._ZN3stm14CircularBufferIP3TCBE4initEv:0000000000000044 .L0 
     /tmp/ccSq2scT.s:177    .text._ZN3stm14CircularBufferIP3TCBE4initEv:0000000000000048 .L0 
     /tmp/ccSq2scT.s:180    .text._ZN3stm14CircularBufferIP3TCBE4initEv:000000000000004c .L0 
     /tmp/ccSq2scT.s:182    .text._ZN3stm14CircularBufferIP3TCBE4initEv:0000000000000050 .L0 
     /tmp/ccSq2scT.s:189    .text:00000000000000a0 _ZN3TCBC2EPFvPvES0_S0_7Context
     /tmp/ccSq2scT.s:192    .text:00000000000000a0 .L0 
     /tmp/ccSq2scT.s:194    .text:00000000000000a0 .L0 
     /tmp/ccSq2scT.s:195    .text:00000000000000a4 .L0 
     /tmp/ccSq2scT.s:200    .text:00000000000000b4 .L0 
     /tmp/ccSq2scT.s:201    .text:00000000000000b4 .L0 
     /tmp/ccSq2scT.s:202    .text:00000000000000b4 .L0 
     /tmp/ccSq2scT.s:203    .text:00000000000000b4 .L0 
     /tmp/ccSq2scT.s:205    .text:00000000000000b8 .L0 
     /tmp/ccSq2scT.s:209    .text:00000000000000bc .L0 
     /tmp/ccSq2scT.s:215    .text:00000000000000d0 .L0 
     /tmp/ccSq2scT.s:242    .text:000000000000012c .L0 
     /tmp/ccSq2scT.s:243    .text:000000000000012c .L0 
     /tmp/ccSq2scT.s:247    .text:0000000000000138 .L0 
     /tmp/ccSq2scT.s:248    .text:0000000000000138 .L0 
     /tmp/ccSq2scT.s:252    .text:0000000000000140 .L0 
     /tmp/ccSq2scT.s:253    .text:0000000000000144 .L0 
     /tmp/ccSq2scT.s:255    .text:0000000000000148 .L0 
     /tmp/ccSq2scT.s:256    .text:0000000000000148 .L0 
     /tmp/ccSq2scT.s:258    .text:000000000000014c .L0 
     /tmp/ccSq2scT.s:261    .text:0000000000000150 .L0 
     /tmp/ccSq2scT.s:263    .text:0000000000000154 .L0 
     /tmp/ccSq2scT.s:265    .text:0000000000000158 .L0 
     /tmp/ccSq2scT.s:189    .text:00000000000000a0 _ZN3TCBC1EPFvPvES0_S0_7Context
     /tmp/ccSq2scT.s:273    .text:0000000000000158 _ZN3TCB14_thread_createEPPS_PFvPvES2_S2_
     /tmp/ccSq2scT.s:276    .text:0000000000000158 .L0 
     /tmp/ccSq2scT.s:6415   .data.rel.local.DW.ref.__gxx_personality_v0:0000000000000000 DW.ref.__gxx_personality_v0
     /tmp/ccSq2scT.s:280    .text:0000000000000158 .L0 
     /tmp/ccSq2scT.s:281    .text:000000000000015c .L0 
     /tmp/ccSq2scT.s:289    .text:0000000000000178 .L0 
     /tmp/ccSq2scT.s:290    .text:0000000000000178 .L0 
     /tmp/ccSq2scT.s:291    .text:0000000000000178 .L0 
     /tmp/ccSq2scT.s:292    .text:0000000000000178 .L0 
     /tmp/ccSq2scT.s:293    .text:0000000000000178 .L0 
     /tmp/ccSq2scT.s:294    .text:0000000000000178 .L0 
     /tmp/ccSq2scT.s:295    .text:0000000000000178 .L0 
     /tmp/ccSq2scT.s:297    .text:000000000000017c .L0 
     /tmp/ccSq2scT.s:303    .text:000000000000018c .L0 
     /tmp/ccSq2scT.s:304    .text:000000000000018c .L0 
     /tmp/ccSq2scT.s:309    .text:00000000000001a0 .L0 
     /tmp/ccSq2scT.s:313    .text:00000000000001ac .L0 
GAS LISTING /tmp/ccSq2scT.s 			page 38


     /tmp/ccSq2scT.s:315    .text:00000000000001b0 .L0 
     /tmp/ccSq2scT.s:339    .text:00000000000001f8 .L0 
     /tmp/ccSq2scT.s:341    .text:00000000000001fc .L0 
     /tmp/ccSq2scT.s:343    .text:0000000000000200 .L0 
     /tmp/ccSq2scT.s:344    .text:0000000000000200 .L0 
     /tmp/ccSq2scT.s:350    .text:000000000000020c .L0 
     /tmp/ccSq2scT.s:351    .text:000000000000020c .L0 
     /tmp/ccSq2scT.s:353    .text:0000000000000210 .L0 
     /tmp/ccSq2scT.s:355    .text:0000000000000214 .L0 
     /tmp/ccSq2scT.s:356    .text:0000000000000218 .L0 
     /tmp/ccSq2scT.s:357    .text:0000000000000218 .L0 
     /tmp/ccSq2scT.s:359    .text:000000000000021c .L0 
     /tmp/ccSq2scT.s:360    .text:000000000000021c .L0 
     /tmp/ccSq2scT.s:362    .text:0000000000000220 .L0 
     /tmp/ccSq2scT.s:364    .text:0000000000000224 .L0 
     /tmp/ccSq2scT.s:367    .text:0000000000000228 .L0 
     /tmp/ccSq2scT.s:370    .text:000000000000022c .L0 
     /tmp/ccSq2scT.s:373    .text:0000000000000230 .L0 
     /tmp/ccSq2scT.s:376    .text:0000000000000234 .L0 
     /tmp/ccSq2scT.s:381    .text:0000000000000238 .L0 
     /tmp/ccSq2scT.s:383    .text:0000000000000238 .L0 
     /tmp/ccSq2scT.s:384    .text:0000000000000238 .L0 
     /tmp/ccSq2scT.s:390    .text:0000000000000248 .L0 
     /tmp/ccSq2scT.s:397    .text:0000000000000260 .L0 
     /tmp/ccSq2scT.s:423    .text:0000000000000260 _ZN3TCBC2ERS_
     /tmp/ccSq2scT.s:426    .text:0000000000000260 .L0 
     /tmp/ccSq2scT.s:428    .text:0000000000000260 .L0 
     /tmp/ccSq2scT.s:429    .text:0000000000000264 .L0 
     /tmp/ccSq2scT.s:434    .text:0000000000000274 .L0 
     /tmp/ccSq2scT.s:435    .text:0000000000000274 .L0 
     /tmp/ccSq2scT.s:436    .text:0000000000000274 .L0 
     /tmp/ccSq2scT.s:437    .text:0000000000000274 .L0 
     /tmp/ccSq2scT.s:439    .text:0000000000000278 .L0 
     /tmp/ccSq2scT.s:444    .text:0000000000000280 .L0 
     /tmp/ccSq2scT.s:449    .text:0000000000000294 .L0 
     /tmp/ccSq2scT.s:451    .text:0000000000000298 .L0 
     /tmp/ccSq2scT.s:453    .text:000000000000029c .L0 
     /tmp/ccSq2scT.s:455    .text:00000000000002a0 .L0 
     /tmp/ccSq2scT.s:457    .text:00000000000002a4 .L0 
     /tmp/ccSq2scT.s:459    .text:00000000000002a8 .L0 
     /tmp/ccSq2scT.s:464    .text:00000000000002b4 .L0 
     /tmp/ccSq2scT.s:484    .text:0000000000000300 .L0 
     /tmp/ccSq2scT.s:485    .text:0000000000000300 .L0 
     /tmp/ccSq2scT.s:489    .text:000000000000030c .L0 
     /tmp/ccSq2scT.s:490    .text:000000000000030c .L0 
     /tmp/ccSq2scT.s:495    .text:0000000000000318 .L0 
     /tmp/ccSq2scT.s:496    .text:000000000000031c .L0 
     /tmp/ccSq2scT.s:498    .text:0000000000000320 .L0 
     /tmp/ccSq2scT.s:499    .text:0000000000000320 .L0 
     /tmp/ccSq2scT.s:501    .text:0000000000000324 .L0 
     /tmp/ccSq2scT.s:504    .text:0000000000000328 .L0 
     /tmp/ccSq2scT.s:507    .text:000000000000032c .L0 
     /tmp/ccSq2scT.s:509    .text:0000000000000330 .L0 
     /tmp/ccSq2scT.s:423    .text:0000000000000260 _ZN3TCBC1ERS_
     /tmp/ccSq2scT.s:517    .text:0000000000000330 _ZN3TCB5_forkEv
     /tmp/ccSq2scT.s:520    .text:0000000000000330 .L0 
     /tmp/ccSq2scT.s:523    .text:0000000000000330 .L0 
GAS LISTING /tmp/ccSq2scT.s 			page 39


     /tmp/ccSq2scT.s:524    .text:0000000000000334 .L0 
     /tmp/ccSq2scT.s:529    .text:0000000000000344 .L0 
     /tmp/ccSq2scT.s:530    .text:0000000000000344 .L0 
     /tmp/ccSq2scT.s:531    .text:0000000000000344 .L0 
     /tmp/ccSq2scT.s:532    .text:0000000000000344 .L0 
     /tmp/ccSq2scT.s:534    .text:0000000000000348 .L0 
     /tmp/ccSq2scT.s:536    .text:0000000000000348 .L0 
     /tmp/ccSq2scT.s:537    .text:0000000000000348 .L0 
     /tmp/ccSq2scT.s:549    .text:0000000000000368 .L0 
     /tmp/ccSq2scT.s:550    .text:0000000000000368 .L0 
     /tmp/ccSq2scT.s:554    .text:0000000000000378 .L0 
     /tmp/ccSq2scT.s:556    .text:000000000000037c .L0 
     /tmp/ccSq2scT.s:557    .text:000000000000037c .L0 
     /tmp/ccSq2scT.s:564    .text:0000000000000390 .L0 
     /tmp/ccSq2scT.s:565    .text:0000000000000390 .L0 
     /tmp/ccSq2scT.s:569    .text:000000000000039c .L0 
     /tmp/ccSq2scT.s:570    .text:000000000000039c .L0 
     /tmp/ccSq2scT.s:574    .text:00000000000003a8 .L0 
     /tmp/ccSq2scT.s:575    .text:00000000000003a8 .L0 
     /tmp/ccSq2scT.s:578    .text:00000000000003b0 .L0 
     /tmp/ccSq2scT.s:581    .text:00000000000003b8 .L0 
     /tmp/ccSq2scT.s:583    .text:00000000000003bc .L0 
     /tmp/ccSq2scT.s:586    .text:00000000000003c0 .L0 
     /tmp/ccSq2scT.s:587    .text:00000000000003c4 .L0 
     /tmp/ccSq2scT.s:588    .text:00000000000003c4 .L0 
     /tmp/ccSq2scT.s:590    .text:00000000000003c8 .L0 
     /tmp/ccSq2scT.s:591    .text:00000000000003c8 .L0 
     /tmp/ccSq2scT.s:593    .text:00000000000003cc .L0 
     /tmp/ccSq2scT.s:596    .text:00000000000003d0 .L0 
     /tmp/ccSq2scT.s:598    .text:00000000000003d4 .L0 
     /tmp/ccSq2scT.s:602    .text:00000000000003d8 .L0 
     /tmp/ccSq2scT.s:604    .text:00000000000003d8 .L0 
     /tmp/ccSq2scT.s:605    .text:00000000000003d8 .L0 
     /tmp/ccSq2scT.s:611    .text:00000000000003e4 .L0 
     /tmp/ccSq2scT.s:618    .text:00000000000003fc .L0 
     /tmp/ccSq2scT.s:644    .text._ZN3stm14CircularBufferIP3TCBE3getEv:0000000000000000 _ZN3stm14CircularBufferIP3TCBE3getEv
     /tmp/ccSq2scT.s:647    .text._ZN3stm14CircularBufferIP3TCBE3getEv:0000000000000000 .L0 
     /tmp/ccSq2scT.s:649    .text._ZN3stm14CircularBufferIP3TCBE3getEv:0000000000000000 .L0 
     /tmp/ccSq2scT.s:650    .text._ZN3stm14CircularBufferIP3TCBE3getEv:0000000000000004 .L0 
     /tmp/ccSq2scT.s:652    .text._ZN3stm14CircularBufferIP3TCBE3getEv:0000000000000008 .L0 
     /tmp/ccSq2scT.s:654    .text._ZN3stm14CircularBufferIP3TCBE3getEv:000000000000000c .L0 
     /tmp/ccSq2scT.s:657    .text._ZN3stm14CircularBufferIP3TCBE3getEv:0000000000000010 .L0 
     /tmp/ccSq2scT.s:659    .text._ZN3stm14CircularBufferIP3TCBE3getEv:0000000000000014 .L0 
     /tmp/ccSq2scT.s:661    .text._ZN3stm14CircularBufferIP3TCBE3getEv:0000000000000018 .L0 
     /tmp/ccSq2scT.s:664    .text._ZN3stm14CircularBufferIP3TCBE3getEv:0000000000000020 .L0 
     /tmp/ccSq2scT.s:667    .text._ZN3stm14CircularBufferIP3TCBE3getEv:0000000000000024 .L0 
     /tmp/ccSq2scT.s:669    .text._ZN3stm14CircularBufferIP3TCBE3getEv:0000000000000028 .L0 
     /tmp/ccSq2scT.s:671    .text._ZN3stm14CircularBufferIP3TCBE3getEv:000000000000002c .L0 
     /tmp/ccSq2scT.s:673    .text._ZN3stm14CircularBufferIP3TCBE3getEv:0000000000000030 .L0 
     /tmp/ccSq2scT.s:675    .text._ZN3stm14CircularBufferIP3TCBE3getEv:0000000000000034 .L0 
     /tmp/ccSq2scT.s:677    .text._ZN3stm14CircularBufferIP3TCBE3getEv:0000000000000038 .L0 
     /tmp/ccSq2scT.s:680    .text._ZN3stm14CircularBufferIP3TCBE3getEv:0000000000000040 .L0 
     /tmp/ccSq2scT.s:681    .text._ZN3stm14CircularBufferIP3TCBE3getEv:0000000000000044 .L0 
     /tmp/ccSq2scT.s:682    .text._ZN3stm14CircularBufferIP3TCBE3getEv:0000000000000044 .L0 
     /tmp/ccSq2scT.s:684    .text._ZN3stm14CircularBufferIP3TCBE3getEv:0000000000000048 .L0 
     /tmp/ccSq2scT.s:686    .text._ZN3stm14CircularBufferIP3TCBE3getEv:000000000000004c .L0 
     /tmp/ccSq2scT.s:693    .text._ZN3stm14CircularBufferIP3TCBE7destroyEv:0000000000000000 _ZN3stm14CircularBufferIP3TCBE7destroyEv
GAS LISTING /tmp/ccSq2scT.s 			page 40


     /tmp/ccSq2scT.s:696    .text._ZN3stm14CircularBufferIP3TCBE7destroyEv:0000000000000000 .L0 
     /tmp/ccSq2scT.s:698    .text._ZN3stm14CircularBufferIP3TCBE7destroyEv:0000000000000000 .L0 
     /tmp/ccSq2scT.s:699    .text._ZN3stm14CircularBufferIP3TCBE7destroyEv:0000000000000004 .L0 
     /tmp/ccSq2scT.s:702    .text._ZN3stm14CircularBufferIP3TCBE7destroyEv:000000000000000c .L0 
     /tmp/ccSq2scT.s:703    .text._ZN3stm14CircularBufferIP3TCBE7destroyEv:000000000000000c .L0 
     /tmp/ccSq2scT.s:705    .text._ZN3stm14CircularBufferIP3TCBE7destroyEv:0000000000000010 .L0 
     /tmp/ccSq2scT.s:707    .text._ZN3stm14CircularBufferIP3TCBE7destroyEv:0000000000000010 .L0 
     /tmp/ccSq2scT.s:712    .text._ZN3stm14CircularBufferIP3TCBE7destroyEv:000000000000001c .L0 
     /tmp/ccSq2scT.s:713    .text._ZN3stm14CircularBufferIP3TCBE7destroyEv:0000000000000020 .L0 
     /tmp/ccSq2scT.s:715    .text._ZN3stm14CircularBufferIP3TCBE7destroyEv:0000000000000024 .L0 
     /tmp/ccSq2scT.s:716    .text._ZN3stm14CircularBufferIP3TCBE7destroyEv:0000000000000024 .L0 
     /tmp/ccSq2scT.s:718    .text._ZN3stm14CircularBufferIP3TCBE7destroyEv:0000000000000028 .L0 
     /tmp/ccSq2scT.s:720    .text._ZN3stm14CircularBufferIP3TCBE7destroyEv:000000000000002c .L0 
     /tmp/ccSq2scT.s:727    .text:00000000000003fc _ZN3TCB14destroy_threadEPS_
     /tmp/ccSq2scT.s:730    .text:00000000000003fc .L0 
     /tmp/ccSq2scT.s:732    .text:00000000000003fc .L0 
     /tmp/ccSq2scT.s:733    .text:0000000000000400 .L0 
     /tmp/ccSq2scT.s:737    .text:000000000000040c .L0 
     /tmp/ccSq2scT.s:738    .text:000000000000040c .L0 
     /tmp/ccSq2scT.s:739    .text:000000000000040c .L0 
     /tmp/ccSq2scT.s:741    .text:0000000000000410 .L0 
     /tmp/ccSq2scT.s:746    .text:0000000000000414 .L0 
     /tmp/ccSq2scT.s:749    .text:0000000000000414 .L0 
     /tmp/ccSq2scT.s:750    .text:0000000000000414 .L0 
     /tmp/ccSq2scT.s:755    .text:0000000000000418 .L0 
     /tmp/ccSq2scT.s:758    .text:000000000000041c .L0 
     /tmp/ccSq2scT.s:759    .text:000000000000041c .L0 
     /tmp/ccSq2scT.s:765    .text:0000000000000428 .L0 
     /tmp/ccSq2scT.s:766    .text:0000000000000428 .L0 
     /tmp/ccSq2scT.s:767    .text:0000000000000428 .L0 
     /tmp/ccSq2scT.s:772    .text:000000000000042c .L0 
     /tmp/ccSq2scT.s:778    .text:0000000000000434 .L0 
     /tmp/ccSq2scT.s:779    .text:0000000000000434 .L0 
     /tmp/ccSq2scT.s:780    .text:0000000000000434 .L0 
     /tmp/ccSq2scT.s:785    .text:0000000000000438 .L0 
     /tmp/ccSq2scT.s:786    .text:0000000000000438 .L0 
     /tmp/ccSq2scT.s:792    .text:0000000000000444 .L0 
     /tmp/ccSq2scT.s:793    .text:0000000000000444 .L0 
     /tmp/ccSq2scT.s:797    .text:0000000000000450 .L0 
     /tmp/ccSq2scT.s:798    .text:0000000000000450 .L0 
     /tmp/ccSq2scT.s:800    .text:0000000000000458 .L0 
     /tmp/ccSq2scT.s:802    .text:000000000000045c .L0 
     /tmp/ccSq2scT.s:803    .text:000000000000045c .L0 
     /tmp/ccSq2scT.s:805    .text:0000000000000460 .L0 
     /tmp/ccSq2scT.s:808    .text:0000000000000464 .L0 
     /tmp/ccSq2scT.s:810    .text:0000000000000468 .L0 
     /tmp/ccSq2scT.s:816    .text:0000000000000468 _ZN3TCB16_thread_dispatchEv
     /tmp/ccSq2scT.s:819    .text:0000000000000468 .L0 
     /tmp/ccSq2scT.s:820    .text:0000000000000468 .L0 
     /tmp/ccSq2scT.s:821    .text:000000000000046c .L0 
     /tmp/ccSq2scT.s:825    .text:0000000000000478 .L0 
     /tmp/ccSq2scT.s:826    .text:0000000000000478 .L0 
     /tmp/ccSq2scT.s:827    .text:0000000000000478 .L0 
     /tmp/ccSq2scT.s:829    .text:000000000000047c .L0 
     /tmp/ccSq2scT.s:831    .text:000000000000047c .L0 
     /tmp/ccSq2scT.s:832    .text:000000000000047c .L0 
     /tmp/ccSq2scT.s:837    .text:0000000000000484 .L0 
GAS LISTING /tmp/ccSq2scT.s 			page 41


     /tmp/ccSq2scT.s:838    .text:0000000000000484 .L0 
     /tmp/ccSq2scT.s:839    .text:0000000000000484 .L0 
     /tmp/ccSq2scT.s:844    .text:0000000000000488 .L0 
     /tmp/ccSq2scT.s:846    .text:000000000000048c .L0 
     /tmp/ccSq2scT.s:849    .text:0000000000000498 .L0 
     /tmp/ccSq2scT.s:851    .text:000000000000049c .L0 
     /tmp/ccSq2scT.s:852    .text:000000000000049c .L0 
     /tmp/ccSq2scT.s:859    .text:00000000000004ac .L0 
     /tmp/ccSq2scT.s:860    .text:00000000000004ac .L0 
     /tmp/ccSq2scT.s:861    .text:00000000000004ac .L0 
     /tmp/ccSq2scT.s:868    .text:00000000000004b4 .L0 
     /tmp/ccSq2scT.s:872    .text:00000000000004b4 .L0 
     /tmp/ccSq2scT.s:873    .text:00000000000004b4 .L0 
     /tmp/ccSq2scT.s:879    .text:00000000000004c0 .L0 
     /tmp/ccSq2scT.s:884    .text:00000000000004c4 .L0 
     /tmp/ccSq2scT.s:890    .text:00000000000004d0 .L0 
     /tmp/ccSq2scT.s:895    .text:00000000000004d4 .L0 
     /tmp/ccSq2scT.s:901    .text:00000000000004e0 .L0 
     /tmp/ccSq2scT.s:905    .text:00000000000004e4 .L0 
     /tmp/ccSq2scT.s:906    .text:00000000000004e4 .L0 
     /tmp/ccSq2scT.s:912    .text:00000000000004fc .L0 
     /tmp/ccSq2scT.s:913    .text:00000000000004fc .L0 
     /tmp/ccSq2scT.s:919    .text:000000000000050c .L0 
     /tmp/ccSq2scT.s:920    .text:000000000000050c .L0 
     /tmp/ccSq2scT.s:925    .text:000000000000051c .L0 
     /tmp/ccSq2scT.s:930    .text:0000000000000528 .L0 
     /tmp/ccSq2scT.s:931    .text:0000000000000528 .L0 
     /tmp/ccSq2scT.s:936    .text:0000000000000530 .L0 
     /tmp/ccSq2scT.s:937    .text:0000000000000530 .L0 
     /tmp/ccSq2scT.s:942    .text:0000000000000534 .L0 
     /tmp/ccSq2scT.s:945    .text:000000000000053c .L0 
     /tmp/ccSq2scT.s:946    .text:000000000000053c .L0 
     /tmp/ccSq2scT.s:949    .text:0000000000000544 .L0 
     /tmp/ccSq2scT.s:952    .text:000000000000054c .L0 
     /tmp/ccSq2scT.s:953    .text:000000000000054c .L0 
     /tmp/ccSq2scT.s:956    .text:0000000000000554 .L0 
     /tmp/ccSq2scT.s:959    .text:0000000000000558 .L0 
     /tmp/ccSq2scT.s:960    .text:000000000000055c .L0 
     /tmp/ccSq2scT.s:961    .text:000000000000055c .L0 
     /tmp/ccSq2scT.s:963    .text:0000000000000560 .L0 
     /tmp/ccSq2scT.s:964    .text:0000000000000560 .L0 
     /tmp/ccSq2scT.s:966    .text:0000000000000564 .L0 
     /tmp/ccSq2scT.s:969    .text:0000000000000568 .L0 
     /tmp/ccSq2scT.s:973    .text:000000000000056c .L0 
     /tmp/ccSq2scT.s:975    .text:000000000000056c .L0 
     /tmp/ccSq2scT.s:976    .text:000000000000056c .L0 
     /tmp/ccSq2scT.s:982    .text:0000000000000584 .L0 
     /tmp/ccSq2scT.s:983    .text:0000000000000584 .L0 
     /tmp/ccSq2scT.s:986    .text:000000000000058c .L0 
     /tmp/ccSq2scT.s:987    .text:0000000000000590 .L0 
     /tmp/ccSq2scT.s:993    .text:0000000000000590 _ZN3TCB12_thread_exitEv
     /tmp/ccSq2scT.s:996    .text:0000000000000590 .L0 
     /tmp/ccSq2scT.s:997    .text:0000000000000590 .L0 
     /tmp/ccSq2scT.s:998    .text:0000000000000594 .L0 
     /tmp/ccSq2scT.s:1001   .text:000000000000059c .L0 
     /tmp/ccSq2scT.s:1002   .text:000000000000059c .L0 
     /tmp/ccSq2scT.s:1004   .text:00000000000005a0 .L0 
GAS LISTING /tmp/ccSq2scT.s 			page 42


     /tmp/ccSq2scT.s:1006   .text:00000000000005a0 .L0 
     /tmp/ccSq2scT.s:1007   .text:00000000000005a0 .L0 
     /tmp/ccSq2scT.s:1012   .text:00000000000005a8 .L0 
     /tmp/ccSq2scT.s:1013   .text:00000000000005a8 .L0 
     /tmp/ccSq2scT.s:1019   .text:00000000000005b0 .L0 
     /tmp/ccSq2scT.s:1020   .text:00000000000005b0 .L0 
     /tmp/ccSq2scT.s:1023   .text:00000000000005b8 .L0 
     /tmp/ccSq2scT.s:1024   .text:00000000000005b8 .L0 
     /tmp/ccSq2scT.s:1027   .text:00000000000005c0 .L0 
     /tmp/ccSq2scT.s:1028   .text:00000000000005c4 .L0 
     /tmp/ccSq2scT.s:1030   .text:00000000000005c8 .L0 
     /tmp/ccSq2scT.s:1031   .text:00000000000005c8 .L0 
     /tmp/ccSq2scT.s:1033   .text:00000000000005cc .L0 
     /tmp/ccSq2scT.s:1035   .text:00000000000005d0 .L0 
     /tmp/ccSq2scT.s:1042   .text._ZN3stm14CircularBufferIP3TCBE6extendEv:0000000000000000 _ZN3stm14CircularBufferIP3TCBE6extendEv
     /tmp/ccSq2scT.s:1045   .text._ZN3stm14CircularBufferIP3TCBE6extendEv:0000000000000000 .L0 
     /tmp/ccSq2scT.s:1047   .text._ZN3stm14CircularBufferIP3TCBE6extendEv:0000000000000000 .L0 
     /tmp/ccSq2scT.s:1048   .text._ZN3stm14CircularBufferIP3TCBE6extendEv:0000000000000004 .L0 
     /tmp/ccSq2scT.s:1053   .text._ZN3stm14CircularBufferIP3TCBE6extendEv:0000000000000014 .L0 
     /tmp/ccSq2scT.s:1054   .text._ZN3stm14CircularBufferIP3TCBE6extendEv:0000000000000014 .L0 
     /tmp/ccSq2scT.s:1055   .text._ZN3stm14CircularBufferIP3TCBE6extendEv:0000000000000014 .L0 
     /tmp/ccSq2scT.s:1056   .text._ZN3stm14CircularBufferIP3TCBE6extendEv:0000000000000014 .L0 
     /tmp/ccSq2scT.s:1058   .text._ZN3stm14CircularBufferIP3TCBE6extendEv:0000000000000018 .L0 
     /tmp/ccSq2scT.s:1061   .text._ZN3stm14CircularBufferIP3TCBE6extendEv:000000000000001c .L0 
     /tmp/ccSq2scT.s:1064   .text._ZN3stm14CircularBufferIP3TCBE6extendEv:0000000000000020 .L0 
     /tmp/ccSq2scT.s:1071   .text._ZN3stm14CircularBufferIP3TCBE6extendEv:0000000000000030 .L0 
     /tmp/ccSq2scT.s:1074   .text._ZN3stm14CircularBufferIP3TCBE6extendEv:0000000000000034 .L0 
     /tmp/ccSq2scT.s:1078   .text._ZN3stm14CircularBufferIP3TCBE6extendEv:0000000000000038 .L0 
     /tmp/ccSq2scT.s:1079   .text._ZN3stm14CircularBufferIP3TCBE6extendEv:0000000000000038 .L0 
     /tmp/ccSq2scT.s:1081   .text._ZN3stm14CircularBufferIP3TCBE6extendEv:000000000000003c .L0 
     /tmp/ccSq2scT.s:1083   .text._ZN3stm14CircularBufferIP3TCBE6extendEv:0000000000000040 .L0 
     /tmp/ccSq2scT.s:1085   .text._ZN3stm14CircularBufferIP3TCBE6extendEv:0000000000000044 .L0 
     /tmp/ccSq2scT.s:1088   .text._ZN3stm14CircularBufferIP3TCBE6extendEv:000000000000004c .L0 
     /tmp/ccSq2scT.s:1092   .text._ZN3stm14CircularBufferIP3TCBE6extendEv:0000000000000058 .L0 
     /tmp/ccSq2scT.s:1094   .text._ZN3stm14CircularBufferIP3TCBE6extendEv:000000000000005c .L0 
     /tmp/ccSq2scT.s:1097   .text._ZN3stm14CircularBufferIP3TCBE6extendEv:0000000000000060 .L0 
     /tmp/ccSq2scT.s:1100   .text._ZN3stm14CircularBufferIP3TCBE6extendEv:0000000000000064 .L0 
     /tmp/ccSq2scT.s:1102   .text._ZN3stm14CircularBufferIP3TCBE6extendEv:0000000000000068 .L0 
     /tmp/ccSq2scT.s:1109   .text._ZN3stm14CircularBufferIP3TCBE6extendEv:0000000000000070 .L0 
     /tmp/ccSq2scT.s:1114   .text._ZN3stm14CircularBufferIP3TCBE6extendEv:000000000000007c .L0 
     /tmp/ccSq2scT.s:1116   .text._ZN3stm14CircularBufferIP3TCBE6extendEv:0000000000000080 .L0 
     /tmp/ccSq2scT.s:1118   .text._ZN3stm14CircularBufferIP3TCBE6extendEv:0000000000000084 .L0 
     /tmp/ccSq2scT.s:1120   .text._ZN3stm14CircularBufferIP3TCBE6extendEv:0000000000000088 .L0 
     /tmp/ccSq2scT.s:1122   .text._ZN3stm14CircularBufferIP3TCBE6extendEv:000000000000008c .L0 
     /tmp/ccSq2scT.s:1124   .text._ZN3stm14CircularBufferIP3TCBE6extendEv:0000000000000090 .L0 
     /tmp/ccSq2scT.s:1126   .text._ZN3stm14CircularBufferIP3TCBE6extendEv:0000000000000094 .L0 
     /tmp/ccSq2scT.s:1127   .text._ZN3stm14CircularBufferIP3TCBE6extendEv:0000000000000098 .L0 
     /tmp/ccSq2scT.s:1129   .text._ZN3stm14CircularBufferIP3TCBE6extendEv:000000000000009c .L0 
     /tmp/ccSq2scT.s:1130   .text._ZN3stm14CircularBufferIP3TCBE6extendEv:000000000000009c .L0 
     /tmp/ccSq2scT.s:1132   .text._ZN3stm14CircularBufferIP3TCBE6extendEv:00000000000000a0 .L0 
     /tmp/ccSq2scT.s:1135   .text._ZN3stm14CircularBufferIP3TCBE6extendEv:00000000000000a4 .L0 
     /tmp/ccSq2scT.s:1138   .text._ZN3stm14CircularBufferIP3TCBE6extendEv:00000000000000a8 .L0 
     /tmp/ccSq2scT.s:1140   .text._ZN3stm14CircularBufferIP3TCBE6extendEv:00000000000000ac .L0 
     /tmp/ccSq2scT.s:1147   .text._ZN3stm14CircularBufferIP3TCBE3putES2_:0000000000000000 _ZN3stm14CircularBufferIP3TCBE3putES2_
     /tmp/ccSq2scT.s:1150   .text._ZN3stm14CircularBufferIP3TCBE3putES2_:0000000000000000 .L0 
     /tmp/ccSq2scT.s:1152   .text._ZN3stm14CircularBufferIP3TCBE3putES2_:0000000000000000 .L0 
     /tmp/ccSq2scT.s:1153   .text._ZN3stm14CircularBufferIP3TCBE3putES2_:0000000000000004 .L0 
GAS LISTING /tmp/ccSq2scT.s 			page 43


     /tmp/ccSq2scT.s:1158   .text._ZN3stm14CircularBufferIP3TCBE3putES2_:0000000000000014 .L0 
     /tmp/ccSq2scT.s:1159   .text._ZN3stm14CircularBufferIP3TCBE3putES2_:0000000000000014 .L0 
     /tmp/ccSq2scT.s:1160   .text._ZN3stm14CircularBufferIP3TCBE3putES2_:0000000000000014 .L0 
     /tmp/ccSq2scT.s:1161   .text._ZN3stm14CircularBufferIP3TCBE3putES2_:0000000000000014 .L0 
     /tmp/ccSq2scT.s:1163   .text._ZN3stm14CircularBufferIP3TCBE3putES2_:0000000000000018 .L0 
     /tmp/ccSq2scT.s:1167   .text._ZN3stm14CircularBufferIP3TCBE3putES2_:0000000000000020 .L0 
     /tmp/ccSq2scT.s:1169   .text._ZN3stm14CircularBufferIP3TCBE3putES2_:0000000000000024 .L0 
     /tmp/ccSq2scT.s:1171   .text._ZN3stm14CircularBufferIP3TCBE3putES2_:0000000000000028 .L0 
     /tmp/ccSq2scT.s:1175   .text._ZN3stm14CircularBufferIP3TCBE3putES2_:000000000000002c .L0 
     /tmp/ccSq2scT.s:1177   .text._ZN3stm14CircularBufferIP3TCBE3putES2_:0000000000000030 .L0 
     /tmp/ccSq2scT.s:1179   .text._ZN3stm14CircularBufferIP3TCBE3putES2_:0000000000000034 .L0 
     /tmp/ccSq2scT.s:1182   .text._ZN3stm14CircularBufferIP3TCBE3putES2_:000000000000003c .L0 
     /tmp/ccSq2scT.s:1184   .text._ZN3stm14CircularBufferIP3TCBE3putES2_:0000000000000040 .L0 
     /tmp/ccSq2scT.s:1186   .text._ZN3stm14CircularBufferIP3TCBE3putES2_:0000000000000044 .L0 
     /tmp/ccSq2scT.s:1188   .text._ZN3stm14CircularBufferIP3TCBE3putES2_:0000000000000048 .L0 
     /tmp/ccSq2scT.s:1190   .text._ZN3stm14CircularBufferIP3TCBE3putES2_:000000000000004c .L0 
     /tmp/ccSq2scT.s:1192   .text._ZN3stm14CircularBufferIP3TCBE3putES2_:0000000000000050 .L0 
     /tmp/ccSq2scT.s:1194   .text._ZN3stm14CircularBufferIP3TCBE3putES2_:0000000000000054 .L0 
     /tmp/ccSq2scT.s:1196   .text._ZN3stm14CircularBufferIP3TCBE3putES2_:0000000000000058 .L0 
     /tmp/ccSq2scT.s:1199   .text._ZN3stm14CircularBufferIP3TCBE3putES2_:0000000000000060 .L0 
     /tmp/ccSq2scT.s:1200   .text._ZN3stm14CircularBufferIP3TCBE3putES2_:0000000000000064 .L0 
     /tmp/ccSq2scT.s:1201   .text._ZN3stm14CircularBufferIP3TCBE3putES2_:0000000000000064 .L0 
     /tmp/ccSq2scT.s:1203   .text._ZN3stm14CircularBufferIP3TCBE3putES2_:0000000000000068 .L0 
     /tmp/ccSq2scT.s:1204   .text._ZN3stm14CircularBufferIP3TCBE3putES2_:0000000000000068 .L0 
     /tmp/ccSq2scT.s:1206   .text._ZN3stm14CircularBufferIP3TCBE3putES2_:000000000000006c .L0 
     /tmp/ccSq2scT.s:1209   .text._ZN3stm14CircularBufferIP3TCBE3putES2_:0000000000000070 .L0 
     /tmp/ccSq2scT.s:1212   .text._ZN3stm14CircularBufferIP3TCBE3putES2_:0000000000000074 .L0 
     /tmp/ccSq2scT.s:1216   .text._ZN3stm14CircularBufferIP3TCBE3putES2_:0000000000000078 .L0 
     /tmp/ccSq2scT.s:1218   .text._ZN3stm14CircularBufferIP3TCBE3putES2_:0000000000000078 .L0 
     /tmp/ccSq2scT.s:1221   .text._ZN3stm14CircularBufferIP3TCBE3putES2_:0000000000000084 .L0 
     /tmp/ccSq2scT.s:1228   .text:00000000000005d0 _ZN3TCB12_thread_joinEPS_
     /tmp/ccSq2scT.s:1231   .text:00000000000005d0 .L0 
     /tmp/ccSq2scT.s:1233   .text:00000000000005d0 .L0 
     /tmp/ccSq2scT.s:1236   .text:00000000000005d0 .L0 
     /tmp/ccSq2scT.s:1237   .text:00000000000005d0 .L0 
     /tmp/ccSq2scT.s:1238   .text:00000000000005d0 .L0 
     /tmp/ccSq2scT.s:1243   .text:00000000000005d4 .L0 
     /tmp/ccSq2scT.s:1246   .text:00000000000005dc .L0 
     /tmp/ccSq2scT.s:1247   .text:00000000000005e0 .L0 
     /tmp/ccSq2scT.s:1250   .text:00000000000005e8 .L0 
     /tmp/ccSq2scT.s:1251   .text:00000000000005e8 .L0 
     /tmp/ccSq2scT.s:1253   .text:00000000000005ec .L0 
     /tmp/ccSq2scT.s:1255   .text:00000000000005ec .L0 
     /tmp/ccSq2scT.s:1256   .text:00000000000005ec .L0 
     /tmp/ccSq2scT.s:1261   .text:00000000000005f4 .L0 
     /tmp/ccSq2scT.s:1262   .text:00000000000005f4 .L0 
     /tmp/ccSq2scT.s:1268   .text:00000000000005fc .L0 
     /tmp/ccSq2scT.s:1269   .text:00000000000005fc .L0 
     /tmp/ccSq2scT.s:1274   .text:0000000000000608 .L0 
     /tmp/ccSq2scT.s:1275   .text:0000000000000608 .L0 
     /tmp/ccSq2scT.s:1278   .text:0000000000000610 .L0 
     /tmp/ccSq2scT.s:1279   .text:0000000000000614 .L0 
     /tmp/ccSq2scT.s:1281   .text:0000000000000618 .L0 
     /tmp/ccSq2scT.s:1282   .text:0000000000000618 .L0 
     /tmp/ccSq2scT.s:1284   .text:000000000000061c .L0 
     /tmp/ccSq2scT.s:1289   .text:0000000000000624 .L0 
     /tmp/ccSq2scT.s:1295   .text:0000000000000624 _ZN3TCB17_thread_join_timeEPS_m
GAS LISTING /tmp/ccSq2scT.s 			page 44


     /tmp/ccSq2scT.s:1298   .text:0000000000000624 .L0 
     /tmp/ccSq2scT.s:1300   .text:0000000000000624 .L0 
     /tmp/ccSq2scT.s:1303   .text:0000000000000624 .L0 
     /tmp/ccSq2scT.s:1304   .text:0000000000000624 .L0 
     /tmp/ccSq2scT.s:1305   .text:0000000000000624 .L0 
     /tmp/ccSq2scT.s:1310   .text:0000000000000628 .L0 
     /tmp/ccSq2scT.s:1313   .text:0000000000000630 .L0 
     /tmp/ccSq2scT.s:1314   .text:0000000000000634 .L0 
     /tmp/ccSq2scT.s:1319   .text:0000000000000644 .L0 
     /tmp/ccSq2scT.s:1320   .text:0000000000000644 .L0 
     /tmp/ccSq2scT.s:1321   .text:0000000000000644 .L0 
     /tmp/ccSq2scT.s:1322   .text:0000000000000644 .L0 
     /tmp/ccSq2scT.s:1324   .text:0000000000000648 .L0 
     /tmp/ccSq2scT.s:1327   .text:000000000000064c .L0 
     /tmp/ccSq2scT.s:1328   .text:000000000000064c .L0 
     /tmp/ccSq2scT.s:1334   .text:0000000000000658 .L0 
     /tmp/ccSq2scT.s:1335   .text:0000000000000658 .L0 
     /tmp/ccSq2scT.s:1341   .text:0000000000000660 .L0 
     /tmp/ccSq2scT.s:1342   .text:0000000000000660 .L0 
     /tmp/ccSq2scT.s:1347   .text:000000000000066c .L0 
     /tmp/ccSq2scT.s:1348   .text:000000000000066c .L0 
     /tmp/ccSq2scT.s:1353   .text:000000000000067c .L0 
     /tmp/ccSq2scT.s:1354   .text:000000000000067c .L0 
     /tmp/ccSq2scT.s:1357   .text:0000000000000684 .L0 
     /tmp/ccSq2scT.s:1358   .text:0000000000000688 .L0 
     /tmp/ccSq2scT.s:1360   .text:000000000000068c .L0 
     /tmp/ccSq2scT.s:1361   .text:000000000000068c .L0 
     /tmp/ccSq2scT.s:1363   .text:0000000000000690 .L0 
     /tmp/ccSq2scT.s:1366   .text:0000000000000694 .L0 
     /tmp/ccSq2scT.s:1368   .text:0000000000000698 .L0 
     /tmp/ccSq2scT.s:1373   .text:00000000000006a0 .L0 
     /tmp/ccSq2scT.s:1393   .bss:0000000000000010 _ZN3TCB13timer_counterE
     /tmp/ccSq2scT.s:1384   .bss:0000000000000000 _ZN3TCB7runningE
     /tmp/ccSq2scT.s:1388   .bss:0000000000000008 _ZN3TCB2IDE
     /tmp/ccSq2scT.s:1381   .bss:0000000000000000 .LANCHOR0
     /tmp/ccSq2scT.s:1403   .text:00000000000006a0 .L0 
     /tmp/ccSq2scT.s:185    .text._ZN3stm14CircularBufferIP3TCBE4initEv:0000000000000050 .L0 
     /tmp/ccSq2scT.s:689    .text._ZN3stm14CircularBufferIP3TCBE3getEv:000000000000004c .L0 
     /tmp/ccSq2scT.s:723    .text._ZN3stm14CircularBufferIP3TCBE7destroyEv:000000000000002c .L0 
     /tmp/ccSq2scT.s:1143   .text._ZN3stm14CircularBufferIP3TCBE6extendEv:00000000000000ac .L0 
     /tmp/ccSq2scT.s:1224   .text._ZN3stm14CircularBufferIP3TCBE3putES2_:0000000000000084 .L0 
     /tmp/ccSq2scT.s:28     .text:0000000000000018 .L0 
     /tmp/ccSq2scT.s:84     .text:0000000000000064 .L0 
     /tmp/ccSq2scT.s:209    .text:00000000000000bc .L0 
     /tmp/ccSq2scT.s:306    .text:0000000000000194 .L0 
     /tmp/ccSq2scT.s:384    .text:0000000000000238 .L0 
     /tmp/ccSq2scT.s:444    .text:0000000000000280 .L0 
     /tmp/ccSq2scT.s:543    .text:0000000000000358 .L0 
     /tmp/ccSq2scT.s:550    .text:0000000000000368 .L0 
     /tmp/ccSq2scT.s:832    .text:000000000000047c .L0 
     /tmp/ccSq2scT.s:846    .text:000000000000048c .L0 
     /tmp/ccSq2scT.s:873    .text:00000000000004b4 .L0 
     /tmp/ccSq2scT.s:884    .text:00000000000004c4 .L0 
     /tmp/ccSq2scT.s:895    .text:00000000000004d4 .L0 
     /tmp/ccSq2scT.s:906    .text:00000000000004e4 .L0 
     /tmp/ccSq2scT.s:908    .text:00000000000004f0 .L0 
     /tmp/ccSq2scT.s:949    .text:0000000000000544 .L0 
GAS LISTING /tmp/ccSq2scT.s 			page 45


     /tmp/ccSq2scT.s:976    .text:000000000000056c .L0 
     /tmp/ccSq2scT.s:1007   .text:00000000000005a0 .L0 
     /tmp/ccSq2scT.s:1256   .text:00000000000005ec .L0 
     /tmp/ccSq2scT.s:1328   .text:000000000000064c .L0 
     /tmp/ccSq2scT.s:112    .text:0000000000000088 .L5
     /tmp/ccSq2scT.s:119    .text:0000000000000090 .L6
     /tmp/ccSq2scT.s:125    .text:0000000000000098 .L7
     /tmp/ccSq2scT.s:102    .text:000000000000007c .L4
     /tmp/ccSq2scT.s:380    .text:0000000000000238 .L14
     /tmp/ccSq2scT.s:348    .text:000000000000020c .L15
     /tmp/ccSq2scT.s:601    .text:00000000000003d8 .L29
     /tmp/ccSq2scT.s:584    .text:00000000000003c0 .L27
     /tmp/ccSq2scT.s:789    .text:0000000000000444 .L35
     /tmp/ccSq2scT.s:744    .text:0000000000000414 .L36
     /tmp/ccSq2scT.s:856    .text:00000000000004ac .L40
     /tmp/ccSq2scT.s:863    .text:00000000000004b4 .L41
     /tmp/ccSq2scT.s:910    .text:00000000000004fc .L48
     /tmp/ccSq2scT.s:928    .text:0000000000000528 .L45
     /tmp/ccSq2scT.s:950    .text:000000000000054c .L43
     /tmp/ccSq2scT.s:917    .text:000000000000050c .L49
     /tmp/ccSq2scT.s:972    .text:000000000000056c .L50
     /tmp/ccSq2scT.s:957    .text:0000000000000558 .L39
     /tmp/ccSq2scT.s:1287   .text:0000000000000620 .L64
     /tmp/ccSq2scT.s:1371   .text:000000000000069c .L70
     /tmp/ccSq2scT.s:317    .text:00000000000001b4 .LEHB0
     /tmp/ccSq2scT.s:274    .text:0000000000000158 .LFB51
     /tmp/ccSq2scT.s:320    .text:00000000000001bc .LEHE0
     /tmp/ccSq2scT.s:334    .text:00000000000001f0 .LEHB1
     /tmp/ccSq2scT.s:337    .text:00000000000001f8 .LEHE1
     /tmp/ccSq2scT.s:386    .text:0000000000000244 .L17
     /tmp/ccSq2scT.s:345    .text:0000000000000204 .LEHB2
     /tmp/ccSq2scT.s:396    .text:0000000000000260 .LEHE2
     /tmp/ccSq2scT.s:538    .text:000000000000034c .LEHB3
     /tmp/ccSq2scT.s:518    .text:0000000000000330 .LFB57
     /tmp/ccSq2scT.s:541    .text:0000000000000354 .LEHE3
     /tmp/ccSq2scT.s:544    .text:0000000000000360 .LEHB4
     /tmp/ccSq2scT.s:547    .text:0000000000000368 .LEHE4
     /tmp/ccSq2scT.s:608    .text:00000000000003e0 .L26
     /tmp/ccSq2scT.s:560    .text:0000000000000388 .LEHB5
     /tmp/ccSq2scT.s:617    .text:00000000000003fc .LEHE5
     /tmp/ccSq2scT.s:1106   .text._ZN3stm14CircularBufferIP3TCBE6extendEv:0000000000000070 .L54
     /tmp/ccSq2scT.s:1076   .text._ZN3stm14CircularBufferIP3TCBE6extendEv:0000000000000038 .L55
     /tmp/ccSq2scT.s:1215   .text._ZN3stm14CircularBufferIP3TCBE3putES2_:0000000000000078 .L60
     /tmp/ccSq2scT.s:1173   .text._ZN3stm14CircularBufferIP3TCBE3putES2_:000000000000002c .L58
     /tmp/ccSq2scT.s:3982   .debug_abbrev:0000000000000000 .Ldebug_abbrev0
     /tmp/ccSq2scT.s:6293   .debug_str:0000000000000bb3 .LASF246
     /tmp/ccSq2scT.s:6131   .debug_str:0000000000000738 .LASF247
     /tmp/ccSq2scT.s:6035   .debug_str:000000000000041b .LASF248
     /tmp/ccSq2scT.s:5885   .debug_ranges:0000000000000000 .Ldebug_ranges0
     /tmp/ccSq2scT.s:5901   .debug_line:0000000000000000 .Ldebug_line0
     /tmp/ccSq2scT.s:6069   .debug_str:0000000000000555 .LASF0
     /tmp/ccSq2scT.s:6107   .debug_str:0000000000000672 .LASF1
     /tmp/ccSq2scT.s:6233   .debug_str:0000000000000a38 .LASF2
     /tmp/ccSq2scT.s:6243   .debug_str:0000000000000a8c .LASF4
     /tmp/ccSq2scT.s:6087   .debug_str:00000000000005e2 .LASF3
     /tmp/ccSq2scT.s:5921   .debug_str:0000000000000087 .LASF5
     /tmp/ccSq2scT.s:6201   .debug_str:000000000000095c .LASF6
GAS LISTING /tmp/ccSq2scT.s 			page 46


     /tmp/ccSq2scT.s:6185   .debug_str:00000000000008ce .LASF7
     /tmp/ccSq2scT.s:6099   .debug_str:000000000000064c .LASF8
     /tmp/ccSq2scT.s:6033   .debug_str:000000000000040b .LASF9
     /tmp/ccSq2scT.s:6039   .debug_str:0000000000000451 .LASF10
     /tmp/ccSq2scT.s:5961   .debug_str:00000000000001c5 .LASF11
     /tmp/ccSq2scT.s:6023   .debug_str:00000000000003d4 .LASF12
     /tmp/ccSq2scT.s:5977   .debug_str:0000000000000257 .LASF13
     /tmp/ccSq2scT.s:5959   .debug_str:00000000000001b5 .LASF14
     /tmp/ccSq2scT.s:6271   .debug_str:0000000000000b40 .LASF15
     /tmp/ccSq2scT.s:6005   .debug_str:000000000000035d .LASF16
     /tmp/ccSq2scT.s:6259   .debug_str:0000000000000ae9 .LASF17
     /tmp/ccSq2scT.s:6351   .debug_str:0000000000000e6a .LASF18
     /tmp/ccSq2scT.s:6113   .debug_str:000000000000069f .LASF27
     /tmp/ccSq2scT.s:5915   .debug_str:0000000000000048 .LASF29
     /tmp/ccSq2scT.s:6289   .debug_str:0000000000000b9e .LASF19
     /tmp/ccSq2scT.s:6133   .debug_str:0000000000000749 .LASF21
     /tmp/ccSq2scT.s:6255   .debug_str:0000000000000acf .LASF20
     /tmp/ccSq2scT.s:6299   .debug_str:0000000000000c8e .LASF22
     /tmp/ccSq2scT.s:6325   .debug_str:0000000000000d7c .LASF23
     /tmp/ccSq2scT.s:6041   .debug_str:000000000000045f .LASF25
     /tmp/ccSq2scT.s:6225   .debug_str:00000000000009f6 .LASF24
     /tmp/ccSq2scT.s:6195   .debug_str:000000000000091c .LASF26
     /tmp/ccSq2scT.s:5941   .debug_str:000000000000011b .LASF92
     /tmp/ccSq2scT.s:6163   .debug_str:000000000000083e .LASF94
     /tmp/ccSq2scT.s:6309   .debug_str:0000000000000d05 .LASF28
     /tmp/ccSq2scT.s:6349   .debug_str:0000000000000e58 .LASF30
     /tmp/ccSq2scT.s:6187   .debug_str:00000000000008e1 .LASF31
     /tmp/ccSq2scT.s:6397   .debug_str:0000000000000fff .LASF32
     /tmp/ccSq2scT.s:6129   .debug_str:0000000000000729 .LASF33
     /tmp/ccSq2scT.s:5983   .debug_str:0000000000000291 .LASF34
     /tmp/ccSq2scT.s:6241   .debug_str:0000000000000a7c .LASF35
     /tmp/ccSq2scT.s:5949   .debug_str:0000000000000154 .LASF36
     /tmp/ccSq2scT.s:6137   .debug_str:0000000000000768 .LASF37
     /tmp/ccSq2scT.s:6305   .debug_str:0000000000000cc3 .LASF38
     /tmp/ccSq2scT.s:6359   .debug_str:0000000000000eb5 .LASF39
     /tmp/ccSq2scT.s:5991   .debug_str:00000000000002ec .LASF40
     /tmp/ccSq2scT.s:6139   .debug_str:0000000000000777 .LASF41
     /tmp/ccSq2scT.s:6273   .debug_str:0000000000000b4c .LASF42
     /tmp/ccSq2scT.s:6311   .debug_str:0000000000000d0b .LASF43
     /tmp/ccSq2scT.s:6341   .debug_str:0000000000000e0c .LASF45
     /tmp/ccSq2scT.s:6377   .debug_str:0000000000000f35 .LASF44
     /tmp/ccSq2scT.s:5935   .debug_str:00000000000000d5 .LASF46
     /tmp/ccSq2scT.s:6197   .debug_str:000000000000093c .LASF47
     /tmp/ccSq2scT.s:5987   .debug_str:00000000000002c0 .LASF48
     /tmp/ccSq2scT.s:5985   .debug_str:00000000000002b6 .LASF49
     /tmp/ccSq2scT.s:6387   .debug_str:0000000000000fa6 .LASF50
     /tmp/ccSq2scT.s:6179   .debug_str:0000000000000891 .LASF51
     /tmp/ccSq2scT.s:6155   .debug_str:00000000000007fe .LASF52
     /tmp/ccSq2scT.s:5957   .debug_str:00000000000001a7 .LASF53
     /tmp/ccSq2scT.s:6067   .debug_str:000000000000054f .LASF54
     /tmp/ccSq2scT.s:5923   .debug_str:000000000000008e .LASF55
     /tmp/ccSq2scT.s:6111   .debug_str:0000000000000699 .LASF56
     /tmp/ccSq2scT.s:6247   .debug_str:0000000000000a9a .LASF57
     /tmp/ccSq2scT.s:6171   .debug_str:000000000000086c .LASF58
     /tmp/ccSq2scT.s:5955   .debug_str:0000000000000196 .LASF59
     /tmp/ccSq2scT.s:6135   .debug_str:0000000000000761 .LASF60
     /tmp/ccSq2scT.s:6021   .debug_str:00000000000003c3 .LASF61
GAS LISTING /tmp/ccSq2scT.s 			page 47


     /tmp/ccSq2scT.s:6269   .debug_str:0000000000000b32 .LASF62
     /tmp/ccSq2scT.s:6075   .debug_str:000000000000056d .LASF63
     /tmp/ccSq2scT.s:5927   .debug_str:00000000000000ab .LASF64
     /tmp/ccSq2scT.s:6003   .debug_str:0000000000000344 .LASF65
     /tmp/ccSq2scT.s:6045   .debug_str:0000000000000487 .LASF66
     /tmp/ccSq2scT.s:5937   .debug_str:00000000000000ec .LASF67
     /tmp/ccSq2scT.s:6301   .debug_str:0000000000000caa .LASF68
     /tmp/ccSq2scT.s:6079   .debug_str:0000000000000591 .LASF69
     /tmp/ccSq2scT.s:6089   .debug_str:00000000000005f4 .LASF70
     /tmp/ccSq2scT.s:6375   .debug_str:0000000000000f1b .LASF71
     /tmp/ccSq2scT.s:6027   .debug_str:00000000000003ee .LASF72
     /tmp/ccSq2scT.s:6291   .debug_str:0000000000000bab .LASF73
     /tmp/ccSq2scT.s:6327   .debug_str:0000000000000d89 .LASF74
     /tmp/ccSq2scT.s:6055   .debug_str:00000000000004cb .LASF75
     /tmp/ccSq2scT.s:6393   .debug_str:0000000000000fee .LASF76
     /tmp/ccSq2scT.s:5993   .debug_str:0000000000000305 .LASF77
     /tmp/ccSq2scT.s:6313   .debug_str:0000000000000d17 .LASF78
     /tmp/ccSq2scT.s:6347   .debug_str:0000000000000e51 .LASF79
     /tmp/ccSq2scT.s:6221   .debug_str:00000000000009e2 .LASF80
     /tmp/ccSq2scT.s:6315   .debug_str:0000000000000d1f .LASF81
     /tmp/ccSq2scT.s:6115   .debug_str:00000000000006ae .LASF82
     /tmp/ccSq2scT.s:5945   .debug_str:0000000000000132 .LASF83
     /tmp/ccSq2scT.s:5953   .debug_str:000000000000018a .LASF185
     /tmp/ccSq2scT.s:5963   .debug_str:00000000000001d4 .LASF84
     /tmp/ccSq2scT.s:6105   .debug_str:000000000000066d .LASF85
     /tmp/ccSq2scT.s:5903   .debug_str:0000000000000000 .LASF86
     /tmp/ccSq2scT.s:6083   .debug_str:00000000000005b8 .LASF87
     /tmp/ccSq2scT.s:6077   .debug_str:0000000000000587 .LASF88
     /tmp/ccSq2scT.s:5999   .debug_str:000000000000031f .LASF89
     /tmp/ccSq2scT.s:6253   .debug_str:0000000000000ac6 .LASF90
     /tmp/ccSq2scT.s:6321   .debug_str:0000000000000d3b .LASF91
     /tmp/ccSq2scT.s:6339   .debug_str:0000000000000e02 .LASF93
     /tmp/ccSq2scT.s:5971   .debug_str:0000000000000217 .LASF95
     /tmp/ccSq2scT.s:6151   .debug_str:00000000000007e7 .LASF96
     /tmp/ccSq2scT.s:6405   .debug_str:0000000000001032 .LASF97
     /tmp/ccSq2scT.s:6257   .debug_str:0000000000000ae0 .LASF98
     /tmp/ccSq2scT.s:6357   .debug_str:0000000000000e9c .LASF99
     /tmp/ccSq2scT.s:5929   .debug_str:00000000000000b9 .LASF100
     /tmp/ccSq2scT.s:6331   .debug_str:0000000000000d97 .LASF101
     /tmp/ccSq2scT.s:6403   .debug_str:000000000000102c .LASF198
     /tmp/ccSq2scT.s:6119   .debug_str:00000000000006cd .LASF200
     /tmp/ccSq2scT.s:6121   .debug_str:00000000000006f7 .LASF124
     /tmp/ccSq2scT.s:6141   .debug_str:0000000000000796 .LASF111
     /tmp/ccSq2scT.s:6219   .debug_str:00000000000009dd .LASF102
     /tmp/ccSq2scT.s:6031   .debug_str:0000000000000401 .LASF103
     /tmp/ccSq2scT.s:6211   .debug_str:000000000000099e .LASF104
     /tmp/ccSq2scT.s:6267   .debug_str:0000000000000b1d .LASF105
     /tmp/ccSq2scT.s:6059   .debug_str:00000000000004f9 .LASF249
     /tmp/ccSq2scT.s:6389   .debug_str:0000000000000fbb .LASF250
     /tmp/ccSq2scT.s:6223   .debug_str:00000000000009ed .LASF106
     /tmp/ccSq2scT.s:6159   .debug_str:0000000000000820 .LASF107
     /tmp/ccSq2scT.s:6103   .debug_str:0000000000000668 .LASF108
     /tmp/ccSq2scT.s:6207   .debug_str:0000000000000982 .LASF109
     /tmp/ccSq2scT.s:6381   .debug_str:0000000000000f5f .LASF110
     /tmp/ccSq2scT.s:6335   .debug_str:0000000000000ddc .LASF112
     /tmp/ccSq2scT.s:6123   .debug_str:0000000000000703 .LASF113
     /tmp/ccSq2scT.s:5925   .debug_str:000000000000009e .LASF114
GAS LISTING /tmp/ccSq2scT.s 			page 48


     /tmp/ccSq2scT.s:5909   .debug_str:000000000000001c .LASF115
     /tmp/ccSq2scT.s:6385   .debug_str:0000000000000f80 .LASF116
     /tmp/ccSq2scT.s:6093   .debug_str:0000000000000617 .LASF117
     /tmp/ccSq2scT.s:6061   .debug_str:0000000000000511 .LASF251
     /tmp/ccSq2scT.s:6307   .debug_str:0000000000000cdf .LASF118
     /tmp/ccSq2scT.s:5969   .debug_str:00000000000001ec .LASF119
     /tmp/ccSq2scT.s:6319   .debug_str:0000000000000d33 .LASF120
     /tmp/ccSq2scT.s:6057   .debug_str:00000000000004d0 .LASF121
     /tmp/ccSq2scT.s:5975   .debug_str:0000000000000250 .LASF122
     /tmp/ccSq2scT.s:6323   .debug_str:0000000000000d54 .LASF123
     /tmp/ccSq2scT.s:6047   .debug_str:0000000000000497 .LASF125
     /tmp/ccSq2scT.s:6017   .debug_str:00000000000003b7 .LASF126
     /tmp/ccSq2scT.s:6265   .debug_str:0000000000000b18 .LASF127
     /tmp/ccSq2scT.s:6161   .debug_str:0000000000000839 .LASF128
     /tmp/ccSq2scT.s:5907   .debug_str:0000000000000013 .LASF129
     /tmp/ccSq2scT.s:6009   .debug_str:000000000000038d .LASF130
     /tmp/ccSq2scT.s:6191   .debug_str:00000000000008f3 .LASF131
     /tmp/ccSq2scT.s:6365   .debug_str:0000000000000ece .LASF132
     /tmp/ccSq2scT.s:6295   .debug_str:0000000000000c77 .LASF133
     /tmp/ccSq2scT.s:6217   .debug_str:00000000000009c0 .LASF134
     /tmp/ccSq2scT.s:6175   .debug_str:000000000000087b .LASF135
     /tmp/ccSq2scT.s:6183   .debug_str:00000000000008b2 .LASF136
     /tmp/ccSq2scT.s:6371   .debug_str:0000000000000f03 .LASF137
     /tmp/ccSq2scT.s:6147   .debug_str:00000000000007c2 .LASF138
     /tmp/ccSq2scT.s:6053   .debug_str:00000000000004c0 .LASF139
     /tmp/ccSq2scT.s:6143   .debug_str:00000000000007a3 .LASF140
     /tmp/ccSq2scT.s:6251   .debug_str:0000000000000ab4 .LASF141
     /tmp/ccSq2scT.s:6379   .debug_str:0000000000000f40 .LASF142
     /tmp/ccSq2scT.s:6285   .debug_str:0000000000000b81 .LASF143
     /tmp/ccSq2scT.s:6199   .debug_str:0000000000000948 .LASF144
     /tmp/ccSq2scT.s:6277   .debug_str:0000000000000b5f .LASF145
     /tmp/ccSq2scT.s:6287   .debug_str:0000000000000b89 .LASF146
     /tmp/ccSq2scT.s:6329   .debug_str:0000000000000d8e .LASF147
     /tmp/ccSq2scT.s:5979   .debug_str:0000000000000267 .LASF148
     /tmp/ccSq2scT.s:6229   .debug_str:0000000000000a1c .LASF149
     /tmp/ccSq2scT.s:5981   .debug_str:000000000000027c .LASF150
     /tmp/ccSq2scT.s:6209   .debug_str:0000000000000997 .LASF151
     /tmp/ccSq2scT.s:6353   .debug_str:0000000000000e73 .LASF152
     /tmp/ccSq2scT.s:6167   .debug_str:000000000000085a .LASF153
     /tmp/ccSq2scT.s:6231   .debug_str:0000000000000a25 .LASF154
     /tmp/ccSq2scT.s:6373   .debug_str:0000000000000f13 .LASF155
     /tmp/ccSq2scT.s:6227   .debug_str:0000000000000a08 .LASF156
     /tmp/ccSq2scT.s:6097   .debug_str:0000000000000644 .LASF157
     /tmp/ccSq2scT.s:6091   .debug_str:0000000000000603 .LASF158
     /tmp/ccSq2scT.s:6149   .debug_str:00000000000007df .LASF159
     /tmp/ccSq2scT.s:6343   .debug_str:0000000000000e24 .LASF160
     /tmp/ccSq2scT.s:6263   .debug_str:0000000000000b10 .LASF161
     /tmp/ccSq2scT.s:5989   .debug_str:00000000000002d8 .LASF162
     /tmp/ccSq2scT.s:5931   .debug_str:00000000000000c2 .LASF163
     /tmp/ccSq2scT.s:6235   .debug_str:0000000000000a46 .LASF164
     /tmp/ccSq2scT.s:6245   .debug_str:0000000000000a93 .LASF165
     /tmp/ccSq2scT.s:5951   .debug_str:0000000000000177 .LASF166
     /tmp/ccSq2scT.s:5997   .debug_str:0000000000000319 .LASF167
     /tmp/ccSq2scT.s:6065   .debug_str:000000000000053d .LASF168
     /tmp/ccSq2scT.s:6073   .debug_str:0000000000000567 .LASF169
     /tmp/ccSq2scT.s:6127   .debug_str:0000000000000717 .LASF170
     /tmp/ccSq2scT.s:6395   .debug_str:0000000000000ff4 .LASF171
GAS LISTING /tmp/ccSq2scT.s 			page 49


     /tmp/ccSq2scT.s:5947   .debug_str:000000000000013c .LASF172
     /tmp/ccSq2scT.s:6025   .debug_str:00000000000003e3 .LASF173
     /tmp/ccSq2scT.s:6117   .debug_str:00000000000006b5 .LASF174
     /tmp/ccSq2scT.s:6363   .debug_str:0000000000000ec4 .LASF175
     /tmp/ccSq2scT.s:6213   .debug_str:00000000000009a3 .LASF176
     /tmp/ccSq2scT.s:5965   .debug_str:00000000000001d9 .LASF177
     /tmp/ccSq2scT.s:6355   .debug_str:0000000000000e86 .LASF178
     /tmp/ccSq2scT.s:6169   .debug_str:0000000000000861 .LASF179
     /tmp/ccSq2scT.s:6337   .debug_str:0000000000000dea .LASF180
     /tmp/ccSq2scT.s:6407   .debug_str:000000000000104b .LASF181
     /tmp/ccSq2scT.s:6085   .debug_str:00000000000005d4 .LASF182
     /tmp/ccSq2scT.s:6283   .debug_str:0000000000000b7c .LASF183
     /tmp/ccSq2scT.s:6095   .debug_str:000000000000063e .LASF184
     /tmp/ccSq2scT.s:6279   .debug_str:0000000000000b68 .LASF186
     /tmp/ccSq2scT.s:6367   .debug_str:0000000000000ef4 .LASF187
     /tmp/ccSq2scT.s:6361   .debug_str:0000000000000ebf .LASF188
     /tmp/ccSq2scT.s:6013   .debug_str:000000000000039a .LASF252
     /tmp/ccSq2scT.s:6101   .debug_str:000000000000065f .LASF189
     /tmp/ccSq2scT.s:5905   .debug_str:000000000000000b .LASF190
     /tmp/ccSq2scT.s:5967   .debug_str:00000000000001e3 .LASF191
     /tmp/ccSq2scT.s:6297   .debug_str:0000000000000c87 .LASF192
     /tmp/ccSq2scT.s:6001   .debug_str:000000000000033b .LASF193
     /tmp/ccSq2scT.s:6369   .debug_str:0000000000000efc .LASF194
     /tmp/ccSq2scT.s:6071   .debug_str:0000000000000562 .LASF195
     /tmp/ccSq2scT.s:6399   .debug_str:0000000000001017 .LASF196
     /tmp/ccSq2scT.s:6109   .debug_str:0000000000000685 .LASF197
     /tmp/ccSq2scT.s:5913   .debug_str:0000000000000038 .LASF199
     /tmp/ccSq2scT.s:6181   .debug_str:000000000000089d .LASF201
     /tmp/ccSq2scT.s:6239   .debug_str:0000000000000a5f .LASF202
     /tmp/ccSq2scT.s:6145   .debug_str:00000000000007bb .LASF203
     /tmp/ccSq2scT.s:6157   .debug_str:0000000000000816 .LASF204
     /tmp/ccSq2scT.s:6063   .debug_str:0000000000000536 .LASF205
     /tmp/ccSq2scT.s:6345   .debug_str:0000000000000e38 .LASF206
     /tmp/ccSq2scT.s:5911   .debug_str:0000000000000031 .LASF207
     /tmp/ccSq2scT.s:6193   .debug_str:0000000000000908 .LASF208
     /tmp/ccSq2scT.s:6215   .debug_str:00000000000009b9 .LASF209
     /tmp/ccSq2scT.s:5939   .debug_str:0000000000000107 .LASF210
     /tmp/ccSq2scT.s:6275   .debug_str:0000000000000b5a .LASF211
     /tmp/ccSq2scT.s:6049   .debug_str:00000000000004a0 .LASF212
     /tmp/ccSq2scT.s:6015   .debug_str:00000000000003a1 .LASF213
     /tmp/ccSq2scT.s:5933   .debug_str:00000000000000c9 .LASF214
     /tmp/ccSq2scT.s:6007   .debug_str:0000000000000373 .LASF215
     /tmp/ccSq2scT.s:5995   .debug_str:000000000000030c .LASF216
     /tmp/ccSq2scT.s:5973   .debug_str:0000000000000231 .LASF217
     /tmp/ccSq2scT.s:6165   .debug_str:000000000000084e .LASF218
     /tmp/ccSq2scT.s:5943   .debug_str:0000000000000121 .LASF219
     /tmp/ccSq2scT.s:6333   .debug_str:0000000000000dc4 .LASF220
     /tmp/ccSq2scT.s:5917   .debug_str:0000000000000071 .LASF221
     /tmp/ccSq2scT.s:1043   .text._ZN3stm14CircularBufferIP3TCBE6extendEv:0000000000000000 .LFB66
     /tmp/ccSq2scT.s:1141   .text._ZN3stm14CircularBufferIP3TCBE6extendEv:00000000000000ac .LFE66
     /tmp/ccSq2scT.s:6029   .debug_str:00000000000003fc .LASF223
     /tmp/ccSq2scT.s:5237   .debug_loc:0000000000000000 .LLST26
     /tmp/ccSq2scT.s:6317   .debug_str:0000000000000d29 .LASF222
     /tmp/ccSq2scT.s:5255   .debug_loc:000000000000004c .LLST27
     /tmp/ccSq2scT.s:1069   .text._ZN3stm14CircularBufferIP3TCBE6extendEv:0000000000000030 .LBB70
     /tmp/ccSq2scT.s:1107   .text._ZN3stm14CircularBufferIP3TCBE6extendEv:0000000000000070 .LBE70
     /tmp/ccSq2scT.s:5272   .debug_loc:0000000000000097 .LLST28
GAS LISTING /tmp/ccSq2scT.s 			page 50


     /tmp/ccSq2scT.s:5288   .debug_loc:00000000000000e1 .LLST29
     /tmp/ccSq2scT.s:1066   .text._ZN3stm14CircularBufferIP3TCBE6extendEv:000000000000002c .LVL100
     /tmp/ccSq2scT.s:1112   .text._ZN3stm14CircularBufferIP3TCBE6extendEv:000000000000007c .LVL109
     /tmp/ccSq2scT.s:1148   .text._ZN3stm14CircularBufferIP3TCBE3putES2_:0000000000000000 .LFB65
     /tmp/ccSq2scT.s:1222   .text._ZN3stm14CircularBufferIP3TCBE3putES2_:0000000000000084 .LFE65
     /tmp/ccSq2scT.s:5305   .debug_loc:000000000000012c .LLST30
     /tmp/ccSq2scT.s:6173   .debug_str:0000000000000873 .LASF224
     /tmp/ccSq2scT.s:5327   .debug_loc:000000000000018b .LLST31
     /tmp/ccSq2scT.s:1219   .text._ZN3stm14CircularBufferIP3TCBE3putES2_:0000000000000080 .LVL117
     /tmp/ccSq2scT.s:694    .text._ZN3stm14CircularBufferIP3TCBE7destroyEv:0000000000000000 .LFB64
     /tmp/ccSq2scT.s:721    .text._ZN3stm14CircularBufferIP3TCBE7destroyEv:000000000000002c .LFE64
     /tmp/ccSq2scT.s:5353   .debug_loc:00000000000001fd .LLST16
     /tmp/ccSq2scT.s:710    .text._ZN3stm14CircularBufferIP3TCBE7destroyEv:000000000000001c .LVL61
     /tmp/ccSq2scT.s:645    .text._ZN3stm14CircularBufferIP3TCBE3getEv:0000000000000000 .LFB63
     /tmp/ccSq2scT.s:687    .text._ZN3stm14CircularBufferIP3TCBE3getEv:000000000000004c .LFE63
     /tmp/ccSq2scT.s:5367   .debug_loc:0000000000000236 .LLST15
     /tmp/ccSq2scT.s:138    .text._ZN3stm14CircularBufferIP3TCBE4initEv:0000000000000000 .LFB60
     /tmp/ccSq2scT.s:183    .text._ZN3stm14CircularBufferIP3TCBE4initEv:0000000000000050 .LFE60
     /tmp/ccSq2scT.s:5378   .debug_loc:000000000000026c .LLST3
     /tmp/ccSq2scT.s:167    .text._ZN3stm14CircularBufferIP3TCBE4initEv:0000000000000038 .LVL17
     /tmp/ccSq2scT.s:10     .text:0000000000000000 .LFB59
     /tmp/ccSq2scT.s:48     .text:0000000000000044 .LFE59
     /tmp/ccSq2scT.s:25     .text:0000000000000018 .LVL0
     /tmp/ccSq2scT.s:37     .text:0000000000000034 .LVL2
     /tmp/ccSq2scT.s:54     .text:0000000000000044 .LFB58
     /tmp/ccSq2scT.s:131    .text:00000000000000a0 .LFE58
     /tmp/ccSq2scT.s:6011   .debug_str:0000000000000393 .LASF225
     /tmp/ccSq2scT.s:5396   .debug_loc:00000000000002b8 .LLST0
     /tmp/ccSq2scT.s:68     .text:0000000000000054 .LBB43
     /tmp/ccSq2scT.s:76     .text:0000000000000058 .LBE43
     /tmp/ccSq2scT.s:5443   .debug_loc:000000000000036c .LLST1
     /tmp/ccSq2scT.s:89     .text:0000000000000070 .LBB45
     /tmp/ccSq2scT.s:97     .text:0000000000000078 .LBE45
     /tmp/ccSq2scT.s:5450   .debug_loc:000000000000038f .LLST2
     /tmp/ccSq2scT.s:619    .text:00000000000003fc .LFE57
     /tmp/ccSq2scT.s:6237   .debug_str:0000000000000a59 .LASF226
     /tmp/ccSq2scT.s:5457   .debug_loc:00000000000003b2 .LLST14
     /tmp/ccSq2scT.s:6249   .debug_str:0000000000000aaa .LASF227
     /tmp/ccSq2scT.s:540    .text:0000000000000354 .LVL47
     /tmp/ccSq2scT.s:546    .text:0000000000000368 .LVL48
     /tmp/ccSq2scT.s:562    .text:0000000000000390 .LVL49
     /tmp/ccSq2scT.s:567    .text:000000000000039c .LVL50
     /tmp/ccSq2scT.s:572    .text:00000000000003a8 .LVL51
     /tmp/ccSq2scT.s:613    .text:00000000000003f0 .LVL55
     /tmp/ccSq2scT.s:616    .text:00000000000003fc .LVL56
     /tmp/ccSq2scT.s:1296   .text:0000000000000624 .LFB56
     /tmp/ccSq2scT.s:1374   .text:00000000000006a0 .LFE56
     /tmp/ccSq2scT.s:5468   .debug_loc:00000000000003e8 .LLST35
     /tmp/ccSq2scT.s:6189   .debug_str:00000000000008ee .LASF228
     /tmp/ccSq2scT.s:5492   .debug_loc:000000000000044a .LLST36
     /tmp/ccSq2scT.s:1301   .text:0000000000000624 .LBB75
     /tmp/ccSq2scT.s:1308   .text:0000000000000628 .LBE75
     /tmp/ccSq2scT.s:5514   .debug_loc:00000000000004a9 .LLST37
     /tmp/ccSq2scT.s:1331   .text:0000000000000658 .LBB77
     /tmp/ccSq2scT.s:1339   .text:0000000000000660 .LBE77
     /tmp/ccSq2scT.s:5521   .debug_loc:00000000000004cc .LLST38
     /tmp/ccSq2scT.s:1345   .text:000000000000066c .LVL131
GAS LISTING /tmp/ccSq2scT.s 			page 51


     /tmp/ccSq2scT.s:1351   .text:000000000000067c .LVL132
     /tmp/ccSq2scT.s:1355   .text:0000000000000684 .LVL133
     /tmp/ccSq2scT.s:1229   .text:00000000000005d0 .LFB55
     /tmp/ccSq2scT.s:1290   .text:0000000000000624 .LFE55
     /tmp/ccSq2scT.s:5528   .debug_loc:00000000000004ef .LLST32
     /tmp/ccSq2scT.s:1234   .text:00000000000005d0 .LBB71
     /tmp/ccSq2scT.s:1241   .text:00000000000005d4 .LBE71
     /tmp/ccSq2scT.s:5552   .debug_loc:0000000000000551 .LLST33
     /tmp/ccSq2scT.s:1258   .text:00000000000005f4 .LBB73
     /tmp/ccSq2scT.s:1266   .text:00000000000005fc .LBE73
     /tmp/ccSq2scT.s:5559   .debug_loc:0000000000000574 .LLST34
     /tmp/ccSq2scT.s:1272   .text:0000000000000608 .LVL123
     /tmp/ccSq2scT.s:1276   .text:0000000000000610 .LVL124
     /tmp/ccSq2scT.s:994    .text:0000000000000590 .LFB54
     /tmp/ccSq2scT.s:1036   .text:00000000000005d0 .LFE54
     /tmp/ccSq2scT.s:1009   .text:00000000000005a8 .LBB68
     /tmp/ccSq2scT.s:1017   .text:00000000000005b0 .LBE68
     /tmp/ccSq2scT.s:5566   .debug_loc:0000000000000597 .LLST25
     /tmp/ccSq2scT.s:1021   .text:00000000000005b8 .LVL96
     /tmp/ccSq2scT.s:1025   .text:00000000000005c0 .LVL97
     /tmp/ccSq2scT.s:728    .text:00000000000003fc .LFB53
     /tmp/ccSq2scT.s:811    .text:0000000000000468 .LFE53
     /tmp/ccSq2scT.s:5573   .debug_loc:00000000000005ba .LLST17
     /tmp/ccSq2scT.s:756    .text:000000000000041c .LBB51
     /tmp/ccSq2scT.s:790    .text:0000000000000444 .LBE51
     /tmp/ccSq2scT.s:5588   .debug_loc:0000000000000603 .LLST19
     /tmp/ccSq2scT.s:763    .text:0000000000000428 .LBB52
     /tmp/ccSq2scT.s:770    .text:000000000000042c .LBE52
     /tmp/ccSq2scT.s:5595   .debug_loc:0000000000000626 .LLST20
     /tmp/ccSq2scT.s:776    .text:0000000000000434 .LBB54
     /tmp/ccSq2scT.s:783    .text:0000000000000438 .LBE54
     /tmp/ccSq2scT.s:5602   .debug_loc:0000000000000649 .LLST21
     /tmp/ccSq2scT.s:761    .text:0000000000000428 .LVL65
     /tmp/ccSq2scT.s:787    .text:0000000000000440 .LVL69
     /tmp/ccSq2scT.s:747    .text:0000000000000414 .LBB49
     /tmp/ccSq2scT.s:753    .text:0000000000000418 .LBE49
     /tmp/ccSq2scT.s:5609   .debug_loc:000000000000066c .LLST18
     /tmp/ccSq2scT.s:795    .text:0000000000000450 .LVL70
     /tmp/ccSq2scT.s:817    .text:0000000000000468 .LFB52
     /tmp/ccSq2scT.s:988    .text:0000000000000590 .LFE52
     /tmp/ccSq2scT.s:5618   .debug_loc:0000000000000692 .LLST22
     /tmp/ccSq2scT.s:835    .text:0000000000000484 .LBB56
     /tmp/ccSq2scT.s:842    .text:0000000000000488 .LBE56
     /tmp/ccSq2scT.s:5629   .debug_loc:00000000000006c8 .LLST23
     /tmp/ccSq2scT.s:865    .text:00000000000004b4 .LBB58
     /tmp/ccSq2scT.s:903    .text:00000000000004e4 .LBE58
     /tmp/ccSq2scT.s:870    .text:00000000000004b4 .LBB60
     /tmp/ccSq2scT.s:877    .text:00000000000004c0 .LBE60
     /tmp/ccSq2scT.s:881    .text:00000000000004c4 .LBB62
     /tmp/ccSq2scT.s:888    .text:00000000000004d0 .LBE62
     /tmp/ccSq2scT.s:892    .text:00000000000004d4 .LBB64
     /tmp/ccSq2scT.s:899    .text:00000000000004e0 .LBE64
     /tmp/ccSq2scT.s:933    .text:0000000000000530 .LBB66
     /tmp/ccSq2scT.s:940    .text:0000000000000534 .LBE66
     /tmp/ccSq2scT.s:5636   .debug_loc:00000000000006eb .LLST24
     /tmp/ccSq2scT.s:854    .text:00000000000004a8 .LVL74
     /tmp/ccSq2scT.s:915    .text:0000000000000508 .LVL82
GAS LISTING /tmp/ccSq2scT.s 			page 52


     /tmp/ccSq2scT.s:921    .text:0000000000000514 .LVL83
     /tmp/ccSq2scT.s:923    .text:000000000000051c .LVL84
     /tmp/ccSq2scT.s:927    .text:0000000000000528 .LVL85
     /tmp/ccSq2scT.s:932    .text:0000000000000530 .LVL86
     /tmp/ccSq2scT.s:947    .text:0000000000000544 .LVL88
     /tmp/ccSq2scT.s:954    .text:0000000000000554 .LVL89
     /tmp/ccSq2scT.s:980    .text:0000000000000584 .LVL92
     /tmp/ccSq2scT.s:984    .text:000000000000058c .LVL93
     /tmp/ccSq2scT.s:398    .text:0000000000000260 .LFE51
     /tmp/ccSq2scT.s:5643   .debug_loc:000000000000070e .LLST8
     /tmp/ccSq2scT.s:6205   .debug_str:0000000000000974 .LASF229
     /tmp/ccSq2scT.s:5672   .debug_loc:0000000000000783 .LLST9
     /tmp/ccSq2scT.s:5694   .debug_loc:00000000000007e2 .LLST10
     /tmp/ccSq2scT.s:5716   .debug_loc:0000000000000841 .LLST11
     /tmp/ccSq2scT.s:319    .text:00000000000001bc .LVL28
     /tmp/ccSq2scT.s:336    .text:00000000000001f8 .LVL29
     /tmp/ccSq2scT.s:347    .text:000000000000020c .LVL30
     /tmp/ccSq2scT.s:392    .text:0000000000000254 .LVL38
     /tmp/ccSq2scT.s:395    .text:0000000000000260 .LVL39
     /tmp/ccSq2scT.s:6153   .debug_str:00000000000007f0 .LASF230
     /tmp/ccSq2scT.s:424    .text:0000000000000260 .LFB49
     /tmp/ccSq2scT.s:510    .text:0000000000000330 .LFE49
     /tmp/ccSq2scT.s:5751   .debug_loc:00000000000008bf .LLST12
     /tmp/ccSq2scT.s:5769   .debug_loc:000000000000090b .LLST13
     /tmp/ccSq2scT.s:462    .text:00000000000002b4 .LVL42
     /tmp/ccSq2scT.s:487    .text:000000000000030c .LVL43
     /tmp/ccSq2scT.s:492    .text:0000000000000318 .LVL44
     /tmp/ccSq2scT.s:6391   .debug_str:0000000000000fcf .LASF231
     /tmp/ccSq2scT.s:190    .text:00000000000000a0 .LFB46
     /tmp/ccSq2scT.s:266    .text:0000000000000158 .LFE46
     /tmp/ccSq2scT.s:5787   .debug_loc:0000000000000957 .LLST4
     /tmp/ccSq2scT.s:5805   .debug_loc:00000000000009a3 .LLST5
     /tmp/ccSq2scT.s:5824   .debug_loc:00000000000009f0 .LLST6
     /tmp/ccSq2scT.s:5843   .debug_loc:0000000000000a3d .LLST7
     /tmp/ccSq2scT.s:245    .text:0000000000000138 .LVL24
     /tmp/ccSq2scT.s:6051   .debug_str:00000000000004b2 .LASF232
     /tmp/ccSq2scT.s:6303   .debug_str:0000000000000cb9 .LASF234
     /tmp/ccSq2scT.s:6043   .debug_str:0000000000000479 .LASF233
     /tmp/ccSq2scT.s:5919   .debug_str:000000000000007e .LASF235
     /tmp/ccSq2scT.s:6261   .debug_str:0000000000000aff .LASF236
     /tmp/ccSq2scT.s:6081   .debug_str:00000000000005ac .LASF237
     /tmp/ccSq2scT.s:6019   .debug_str:00000000000003bd .LASF242
     /tmp/ccSq2scT.s:6203   .debug_str:0000000000000963 .LASF238
     /tmp/ccSq2scT.s:6125   .debug_str:0000000000000710 .LASF239
     /tmp/ccSq2scT.s:6281   .debug_str:0000000000000b70 .LASF240
     /tmp/ccSq2scT.s:6401   .debug_str:0000000000001024 .LASF241
     /tmp/ccSq2scT.s:6177   .debug_str:000000000000088a .LASF243
     /tmp/ccSq2scT.s:6383   .debug_str:0000000000000f71 .LASF244
     /tmp/ccSq2scT.s:6037   .debug_str:0000000000000439 .LASF245
     /tmp/ccSq2scT.s:1046   .text._ZN3stm14CircularBufferIP3TCBE6extendEv:0000000000000000 .LVL98
     /tmp/ccSq2scT.s:1062   .text._ZN3stm14CircularBufferIP3TCBE6extendEv:0000000000000020 .LVL99
     /tmp/ccSq2scT.s:1133   .text._ZN3stm14CircularBufferIP3TCBE6extendEv:00000000000000a0 .LVL110
     /tmp/ccSq2scT.s:1068   .text._ZN3stm14CircularBufferIP3TCBE6extendEv:0000000000000030 .LVL101
     /tmp/ccSq2scT.s:1110   .text._ZN3stm14CircularBufferIP3TCBE6extendEv:0000000000000074 .LVL108
     /tmp/ccSq2scT.s:1136   .text._ZN3stm14CircularBufferIP3TCBE6extendEv:00000000000000a4 .LVL111
     /tmp/ccSq2scT.s:1075   .text._ZN3stm14CircularBufferIP3TCBE6extendEv:0000000000000038 .LVL103
     /tmp/ccSq2scT.s:1095   .text._ZN3stm14CircularBufferIP3TCBE6extendEv:0000000000000060 .LVL104
GAS LISTING /tmp/ccSq2scT.s 			page 53


     /tmp/ccSq2scT.s:1105   .text._ZN3stm14CircularBufferIP3TCBE6extendEv:0000000000000070 .LVL107
     /tmp/ccSq2scT.s:1072   .text._ZN3stm14CircularBufferIP3TCBE6extendEv:0000000000000034 .LVL102
     /tmp/ccSq2scT.s:1098   .text._ZN3stm14CircularBufferIP3TCBE6extendEv:0000000000000064 .LVL105
     /tmp/ccSq2scT.s:1103   .text._ZN3stm14CircularBufferIP3TCBE6extendEv:000000000000006c .LVL106
     /tmp/ccSq2scT.s:1151   .text._ZN3stm14CircularBufferIP3TCBE3putES2_:0000000000000000 .LVL112
     /tmp/ccSq2scT.s:1172   .text._ZN3stm14CircularBufferIP3TCBE3putES2_:000000000000002c .LVL113
     /tmp/ccSq2scT.s:1207   .text._ZN3stm14CircularBufferIP3TCBE3putES2_:000000000000006c .LVL114
     /tmp/ccSq2scT.s:1214   .text._ZN3stm14CircularBufferIP3TCBE3putES2_:0000000000000078 .LVL116
     /tmp/ccSq2scT.s:1210   .text._ZN3stm14CircularBufferIP3TCBE3putES2_:0000000000000070 .LVL115
     /tmp/ccSq2scT.s:697    .text._ZN3stm14CircularBufferIP3TCBE7destroyEv:0000000000000000 .LVL59
     /tmp/ccSq2scT.s:708    .text._ZN3stm14CircularBufferIP3TCBE7destroyEv:0000000000000014 .LVL60
     /tmp/ccSq2scT.s:648    .text._ZN3stm14CircularBufferIP3TCBE3getEv:0000000000000000 .LVL57
     /tmp/ccSq2scT.s:665    .text._ZN3stm14CircularBufferIP3TCBE3getEv:0000000000000024 .LVL58
     /tmp/ccSq2scT.s:142    .text._ZN3stm14CircularBufferIP3TCBE4initEv:0000000000000000 .LVL15
     /tmp/ccSq2scT.s:165    .text._ZN3stm14CircularBufferIP3TCBE4initEv:0000000000000030 .LVL16
     /tmp/ccSq2scT.s:178    .text._ZN3stm14CircularBufferIP3TCBE4initEv:0000000000000048 .LVL18
     /tmp/ccSq2scT.s:57     .text:0000000000000044 .LVL3
     /tmp/ccSq2scT.s:101    .text:000000000000007c .LVL8
     /tmp/ccSq2scT.s:111    .text:0000000000000088 .LVL9
     /tmp/ccSq2scT.s:116    .text:000000000000008c .LVL10
     /tmp/ccSq2scT.s:118    .text:0000000000000090 .LVL11
     /tmp/ccSq2scT.s:122    .text:0000000000000094 .LVL12
     /tmp/ccSq2scT.s:124    .text:0000000000000098 .LVL13
     /tmp/ccSq2scT.s:128    .text:000000000000009c .LVL14
     /tmp/ccSq2scT.s:67     .text:0000000000000054 .LVL4
     /tmp/ccSq2scT.s:74     .text:0000000000000058 .LVL5
     /tmp/ccSq2scT.s:88     .text:0000000000000070 .LVL6
     /tmp/ccSq2scT.s:95     .text:0000000000000078 .LVL7
     /tmp/ccSq2scT.s:594    .text:00000000000003cc .LVL52
     /tmp/ccSq2scT.s:600    .text:00000000000003d8 .LVL53
     /tmp/ccSq2scT.s:607    .text:00000000000003e0 .LVL54
     /tmp/ccSq2scT.s:1299   .text:0000000000000624 .LVL126
     /tmp/ccSq2scT.s:1343   .text:0000000000000664 .LVL130
     /tmp/ccSq2scT.s:1370   .text:000000000000069c .LVL135
     /tmp/ccSq2scT.s:1330   .text:0000000000000658 .LVL128
     /tmp/ccSq2scT.s:1364   .text:0000000000000690 .LVL134
     /tmp/ccSq2scT.s:1306   .text:0000000000000628 .LVL127
     /tmp/ccSq2scT.s:1337   .text:0000000000000660 .LVL129
     /tmp/ccSq2scT.s:1232   .text:00000000000005d0 .LVL118
     /tmp/ccSq2scT.s:1270   .text:0000000000000600 .LVL122
     /tmp/ccSq2scT.s:1286   .text:0000000000000620 .LVL125
     /tmp/ccSq2scT.s:1239   .text:00000000000005d4 .LVL119
     /tmp/ccSq2scT.s:1257   .text:00000000000005f4 .LVL120
     /tmp/ccSq2scT.s:1264   .text:00000000000005fc .LVL121
     /tmp/ccSq2scT.s:1008   .text:00000000000005a8 .LVL94
     /tmp/ccSq2scT.s:1015   .text:00000000000005b0 .LVL95
     /tmp/ccSq2scT.s:731    .text:00000000000003fc .LVL62
     /tmp/ccSq2scT.s:743    .text:0000000000000414 .LVL63
     /tmp/ccSq2scT.s:806    .text:0000000000000460 .LVL71
     /tmp/ccSq2scT.s:768    .text:000000000000042c .LVL66
     /tmp/ccSq2scT.s:775    .text:0000000000000434 .LVL67
     /tmp/ccSq2scT.s:781    .text:0000000000000438 .LVL68
     /tmp/ccSq2scT.s:751    .text:0000000000000418 .LVL64
     /tmp/ccSq2scT.s:833    .text:0000000000000484 .LVL72
     /tmp/ccSq2scT.s:967    .text:0000000000000564 .LVL90
     /tmp/ccSq2scT.s:971    .text:000000000000056c .LVL91
     /tmp/ccSq2scT.s:840    .text:0000000000000488 .LVL73
GAS LISTING /tmp/ccSq2scT.s 			page 54


     /tmp/ccSq2scT.s:938    .text:0000000000000534 .LVL87
     /tmp/ccSq2scT.s:279    .text:0000000000000158 .LVL26
     /tmp/ccSq2scT.s:316    .text:00000000000001b4 .LVL27
     /tmp/ccSq2scT.s:365    .text:0000000000000224 .LVL31
     /tmp/ccSq2scT.s:379    .text:0000000000000238 .LVL36
     /tmp/ccSq2scT.s:388    .text:0000000000000248 .LVL37
     /tmp/ccSq2scT.s:368    .text:0000000000000228 .LVL32
     /tmp/ccSq2scT.s:374    .text:0000000000000230 .LVL34
     /tmp/ccSq2scT.s:371    .text:000000000000022c .LVL33
     /tmp/ccSq2scT.s:377    .text:0000000000000234 .LVL35
     /tmp/ccSq2scT.s:427    .text:0000000000000260 .LVL40
     /tmp/ccSq2scT.s:460    .text:00000000000002ac .LVL41
     /tmp/ccSq2scT.s:502    .text:0000000000000324 .LVL45
     /tmp/ccSq2scT.s:505    .text:0000000000000328 .LVL46
     /tmp/ccSq2scT.s:193    .text:00000000000000a0 .LVL19
     /tmp/ccSq2scT.s:212    .text:00000000000000cc .LVL20
     /tmp/ccSq2scT.s:259    .text:000000000000014c .LVL25
     /tmp/ccSq2scT.s:222    .text:00000000000000ec .LVL21
     /tmp/ccSq2scT.s:224    .text:00000000000000f0 .LVL22
     /tmp/ccSq2scT.s:226    .text:00000000000000f4 .LVL23
     /tmp/ccSq2scT.s:1404   .debug_info:0000000000000000 .Ldebug_info0
     /tmp/ccSq2scT.s:5      .text:0000000000000000 .Ltext0
     /tmp/ccSq2scT.s:1396   .text:00000000000006a0 .Letext0
     /tmp/ccSq2scT.s:401    .gcc_except_table:0000000000000000 .LLSDA51
     /tmp/ccSq2scT.s:621    .gcc_except_table:000000000000002b .LLSDA57

UNDEFINED SYMBOLS
_ZN5riscv10popSppSpieEv
_Z11thread_exitv
_Z9mem_allocm
_Znwm
_ZN9Scheduler3putEP3TCB
_ZdlPv
_Unwind_Resume
__gxx_personality_v0
_ZN9Allocator10_mem_allocEm
_Z6memcpyPKvS0_i
_ZN3TCB15context_inheritEP7Context
_Z7print_hm
_Z8mem_freePv
handle_bleya
_ZN9Scheduler13high_priorityE
_ZN9Scheduler12mid_priorityE
_ZN9Scheduler12low_priorityE
_ZN9Allocator9_mem_freeEPKv
_ZN9Scheduler3getEv
_ZN9Scheduler4peekEv
_ZN5riscv7setjumpEv
_ZN3TCB14context_switchEP7ContextS1_
_ZN5riscv8longjumpEv
_ZN6Cradle6insertEP3TCBm
