GAS LISTING /tmp/ccUTdGa0.s 			page 1


   1              		.file	"c_thread.cpp"
   2              		.option pic
   3              		.option norelax
   4              		.text
   5              	.Ltext0:
   6              		.align	2
   7              		.globl	_ZN3TCB12thread_startEv
   9              	_ZN3TCB12thread_startEv:
  10              	.LFB78:
  11              		.file 1 "src/c_thread.cpp"
   1:src/c_thread.cpp **** #include "../h/scheduler.hpp"
   2:src/c_thread.cpp **** #include "../h/riscv.hpp"
   3:src/c_thread.cpp **** #include "../h/c_console.hpp"
   4:src/c_thread.cpp **** #include "../h/c_thread.hpp"
   5:src/c_thread.cpp **** #include "../h/c_sleep.hpp"
   6:src/c_thread.cpp **** #include "../h/iostream.hpp"
   7:src/c_thread.cpp **** 
   8:src/c_thread.cpp **** int TCB::ID = 0;
   9:src/c_thread.cpp **** TCB *TCB::running = nullptr;
  10:src/c_thread.cpp **** time_t TCB::timer_counter = 0;
  11:src/c_thread.cpp **** typedef TCB *thread_t;
  12:src/c_thread.cpp **** 
  13:src/c_thread.cpp **** TCB::TCB(run_t start_routine, void *arg, void *stack, Context context) :
  14:src/c_thread.cpp ****         t_id(TCB::ID++), _run(start_routine), arg(arg),
  15:src/c_thread.cpp ****         stack(stack), parent(TCB::running),
  16:src/c_thread.cpp ****         context(context), status(RUNNABLE),
  17:src/c_thread.cpp ****         time_slice(DEFAULT_TIME_SLICE), preempted(false), joiner() {
  18:src/c_thread.cpp ****     this->joiner.init();
  19:src/c_thread.cpp ****     this->parent = TCB::running;
  20:src/c_thread.cpp **** }
  21:src/c_thread.cpp **** 
  22:src/c_thread.cpp **** TCB::TCB(TCB &parent) :
  23:src/c_thread.cpp ****         t_id(TCB::ID++), _run(parent._run), arg(parent.arg),
  24:src/c_thread.cpp ****         stack(Allocator::_mem_alloc(DEFAULT_STACK_SIZE)),
  25:src/c_thread.cpp ****         parent(&parent), context(parent.context), status(RUNNABLE), time_slice(DEFAULT_TIME_SLICE),
  26:src/c_thread.cpp ****         preempted(false), joiner() {
  27:src/c_thread.cpp ****     this->joiner.init();
  28:src/c_thread.cpp ****     Scheduler::put(this);
  29:src/c_thread.cpp **** }
  30:src/c_thread.cpp **** 
  31:src/c_thread.cpp **** int TCB::_thread_create(thread_t *handle, void(*start_routine)(void *), void *arg, char *stack) {
  32:src/c_thread.cpp ****     *handle = new TCB(start_routine, arg, stack, {(uint64) thread_start, (uint64) (&stack[DEFAULT_S
  33:src/c_thread.cpp ****     if (start_routine) Scheduler::put(*handle);
  34:src/c_thread.cpp ****     else TCB::running = *handle;
  35:src/c_thread.cpp ****     return (*handle)->t_id;
  36:src/c_thread.cpp **** 
  37:src/c_thread.cpp **** }
  38:src/c_thread.cpp **** 
  39:src/c_thread.cpp **** using namespace stm;
  40:src/c_thread.cpp **** 
  41:src/c_thread.cpp **** void TCB::_thread_dispatch() {
  42:src/c_thread.cpp ****     thread_t old = TCB::running;
  43:src/c_thread.cpp ****     if (old->is_runnable()) {
  44:src/c_thread.cpp ****         Scheduler::put(old);
  45:src/c_thread.cpp ****     }
  46:src/c_thread.cpp ****     while (Scheduler::peek()->is_finished()) {
  47:src/c_thread.cpp ****         Allocator::_mem_free(TCB::destroy_thread(Scheduler::get())->stack);
GAS LISTING /tmp/ccUTdGa0.s 			page 2


  48:src/c_thread.cpp ****     }
  49:src/c_thread.cpp ****     TCB::running = Scheduler::get();
  50:src/c_thread.cpp ****     if (riscv::setjump()) {
  51:src/c_thread.cpp ****         TCB::context_switch(&old->context, &TCB::running->context);
  52:src/c_thread.cpp ****         riscv::longjump();
  53:src/c_thread.cpp ****     }
  54:src/c_thread.cpp **** }
  55:src/c_thread.cpp **** 
  56:src/c_thread.cpp **** TCB *TCB::destroy_thread(TCB *thread) {
  57:src/c_thread.cpp ****     while (!thread->joiner.is_empty()) {
  58:src/c_thread.cpp ****         TCB *next = thread->joiner.get();
  59:src/c_thread.cpp ****         if (next->is_joined()) {
  60:src/c_thread.cpp ****             next->run();
  61:src/c_thread.cpp ****             Scheduler::put(next);
  62:src/c_thread.cpp ****         }
  63:src/c_thread.cpp ****     }
  64:src/c_thread.cpp ****     thread->joiner.destroy();
  65:src/c_thread.cpp ****     return thread;
  66:src/c_thread.cpp **** }
  67:src/c_thread.cpp **** 
  68:src/c_thread.cpp **** void TCB::_thread_exit() {
  69:src/c_thread.cpp ****     TCB::running->finish();
  70:src/c_thread.cpp ****     TCB::destroy_thread(TCB::running);
  71:src/c_thread.cpp ****     Allocator::_mem_free(TCB::running->stack);
  72:src/c_thread.cpp ****     TCB::_thread_dispatch();
  73:src/c_thread.cpp **** }
  74:src/c_thread.cpp **** 
  75:src/c_thread.cpp **** void TCB::_thread_join(thread_t handle) {
  76:src/c_thread.cpp ****     if (handle->is_finished())
  77:src/c_thread.cpp ****         return;
  78:src/c_thread.cpp ****     TCB::running->enjoin();
  79:src/c_thread.cpp ****     handle->joiner.put(TCB::running);
  80:src/c_thread.cpp ****     TCB::_thread_dispatch();
  81:src/c_thread.cpp **** }
  82:src/c_thread.cpp **** 
  83:src/c_thread.cpp **** void TCB::_thread_join_time(thread_t handle, time_t time) {
  84:src/c_thread.cpp ****     if (handle->is_finished())
  85:src/c_thread.cpp ****         return;
  86:src/c_thread.cpp ****     TCB::running->enjoin();
  87:src/c_thread.cpp ****     handle->joiner.put(TCB::running);
  88:src/c_thread.cpp ****     Cradle::insert(TCB::running, time);
  89:src/c_thread.cpp ****     TCB::_thread_dispatch();
  90:src/c_thread.cpp **** }
  91:src/c_thread.cpp **** 
  92:src/c_thread.cpp **** int TCB::_fork() {
  93:src/c_thread.cpp ****     TCB *parent = TCB::running;
  94:src/c_thread.cpp ****     TCB *child = new TCB(*parent);
  95:src/c_thread.cpp ****     int volatile parent_id = parent->t_id;
  96:src/c_thread.cpp ****     if (riscv::setjump()) {
  97:src/c_thread.cpp ****         uint64 sp = riscv::r_sp();
  98:src/c_thread.cpp ****         child->context.ra = (uint64) riscv::longjump;
  99:src/c_thread.cpp ****         child->context.sp = (uint64) child->stack + sp - (uint64) parent->stack;
 100:src/c_thread.cpp ****         memcpy(parent->stack, child->stack, DEFAULT_STACK_SIZE);
 101:src/c_thread.cpp ****         riscv::longjump();
 102:src/c_thread.cpp ****     }
 103:src/c_thread.cpp ****     if (TCB::running->t_id == parent_id) {
 104:src/c_thread.cpp ****         return child->t_id;
GAS LISTING /tmp/ccUTdGa0.s 			page 3


 105:src/c_thread.cpp ****     }
 106:src/c_thread.cpp ****     else {
 107:src/c_thread.cpp ****         return 0;
 108:src/c_thread.cpp ****     }
 109:src/c_thread.cpp **** }
 110:src/c_thread.cpp **** 
 111:src/c_thread.cpp **** int TCB::_kill(TCB *thread) {
 112:src/c_thread.cpp ****     if (!thread) return -1;
 113:src/c_thread.cpp ****     if (thread->is_finished()) return -2;
 114:src/c_thread.cpp ****     if (TCB::running != thread->parent) return -4;
 115:src/c_thread.cpp ****     thread->finish();
 116:src/c_thread.cpp ****     return 0;
 117:src/c_thread.cpp **** }
 118:src/c_thread.cpp **** 
 119:src/c_thread.cpp **** void TCB::thread_start() {
  12              		.loc 1 119 26
  13              		.cfi_startproc
  14 0000 130101FF 		addi	sp,sp,-16
  15              		.cfi_def_cfa_offset 16
  16 0004 23341100 		sd	ra,8(sp)
  17 0008 23308100 		sd	s0,0(sp)
  18              		.cfi_offset 1, -8
  19              		.cfi_offset 8, -16
  20 000c 13040101 		addi	s0,sp,16
  21              		.cfi_def_cfa 8, 0
 120:src/c_thread.cpp ****     riscv::popSppSpie();
  22              		.loc 1 120 5
  23              		.loc 1 120 22 is_stmt 0
  24 0010 97000000 		call	_ZN5riscv10popSppSpieEv@plt
  24      E7800000 
  25              	.LVL0:
 121:src/c_thread.cpp ****     TCB::running->_run(TCB::running->arg);
  26              		.loc 1 121 5 is_stmt 1
  27              		.loc 1 121 19 is_stmt 0
  28 0018 97070000 		ld	a5,.LANCHOR0
  28      83B70700 
  29 0020 03B70701 		ld	a4,16(a5)
  30              		.loc 1 121 23
  31 0024 03B58701 		ld	a0,24(a5)
  32 0028 E7000700 		jalr	a4
  33              	.LVL1:
 122:src/c_thread.cpp ****     thread_exit();
  34              		.loc 1 122 5 is_stmt 1
  35              		.loc 1 122 16 is_stmt 0
  36 002c 97000000 		call	_Z11thread_exitv@plt
  36      E7800000 
  37              	.LVL2:
 123:src/c_thread.cpp **** }...
  38              		.loc 1 123 1
  39 0034 83308100 		ld	ra,8(sp)
  40              		.cfi_restore 1
  41 0038 03340100 		ld	s0,0(sp)
  42              		.cfi_restore 8
  43              		.cfi_def_cfa 2, 16
  44 003c 13010101 		addi	sp,sp,16
  45              		.cfi_def_cfa_offset 0
  46 0040 67800000 		jr	ra
GAS LISTING /tmp/ccUTdGa0.s 			page 4


  47              		.cfi_endproc
  48              	.LFE78:
  50              		.align	2
  51              		.globl	_ZN3TCB5_killEPS_
  53              	_ZN3TCB5_killEPS_:
  54              	.LFB77:
 111:src/c_thread.cpp **** int TCB::_kill(TCB *thread) {
  55              		.loc 1 111 29 is_stmt 1
  56              		.cfi_startproc
  57              	.LVL3:
  58 0044 130101FF 		addi	sp,sp,-16
  59              		.cfi_def_cfa_offset 16
  60 0048 23348100 		sd	s0,8(sp)
  61              		.cfi_offset 8, -8
  62 004c 13040101 		addi	s0,sp,16
  63              		.cfi_def_cfa 8, 0
 112:src/c_thread.cpp ****     if (!thread) return -1;
  64              		.loc 1 112 5
  65 0050 630C0502 		beqz	a0,.L5
 113:src/c_thread.cpp ****     if (thread->is_finished()) return -2;
  66              		.loc 1 113 5
  67              	.LVL4:
  68              	.LBB31:
  69              	.LBB32:
  70              		.file 2 "src/../h/c_thread.hpp"
   1:src/../h/c_thread.hpp **** #ifndef PROJECT_BASE_C_THREAD_HPP
   2:src/../h/c_thread.hpp **** #define PROJECT_BASE_C_THREAD_HPP
   3:src/../h/c_thread.hpp **** 
   4:src/../h/c_thread.hpp **** #include "syscall_c.hpp"
   5:src/../h/c_thread.hpp **** #include "../lib/hw.h"
   6:src/../h/c_thread.hpp **** #include "circular_buffer.hpp"
   7:src/../h/c_thread.hpp **** 
   8:src/../h/c_thread.hpp **** using run_t = void (*)(void *);
   9:src/../h/c_thread.hpp **** 
  10:src/../h/c_thread.hpp **** struct Context {
  11:src/../h/c_thread.hpp ****     uint64 ra;
  12:src/../h/c_thread.hpp ****     uint64 sp;
  13:src/../h/c_thread.hpp ****     uint64 sstatus;
  14:src/../h/c_thread.hpp ****     uint64 sepc;
  15:src/../h/c_thread.hpp **** };
  16:src/../h/c_thread.hpp **** 
  17:src/../h/c_thread.hpp **** enum Status {
  18:src/../h/c_thread.hpp ****     RUNNABLE, BLOCKED, SLEEPING, JOINED, FINISHED
  19:src/../h/c_thread.hpp **** };
  20:src/../h/c_thread.hpp **** 
  21:src/../h/c_thread.hpp **** class TCB final {
  22:src/../h/c_thread.hpp **** public:
  23:src/../h/c_thread.hpp ****     static int _thread_create(thread_t *, void(*)(void *), void *, char *);
  24:src/../h/c_thread.hpp **** 
  25:src/../h/c_thread.hpp ****     static void _thread_exit();
  26:src/../h/c_thread.hpp **** 
  27:src/../h/c_thread.hpp ****     static void _thread_dispatch();
  28:src/../h/c_thread.hpp **** 
  29:src/../h/c_thread.hpp ****     static void _thread_join(thread_t);
  30:src/../h/c_thread.hpp **** 
  31:src/../h/c_thread.hpp ****     static void _thread_join_time(thread_t, time_t);
  32:src/../h/c_thread.hpp **** 
GAS LISTING /tmp/ccUTdGa0.s 			page 5


  33:src/../h/c_thread.hpp ****     static int _fork();
  34:src/../h/c_thread.hpp **** 
  35:src/../h/c_thread.hpp ****     static int _kill(TCB *);
  36:src/../h/c_thread.hpp **** 
  37:src/../h/c_thread.hpp ****     static void thread_start();
  38:src/../h/c_thread.hpp **** 
  39:src/../h/c_thread.hpp ****     static void fork_wrapper();
  40:src/../h/c_thread.hpp **** 
  41:src/../h/c_thread.hpp ****     static void context_switch(Context *, Context *);
  42:src/../h/c_thread.hpp **** 
  43:src/../h/c_thread.hpp ****     static void context_inherit(Context *);
  44:src/../h/c_thread.hpp **** 
  45:src/../h/c_thread.hpp ****     static TCB *destroy_thread(TCB *);
  46:src/../h/c_thread.hpp **** 
  47:src/../h/c_thread.hpp ****     static void duplicate(TCB *, TCB *);
  48:src/../h/c_thread.hpp **** 
  49:src/../h/c_thread.hpp ****     TCB(run_t, void *, void *, Context);
  50:src/../h/c_thread.hpp **** 
  51:src/../h/c_thread.hpp ****     TCB(TCB &);
  52:src/../h/c_thread.hpp **** 
  53:src/../h/c_thread.hpp ****     bool is_runnable() const { return this->status == RUNNABLE; }
  54:src/../h/c_thread.hpp **** 
  55:src/../h/c_thread.hpp ****     bool is_blocked() const { return this->status == BLOCKED; }
  56:src/../h/c_thread.hpp **** 
  57:src/../h/c_thread.hpp ****     bool is_sleeping() const { return this->status == SLEEPING; }
  58:src/../h/c_thread.hpp **** 
  59:src/../h/c_thread.hpp ****     bool is_joined() const { return this->status == JOINED; }
  60:src/../h/c_thread.hpp **** 
  61:src/../h/c_thread.hpp ****     bool is_finished() const { return this->status == FINISHED; }
  71              		.loc 2 61 32
  72              		.loc 2 61 45 is_stmt 0
  73 0054 03270505 		lw	a4,80(a0)
  74              	.LVL5:
  75              	.LBE32:
  76              	.LBE31:
 113:src/c_thread.cpp ****     if (thread->is_finished()) return -2;
  77              		.loc 1 113 5
  78 0058 93074000 		li	a5,4
  79 005c 630AF702 		beq	a4,a5,.L6
 114:src/c_thread.cpp ****     if (TCB::running != thread->parent) return -4;
  80              		.loc 1 114 5 is_stmt 1
 114:src/c_thread.cpp ****     if (TCB::running != thread->parent) return -4;
  81              		.loc 1 114 33 is_stmt 0
  82 0060 03378502 		ld	a4,40(a0)
 114:src/c_thread.cpp ****     if (TCB::running != thread->parent) return -4;
  83              		.loc 1 114 14
  84 0064 97070000 		ld	a5,.LANCHOR0
  84      83B70700 
 114:src/c_thread.cpp ****     if (TCB::running != thread->parent) return -4;
  85              		.loc 1 114 5
  86 006c 6316F702 		bne	a4,a5,.L7
 115:src/c_thread.cpp ****     thread->finish();
  87              		.loc 1 115 5 is_stmt 1
  88              	.LVL6:
  89              	.LBB33:
  90              	.LBB34:
  62:src/../h/c_thread.hpp **** 
GAS LISTING /tmp/ccUTdGa0.s 			page 6


  63:src/../h/c_thread.hpp ****     void run() { this->status = RUNNABLE; }
  64:src/../h/c_thread.hpp **** 
  65:src/../h/c_thread.hpp ****     void block() { this->status = BLOCKED; }
  66:src/../h/c_thread.hpp **** 
  67:src/../h/c_thread.hpp ****     void sleep() { this->status = SLEEPING; }
  68:src/../h/c_thread.hpp **** 
  69:src/../h/c_thread.hpp ****     void enjoin() { this->status = JOINED; }
  70:src/../h/c_thread.hpp **** 
  71:src/../h/c_thread.hpp ****     void finish() { this->status = FINISHED; }
  91              		.loc 2 71 21
  92              		.loc 2 71 34 is_stmt 0
  93 0070 93074000 		li	a5,4
  94 0074 2328F504 		sw	a5,80(a0)
  95              	.LVL7:
  96              	.LBE34:
  97              	.LBE33:
 116:src/c_thread.cpp ****     return 0;
  98              		.loc 1 116 5 is_stmt 1
 116:src/c_thread.cpp ****     return 0;
  99              		.loc 1 116 12 is_stmt 0
 100 0078 13050000 		li	a0,0
 101              	.LVL8:
 102              	.L4:
 117:src/c_thread.cpp **** }
 103              		.loc 1 117 1
 104 007c 03348100 		ld	s0,8(sp)
 105              		.cfi_remember_state
 106              		.cfi_restore 8
 107              		.cfi_def_cfa 2, 16
 108 0080 13010101 		addi	sp,sp,16
 109              		.cfi_def_cfa_offset 0
 110 0084 67800000 		jr	ra
 111              	.LVL9:
 112              	.L5:
 113              		.cfi_restore_state
 112:src/c_thread.cpp ****     if (!thread) return -1;
 114              		.loc 1 112 26
 115 0088 1305F0FF 		li	a0,-1
 116              	.LVL10:
 117 008c 6FF01FFF 		j	.L4
 118              	.LVL11:
 119              	.L6:
 113:src/c_thread.cpp ****     if (thread->is_finished()) return -2;
 120              		.loc 1 113 40
 121 0090 1305E0FF 		li	a0,-2
 122              	.LVL12:
 123 0094 6FF09FFE 		j	.L4
 124              	.LVL13:
 125              	.L7:
 114:src/c_thread.cpp ****     if (TCB::running != thread->parent) return -4;
 126              		.loc 1 114 49
 127 0098 1305C0FF 		li	a0,-4
 128              	.LVL14:
 129 009c 6FF01FFE 		j	.L4
 130              		.cfi_endproc
 131              	.LFE77:
 133              		.section	.text._ZN3stm14CircularBufferIP3TCBE4initEv,"axG",@progbits,_ZN3stm14CircularBufferIP3TCB
GAS LISTING /tmp/ccUTdGa0.s 			page 7


 134              		.align	2
 135              		.weak	_ZN3stm14CircularBufferIP3TCBE4initEv
 137              	_ZN3stm14CircularBufferIP3TCBE4initEv:
 138              	.LFB79:
 139              		.file 3 "src/../h/circular_buffer.hpp"
   1:src/../h/circular_buffer.hpp **** #ifndef PROJECT_BASE_CIRCULAR_BUFFER_HPP
   2:src/../h/circular_buffer.hpp **** #define PROJECT_BASE_CIRCULAR_BUFFER_HPP
   3:src/../h/circular_buffer.hpp **** 
   4:src/../h/circular_buffer.hpp **** #include "syscall_c.hpp"
   5:src/../h/circular_buffer.hpp **** #include "c_memory.hpp"
   6:src/../h/circular_buffer.hpp **** 
   7:src/../h/circular_buffer.hpp **** namespace stm {
   8:src/../h/circular_buffer.hpp ****     template<typename T>
   9:src/../h/circular_buffer.hpp ****     class CircularBuffer {
  10:src/../h/circular_buffer.hpp ****     public:
  11:src/../h/circular_buffer.hpp **** 
  12:src/../h/circular_buffer.hpp ****         void init();
  13:src/../h/circular_buffer.hpp **** 
  14:src/../h/circular_buffer.hpp ****         void put(T);
  15:src/../h/circular_buffer.hpp **** 
  16:src/../h/circular_buffer.hpp ****         T get();
  17:src/../h/circular_buffer.hpp **** 
  18:src/../h/circular_buffer.hpp ****         T &peek();
  19:src/../h/circular_buffer.hpp **** 
  20:src/../h/circular_buffer.hpp ****         inline bool is_empty() const { return this->size == 0; }
  21:src/../h/circular_buffer.hpp **** 
  22:src/../h/circular_buffer.hpp ****         void destroy();
  23:src/../h/circular_buffer.hpp **** 
  24:src/../h/circular_buffer.hpp ****     private:
  25:src/../h/circular_buffer.hpp **** 
  26:src/../h/circular_buffer.hpp ****         void extend();
  27:src/../h/circular_buffer.hpp **** 
  28:src/../h/circular_buffer.hpp ****         static int constexpr CAPACITY = 16;
  29:src/../h/circular_buffer.hpp ****         T *queue;
  30:src/../h/circular_buffer.hpp ****         int head;
  31:src/../h/circular_buffer.hpp ****         int tail;
  32:src/../h/circular_buffer.hpp ****         int size;
  33:src/../h/circular_buffer.hpp ****         int capacity;
  34:src/../h/circular_buffer.hpp ****     };
  35:src/../h/circular_buffer.hpp **** }
  36:src/../h/circular_buffer.hpp **** 
  37:src/../h/circular_buffer.hpp **** template<typename T>
  38:src/../h/circular_buffer.hpp **** void stm::CircularBuffer<T>::init() {
 140              		.loc 3 38 6 is_stmt 1
 141              		.cfi_startproc
 142              	.LVL15:
 143 0000 130101FE 		addi	sp,sp,-32
 144              		.cfi_def_cfa_offset 32
 145 0004 233C1100 		sd	ra,24(sp)
 146 0008 23388100 		sd	s0,16(sp)
 147 000c 23349100 		sd	s1,8(sp)
 148              		.cfi_offset 1, -8
 149              		.cfi_offset 8, -16
 150              		.cfi_offset 9, -24
 151 0010 13040102 		addi	s0,sp,32
 152              		.cfi_def_cfa 8, 0
 153 0014 93040500 		mv	s1,a0
GAS LISTING /tmp/ccUTdGa0.s 			page 8


  39:src/../h/circular_buffer.hpp ****     this->head = 0;
 154              		.loc 3 39 5 is_stmt 0
 155 0018 23240500 		sw	zero,8(a0)
  40:src/../h/circular_buffer.hpp ****     this->tail = 0;
 156              		.loc 3 40 5
 157 001c 23260500 		sw	zero,12(a0)
  41:src/../h/circular_buffer.hpp ****     this->size = 0;
 158              		.loc 3 41 5
 159 0020 23280500 		sw	zero,16(a0)
  42:src/../h/circular_buffer.hpp ****     this->capacity = CAPACITY;
 160              		.loc 3 42 5
 161 0024 93070001 		li	a5,16
 162 0028 232AF500 		sw	a5,20(a0)
  43:src/../h/circular_buffer.hpp ****     this->queue = (T *) mem_alloc(sizeof(T) * CAPACITY);
 163              		.loc 3 43 34
 164 002c 13050008 		li	a0,128
 165              	.LVL16:
 166 0030 97000000 		call	_Z9mem_allocm@plt
 166      E7800000 
 167              	.LVL17:
 168              		.loc 3 43 5
 169 0038 23B0A400 		sd	a0,0(s1)
  44:src/../h/circular_buffer.hpp **** }
 170              		.loc 3 44 1
 171 003c 83308101 		ld	ra,24(sp)
 172              		.cfi_restore 1
 173 0040 03340101 		ld	s0,16(sp)
 174              		.cfi_restore 8
 175              		.cfi_def_cfa 2, 32
 176 0044 83348100 		ld	s1,8(sp)
 177              		.cfi_restore 9
 178              	.LVL18:
 179 0048 13010102 		addi	sp,sp,32
 180              		.cfi_def_cfa_offset 0
 181 004c 67800000 		jr	ra
 182              		.cfi_endproc
 183              	.LFE79:
 185              		.text
 186              		.align	2
 187              		.globl	_ZN3TCBC2EPFvPvES0_S0_7Context
 189              	_ZN3TCBC2EPFvPvES0_S0_7Context:
 190              	.LFB65:
  13:src/c_thread.cpp **** TCB::TCB(run_t start_routine, void *arg, void *stack, Context context) :
 191              		.loc 1 13 1 is_stmt 1
 192              		.cfi_startproc
 193              	.LVL19:
 194 00a0 130101FE 		addi	sp,sp,-32
 195              		.cfi_def_cfa_offset 32
 196 00a4 233C1100 		sd	ra,24(sp)
 197 00a8 23388100 		sd	s0,16(sp)
 198 00ac 23349100 		sd	s1,8(sp)
 199 00b0 23302101 		sd	s2,0(sp)
 200              		.cfi_offset 1, -8
 201              		.cfi_offset 8, -16
 202              		.cfi_offset 9, -24
 203              		.cfi_offset 18, -32
 204 00b4 13040102 		addi	s0,sp,32
GAS LISTING /tmp/ccUTdGa0.s 			page 9


 205              		.cfi_def_cfa 8, 0
 206 00b8 93040500 		mv	s1,a0
 207              	.LBB35:
  14:src/c_thread.cpp ****         t_id(TCB::ID++), _run(start_routine), arg(arg),
 208              		.loc 1 14 21 is_stmt 0
 209 00bc 17090000 		lla	s2,.LANCHOR0
 209      13090900 
 210 00c4 83278900 		lw	a5,8(s2)
 211 00c8 1B851700 		addiw	a0,a5,1
 212              	.LVL20:
 213 00cc 2324A900 		sw	a0,8(s2)
  17:src/c_thread.cpp ****         time_slice(DEFAULT_TIME_SLICE), preempted(false), joiner() {
 214              		.loc 1 17 66
 215 00d0 23A4F400 		sw	a5,8(s1)
 216 00d4 23B8B400 		sd	a1,16(s1)
 217 00d8 23BCC400 		sd	a2,24(s1)
 218 00dc 23B0D402 		sd	a3,32(s1)
 219 00e0 83370900 		ld	a5,0(s2)
 220 00e4 23B4F402 		sd	a5,40(s1)
 221 00e8 83350700 		ld	a1,0(a4)
 222              	.LVL21:
 223 00ec 03368700 		ld	a2,8(a4)
 224              	.LVL22:
 225 00f0 83360701 		ld	a3,16(a4)
 226              	.LVL23:
 227 00f4 83378701 		ld	a5,24(a4)
 228 00f8 23B8B402 		sd	a1,48(s1)
 229 00fc 23BCC402 		sd	a2,56(s1)
 230 0100 23B0D404 		sd	a3,64(s1)
 231 0104 23B4F404 		sd	a5,72(s1)
 232 0108 23A80404 		sw	zero,80(s1)
 233 010c 93071000 		li	a5,1
 234 0110 23BCF404 		sd	a5,88(s1)
 235 0114 23800406 		sb	zero,96(s1)
 236 0118 23B40406 		sd	zero,104(s1)
 237 011c 23A80406 		sw	zero,112(s1)
 238 0120 23AA0406 		sw	zero,116(s1)
 239 0124 23AC0406 		sw	zero,120(s1)
 240 0128 23AE0406 		sw	zero,124(s1)
  18:src/c_thread.cpp ****     this->joiner.init();
 241              		.loc 1 18 5 is_stmt 1
  18:src/c_thread.cpp ****     this->joiner.init();
 242              		.loc 1 18 22 is_stmt 0
 243 012c 13858406 		addi	a0,s1,104
 244 0130 97000000 		call	_ZN3stm14CircularBufferIP3TCBE4initEv
 244      E7800000 
 245              	.LVL24:
  19:src/c_thread.cpp ****     this->parent = TCB::running;
 246              		.loc 1 19 5 is_stmt 1
  19:src/c_thread.cpp ****     this->parent = TCB::running;
 247              		.loc 1 19 18 is_stmt 0
 248 0138 83370900 		ld	a5,0(s2)
 249 013c 23B4F402 		sd	a5,40(s1)
 250              	.LBE35:
  20:src/c_thread.cpp **** }
 251              		.loc 1 20 1
 252 0140 83308101 		ld	ra,24(sp)
GAS LISTING /tmp/ccUTdGa0.s 			page 10


 253              		.cfi_restore 1
 254 0144 03340101 		ld	s0,16(sp)
 255              		.cfi_restore 8
 256              		.cfi_def_cfa 2, 32
 257 0148 83348100 		ld	s1,8(sp)
 258              		.cfi_restore 9
 259              	.LVL25:
 260 014c 03390100 		ld	s2,0(sp)
 261              		.cfi_restore 18
 262 0150 13010102 		addi	sp,sp,32
 263              		.cfi_def_cfa_offset 0
 264 0154 67800000 		jr	ra
 265              		.cfi_endproc
 266              	.LFE65:
 268              		.globl	_ZN3TCBC1EPFvPvES0_S0_7Context
 269              		.set	_ZN3TCBC1EPFvPvES0_S0_7Context,_ZN3TCBC2EPFvPvES0_S0_7Context
 270              		.align	2
 271              		.globl	_ZN3TCB14_thread_createEPPS_PFvPvES2_Pc
 273              	_ZN3TCB14_thread_createEPPS_PFvPvES2_Pc:
 274              	.LFB70:
  31:src/c_thread.cpp **** int TCB::_thread_create(thread_t *handle, void(*start_routine)(void *), void *arg, char *stack) {
 275              		.loc 1 31 97 is_stmt 1
 276              		.cfi_startproc
 277              		.cfi_personality 0x9b,DW.ref.__gxx_personality_v0
 278              		.cfi_lsda 0x1b,.LLSDA70
 279              	.LVL26:
 280 0158 130101F8 		addi	sp,sp,-128
 281              		.cfi_def_cfa_offset 128
 282 015c 233C1106 		sd	ra,120(sp)
 283 0160 23388106 		sd	s0,112(sp)
 284 0164 23349106 		sd	s1,104(sp)
 285 0168 23302107 		sd	s2,96(sp)
 286 016c 233C3105 		sd	s3,88(sp)
 287 0170 23384105 		sd	s4,80(sp)
 288 0174 23345105 		sd	s5,72(sp)
 289              		.cfi_offset 1, -8
 290              		.cfi_offset 8, -16
 291              		.cfi_offset 9, -24
 292              		.cfi_offset 18, -32
 293              		.cfi_offset 19, -40
 294              		.cfi_offset 20, -48
 295              		.cfi_offset 21, -56
 296 0178 13040108 		addi	s0,sp,128
 297              		.cfi_def_cfa 8, 0
 298 017c 13090500 		mv	s2,a0
 299 0180 93890500 		mv	s3,a1
 300 0184 930A0600 		mv	s5,a2
 301 0188 138A0600 		mv	s4,a3
  32:src/c_thread.cpp ****     *handle = new TCB(start_routine, arg, stack, {(uint64) thread_start, (uint64) (&stack[DEFAULT_S
 302              		.loc 1 32 5
  32:src/c_thread.cpp ****     *handle = new TCB(start_routine, arg, stack, {(uint64) thread_start, (uint64) (&stack[DEFAULT_S
 303              		.loc 1 32 13 is_stmt 0
 304 018c 233804FA 		sd	zero,-80(s0)
 305 0190 233C04FA 		sd	zero,-72(s0)
 306 0194 97070000 		lla	a5,_ZN3TCB12thread_startEv
 306      93870700 
 307 019c 2330F4FA 		sd	a5,-96(s0)
GAS LISTING /tmp/ccUTdGa0.s 			page 11


  32:src/c_thread.cpp ****     *handle = new TCB(start_routine, arg, stack, {(uint64) thread_start, (uint64) (&stack[DEFAULT_S
 308              		.loc 1 32 84
 309 01a0 B7470000 		li	a5,16384
 310 01a4 B387F600 		add	a5,a3,a5
  32:src/c_thread.cpp ****     *handle = new TCB(start_routine, arg, stack, {(uint64) thread_start, (uint64) (&stack[DEFAULT_S
 311              		.loc 1 32 112
 312 01a8 93F707FF 		andi	a5,a5,-16
  32:src/c_thread.cpp ****     *handle = new TCB(start_routine, arg, stack, {(uint64) thread_start, (uint64) (&stack[DEFAULT_S
 313              		.loc 1 32 13
 314 01ac 2334F4FA 		sd	a5,-88(s0)
  32:src/c_thread.cpp ****     *handle = new TCB(start_routine, arg, stack, {(uint64) thread_start, (uint64) (&stack[DEFAULT_S
 315              		.loc 1 32 122
 316 01b0 13050008 		li	a0,128
 317              	.LVL27:
 318              	.LEHB0:
 319 01b4 97000000 		call	_Znwm@plt
 319      E7800000 
 320              	.LVL28:
 321              	.LEHE0:
 322 01bc 93040500 		mv	s1,a0
 323 01c0 833704FA 		ld	a5,-96(s0)
 324 01c4 2330F4F8 		sd	a5,-128(s0)
 325 01c8 833784FA 		ld	a5,-88(s0)
 326 01cc 2334F4F8 		sd	a5,-120(s0)
 327 01d0 833704FB 		ld	a5,-80(s0)
 328 01d4 2338F4F8 		sd	a5,-112(s0)
 329 01d8 833784FB 		ld	a5,-72(s0)
 330 01dc 233CF4F8 		sd	a5,-104(s0)
 331 01e0 130704F8 		addi	a4,s0,-128
 332 01e4 93060A00 		mv	a3,s4
 333 01e8 13860A00 		mv	a2,s5
 334 01ec 93850900 		mv	a1,s3
 335              	.LEHB1:
 336 01f0 97000000 		call	_ZN3TCBC1EPFvPvES0_S0_7Context
 336      E7800000 
 337              	.LVL29:
 338              	.LEHE1:
  32:src/c_thread.cpp ****     *handle = new TCB(start_routine, arg, stack, {(uint64) thread_start, (uint64) (&stack[DEFAULT_S
 339              		.loc 1 32 13 discriminator 4
 340 01f8 23309900 		sd	s1,0(s2)
  33:src/c_thread.cpp ****     if (start_routine) Scheduler::put(*handle);
 341              		.loc 1 33 5 is_stmt 1 discriminator 4
 342 01fc 638E0902 		beqz	s3,.L14
  33:src/c_thread.cpp ****     if (start_routine) Scheduler::put(*handle);
 343              		.loc 1 33 24 discriminator 1
  33:src/c_thread.cpp ****     if (start_routine) Scheduler::put(*handle);
 344              		.loc 1 33 38 is_stmt 0 discriminator 1
 345 0200 13850400 		mv	a0,s1
 346              	.LEHB2:
 347 0204 97000000 		call	_ZN9Scheduler3putEP3TCB@plt
 347      E7800000 
 348              	.LVL30:
 349              	.L15:
  35:src/c_thread.cpp ****     return (*handle)->t_id;
 350              		.loc 1 35 5 is_stmt 1
  35:src/c_thread.cpp ****     return (*handle)->t_id;
 351              		.loc 1 35 13 is_stmt 0
GAS LISTING /tmp/ccUTdGa0.s 			page 12


 352 020c 83370900 		ld	a5,0(s2)
  35:src/c_thread.cpp ****     return (*handle)->t_id;
 353              		.loc 1 35 23
 354 0210 03A58700 		lw	a0,8(a5)
  37:src/c_thread.cpp **** }
 355              		.loc 1 37 1
 356 0214 83308107 		ld	ra,120(sp)
 357              		.cfi_remember_state
 358              		.cfi_restore 1
 359 0218 03340107 		ld	s0,112(sp)
 360              		.cfi_restore 8
 361              		.cfi_def_cfa 2, 128
 362 021c 83348106 		ld	s1,104(sp)
 363              		.cfi_restore 9
 364 0220 03390106 		ld	s2,96(sp)
 365              		.cfi_restore 18
 366              	.LVL31:
 367 0224 83398105 		ld	s3,88(sp)
 368              		.cfi_restore 19
 369              	.LVL32:
 370 0228 033A0105 		ld	s4,80(sp)
 371              		.cfi_restore 20
 372              	.LVL33:
 373 022c 833A8104 		ld	s5,72(sp)
 374              		.cfi_restore 21
 375              	.LVL34:
 376 0230 13010108 		addi	sp,sp,128
 377              		.cfi_def_cfa_offset 0
 378 0234 67800000 		jr	ra
 379              	.LVL35:
 380              	.L14:
 381              		.cfi_restore_state
  34:src/c_thread.cpp ****     else TCB::running = *handle;
 382              		.loc 1 34 10 is_stmt 1
  34:src/c_thread.cpp ****     else TCB::running = *handle;
 383              		.loc 1 34 23 is_stmt 0
 384 0238 97070000 		sd	s1,.LANCHOR0,a5
 384      23B09700 
 385 0240 6FF0DFFC 		j	.L15
 386              	.L17:
 387 0244 13090500 		mv	s2,a0
 388              	.LVL36:
  32:src/c_thread.cpp ****     *handle = new TCB(start_routine, arg, stack, {(uint64) thread_start, (uint64) (&stack[DEFAULT_S
 389              		.loc 1 32 122
 390 0248 13850400 		mv	a0,s1
 391 024c 97000000 		call	_ZdlPv@plt
 391      E7800000 
 392              	.LVL37:
 393 0254 13050900 		mv	a0,s2
 394 0258 97000000 		call	_Unwind_Resume@plt
 394      E7800000 
 395              	.LVL38:
 396              	.LEHE2:
 397              		.cfi_endproc
 398              	.LFE70:
 399              		.globl	__gxx_personality_v0
 400              		.section	.gcc_except_table,"a",@progbits
GAS LISTING /tmp/ccUTdGa0.s 			page 13


 401              	.LLSDA70:
 402 0000 FF       		.byte	0xff
 403 0001 FF       		.byte	0xff
 404 0002 03       		.byte	0x3
 405 0003 27       		.byte	0x27
 406 0004 00000000 		.4byte	.LEHB0-.LFB70
 407 0008 00000000 		.4byte	.LEHE0-.LEHB0
 408 000c 00000000 		.4byte	0
 409 0010 00       		.byte	0
 410 0011 00000000 		.4byte	.LEHB1-.LFB70
 411 0015 00000000 		.4byte	.LEHE1-.LEHB1
 412 0019 00000000 		.4byte	.L17-.LFB70
 413 001d 00       		.byte	0
 414 001e 00000000 		.4byte	.LEHB2-.LFB70
 415 0022 00000000 		.4byte	.LEHE2-.LEHB2
 416 0026 00000000 		.4byte	0
 417 002a 00       		.byte	0
 418              		.text
 420              		.align	2
 421              		.globl	_ZN3TCBC2ERS_
 423              	_ZN3TCBC2ERS_:
 424              	.LFB68:
  22:src/c_thread.cpp **** TCB::TCB(TCB &parent) :
 425              		.loc 1 22 1 is_stmt 1
 426              		.cfi_startproc
 427              	.LVL39:
 428 0260 130101FE 		addi	sp,sp,-32
 429              		.cfi_def_cfa_offset 32
 430 0264 233C1100 		sd	ra,24(sp)
 431 0268 23388100 		sd	s0,16(sp)
 432 026c 23349100 		sd	s1,8(sp)
 433 0270 23302101 		sd	s2,0(sp)
 434              		.cfi_offset 1, -8
 435              		.cfi_offset 8, -16
 436              		.cfi_offset 9, -24
 437              		.cfi_offset 18, -32
 438 0274 13040102 		addi	s0,sp,32
 439              		.cfi_def_cfa 8, 0
 440 0278 93040500 		mv	s1,a0
 441 027c 13890500 		mv	s2,a1
 442              	.LBB36:
  23:src/c_thread.cpp ****         t_id(TCB::ID++), _run(parent._run), arg(parent.arg),
 443              		.loc 1 23 21 is_stmt 0
 444 0280 17070000 		lla	a4,.LANCHOR0
 444      13070700 
 445 0288 83278700 		lw	a5,8(a4)
 446 028c 9B861700 		addiw	a3,a5,1
 447 0290 2324D700 		sw	a3,8(a4)
  26:src/c_thread.cpp ****         preempted(false), joiner() {
 448              		.loc 1 26 34
 449 0294 2324F500 		sw	a5,8(a0)
  23:src/c_thread.cpp ****         t_id(TCB::ID++), _run(parent._run), arg(parent.arg),
 450              		.loc 1 23 38
 451 0298 83B70501 		ld	a5,16(a1)
  26:src/c_thread.cpp ****         preempted(false), joiner() {
 452              		.loc 1 26 34
 453 029c 2338F500 		sd	a5,16(a0)
GAS LISTING /tmp/ccUTdGa0.s 			page 14


  23:src/c_thread.cpp ****         t_id(TCB::ID++), _run(parent._run), arg(parent.arg),
 454              		.loc 1 23 56
 455 02a0 83B78501 		ld	a5,24(a1)
  26:src/c_thread.cpp ****         preempted(false), joiner() {
 456              		.loc 1 26 34
 457 02a4 233CF500 		sd	a5,24(a0)
  24:src/c_thread.cpp ****         stack(Allocator::_mem_alloc(DEFAULT_STACK_SIZE)),
 458              		.loc 1 24 36
 459 02a8 37450000 		li	a0,16384
 460              	.LVL40:
 461 02ac 97000000 		call	_ZN9Allocator10_mem_allocEm@plt
 461      E7800000 
 462              	.LVL41:
  26:src/c_thread.cpp ****         preempted(false), joiner() {
 463              		.loc 1 26 34
 464 02b4 23B0A402 		sd	a0,32(s1)
 465 02b8 23B42403 		sd	s2,40(s1)
 466 02bc 03360903 		ld	a2,48(s2)
 467 02c0 83368903 		ld	a3,56(s2)
 468 02c4 03370904 		ld	a4,64(s2)
 469 02c8 83378904 		ld	a5,72(s2)
 470 02cc 23B8C402 		sd	a2,48(s1)
 471 02d0 23BCD402 		sd	a3,56(s1)
 472 02d4 23B0E404 		sd	a4,64(s1)
 473 02d8 23B4F404 		sd	a5,72(s1)
 474 02dc 23A80404 		sw	zero,80(s1)
 475 02e0 93071000 		li	a5,1
 476 02e4 23BCF404 		sd	a5,88(s1)
 477 02e8 23800406 		sb	zero,96(s1)
 478 02ec 23B40406 		sd	zero,104(s1)
 479 02f0 23A80406 		sw	zero,112(s1)
 480 02f4 23AA0406 		sw	zero,116(s1)
 481 02f8 23AC0406 		sw	zero,120(s1)
 482 02fc 23AE0406 		sw	zero,124(s1)
  27:src/c_thread.cpp ****     this->joiner.init();
 483              		.loc 1 27 5 is_stmt 1
  27:src/c_thread.cpp ****     this->joiner.init();
 484              		.loc 1 27 22 is_stmt 0
 485 0300 13858406 		addi	a0,s1,104
 486 0304 97000000 		call	_ZN3stm14CircularBufferIP3TCBE4initEv
 486      E7800000 
 487              	.LVL42:
  28:src/c_thread.cpp ****     Scheduler::put(this);
 488              		.loc 1 28 5 is_stmt 1
  28:src/c_thread.cpp ****     Scheduler::put(this);
 489              		.loc 1 28 19 is_stmt 0
 490 030c 13850400 		mv	a0,s1
 491 0310 97000000 		call	_ZN9Scheduler3putEP3TCB@plt
 491      E7800000 
 492              	.LVL43:
 493              	.LBE36:
  29:src/c_thread.cpp **** }
 494              		.loc 1 29 1
 495 0318 83308101 		ld	ra,24(sp)
 496              		.cfi_restore 1
 497 031c 03340101 		ld	s0,16(sp)
 498              		.cfi_restore 8
GAS LISTING /tmp/ccUTdGa0.s 			page 15


 499              		.cfi_def_cfa 2, 32
 500 0320 83348100 		ld	s1,8(sp)
 501              		.cfi_restore 9
 502              	.LVL44:
 503 0324 03390100 		ld	s2,0(sp)
 504              		.cfi_restore 18
 505              	.LVL45:
 506 0328 13010102 		addi	sp,sp,32
 507              		.cfi_def_cfa_offset 0
 508 032c 67800000 		jr	ra
 509              		.cfi_endproc
 510              	.LFE68:
 512              		.globl	_ZN3TCBC1ERS_
 513              		.set	_ZN3TCBC1ERS_,_ZN3TCBC2ERS_
 514              		.align	2
 515              		.globl	_ZN3TCB5_forkEv
 517              	_ZN3TCB5_forkEv:
 518              	.LFB76:
  92:src/c_thread.cpp **** int TCB::_fork() {
 519              		.loc 1 92 18 is_stmt 1
 520              		.cfi_startproc
 521              		.cfi_personality 0x9b,DW.ref.__gxx_personality_v0
 522              		.cfi_lsda 0x1b,.LLSDA76
 523 0330 130101FD 		addi	sp,sp,-48
 524              		.cfi_def_cfa_offset 48
 525 0334 23341102 		sd	ra,40(sp)
 526 0338 23308102 		sd	s0,32(sp)
 527 033c 233C9100 		sd	s1,24(sp)
 528 0340 23382101 		sd	s2,16(sp)
 529              		.cfi_offset 1, -8
 530              		.cfi_offset 8, -16
 531              		.cfi_offset 9, -24
 532              		.cfi_offset 18, -32
 533 0344 13040103 		addi	s0,sp,48
 534              		.cfi_def_cfa 8, 0
  93:src/c_thread.cpp ****     TCB *parent = TCB::running;
 535              		.loc 1 93 5
  93:src/c_thread.cpp ****     TCB *parent = TCB::running;
 536              		.loc 1 93 10 is_stmt 0
 537 0348 17090000 		ld	s2,.LANCHOR0
 537      03390900 
 538              	.LVL46:
  94:src/c_thread.cpp ****     TCB *child = new TCB(*parent);
 539              		.loc 1 94 5 is_stmt 1
  94:src/c_thread.cpp ****     TCB *child = new TCB(*parent);
 540              		.loc 1 94 33 is_stmt 0
 541 0350 13050008 		li	a0,128
 542              	.LEHB3:
 543 0354 97000000 		call	_Znwm@plt
 543      E7800000 
 544              	.LVL47:
 545              	.LEHE3:
 546 035c 93040500 		mv	s1,a0
 547 0360 93050900 		mv	a1,s2
 548              	.LEHB4:
 549 0364 97000000 		call	_ZN3TCBC1ERS_
 549      E7800000 
GAS LISTING /tmp/ccUTdGa0.s 			page 16


 550              	.LVL48:
 551              	.LEHE4:
  95:src/c_thread.cpp ****     int volatile parent_id = parent->t_id;
 552              		.loc 1 95 5 is_stmt 1 discriminator 2
  95:src/c_thread.cpp ****     int volatile parent_id = parent->t_id;
 553              		.loc 1 95 38 is_stmt 0 discriminator 2
 554 036c 83278900 		lw	a5,8(s2)
  95:src/c_thread.cpp ****     int volatile parent_id = parent->t_id;
 555              		.loc 1 95 18 discriminator 2
 556 0370 232EF4FC 		sw	a5,-36(s0)
  96:src/c_thread.cpp ****     if (riscv::setjump()) {
 557              		.loc 1 96 5 is_stmt 1 discriminator 2
 558              	.LEHB5:
 559              	.LBB37:
  96:src/c_thread.cpp ****     if (riscv::setjump()) {
 560              		.loc 1 96 23 is_stmt 0 discriminator 2
 561 0374 97000000 		call	_ZN5riscv7setjumpEv@plt
 561      E7800000 
 562              	.LVL49:
  96:src/c_thread.cpp ****     if (riscv::setjump()) {
 563              		.loc 1 96 5 discriminator 2
 564 037c 631C0502 		bnez	a0,.L30
 565              	.L23:
 566              	.LBE37:
 103:src/c_thread.cpp ****     if (TCB::running->t_id == parent_id) {
 567              		.loc 1 103 5 is_stmt 1
 103:src/c_thread.cpp ****     if (TCB::running->t_id == parent_id) {
 568              		.loc 1 103 23 is_stmt 0
 569 0380 97070000 		ld	a5,.LANCHOR0
 569      83B70700 
 570 0388 03A78700 		lw	a4,8(a5)
 103:src/c_thread.cpp ****     if (TCB::running->t_id == parent_id) {
 571              		.loc 1 103 31
 572 038c 8327C4FD 		lw	a5,-36(s0)
 573 0390 9B870700 		sext.w	a5,a5
 103:src/c_thread.cpp ****     if (TCB::running->t_id == parent_id) {
 574              		.loc 1 103 5
 575 0394 6304F706 		beq	a4,a5,.L31
 107:src/c_thread.cpp ****         return 0;
 576              		.loc 1 107 16
 577 0398 13050000 		li	a0,0
 578              	.L28:
 109:src/c_thread.cpp **** }
 579              		.loc 1 109 1
 580 039c 83308102 		ld	ra,40(sp)
 581              		.cfi_remember_state
 582              		.cfi_restore 1
 583 03a0 03340102 		ld	s0,32(sp)
 584              		.cfi_restore 8
 585              		.cfi_def_cfa 2, 48
 586 03a4 83348101 		ld	s1,24(sp)
 587              		.cfi_restore 9
 588              	.LVL50:
 589 03a8 03390101 		ld	s2,16(sp)
 590              		.cfi_restore 18
 591              	.LVL51:
 592 03ac 13010103 		addi	sp,sp,48
GAS LISTING /tmp/ccUTdGa0.s 			page 17


 593              		.cfi_def_cfa_offset 0
 594 03b0 67800000 		jr	ra
 595              	.LVL52:
 596              	.L30:
 597              		.cfi_restore_state
 598              	.LBB41:
 599              	.LBB38:
  97:src/c_thread.cpp ****         uint64 sp = riscv::r_sp();
 600              		.loc 1 97 9 is_stmt 1
 601              	.LBB39:
 602              	.LBB40:
 603              		.file 4 "src/../h/riscv.hpp"
   1:src/../h/riscv.hpp **** #ifndef PROJECT_BASE_RISCV_HPP
   2:src/../h/riscv.hpp **** #define PROJECT_BASE_RISCV_HPP
   3:src/../h/riscv.hpp **** 
   4:src/../h/riscv.hpp **** #include "../lib/hw.h"
   5:src/../h/riscv.hpp **** #include "string.hpp"
   6:src/../h/riscv.hpp **** 
   7:src/../h/riscv.hpp **** extern "C" void supervisorTrap();
   8:src/../h/riscv.hpp **** 
   9:src/../h/riscv.hpp **** class riscv {
  10:src/../h/riscv.hpp **** public:
  11:src/../h/riscv.hpp **** 
  12:src/../h/riscv.hpp ****     static void handleSupervisorTrap(uint64, uint64, uint64, uint64, uint64);
  13:src/../h/riscv.hpp **** 
  14:src/../h/riscv.hpp ****     static void handleTimerTrap();
  15:src/../h/riscv.hpp **** 
  16:src/../h/riscv.hpp ****     static void handleReadTrap();
  17:src/../h/riscv.hpp **** 
  18:src/../h/riscv.hpp ****     static void handleWriteTrap();
  19:src/../h/riscv.hpp **** 
  20:src/../h/riscv.hpp ****     static void handleConsoleTrap();
  21:src/../h/riscv.hpp **** 
  22:src/../h/riscv.hpp ****     static void handleException(const stm::string &message);
  23:src/../h/riscv.hpp **** 
  24:src/../h/riscv.hpp ****     static void popSppSpie();
  25:src/../h/riscv.hpp **** 
  26:src/../h/riscv.hpp ****     static int setjump();
  27:src/../h/riscv.hpp **** 
  28:src/../h/riscv.hpp ****     static void longjump();
  29:src/../h/riscv.hpp **** 
  30:src/../h/riscv.hpp ****     static uint64 r_sp();
  31:src/../h/riscv.hpp **** 
  32:src/../h/riscv.hpp ****     // read register scause
  33:src/../h/riscv.hpp ****     static uint64 r_scause();
  34:src/../h/riscv.hpp **** 
  35:src/../h/riscv.hpp ****     // write register scause
  36:src/../h/riscv.hpp ****     static void w_scause(uint64 scause);
  37:src/../h/riscv.hpp **** 
  38:src/../h/riscv.hpp ****     // read register sepc
  39:src/../h/riscv.hpp ****     static uint64 r_sepc();
  40:src/../h/riscv.hpp **** 
  41:src/../h/riscv.hpp ****     // write register sepc
  42:src/../h/riscv.hpp ****     static void w_sepc(uint64 sepc);
  43:src/../h/riscv.hpp **** 
  44:src/../h/riscv.hpp ****     // read register stvec
  45:src/../h/riscv.hpp ****     static uint64 r_stvec();
GAS LISTING /tmp/ccUTdGa0.s 			page 18


  46:src/../h/riscv.hpp **** 
  47:src/../h/riscv.hpp ****     // write register stvec
  48:src/../h/riscv.hpp ****     static void w_stvec(uint64 stvec);
  49:src/../h/riscv.hpp **** 
  50:src/../h/riscv.hpp ****     // read register stval
  51:src/../h/riscv.hpp ****     static uint64 r_stval();
  52:src/../h/riscv.hpp **** 
  53:src/../h/riscv.hpp ****     // write register stval
  54:src/../h/riscv.hpp ****     static void w_stval(uint64 stval);
  55:src/../h/riscv.hpp **** 
  56:src/../h/riscv.hpp ****     enum BitMaskSip {
  57:src/../h/riscv.hpp ****         SIP_SSIE = (1 << 1),
  58:src/../h/riscv.hpp ****         SIP_STIE = (1 << 5),
  59:src/../h/riscv.hpp ****         SIP_SEIE = (1 << 9),
  60:src/../h/riscv.hpp ****     };
  61:src/../h/riscv.hpp **** 
  62:src/../h/riscv.hpp ****     // mask set register sip
  63:src/../h/riscv.hpp ****     static void ms_sip(uint64 mask);
  64:src/../h/riscv.hpp **** 
  65:src/../h/riscv.hpp ****     // mask clear register sip
  66:src/../h/riscv.hpp ****     static void mc_sip(uint64 mask);
  67:src/../h/riscv.hpp **** 
  68:src/../h/riscv.hpp ****     // read register sip
  69:src/../h/riscv.hpp ****     static uint64 r_sip();
  70:src/../h/riscv.hpp **** 
  71:src/../h/riscv.hpp ****     // write register sip
  72:src/../h/riscv.hpp ****     static void w_sip(uint64 sip);
  73:src/../h/riscv.hpp **** 
  74:src/../h/riscv.hpp ****     enum BitMaskSstatus {
  75:src/../h/riscv.hpp ****         SSTATUS_SIE = (1 << 1),
  76:src/../h/riscv.hpp ****         SSTATUS_SPIE = (1 << 5),
  77:src/../h/riscv.hpp ****         SSTATUS_SPP = (1 << 8),
  78:src/../h/riscv.hpp ****     };
  79:src/../h/riscv.hpp **** 
  80:src/../h/riscv.hpp ****     // mask set register sstatus
  81:src/../h/riscv.hpp ****     static void ms_sstatus(uint64 mask);
  82:src/../h/riscv.hpp **** 
  83:src/../h/riscv.hpp ****     // mask clear register sstatus
  84:src/../h/riscv.hpp ****     static void mc_sstatus(uint64 mask);
  85:src/../h/riscv.hpp **** 
  86:src/../h/riscv.hpp ****     // read register sstatus
  87:src/../h/riscv.hpp ****     static uint64 r_sstatus();
  88:src/../h/riscv.hpp **** 
  89:src/../h/riscv.hpp ****     // write register sstatus
  90:src/../h/riscv.hpp ****     static void w_sstatus(uint64 sstatus);
  91:src/../h/riscv.hpp **** 
  92:src/../h/riscv.hpp ****     static uint64 r_sscratch();
  93:src/../h/riscv.hpp **** 
  94:src/../h/riscv.hpp **** private:
  95:src/../h/riscv.hpp **** 
  96:src/../h/riscv.hpp ****     enum Scause {
  97:src/../h/riscv.hpp ****         ILLEGAL_INSTRUCTION = 2,
  98:src/../h/riscv.hpp ****     };
  99:src/../h/riscv.hpp **** 
 100:src/../h/riscv.hpp ****     typedef uint64 (*syscall_f)(uint64, uint64, uint64, uint64);
 101:src/../h/riscv.hpp **** 
 102:src/../h/riscv.hpp ****     static syscall_f syscall_table[SYSCALL_COUNT];
GAS LISTING /tmp/ccUTdGa0.s 			page 19


 103:src/../h/riscv.hpp **** };
 104:src/../h/riscv.hpp **** 
 105:src/../h/riscv.hpp **** inline uint64 riscv::r_sscratch() {
 106:src/../h/riscv.hpp ****     uint64 volatile sscratch;
 107:src/../h/riscv.hpp ****     __asm__ volatile ("csrr %[scause], scause" : [scause] "=r"(sscratch));
 108:src/../h/riscv.hpp ****     return sscratch;
 109:src/../h/riscv.hpp **** }
 110:src/../h/riscv.hpp **** 
 111:src/../h/riscv.hpp **** inline uint64 riscv::r_scause() {
 112:src/../h/riscv.hpp ****     uint64 volatile scause;
 113:src/../h/riscv.hpp ****     __asm__ volatile ("csrr %[scause], scause" : [scause] "=r"(scause));
 114:src/../h/riscv.hpp ****     return scause;
 115:src/../h/riscv.hpp **** }
 116:src/../h/riscv.hpp **** 
 117:src/../h/riscv.hpp **** inline void riscv::w_scause(uint64 scause) {
 118:src/../h/riscv.hpp ****     __asm__ volatile ("csrw scause, %[scause]" : : [scause] "r"(scause));
 119:src/../h/riscv.hpp **** }
 120:src/../h/riscv.hpp **** 
 121:src/../h/riscv.hpp **** inline uint64 riscv::r_sepc() {
 122:src/../h/riscv.hpp ****     uint64 volatile sepc;
 123:src/../h/riscv.hpp ****     __asm__ volatile ("csrr %[sepc], sepc" : [sepc] "=r"(sepc));
 124:src/../h/riscv.hpp ****     return sepc;
 125:src/../h/riscv.hpp **** }
 126:src/../h/riscv.hpp **** 
 127:src/../h/riscv.hpp **** inline void riscv::w_sepc(uint64 sepc) {
 128:src/../h/riscv.hpp ****     __asm__ volatile ("csrw sepc, %[sepc]" : : [sepc] "r"(sepc));
 129:src/../h/riscv.hpp **** }
 130:src/../h/riscv.hpp **** 
 131:src/../h/riscv.hpp **** inline uint64 riscv::r_stvec() {
 132:src/../h/riscv.hpp ****     uint64 volatile stvec;
 133:src/../h/riscv.hpp ****     __asm__ volatile ("csrr %[stvec], stvec" : [stvec] "=r"(stvec));
 134:src/../h/riscv.hpp ****     return stvec;
 135:src/../h/riscv.hpp **** }
 136:src/../h/riscv.hpp **** 
 137:src/../h/riscv.hpp **** inline void riscv::w_stvec(uint64 stvec) {
 138:src/../h/riscv.hpp ****     __asm__ volatile ("csrw stvec, %[stvec]" : : [stvec] "r"(stvec));
 139:src/../h/riscv.hpp **** }
 140:src/../h/riscv.hpp **** 
 141:src/../h/riscv.hpp **** inline uint64 riscv::r_stval() {
 142:src/../h/riscv.hpp ****     uint64 volatile stval;
 143:src/../h/riscv.hpp ****     __asm__ volatile ("csrr %[stval], stval" : [stval] "=r"(stval));
 144:src/../h/riscv.hpp ****     return stval;
 145:src/../h/riscv.hpp **** }
 146:src/../h/riscv.hpp **** 
 147:src/../h/riscv.hpp **** inline void riscv::w_stval(uint64 stval) {
 148:src/../h/riscv.hpp ****     __asm__ volatile ("csrw stval, %[stval]" : : [stval] "r"(stval));
 149:src/../h/riscv.hpp **** }
 150:src/../h/riscv.hpp **** 
 151:src/../h/riscv.hpp **** inline void riscv::ms_sip(uint64 mask) {
 152:src/../h/riscv.hpp ****     __asm__ volatile ("csrs sip, %[mask]" : : [mask] "r"(mask));
 153:src/../h/riscv.hpp **** }
 154:src/../h/riscv.hpp **** 
 155:src/../h/riscv.hpp **** inline void riscv::mc_sip(uint64 mask) {
 156:src/../h/riscv.hpp ****     __asm__ volatile ("csrc sip, %[mask]" : : [mask] "r"(mask));
 157:src/../h/riscv.hpp **** }
 158:src/../h/riscv.hpp **** 
 159:src/../h/riscv.hpp **** inline uint64 riscv::r_sip() {
GAS LISTING /tmp/ccUTdGa0.s 			page 20


 160:src/../h/riscv.hpp ****     uint64 volatile sip;
 161:src/../h/riscv.hpp ****     __asm__ volatile ("csrr %[sip], sip" : [sip] "=r"(sip));
 162:src/../h/riscv.hpp ****     return sip;
 163:src/../h/riscv.hpp **** }
 164:src/../h/riscv.hpp **** 
 165:src/../h/riscv.hpp **** inline void riscv::w_sip(uint64 sip) {
 166:src/../h/riscv.hpp ****     __asm__ volatile ("csrw sip, %[sip]" : : [sip] "r"(sip));
 167:src/../h/riscv.hpp **** }
 168:src/../h/riscv.hpp **** 
 169:src/../h/riscv.hpp **** inline void riscv::ms_sstatus(uint64 mask) {
 170:src/../h/riscv.hpp ****     __asm__ volatile ("csrs sstatus, %[mask]" : : [mask] "r"(mask));
 171:src/../h/riscv.hpp **** }
 172:src/../h/riscv.hpp **** 
 173:src/../h/riscv.hpp **** inline void riscv::mc_sstatus(uint64 mask) {
 174:src/../h/riscv.hpp ****     __asm__ volatile ("csrc sstatus, %[mask]" : : [mask] "r"(mask));
 175:src/../h/riscv.hpp **** }
 176:src/../h/riscv.hpp **** 
 177:src/../h/riscv.hpp **** inline uint64 riscv::r_sstatus() {
 178:src/../h/riscv.hpp ****     uint64 volatile sstatus;
 179:src/../h/riscv.hpp ****     __asm__ volatile ("csrr %[sstatus], sstatus" : [sstatus] "=r"(sstatus));
 180:src/../h/riscv.hpp ****     return sstatus;
 181:src/../h/riscv.hpp **** }
 182:src/../h/riscv.hpp **** 
 183:src/../h/riscv.hpp **** inline void riscv::w_sstatus(uint64 sstatus) {
 184:src/../h/riscv.hpp ****     __asm__ volatile ("csrw sstatus, %[sstatus]" : : [sstatus] "r"(sstatus));
 185:src/../h/riscv.hpp **** }
 186:src/../h/riscv.hpp **** 
 187:src/../h/riscv.hpp **** inline uint64 riscv::r_sp() {
 188:src/../h/riscv.hpp ****     uint64 volatile ret;
 604              		.loc 4 188 5
 189:src/../h/riscv.hpp ****     __asm__ volatile ("mv %[ret], sp" : [ret] "=r"(ret));
 605              		.loc 4 189 5
 606              		.loc 4 189 57 is_stmt 0
 607              	#APP
 608              	# 189 "src/../h/riscv.hpp" 1
 190              	    return ret;
 609              		mv a5, sp
 610              	# 0 "" 2
 611              	#NO_APP
 612 03b8 2338F4FC 		sd	a5,-48(s0)
 613              		.loc 4 190 5 is_stmt 1
 614              		.loc 4 190 12 is_stmt 0
 615 03bc 833704FD 		ld	a5,-48(s0)
 616              	.LVL53:
 617              	.LBE40:
 618              	.LBE39:
  98:src/c_thread.cpp ****         child->context.ra = (uint64) riscv::longjump;
 619              		.loc 1 98 9 is_stmt 1
  98:src/c_thread.cpp ****         child->context.ra = (uint64) riscv::longjump;
 620              		.loc 1 98 27 is_stmt 0
 621 03c0 17070000 		la	a4,_ZN5riscv8longjumpEv
 621      03370700 
 622 03c8 23B8E402 		sd	a4,48(s1)
  99:src/c_thread.cpp ****         child->context.sp = (uint64) child->stack + sp - (uint64) parent->stack;
 623              		.loc 1 99 9 is_stmt 1
  99:src/c_thread.cpp ****         child->context.sp = (uint64) child->stack + sp - (uint64) parent->stack;
 624              		.loc 1 99 45 is_stmt 0
GAS LISTING /tmp/ccUTdGa0.s 			page 21


 625 03cc 83B50402 		ld	a1,32(s1)
  99:src/c_thread.cpp ****         child->context.sp = (uint64) child->stack + sp - (uint64) parent->stack;
 626              		.loc 1 99 51
 627 03d0 B387F500 		add	a5,a1,a5
 628              	.LVL54:
  99:src/c_thread.cpp ****         child->context.sp = (uint64) child->stack + sp - (uint64) parent->stack;
 629              		.loc 1 99 75
 630 03d4 03370902 		ld	a4,32(s2)
  99:src/c_thread.cpp ****         child->context.sp = (uint64) child->stack + sp - (uint64) parent->stack;
 631              		.loc 1 99 56
 632 03d8 B387E740 		sub	a5,a5,a4
  99:src/c_thread.cpp ****         child->context.sp = (uint64) child->stack + sp - (uint64) parent->stack;
 633              		.loc 1 99 27
 634 03dc 23BCF402 		sd	a5,56(s1)
 100:src/c_thread.cpp ****         memcpy(parent->stack, child->stack, DEFAULT_STACK_SIZE);
 635              		.loc 1 100 9 is_stmt 1
 100:src/c_thread.cpp ****         memcpy(parent->stack, child->stack, DEFAULT_STACK_SIZE);
 636              		.loc 1 100 15 is_stmt 0
 637 03e0 37460000 		li	a2,16384
 638 03e4 03350902 		ld	a0,32(s2)
 639 03e8 97000000 		call	_Z6memcpyPKvS0_i@plt
 639      E7800000 
 640              	.LVL55:
 101:src/c_thread.cpp ****         riscv::longjump();
 641              		.loc 1 101 9 is_stmt 1
 101:src/c_thread.cpp ****         riscv::longjump();
 642              		.loc 1 101 24 is_stmt 0
 643 03f0 97000000 		call	_ZN5riscv8longjumpEv@plt
 643      E7800000 
 644              	.LVL56:
 645              	.LBE38:
 646 03f8 6FF09FF8 		j	.L23
 647              	.L31:
 648              	.LBE41:
 104:src/c_thread.cpp ****         return child->t_id;
 649              		.loc 1 104 9 is_stmt 1
 104:src/c_thread.cpp ****         return child->t_id;
 650              		.loc 1 104 23 is_stmt 0
 651 03fc 03A58400 		lw	a0,8(s1)
 652 0400 6FF0DFF9 		j	.L28
 653              	.LVL57:
 654              	.L27:
 655 0404 13090500 		mv	s2,a0
 656              	.LVL58:
  94:src/c_thread.cpp ****     TCB *child = new TCB(*parent);
 657              		.loc 1 94 33
 658 0408 13850400 		mv	a0,s1
 659 040c 97000000 		call	_ZdlPv@plt
 659      E7800000 
 660              	.LVL59:
 661 0414 13050900 		mv	a0,s2
 662 0418 97000000 		call	_Unwind_Resume@plt
 662      E7800000 
 663              	.LVL60:
 664              	.LEHE5:
 665              		.cfi_endproc
 666              	.LFE76:
GAS LISTING /tmp/ccUTdGa0.s 			page 22


 667              		.section	.gcc_except_table
 668              	.LLSDA76:
 669 002b FF       		.byte	0xff
 670 002c FF       		.byte	0xff
 671 002d 03       		.byte	0x3
 672 002e 27       		.byte	0x27
 673 002f 00000000 		.4byte	.LEHB3-.LFB76
 674 0033 00000000 		.4byte	.LEHE3-.LEHB3
 675 0037 00000000 		.4byte	0
 676 003b 00       		.byte	0
 677 003c 00000000 		.4byte	.LEHB4-.LFB76
 678 0040 00000000 		.4byte	.LEHE4-.LEHB4
 679 0044 00000000 		.4byte	.L27-.LFB76
 680 0048 00       		.byte	0
 681 0049 00000000 		.4byte	.LEHB5-.LFB76
 682 004d 00000000 		.4byte	.LEHE5-.LEHB5
 683 0051 00000000 		.4byte	0
 684 0055 00       		.byte	0
 685              		.text
 687              		.section	.text._ZN3stm14CircularBufferIP3TCBE3getEv,"axG",@progbits,_ZN3stm14CircularBufferIP3TCBE
 688              		.align	2
 689              		.weak	_ZN3stm14CircularBufferIP3TCBE3getEv
 691              	_ZN3stm14CircularBufferIP3TCBE3getEv:
 692              	.LFB82:
  45:src/../h/circular_buffer.hpp **** 
  46:src/../h/circular_buffer.hpp **** template<typename T>
  47:src/../h/circular_buffer.hpp **** void stm::CircularBuffer<T>::put(T element) {
  48:src/../h/circular_buffer.hpp ****     if (this->size == this->capacity) {
  49:src/../h/circular_buffer.hpp ****         this->extend();
  50:src/../h/circular_buffer.hpp ****     }
  51:src/../h/circular_buffer.hpp ****     this->queue[this->tail] = element;
  52:src/../h/circular_buffer.hpp ****     this->tail = (this->tail + 1) % this->capacity;
  53:src/../h/circular_buffer.hpp ****     this->size++;
  54:src/../h/circular_buffer.hpp **** }
  55:src/../h/circular_buffer.hpp **** 
  56:src/../h/circular_buffer.hpp **** template<typename T>
  57:src/../h/circular_buffer.hpp **** T stm::CircularBuffer<T>::get() {
 693              		.loc 3 57 3 is_stmt 1
 694              		.cfi_startproc
 695              	.LVL61:
 696 0000 130101FF 		addi	sp,sp,-16
 697              		.cfi_def_cfa_offset 16
 698 0004 23348100 		sd	s0,8(sp)
 699              		.cfi_offset 8, -8
 700 0008 13040101 		addi	s0,sp,16
 701              		.cfi_def_cfa 8, 0
 702 000c 93070500 		mv	a5,a0
  58:src/../h/circular_buffer.hpp ****     T ret = this->queue[this->head];
 703              		.loc 3 58 19 is_stmt 0
 704 0010 83360500 		ld	a3,0(a0)
 705              		.loc 3 58 31
 706 0014 03278500 		lw	a4,8(a0)
 707              		.loc 3 58 24
 708 0018 13163700 		slli	a2,a4,3
 709 001c B386C600 		add	a3,a3,a2
 710              		.loc 3 58 7
 711 0020 03B50600 		ld	a0,0(a3)
GAS LISTING /tmp/ccUTdGa0.s 			page 23


 712              	.LVL62:
  59:src/../h/circular_buffer.hpp ****     this->head = (this->head + 1) % this->capacity;
 713              		.loc 3 59 30
 714 0024 1B071700 		addiw	a4,a4,1
 715              		.loc 3 59 43
 716 0028 83A64701 		lw	a3,20(a5)
 717              		.loc 3 59 35
 718 002c 3B67D702 		remw	a4,a4,a3
 719              		.loc 3 59 5
 720 0030 23A4E700 		sw	a4,8(a5)
  60:src/../h/circular_buffer.hpp ****     this->size--;
 721              		.loc 3 60 11
 722 0034 03A70701 		lw	a4,16(a5)
 723              		.loc 3 60 5
 724 0038 1B07F7FF 		addiw	a4,a4,-1
 725 003c 23A8E700 		sw	a4,16(a5)
  61:src/../h/circular_buffer.hpp ****     return ret;
  62:src/../h/circular_buffer.hpp **** }
 726              		.loc 3 62 1
 727 0040 03348100 		ld	s0,8(sp)
 728              		.cfi_restore 8
 729              		.cfi_def_cfa 2, 16
 730 0044 13010101 		addi	sp,sp,16
 731              		.cfi_def_cfa_offset 0
 732 0048 67800000 		jr	ra
 733              		.cfi_endproc
 734              	.LFE82:
 736              		.section	.text._ZN3stm14CircularBufferIP3TCBE7destroyEv,"axG",@progbits,_ZN3stm14CircularBufferIP3
 737              		.align	2
 738              		.weak	_ZN3stm14CircularBufferIP3TCBE7destroyEv
 740              	_ZN3stm14CircularBufferIP3TCBE7destroyEv:
 741              	.LFB83:
  63:src/../h/circular_buffer.hpp **** 
  64:src/../h/circular_buffer.hpp **** template<typename T>
  65:src/../h/circular_buffer.hpp **** T &stm::CircularBuffer<T>::peek() {
  66:src/../h/circular_buffer.hpp ****     return this->queue[this->head];
  67:src/../h/circular_buffer.hpp **** }
  68:src/../h/circular_buffer.hpp **** 
  69:src/../h/circular_buffer.hpp **** template<typename T>
  70:src/../h/circular_buffer.hpp **** void stm::CircularBuffer<T>::extend() {
  71:src/../h/circular_buffer.hpp ****     T *new_queue = (T *) mem_alloc(sizeof(T *) * this->capacity * 2);
  72:src/../h/circular_buffer.hpp ****     for (int i = 0, j = this->head; i < this->capacity; i++, j = (j + 1) % this->capacity)
  73:src/../h/circular_buffer.hpp ****         new_queue[i] = this->queue[j];
  74:src/../h/circular_buffer.hpp ****     mem_free(queue);
  75:src/../h/circular_buffer.hpp ****     this->queue = new_queue;
  76:src/../h/circular_buffer.hpp ****     this->head = 0;
  77:src/../h/circular_buffer.hpp ****     this->tail = this->capacity;
  78:src/../h/circular_buffer.hpp ****     this->capacity *= 2;
  79:src/../h/circular_buffer.hpp **** }
  80:src/../h/circular_buffer.hpp **** 
  81:src/../h/circular_buffer.hpp **** template<typename T>
  82:src/../h/circular_buffer.hpp **** void stm::CircularBuffer<T>::destroy() {
 742              		.loc 3 82 6 is_stmt 1
 743              		.cfi_startproc
 744              	.LVL63:
 745 0000 130101FF 		addi	sp,sp,-16
 746              		.cfi_def_cfa_offset 16
GAS LISTING /tmp/ccUTdGa0.s 			page 24


 747 0004 23341100 		sd	ra,8(sp)
 748 0008 23308100 		sd	s0,0(sp)
 749              		.cfi_offset 1, -8
 750              		.cfi_offset 8, -16
 751 000c 13040101 		addi	s0,sp,16
 752              		.cfi_def_cfa 8, 0
  83:src/../h/circular_buffer.hpp ****     mem_free(this->queue);
 753              		.loc 3 83 13 is_stmt 0
 754 0010 03350500 		ld	a0,0(a0)
 755              	.LVL64:
 756 0014 97000000 		call	_Z8mem_freePv@plt
 756      E7800000 
 757              	.LVL65:
  84:src/../h/circular_buffer.hpp **** }
 758              		.loc 3 84 1
 759 001c 83308100 		ld	ra,8(sp)
 760              		.cfi_restore 1
 761 0020 03340100 		ld	s0,0(sp)
 762              		.cfi_restore 8
 763              		.cfi_def_cfa 2, 16
 764 0024 13010101 		addi	sp,sp,16
 765              		.cfi_def_cfa_offset 0
 766 0028 67800000 		jr	ra
 767              		.cfi_endproc
 768              	.LFE83:
 770              		.text
 771              		.align	2
 772              		.globl	_ZN3TCB14destroy_threadEPS_
 774              	_ZN3TCB14destroy_threadEPS_:
 775              	.LFB72:
  56:src/c_thread.cpp **** TCB *TCB::destroy_thread(TCB *thread) {
 776              		.loc 1 56 39 is_stmt 1
 777              		.cfi_startproc
 778              	.LVL66:
 779 0420 130101FE 		addi	sp,sp,-32
 780              		.cfi_def_cfa_offset 32
 781 0424 233C1100 		sd	ra,24(sp)
 782 0428 23388100 		sd	s0,16(sp)
 783 042c 23349100 		sd	s1,8(sp)
 784              		.cfi_offset 1, -8
 785              		.cfi_offset 8, -16
 786              		.cfi_offset 9, -24
 787 0430 13040102 		addi	s0,sp,32
 788              		.cfi_def_cfa 8, 0
 789 0434 93040500 		mv	s1,a0
 790              	.LVL67:
 791              	.L38:
  57:src/c_thread.cpp ****     while (!thread->joiner.is_empty()) {
 792              		.loc 1 57 5
  57:src/c_thread.cpp ****     while (!thread->joiner.is_empty()) {
 793              		.loc 1 57 12
 794              	.LBB42:
 795              	.LBB43:
  20:src/../h/circular_buffer.hpp **** 
 796              		.loc 3 20 53 is_stmt 0
 797 0438 83A78407 		lw	a5,120(s1)
 798              	.LVL68:
GAS LISTING /tmp/ccUTdGa0.s 			page 25


 799              	.LBE43:
 800              	.LBE42:
  57:src/c_thread.cpp ****     while (!thread->joiner.is_empty()) {
 801              		.loc 1 57 12
 802 043c 63860702 		beqz	a5,.L37
 803              	.LBB44:
  58:src/c_thread.cpp ****         TCB *next = thread->joiner.get();
 804              		.loc 1 58 9 is_stmt 1
  58:src/c_thread.cpp ****         TCB *next = thread->joiner.get();
 805              		.loc 1 58 39 is_stmt 0
 806 0440 13858406 		addi	a0,s1,104
 807 0444 97000000 		call	_ZN3stm14CircularBufferIP3TCBE3getEv
 807      E7800000 
 808              	.LVL69:
  59:src/c_thread.cpp ****         if (next->is_joined()) {
 809              		.loc 1 59 9 is_stmt 1
 810              	.LBB45:
 811              	.LBB46:
  59:src/../h/c_thread.hpp **** 
 812              		.loc 2 59 30
  59:src/../h/c_thread.hpp **** 
 813              		.loc 2 59 43 is_stmt 0
 814 044c 03270505 		lw	a4,80(a0)
 815              	.LVL70:
 816              	.LBE46:
 817              	.LBE45:
  59:src/c_thread.cpp ****         if (next->is_joined()) {
 818              		.loc 1 59 9
 819 0450 93073000 		li	a5,3
 820 0454 E312F7FE 		bne	a4,a5,.L38
  60:src/c_thread.cpp ****             next->run();
 821              		.loc 1 60 13 is_stmt 1
 822              	.LVL71:
 823              	.LBB47:
 824              	.LBB48:
  63:src/../h/c_thread.hpp **** 
 825              		.loc 2 63 18
  63:src/../h/c_thread.hpp **** 
 826              		.loc 2 63 31 is_stmt 0
 827 0458 23280504 		sw	zero,80(a0)
 828              	.LVL72:
 829              	.LBE48:
 830              	.LBE47:
  61:src/c_thread.cpp ****             Scheduler::put(next);
 831              		.loc 1 61 13 is_stmt 1
  61:src/c_thread.cpp ****             Scheduler::put(next);
 832              		.loc 1 61 27 is_stmt 0
 833 045c 97000000 		call	_ZN9Scheduler3putEP3TCB@plt
 833      E7800000 
 834              	.LVL73:
 835 0464 6FF05FFD 		j	.L38
 836              	.L37:
 837              	.LBE44:
  64:src/c_thread.cpp ****     thread->joiner.destroy();
 838              		.loc 1 64 5 is_stmt 1
  64:src/c_thread.cpp ****     thread->joiner.destroy();
 839              		.loc 1 64 27 is_stmt 0
GAS LISTING /tmp/ccUTdGa0.s 			page 26


 840 0468 13858406 		addi	a0,s1,104
 841 046c 97000000 		call	_ZN3stm14CircularBufferIP3TCBE7destroyEv
 841      E7800000 
 842              	.LVL74:
  65:src/c_thread.cpp ****     return thread;
 843              		.loc 1 65 5 is_stmt 1
  66:src/c_thread.cpp **** }
 844              		.loc 1 66 1 is_stmt 0
 845 0474 13850400 		mv	a0,s1
 846 0478 83308101 		ld	ra,24(sp)
 847              		.cfi_restore 1
 848 047c 03340101 		ld	s0,16(sp)
 849              		.cfi_restore 8
 850              		.cfi_def_cfa 2, 32
 851 0480 83348100 		ld	s1,8(sp)
 852              		.cfi_restore 9
 853              	.LVL75:
 854 0484 13010102 		addi	sp,sp,32
 855              		.cfi_def_cfa_offset 0
 856 0488 67800000 		jr	ra
 857              		.cfi_endproc
 858              	.LFE72:
 860              		.align	2
 861              		.globl	_ZN3TCB16_thread_dispatchEv
 863              	_ZN3TCB16_thread_dispatchEv:
 864              	.LFB71:
  41:src/c_thread.cpp **** void TCB::_thread_dispatch() {
 865              		.loc 1 41 30 is_stmt 1
 866              		.cfi_startproc
 867 048c 130101FE 		addi	sp,sp,-32
 868              		.cfi_def_cfa_offset 32
 869 0490 233C1100 		sd	ra,24(sp)
 870 0494 23388100 		sd	s0,16(sp)
 871 0498 23349100 		sd	s1,8(sp)
 872              		.cfi_offset 1, -8
 873              		.cfi_offset 8, -16
 874              		.cfi_offset 9, -24
 875 049c 13040102 		addi	s0,sp,32
 876              		.cfi_def_cfa 8, 0
  42:src/c_thread.cpp ****     thread_t old = TCB::running;
 877              		.loc 1 42 5
  42:src/c_thread.cpp ****     thread_t old = TCB::running;
 878              		.loc 1 42 14 is_stmt 0
 879 04a0 97040000 		ld	s1,.LANCHOR0
 879      83B40400 
 880              	.LVL76:
  43:src/c_thread.cpp ****     if (old->is_runnable()) {
 881              		.loc 1 43 5 is_stmt 1
 882              	.LBB49:
 883              	.LBB50:
  53:src/../h/c_thread.hpp **** 
 884              		.loc 2 53 32
  53:src/../h/c_thread.hpp **** 
 885              		.loc 2 53 45 is_stmt 0
 886 04a8 83A70405 		lw	a5,80(s1)
 887              	.LVL77:
 888              	.LBE50:
GAS LISTING /tmp/ccUTdGa0.s 			page 27


 889              	.LBE49:
  43:src/c_thread.cpp ****     if (old->is_runnable()) {
 890              		.loc 1 43 5
 891 04ac 638C0702 		beqz	a5,.L47
 892              	.L44:
  46:src/c_thread.cpp ****     while (Scheduler::peek()->is_finished()) {
 893              		.loc 1 46 5 is_stmt 1
  46:src/c_thread.cpp ****     while (Scheduler::peek()->is_finished()) {
 894              		.loc 1 46 42
 895 04b0 97000000 		call	_ZN9Scheduler4peekEv@plt
 895      E7800000 
 896              	.LVL78:
 897              	.LBB51:
 898              	.LBB52:
  61:src/../h/c_thread.hpp **** 
 899              		.loc 2 61 32
  61:src/../h/c_thread.hpp **** 
 900              		.loc 2 61 45 is_stmt 0
 901 04b8 03270505 		lw	a4,80(a0)
 902              	.LVL79:
 903              	.LBE52:
 904              	.LBE51:
  46:src/c_thread.cpp ****     while (Scheduler::peek()->is_finished()) {
 905              		.loc 1 46 42
 906 04bc 93074000 		li	a5,4
 907 04c0 631AF702 		bne	a4,a5,.L43
  47:src/c_thread.cpp ****         Allocator::_mem_free(TCB::destroy_thread(Scheduler::get())->stack);
 908              		.loc 1 47 9 is_stmt 1
  47:src/c_thread.cpp ****         Allocator::_mem_free(TCB::destroy_thread(Scheduler::get())->stack);
 909              		.loc 1 47 49 is_stmt 0
 910 04c4 97000000 		call	_ZN9Scheduler3getEv@plt
 910      E7800000 
 911              	.LVL80:
 912 04cc 97000000 		call	_ZN3TCB14destroy_threadEPS_
 912      E7800000 
 913              	.LVL81:
  47:src/c_thread.cpp ****         Allocator::_mem_free(TCB::destroy_thread(Scheduler::get())->stack);
 914              		.loc 1 47 29
 915 04d4 03350502 		ld	a0,32(a0)
 916 04d8 97000000 		call	_ZN9Allocator9_mem_freeEPKv@plt
 916      E7800000 
 917              	.LVL82:
  46:src/c_thread.cpp ****     while (Scheduler::peek()->is_finished()) {
 918              		.loc 1 46 5
 919 04e0 6FF01FFD 		j	.L44
 920              	.L47:
  44:src/c_thread.cpp ****         Scheduler::put(old);
 921              		.loc 1 44 9 is_stmt 1
  44:src/c_thread.cpp ****         Scheduler::put(old);
 922              		.loc 1 44 23 is_stmt 0
 923 04e4 13850400 		mv	a0,s1
 924 04e8 97000000 		call	_ZN9Scheduler3putEP3TCB@plt
 924      E7800000 
 925              	.LVL83:
 926 04f0 6FF01FFC 		j	.L44
 927              	.L43:
  49:src/c_thread.cpp ****     TCB::running = Scheduler::get();
GAS LISTING /tmp/ccUTdGa0.s 			page 28


 928              		.loc 1 49 5 is_stmt 1
  49:src/c_thread.cpp ****     TCB::running = Scheduler::get();
 929              		.loc 1 49 34 is_stmt 0
 930 04f4 97000000 		call	_ZN9Scheduler3getEv@plt
 930      E7800000 
 931              	.LVL84:
  49:src/c_thread.cpp ****     TCB::running = Scheduler::get();
 932              		.loc 1 49 18
 933 04fc 97070000 		sd	a0,.LANCHOR0,a5
 933      23B0A700 
  50:src/c_thread.cpp ****     if (riscv::setjump()) {
 934              		.loc 1 50 5 is_stmt 1
  50:src/c_thread.cpp ****     if (riscv::setjump()) {
 935              		.loc 1 50 23 is_stmt 0
 936 0504 97000000 		call	_ZN5riscv7setjumpEv@plt
 936      E7800000 
 937              	.LVL85:
  50:src/c_thread.cpp ****     if (riscv::setjump()) {
 938              		.loc 1 50 5
 939 050c 631C0500 		bnez	a0,.L48
 940              	.L41:
  54:src/c_thread.cpp **** }
 941              		.loc 1 54 1
 942 0510 83308101 		ld	ra,24(sp)
 943              		.cfi_remember_state
 944              		.cfi_restore 1
 945 0514 03340101 		ld	s0,16(sp)
 946              		.cfi_restore 8
 947              		.cfi_def_cfa 2, 32
 948 0518 83348100 		ld	s1,8(sp)
 949              		.cfi_restore 9
 950              	.LVL86:
 951 051c 13010102 		addi	sp,sp,32
 952              		.cfi_def_cfa_offset 0
 953 0520 67800000 		jr	ra
 954              	.LVL87:
 955              	.L48:
 956              		.cfi_restore_state
  51:src/c_thread.cpp ****         TCB::context_switch(&old->context, &TCB::running->context);
 957              		.loc 1 51 9 is_stmt 1
  51:src/c_thread.cpp ****         TCB::context_switch(&old->context, &TCB::running->context);
 958              		.loc 1 51 28 is_stmt 0
 959 0524 97050000 		ld	a1,.LANCHOR0
 959      83B50500 
 960 052c 93850503 		addi	a1,a1,48
 961 0530 13850403 		addi	a0,s1,48
 962 0534 97000000 		call	_ZN3TCB14context_switchEP7ContextS1_@plt
 962      E7800000 
 963              	.LVL88:
  52:src/c_thread.cpp ****         riscv::longjump();
 964              		.loc 1 52 9 is_stmt 1
  52:src/c_thread.cpp ****         riscv::longjump();
 965              		.loc 1 52 24 is_stmt 0
 966 053c 97000000 		call	_ZN5riscv8longjumpEv@plt
 966      E7800000 
 967              	.LVL89:
  54:src/c_thread.cpp **** }
GAS LISTING /tmp/ccUTdGa0.s 			page 29


 968              		.loc 1 54 1
 969 0544 6FF0DFFC 		j	.L41
 970              		.cfi_endproc
 971              	.LFE71:
 973              		.align	2
 974              		.globl	_ZN3TCB12_thread_exitEv
 976              	_ZN3TCB12_thread_exitEv:
 977              	.LFB73:
  68:src/c_thread.cpp **** void TCB::_thread_exit() {
 978              		.loc 1 68 26 is_stmt 1
 979              		.cfi_startproc
 980 0548 130101FE 		addi	sp,sp,-32
 981              		.cfi_def_cfa_offset 32
 982 054c 233C1100 		sd	ra,24(sp)
 983 0550 23388100 		sd	s0,16(sp)
 984 0554 23349100 		sd	s1,8(sp)
 985              		.cfi_offset 1, -8
 986              		.cfi_offset 8, -16
 987              		.cfi_offset 9, -24
 988 0558 13040102 		addi	s0,sp,32
 989              		.cfi_def_cfa 8, 0
  69:src/c_thread.cpp ****     TCB::running->finish();
 990              		.loc 1 69 5
  69:src/c_thread.cpp ****     TCB::running->finish();
 991              		.loc 1 69 25 is_stmt 0
 992 055c 97040000 		lla	s1,.LANCHOR0
 992      93840400 
 993 0564 03B50400 		ld	a0,0(s1)
 994              	.LVL90:
 995              	.LBB53:
 996              	.LBB54:
 997              		.loc 2 71 21 is_stmt 1
 998              		.loc 2 71 34 is_stmt 0
 999 0568 93074000 		li	a5,4
 1000 056c 2328F504 		sw	a5,80(a0)
 1001              	.LVL91:
 1002              	.LBE54:
 1003              	.LBE53:
  70:src/c_thread.cpp ****     TCB::destroy_thread(TCB::running);
 1004              		.loc 1 70 5 is_stmt 1
  70:src/c_thread.cpp ****     TCB::destroy_thread(TCB::running);
 1005              		.loc 1 70 24 is_stmt 0
 1006 0570 97000000 		call	_ZN3TCB14destroy_threadEPS_
 1006      E7800000 
 1007              	.LVL92:
  71:src/c_thread.cpp ****     Allocator::_mem_free(TCB::running->stack);
 1008              		.loc 1 71 5 is_stmt 1
  71:src/c_thread.cpp ****     Allocator::_mem_free(TCB::running->stack);
 1009              		.loc 1 71 25 is_stmt 0
 1010 0578 83B70400 		ld	a5,0(s1)
 1011 057c 03B50702 		ld	a0,32(a5)
 1012 0580 97000000 		call	_ZN9Allocator9_mem_freeEPKv@plt
 1012      E7800000 
 1013              	.LVL93:
  72:src/c_thread.cpp ****     TCB::_thread_dispatch();
 1014              		.loc 1 72 5 is_stmt 1
  72:src/c_thread.cpp ****     TCB::_thread_dispatch();
GAS LISTING /tmp/ccUTdGa0.s 			page 30


 1015              		.loc 1 72 26 is_stmt 0
 1016 0588 97000000 		call	_ZN3TCB16_thread_dispatchEv
 1016      E7800000 
 1017              	.LVL94:
  73:src/c_thread.cpp **** }
 1018              		.loc 1 73 1
 1019 0590 83308101 		ld	ra,24(sp)
 1020              		.cfi_restore 1
 1021 0594 03340101 		ld	s0,16(sp)
 1022              		.cfi_restore 8
 1023              		.cfi_def_cfa 2, 32
 1024 0598 83348100 		ld	s1,8(sp)
 1025              		.cfi_restore 9
 1026 059c 13010102 		addi	sp,sp,32
 1027              		.cfi_def_cfa_offset 0
 1028 05a0 67800000 		jr	ra
 1029              		.cfi_endproc
 1030              	.LFE73:
 1032              		.section	.text._ZN3stm14CircularBufferIP3TCBE6extendEv,"axG",@progbits,_ZN3stm14CircularBufferIP3T
 1033              		.align	2
 1034              		.weak	_ZN3stm14CircularBufferIP3TCBE6extendEv
 1036              	_ZN3stm14CircularBufferIP3TCBE6extendEv:
 1037              	.LFB85:
  70:src/../h/circular_buffer.hpp ****     T *new_queue = (T *) mem_alloc(sizeof(T *) * this->capacity * 2);
 1038              		.loc 3 70 6 is_stmt 1
 1039              		.cfi_startproc
 1040              	.LVL95:
 1041 0000 130101FE 		addi	sp,sp,-32
 1042              		.cfi_def_cfa_offset 32
 1043 0004 233C1100 		sd	ra,24(sp)
 1044 0008 23388100 		sd	s0,16(sp)
 1045 000c 23349100 		sd	s1,8(sp)
 1046 0010 23302101 		sd	s2,0(sp)
 1047              		.cfi_offset 1, -8
 1048              		.cfi_offset 8, -16
 1049              		.cfi_offset 9, -24
 1050              		.cfi_offset 18, -32
 1051 0014 13040102 		addi	s0,sp,32
 1052              		.cfi_def_cfa 8, 0
 1053 0018 93040500 		mv	s1,a0
  71:src/../h/circular_buffer.hpp ****     for (int i = 0, j = this->head; i < this->capacity; i++, j = (j + 1) % this->capacity)
 1054              		.loc 3 71 56 is_stmt 0
 1055 001c 03254501 		lw	a0,20(a0)
 1056              	.LVL96:
  71:src/../h/circular_buffer.hpp ****     for (int i = 0, j = this->head; i < this->capacity; i++, j = (j + 1) % this->capacity)
 1057              		.loc 3 71 35
 1058 0020 13154500 		slli	a0,a0,4
 1059 0024 97000000 		call	_Z9mem_allocm@plt
 1059      E7800000 
 1060              	.LVL97:
 1061 002c 13090500 		mv	s2,a0
 1062              	.LVL98:
 1063              	.LBB55:
  72:src/../h/circular_buffer.hpp ****         new_queue[i] = this->queue[j];
 1064              		.loc 3 72 21
 1065 0030 83A78400 		lw	a5,8(s1)
 1066              	.LVL99:
GAS LISTING /tmp/ccUTdGa0.s 			page 31


  72:src/../h/circular_buffer.hpp ****         new_queue[i] = this->queue[j];
 1067              		.loc 3 72 14
 1068 0034 13070000 		li	a4,0
 1069              	.LVL100:
 1070              	.L53:
  72:src/../h/circular_buffer.hpp ****         new_queue[i] = this->queue[j];
 1071              		.loc 3 72 39 is_stmt 1 discriminator 3
  72:src/../h/circular_buffer.hpp ****         new_queue[i] = this->queue[j];
 1072              		.loc 3 72 47 is_stmt 0 discriminator 3
 1073 0038 83A64401 		lw	a3,20(s1)
  72:src/../h/circular_buffer.hpp ****         new_queue[i] = this->queue[j];
 1074              		.loc 3 72 39 discriminator 3
 1075 003c 635AD702 		ble	a3,a4,.L52
  73:src/../h/circular_buffer.hpp ****     mem_free(queue);
 1076              		.loc 3 73 30 discriminator 2
 1077 0040 03B60400 		ld	a2,0(s1)
  73:src/../h/circular_buffer.hpp ****     mem_free(queue);
 1078              		.loc 3 73 18 discriminator 2
 1079 0044 93163700 		slli	a3,a4,3
 1080 0048 B306D900 		add	a3,s2,a3
  73:src/../h/circular_buffer.hpp ****     mem_free(queue);
 1081              		.loc 3 73 35 discriminator 2
 1082 004c 93953700 		slli	a1,a5,3
 1083 0050 3306B600 		add	a2,a2,a1
 1084 0054 03360600 		ld	a2,0(a2)
  73:src/../h/circular_buffer.hpp ****     mem_free(queue);
 1085              		.loc 3 73 9 discriminator 2
 1086 0058 23B0C600 		sd	a2,0(a3)
  72:src/../h/circular_buffer.hpp ****         new_queue[i] = this->queue[j];
 1087              		.loc 3 72 5 is_stmt 1 discriminator 2
 1088 005c 1B071700 		addiw	a4,a4,1
 1089              	.LVL101:
  72:src/../h/circular_buffer.hpp ****         new_queue[i] = this->queue[j];
 1090              		.loc 3 72 69 is_stmt 0 discriminator 2
 1091 0060 9B871700 		addiw	a5,a5,1
 1092              	.LVL102:
  72:src/../h/circular_buffer.hpp ****         new_queue[i] = this->queue[j];
 1093              		.loc 3 72 82 discriminator 2
 1094 0064 83A64401 		lw	a3,20(s1)
  72:src/../h/circular_buffer.hpp ****         new_queue[i] = this->queue[j];
 1095              		.loc 3 72 5 discriminator 2
 1096 0068 BBE7D702 		remw	a5,a5,a3
 1097              	.LVL103:
 1098 006c 6FF0DFFC 		j	.L53
 1099              	.LVL104:
 1100              	.L52:
 1101              	.LBE55:
  74:src/../h/circular_buffer.hpp ****     this->queue = new_queue;
 1102              		.loc 3 74 13
 1103 0070 03B50400 		ld	a0,0(s1)
 1104              	.LVL105:
 1105 0074 97000000 		call	_Z8mem_freePv@plt
 1105      E7800000 
 1106              	.LVL106:
  75:src/../h/circular_buffer.hpp ****     this->head = 0;
 1107              		.loc 3 75 5
 1108 007c 23B02401 		sd	s2,0(s1)
GAS LISTING /tmp/ccUTdGa0.s 			page 32


  76:src/../h/circular_buffer.hpp ****     this->tail = this->capacity;
 1109              		.loc 3 76 5
 1110 0080 23A40400 		sw	zero,8(s1)
  77:src/../h/circular_buffer.hpp ****     this->capacity *= 2;
 1111              		.loc 3 77 24
 1112 0084 83A74401 		lw	a5,20(s1)
  77:src/../h/circular_buffer.hpp ****     this->capacity *= 2;
 1113              		.loc 3 77 5
 1114 0088 23A6F400 		sw	a5,12(s1)
  78:src/../h/circular_buffer.hpp **** }
 1115              		.loc 3 78 20
 1116 008c 9B971700 		slliw	a5,a5,1
  78:src/../h/circular_buffer.hpp **** }
 1117              		.loc 3 78 5
 1118 0090 23AAF400 		sw	a5,20(s1)
  79:src/../h/circular_buffer.hpp **** 
 1119              		.loc 3 79 1
 1120 0094 83308101 		ld	ra,24(sp)
 1121              		.cfi_restore 1
 1122 0098 03340101 		ld	s0,16(sp)
 1123              		.cfi_restore 8
 1124              		.cfi_def_cfa 2, 32
 1125 009c 83348100 		ld	s1,8(sp)
 1126              		.cfi_restore 9
 1127              	.LVL107:
 1128 00a0 03390100 		ld	s2,0(sp)
 1129              		.cfi_restore 18
 1130              	.LVL108:
 1131 00a4 13010102 		addi	sp,sp,32
 1132              		.cfi_def_cfa_offset 0
 1133 00a8 67800000 		jr	ra
 1134              		.cfi_endproc
 1135              	.LFE85:
 1137              		.section	.text._ZN3stm14CircularBufferIP3TCBE3putES2_,"axG",@progbits,_ZN3stm14CircularBufferIP3TC
 1138              		.align	2
 1139              		.weak	_ZN3stm14CircularBufferIP3TCBE3putES2_
 1141              	_ZN3stm14CircularBufferIP3TCBE3putES2_:
 1142              	.LFB84:
  47:src/../h/circular_buffer.hpp ****     if (this->size == this->capacity) {
 1143              		.loc 3 47 6 is_stmt 1
 1144              		.cfi_startproc
 1145              	.LVL109:
 1146 0000 130101FE 		addi	sp,sp,-32
 1147              		.cfi_def_cfa_offset 32
 1148 0004 233C1100 		sd	ra,24(sp)
 1149 0008 23388100 		sd	s0,16(sp)
 1150 000c 23349100 		sd	s1,8(sp)
 1151 0010 23302101 		sd	s2,0(sp)
 1152              		.cfi_offset 1, -8
 1153              		.cfi_offset 8, -16
 1154              		.cfi_offset 9, -24
 1155              		.cfi_offset 18, -32
 1156 0014 13040102 		addi	s0,sp,32
 1157              		.cfi_def_cfa 8, 0
 1158 0018 93040500 		mv	s1,a0
 1159 001c 13890500 		mv	s2,a1
  48:src/../h/circular_buffer.hpp ****         this->extend();
GAS LISTING /tmp/ccUTdGa0.s 			page 33


 1160              		.loc 3 48 15 is_stmt 0
 1161 0020 03270501 		lw	a4,16(a0)
  48:src/../h/circular_buffer.hpp ****         this->extend();
 1162              		.loc 3 48 29
 1163 0024 83274501 		lw	a5,20(a0)
  48:src/../h/circular_buffer.hpp ****         this->extend();
 1164              		.loc 3 48 5
 1165 0028 6308F704 		beq	a4,a5,.L58
 1166              	.LVL110:
 1167              	.L56:
  51:src/../h/circular_buffer.hpp ****     this->tail = (this->tail + 1) % this->capacity;
 1168              		.loc 3 51 11
 1169 002c 83B70400 		ld	a5,0(s1)
  51:src/../h/circular_buffer.hpp ****     this->tail = (this->tail + 1) % this->capacity;
 1170              		.loc 3 51 23
 1171 0030 03A7C400 		lw	a4,12(s1)
  51:src/../h/circular_buffer.hpp ****     this->tail = (this->tail + 1) % this->capacity;
 1172              		.loc 3 51 16
 1173 0034 13173700 		slli	a4,a4,3
 1174 0038 B387E700 		add	a5,a5,a4
  51:src/../h/circular_buffer.hpp ****     this->tail = (this->tail + 1) % this->capacity;
 1175              		.loc 3 51 5
 1176 003c 23B02701 		sd	s2,0(a5)
  52:src/../h/circular_buffer.hpp ****     this->size++;
 1177              		.loc 3 52 25
 1178 0040 83A7C400 		lw	a5,12(s1)
  52:src/../h/circular_buffer.hpp ****     this->size++;
 1179              		.loc 3 52 30
 1180 0044 9B871700 		addiw	a5,a5,1
  52:src/../h/circular_buffer.hpp ****     this->size++;
 1181              		.loc 3 52 43
 1182 0048 03A74401 		lw	a4,20(s1)
  52:src/../h/circular_buffer.hpp ****     this->size++;
 1183              		.loc 3 52 35
 1184 004c BBE7E702 		remw	a5,a5,a4
  52:src/../h/circular_buffer.hpp ****     this->size++;
 1185              		.loc 3 52 5
 1186 0050 23A6F400 		sw	a5,12(s1)
  53:src/../h/circular_buffer.hpp **** }
 1187              		.loc 3 53 11
 1188 0054 83A70401 		lw	a5,16(s1)
  53:src/../h/circular_buffer.hpp **** }
 1189              		.loc 3 53 5
 1190 0058 9B871700 		addiw	a5,a5,1
 1191 005c 23A8F400 		sw	a5,16(s1)
  54:src/../h/circular_buffer.hpp **** 
 1192              		.loc 3 54 1
 1193 0060 83308101 		ld	ra,24(sp)
 1194              		.cfi_remember_state
 1195              		.cfi_restore 1
 1196 0064 03340101 		ld	s0,16(sp)
 1197              		.cfi_restore 8
 1198              		.cfi_def_cfa 2, 32
 1199 0068 83348100 		ld	s1,8(sp)
 1200              		.cfi_restore 9
 1201              	.LVL111:
 1202 006c 03390100 		ld	s2,0(sp)
GAS LISTING /tmp/ccUTdGa0.s 			page 34


 1203              		.cfi_restore 18
 1204              	.LVL112:
 1205 0070 13010102 		addi	sp,sp,32
 1206              		.cfi_def_cfa_offset 0
 1207 0074 67800000 		jr	ra
 1208              	.LVL113:
 1209              	.L58:
 1210              		.cfi_restore_state
  49:src/../h/circular_buffer.hpp ****     }
 1211              		.loc 3 49 9
 1212 0078 97000000 		call	_ZN3stm14CircularBufferIP3TCBE6extendEv
 1212      E7800000 
 1213              	.LVL114:
 1214 0080 6FF0DFFA 		j	.L56
 1215              		.cfi_endproc
 1216              	.LFE84:
 1218              		.text
 1219              		.align	2
 1220              		.globl	_ZN3TCB12_thread_joinEPS_
 1222              	_ZN3TCB12_thread_joinEPS_:
 1223              	.LFB74:
  75:src/c_thread.cpp **** void TCB::_thread_join(thread_t handle) {
 1224              		.loc 1 75 41 is_stmt 1
 1225              		.cfi_startproc
 1226              	.LVL115:
  76:src/c_thread.cpp ****     if (handle->is_finished())
 1227              		.loc 1 76 5
 1228              	.LBB56:
 1229              	.LBB57:
  61:src/../h/c_thread.hpp **** 
 1230              		.loc 2 61 32
  61:src/../h/c_thread.hpp **** 
 1231              		.loc 2 61 45 is_stmt 0
 1232 05a4 03270505 		lw	a4,80(a0)
 1233              	.LVL116:
 1234              	.LBE57:
 1235              	.LBE56:
  76:src/c_thread.cpp ****     if (handle->is_finished())
 1236              		.loc 1 76 5
 1237 05a8 93074000 		li	a5,4
 1238 05ac 6304F704 		beq	a4,a5,.L62
  75:src/c_thread.cpp **** void TCB::_thread_join(thread_t handle) {
 1239              		.loc 1 75 41
 1240 05b0 130101FF 		addi	sp,sp,-16
 1241              		.cfi_def_cfa_offset 16
 1242 05b4 23341100 		sd	ra,8(sp)
 1243 05b8 23308100 		sd	s0,0(sp)
 1244              		.cfi_offset 1, -8
 1245              		.cfi_offset 8, -16
 1246 05bc 13040101 		addi	s0,sp,16
 1247              		.cfi_def_cfa 8, 0
  78:src/c_thread.cpp ****     TCB::running->enjoin();
 1248              		.loc 1 78 5 is_stmt 1
  78:src/c_thread.cpp ****     TCB::running->enjoin();
 1249              		.loc 1 78 25 is_stmt 0
 1250 05c0 97050000 		ld	a1,.LANCHOR0
 1250      83B50500 
GAS LISTING /tmp/ccUTdGa0.s 			page 35


 1251              	.LVL117:
 1252              	.LBB58:
 1253              	.LBB59:
  69:src/../h/c_thread.hpp **** 
 1254              		.loc 2 69 21 is_stmt 1
  69:src/../h/c_thread.hpp **** 
 1255              		.loc 2 69 34 is_stmt 0
 1256 05c8 93073000 		li	a5,3
 1257 05cc 23A8F504 		sw	a5,80(a1)
 1258              	.LVL118:
 1259              	.LBE59:
 1260              	.LBE58:
  79:src/c_thread.cpp ****     handle->joiner.put(TCB::running);
 1261              		.loc 1 79 5 is_stmt 1
  79:src/c_thread.cpp ****     handle->joiner.put(TCB::running);
 1262              		.loc 1 79 23 is_stmt 0
 1263 05d0 13058506 		addi	a0,a0,104
 1264              	.LVL119:
 1265 05d4 97000000 		call	_ZN3stm14CircularBufferIP3TCBE3putES2_
 1265      E7800000 
 1266              	.LVL120:
  80:src/c_thread.cpp ****     TCB::_thread_dispatch();
 1267              		.loc 1 80 5 is_stmt 1
  80:src/c_thread.cpp ****     TCB::_thread_dispatch();
 1268              		.loc 1 80 26 is_stmt 0
 1269 05dc 97000000 		call	_ZN3TCB16_thread_dispatchEv
 1269      E7800000 
 1270              	.LVL121:
  81:src/c_thread.cpp **** }
 1271              		.loc 1 81 1
 1272 05e4 83308100 		ld	ra,8(sp)
 1273              		.cfi_restore 1
 1274 05e8 03340100 		ld	s0,0(sp)
 1275              		.cfi_restore 8
 1276              		.cfi_def_cfa 2, 16
 1277 05ec 13010101 		addi	sp,sp,16
 1278              		.cfi_def_cfa_offset 0
 1279 05f0 67800000 		jr	ra
 1280              	.LVL122:
 1281              	.L62:
 1282 05f4 67800000 		ret
 1283              		.cfi_endproc
 1284              	.LFE74:
 1286              		.align	2
 1287              		.globl	_ZN3TCB17_thread_join_timeEPS_m
 1289              	_ZN3TCB17_thread_join_timeEPS_m:
 1290              	.LFB75:
  83:src/c_thread.cpp **** void TCB::_thread_join_time(thread_t handle, time_t time) {
 1291              		.loc 1 83 59 is_stmt 1
 1292              		.cfi_startproc
 1293              	.LVL123:
  84:src/c_thread.cpp ****     if (handle->is_finished())
 1294              		.loc 1 84 5
 1295              	.LBB60:
 1296              	.LBB61:
  61:src/../h/c_thread.hpp **** 
 1297              		.loc 2 61 32
GAS LISTING /tmp/ccUTdGa0.s 			page 36


  61:src/../h/c_thread.hpp **** 
 1298              		.loc 2 61 45 is_stmt 0
 1299 05f8 03270505 		lw	a4,80(a0)
 1300              	.LVL124:
 1301              	.LBE61:
 1302              	.LBE60:
  84:src/c_thread.cpp ****     if (handle->is_finished())
 1303              		.loc 1 84 5
 1304 05fc 93074000 		li	a5,4
 1305 0600 6308F706 		beq	a4,a5,.L68
  83:src/c_thread.cpp **** void TCB::_thread_join_time(thread_t handle, time_t time) {
 1306              		.loc 1 83 59
 1307 0604 130101FE 		addi	sp,sp,-32
 1308              		.cfi_def_cfa_offset 32
 1309 0608 233C1100 		sd	ra,24(sp)
 1310 060c 23388100 		sd	s0,16(sp)
 1311 0610 23349100 		sd	s1,8(sp)
 1312 0614 23302101 		sd	s2,0(sp)
 1313              		.cfi_offset 1, -8
 1314              		.cfi_offset 8, -16
 1315              		.cfi_offset 9, -24
 1316              		.cfi_offset 18, -32
 1317 0618 13040102 		addi	s0,sp,32
 1318              		.cfi_def_cfa 8, 0
 1319 061c 93840500 		mv	s1,a1
  86:src/c_thread.cpp ****     TCB::running->enjoin();
 1320              		.loc 1 86 5 is_stmt 1
  86:src/c_thread.cpp ****     TCB::running->enjoin();
 1321              		.loc 1 86 25 is_stmt 0
 1322 0620 17090000 		lla	s2,.LANCHOR0
 1322      13090900 
 1323 0628 83350900 		ld	a1,0(s2)
 1324              	.LVL125:
 1325              	.LBB62:
 1326              	.LBB63:
  69:src/../h/c_thread.hpp **** 
 1327              		.loc 2 69 21 is_stmt 1
  69:src/../h/c_thread.hpp **** 
 1328              		.loc 2 69 34 is_stmt 0
 1329 062c 93073000 		li	a5,3
 1330 0630 23A8F504 		sw	a5,80(a1)
 1331              	.LVL126:
 1332              	.LBE63:
 1333              	.LBE62:
  87:src/c_thread.cpp ****     handle->joiner.put(TCB::running);
 1334              		.loc 1 87 5 is_stmt 1
  87:src/c_thread.cpp ****     handle->joiner.put(TCB::running);
 1335              		.loc 1 87 23 is_stmt 0
 1336 0634 13058506 		addi	a0,a0,104
 1337              	.LVL127:
 1338 0638 97000000 		call	_ZN3stm14CircularBufferIP3TCBE3putES2_
 1338      E7800000 
 1339              	.LVL128:
  88:src/c_thread.cpp ****     Cradle::insert(TCB::running, time);
 1340              		.loc 1 88 5 is_stmt 1
  88:src/c_thread.cpp ****     Cradle::insert(TCB::running, time);
 1341              		.loc 1 88 19 is_stmt 0
GAS LISTING /tmp/ccUTdGa0.s 			page 37


 1342 0640 93850400 		mv	a1,s1
 1343 0644 03350900 		ld	a0,0(s2)
 1344 0648 97000000 		call	_ZN6Cradle6insertEP3TCBm@plt
 1344      E7800000 
 1345              	.LVL129:
  89:src/c_thread.cpp ****     TCB::_thread_dispatch();
 1346              		.loc 1 89 5 is_stmt 1
  89:src/c_thread.cpp ****     TCB::_thread_dispatch();
 1347              		.loc 1 89 26 is_stmt 0
 1348 0650 97000000 		call	_ZN3TCB16_thread_dispatchEv
 1348      E7800000 
 1349              	.LVL130:
  90:src/c_thread.cpp **** }
 1350              		.loc 1 90 1
 1351 0658 83308101 		ld	ra,24(sp)
 1352              		.cfi_restore 1
 1353 065c 03340101 		ld	s0,16(sp)
 1354              		.cfi_restore 8
 1355              		.cfi_def_cfa 2, 32
 1356 0660 83348100 		ld	s1,8(sp)
 1357              		.cfi_restore 9
 1358              	.LVL131:
 1359 0664 03390100 		ld	s2,0(sp)
 1360              		.cfi_restore 18
 1361 0668 13010102 		addi	sp,sp,32
 1362              		.cfi_def_cfa_offset 0
 1363 066c 67800000 		jr	ra
 1364              	.LVL132:
 1365              	.L68:
 1366 0670 67800000 		ret
 1367              		.cfi_endproc
 1368              	.LFE75:
 1370              		.globl	_ZN3TCB13timer_counterE
 1371              		.globl	_ZN3TCB7runningE
 1372              		.globl	_ZN3TCB2IDE
 1373              		.bss
 1374              		.align	3
 1375              		.set	.LANCHOR0,. + 0
 1378              	_ZN3TCB7runningE:
 1379 0000 00000000 		.zero	8
 1379      00000000 
 1382              	_ZN3TCB2IDE:
 1383 0008 00000000 		.zero	4
 1384 000c 00000000 		.zero	4
 1387              	_ZN3TCB13timer_counterE:
 1388 0010 00000000 		.zero	8
 1388      00000000 
 1389              		.text
 1390              	.Letext0:
 1391              		.file 5 "src/../h/../lib/hw.h"
 1392              		.file 6 "src/../h/syscall_c.hpp"
 1393              		.file 7 "src/../h/c_memory.hpp"
 1394              		.file 8 "src/../h/scheduler.hpp"
 1395              		.file 9 "src/../h/string.hpp"
 1396              		.file 10 "src/../h/iostream.hpp"
 1397              		.file 11 "src/../h/c_sleep.hpp"
 7236              		.align	3
GAS LISTING /tmp/ccUTdGa0.s 			page 38


 7239              	DW.ref.__gxx_personality_v0:
 7240 0000 00000000 		.dword	__gxx_personality_v0
 7240      00000000 
 7241              		.ident	"GCC: (Ubuntu 9.4.0-1ubuntu1~20.04) 9.4.0"
 7242              		.section	.note.GNU-stack,"",@progbits
GAS LISTING /tmp/ccUTdGa0.s 			page 39


DEFINED SYMBOLS
                            *ABS*:0000000000000000 c_thread.cpp
     /tmp/ccUTdGa0.s:9      .text:0000000000000000 _ZN3TCB12thread_startEv
     /tmp/ccUTdGa0.s:13     .text:0000000000000000 .L0 
     /tmp/ccUTdGa0.s:14     .text:0000000000000000 .L0 
     /tmp/ccUTdGa0.s:15     .text:0000000000000004 .L0 
     /tmp/ccUTdGa0.s:18     .text:000000000000000c .L0 
     /tmp/ccUTdGa0.s:19     .text:000000000000000c .L0 
     /tmp/ccUTdGa0.s:21     .text:0000000000000010 .L0 
     /tmp/ccUTdGa0.s:23     .text:0000000000000010 .L0 
     /tmp/ccUTdGa0.s:24     .text:0000000000000010 .L0 
     /tmp/ccUTdGa0.s:27     .text:0000000000000018 .L0 
     /tmp/ccUTdGa0.s:28     .text:0000000000000018 .L0 
     /tmp/ccUTdGa0.s:31     .text:0000000000000024 .L0 
     /tmp/ccUTdGa0.s:35     .text:000000000000002c .L0 
     /tmp/ccUTdGa0.s:36     .text:000000000000002c .L0 
     /tmp/ccUTdGa0.s:39     .text:0000000000000034 .L0 
     /tmp/ccUTdGa0.s:40     .text:0000000000000038 .L0 
     /tmp/ccUTdGa0.s:42     .text:000000000000003c .L0 
     /tmp/ccUTdGa0.s:43     .text:000000000000003c .L0 
     /tmp/ccUTdGa0.s:45     .text:0000000000000040 .L0 
     /tmp/ccUTdGa0.s:47     .text:0000000000000044 .L0 
     /tmp/ccUTdGa0.s:53     .text:0000000000000044 _ZN3TCB5_killEPS_
     /tmp/ccUTdGa0.s:56     .text:0000000000000044 .L0 
     /tmp/ccUTdGa0.s:58     .text:0000000000000044 .L0 
     /tmp/ccUTdGa0.s:59     .text:0000000000000048 .L0 
     /tmp/ccUTdGa0.s:61     .text:000000000000004c .L0 
     /tmp/ccUTdGa0.s:63     .text:0000000000000050 .L0 
     /tmp/ccUTdGa0.s:65     .text:0000000000000050 .L0 
     /tmp/ccUTdGa0.s:71     .text:0000000000000054 .L0 
     /tmp/ccUTdGa0.s:72     .text:0000000000000054 .L0 
     /tmp/ccUTdGa0.s:73     .text:0000000000000054 .L0 
     /tmp/ccUTdGa0.s:78     .text:0000000000000058 .L0 
     /tmp/ccUTdGa0.s:81     .text:0000000000000060 .L0 
     /tmp/ccUTdGa0.s:82     .text:0000000000000060 .L0 
     /tmp/ccUTdGa0.s:84     .text:0000000000000064 .L0 
     /tmp/ccUTdGa0.s:86     .text:000000000000006c .L0 
     /tmp/ccUTdGa0.s:91     .text:0000000000000070 .L0 
     /tmp/ccUTdGa0.s:92     .text:0000000000000070 .L0 
     /tmp/ccUTdGa0.s:93     .text:0000000000000070 .L0 
     /tmp/ccUTdGa0.s:99     .text:0000000000000078 .L0 
     /tmp/ccUTdGa0.s:100    .text:0000000000000078 .L0 
     /tmp/ccUTdGa0.s:104    .text:000000000000007c .L0 
     /tmp/ccUTdGa0.s:105    .text:0000000000000080 .L0 
     /tmp/ccUTdGa0.s:106    .text:0000000000000080 .L0 
     /tmp/ccUTdGa0.s:107    .text:0000000000000080 .L0 
     /tmp/ccUTdGa0.s:109    .text:0000000000000084 .L0 
     /tmp/ccUTdGa0.s:113    .text:0000000000000088 .L0 
     /tmp/ccUTdGa0.s:115    .text:0000000000000088 .L0 
     /tmp/ccUTdGa0.s:121    .text:0000000000000090 .L0 
     /tmp/ccUTdGa0.s:127    .text:0000000000000098 .L0 
     /tmp/ccUTdGa0.s:130    .text:00000000000000a0 .L0 
     /tmp/ccUTdGa0.s:137    .text._ZN3stm14CircularBufferIP3TCBE4initEv:0000000000000000 _ZN3stm14CircularBufferIP3TCBE4initEv
     /tmp/ccUTdGa0.s:141    .text._ZN3stm14CircularBufferIP3TCBE4initEv:0000000000000000 .L0 
     /tmp/ccUTdGa0.s:143    .text._ZN3stm14CircularBufferIP3TCBE4initEv:0000000000000000 .L0 
     /tmp/ccUTdGa0.s:144    .text._ZN3stm14CircularBufferIP3TCBE4initEv:0000000000000004 .L0 
     /tmp/ccUTdGa0.s:148    .text._ZN3stm14CircularBufferIP3TCBE4initEv:0000000000000010 .L0 
GAS LISTING /tmp/ccUTdGa0.s 			page 40


     /tmp/ccUTdGa0.s:149    .text._ZN3stm14CircularBufferIP3TCBE4initEv:0000000000000010 .L0 
     /tmp/ccUTdGa0.s:150    .text._ZN3stm14CircularBufferIP3TCBE4initEv:0000000000000010 .L0 
     /tmp/ccUTdGa0.s:152    .text._ZN3stm14CircularBufferIP3TCBE4initEv:0000000000000014 .L0 
     /tmp/ccUTdGa0.s:155    .text._ZN3stm14CircularBufferIP3TCBE4initEv:0000000000000018 .L0 
     /tmp/ccUTdGa0.s:157    .text._ZN3stm14CircularBufferIP3TCBE4initEv:000000000000001c .L0 
     /tmp/ccUTdGa0.s:159    .text._ZN3stm14CircularBufferIP3TCBE4initEv:0000000000000020 .L0 
     /tmp/ccUTdGa0.s:161    .text._ZN3stm14CircularBufferIP3TCBE4initEv:0000000000000024 .L0 
     /tmp/ccUTdGa0.s:164    .text._ZN3stm14CircularBufferIP3TCBE4initEv:000000000000002c .L0 
     /tmp/ccUTdGa0.s:169    .text._ZN3stm14CircularBufferIP3TCBE4initEv:0000000000000038 .L0 
     /tmp/ccUTdGa0.s:171    .text._ZN3stm14CircularBufferIP3TCBE4initEv:000000000000003c .L0 
     /tmp/ccUTdGa0.s:172    .text._ZN3stm14CircularBufferIP3TCBE4initEv:0000000000000040 .L0 
     /tmp/ccUTdGa0.s:174    .text._ZN3stm14CircularBufferIP3TCBE4initEv:0000000000000044 .L0 
     /tmp/ccUTdGa0.s:175    .text._ZN3stm14CircularBufferIP3TCBE4initEv:0000000000000044 .L0 
     /tmp/ccUTdGa0.s:177    .text._ZN3stm14CircularBufferIP3TCBE4initEv:0000000000000048 .L0 
     /tmp/ccUTdGa0.s:180    .text._ZN3stm14CircularBufferIP3TCBE4initEv:000000000000004c .L0 
     /tmp/ccUTdGa0.s:182    .text._ZN3stm14CircularBufferIP3TCBE4initEv:0000000000000050 .L0 
     /tmp/ccUTdGa0.s:189    .text:00000000000000a0 _ZN3TCBC2EPFvPvES0_S0_7Context
     /tmp/ccUTdGa0.s:192    .text:00000000000000a0 .L0 
     /tmp/ccUTdGa0.s:194    .text:00000000000000a0 .L0 
     /tmp/ccUTdGa0.s:195    .text:00000000000000a4 .L0 
     /tmp/ccUTdGa0.s:200    .text:00000000000000b4 .L0 
     /tmp/ccUTdGa0.s:201    .text:00000000000000b4 .L0 
     /tmp/ccUTdGa0.s:202    .text:00000000000000b4 .L0 
     /tmp/ccUTdGa0.s:203    .text:00000000000000b4 .L0 
     /tmp/ccUTdGa0.s:205    .text:00000000000000b8 .L0 
     /tmp/ccUTdGa0.s:209    .text:00000000000000bc .L0 
     /tmp/ccUTdGa0.s:215    .text:00000000000000d0 .L0 
     /tmp/ccUTdGa0.s:242    .text:000000000000012c .L0 
     /tmp/ccUTdGa0.s:243    .text:000000000000012c .L0 
     /tmp/ccUTdGa0.s:247    .text:0000000000000138 .L0 
     /tmp/ccUTdGa0.s:248    .text:0000000000000138 .L0 
     /tmp/ccUTdGa0.s:252    .text:0000000000000140 .L0 
     /tmp/ccUTdGa0.s:253    .text:0000000000000144 .L0 
     /tmp/ccUTdGa0.s:255    .text:0000000000000148 .L0 
     /tmp/ccUTdGa0.s:256    .text:0000000000000148 .L0 
     /tmp/ccUTdGa0.s:258    .text:000000000000014c .L0 
     /tmp/ccUTdGa0.s:261    .text:0000000000000150 .L0 
     /tmp/ccUTdGa0.s:263    .text:0000000000000154 .L0 
     /tmp/ccUTdGa0.s:265    .text:0000000000000158 .L0 
     /tmp/ccUTdGa0.s:189    .text:00000000000000a0 _ZN3TCBC1EPFvPvES0_S0_7Context
     /tmp/ccUTdGa0.s:273    .text:0000000000000158 _ZN3TCB14_thread_createEPPS_PFvPvES2_Pc
     /tmp/ccUTdGa0.s:276    .text:0000000000000158 .L0 
     /tmp/ccUTdGa0.s:7239   .data.rel.local.DW.ref.__gxx_personality_v0:0000000000000000 DW.ref.__gxx_personality_v0
     /tmp/ccUTdGa0.s:280    .text:0000000000000158 .L0 
     /tmp/ccUTdGa0.s:281    .text:000000000000015c .L0 
     /tmp/ccUTdGa0.s:289    .text:0000000000000178 .L0 
     /tmp/ccUTdGa0.s:290    .text:0000000000000178 .L0 
     /tmp/ccUTdGa0.s:291    .text:0000000000000178 .L0 
     /tmp/ccUTdGa0.s:292    .text:0000000000000178 .L0 
     /tmp/ccUTdGa0.s:293    .text:0000000000000178 .L0 
     /tmp/ccUTdGa0.s:294    .text:0000000000000178 .L0 
     /tmp/ccUTdGa0.s:295    .text:0000000000000178 .L0 
     /tmp/ccUTdGa0.s:297    .text:000000000000017c .L0 
     /tmp/ccUTdGa0.s:303    .text:000000000000018c .L0 
     /tmp/ccUTdGa0.s:304    .text:000000000000018c .L0 
     /tmp/ccUTdGa0.s:309    .text:00000000000001a0 .L0 
     /tmp/ccUTdGa0.s:312    .text:00000000000001a8 .L0 
GAS LISTING /tmp/ccUTdGa0.s 			page 41


     /tmp/ccUTdGa0.s:314    .text:00000000000001ac .L0 
     /tmp/ccUTdGa0.s:316    .text:00000000000001b0 .L0 
     /tmp/ccUTdGa0.s:340    .text:00000000000001f8 .L0 
     /tmp/ccUTdGa0.s:342    .text:00000000000001fc .L0 
     /tmp/ccUTdGa0.s:344    .text:0000000000000200 .L0 
     /tmp/ccUTdGa0.s:345    .text:0000000000000200 .L0 
     /tmp/ccUTdGa0.s:351    .text:000000000000020c .L0 
     /tmp/ccUTdGa0.s:352    .text:000000000000020c .L0 
     /tmp/ccUTdGa0.s:354    .text:0000000000000210 .L0 
     /tmp/ccUTdGa0.s:356    .text:0000000000000214 .L0 
     /tmp/ccUTdGa0.s:357    .text:0000000000000218 .L0 
     /tmp/ccUTdGa0.s:358    .text:0000000000000218 .L0 
     /tmp/ccUTdGa0.s:360    .text:000000000000021c .L0 
     /tmp/ccUTdGa0.s:361    .text:000000000000021c .L0 
     /tmp/ccUTdGa0.s:363    .text:0000000000000220 .L0 
     /tmp/ccUTdGa0.s:365    .text:0000000000000224 .L0 
     /tmp/ccUTdGa0.s:368    .text:0000000000000228 .L0 
     /tmp/ccUTdGa0.s:371    .text:000000000000022c .L0 
     /tmp/ccUTdGa0.s:374    .text:0000000000000230 .L0 
     /tmp/ccUTdGa0.s:377    .text:0000000000000234 .L0 
     /tmp/ccUTdGa0.s:381    .text:0000000000000238 .L0 
     /tmp/ccUTdGa0.s:383    .text:0000000000000238 .L0 
     /tmp/ccUTdGa0.s:384    .text:0000000000000238 .L0 
     /tmp/ccUTdGa0.s:390    .text:0000000000000248 .L0 
     /tmp/ccUTdGa0.s:397    .text:0000000000000260 .L0 
     /tmp/ccUTdGa0.s:423    .text:0000000000000260 _ZN3TCBC2ERS_
     /tmp/ccUTdGa0.s:426    .text:0000000000000260 .L0 
     /tmp/ccUTdGa0.s:428    .text:0000000000000260 .L0 
     /tmp/ccUTdGa0.s:429    .text:0000000000000264 .L0 
     /tmp/ccUTdGa0.s:434    .text:0000000000000274 .L0 
     /tmp/ccUTdGa0.s:435    .text:0000000000000274 .L0 
     /tmp/ccUTdGa0.s:436    .text:0000000000000274 .L0 
     /tmp/ccUTdGa0.s:437    .text:0000000000000274 .L0 
     /tmp/ccUTdGa0.s:439    .text:0000000000000278 .L0 
     /tmp/ccUTdGa0.s:444    .text:0000000000000280 .L0 
     /tmp/ccUTdGa0.s:449    .text:0000000000000294 .L0 
     /tmp/ccUTdGa0.s:451    .text:0000000000000298 .L0 
     /tmp/ccUTdGa0.s:453    .text:000000000000029c .L0 
     /tmp/ccUTdGa0.s:455    .text:00000000000002a0 .L0 
     /tmp/ccUTdGa0.s:457    .text:00000000000002a4 .L0 
     /tmp/ccUTdGa0.s:459    .text:00000000000002a8 .L0 
     /tmp/ccUTdGa0.s:464    .text:00000000000002b4 .L0 
     /tmp/ccUTdGa0.s:484    .text:0000000000000300 .L0 
     /tmp/ccUTdGa0.s:485    .text:0000000000000300 .L0 
     /tmp/ccUTdGa0.s:489    .text:000000000000030c .L0 
     /tmp/ccUTdGa0.s:490    .text:000000000000030c .L0 
     /tmp/ccUTdGa0.s:495    .text:0000000000000318 .L0 
     /tmp/ccUTdGa0.s:496    .text:000000000000031c .L0 
     /tmp/ccUTdGa0.s:498    .text:0000000000000320 .L0 
     /tmp/ccUTdGa0.s:499    .text:0000000000000320 .L0 
     /tmp/ccUTdGa0.s:501    .text:0000000000000324 .L0 
     /tmp/ccUTdGa0.s:504    .text:0000000000000328 .L0 
     /tmp/ccUTdGa0.s:507    .text:000000000000032c .L0 
     /tmp/ccUTdGa0.s:509    .text:0000000000000330 .L0 
     /tmp/ccUTdGa0.s:423    .text:0000000000000260 _ZN3TCBC1ERS_
     /tmp/ccUTdGa0.s:517    .text:0000000000000330 _ZN3TCB5_forkEv
     /tmp/ccUTdGa0.s:520    .text:0000000000000330 .L0 
GAS LISTING /tmp/ccUTdGa0.s 			page 42


     /tmp/ccUTdGa0.s:523    .text:0000000000000330 .L0 
     /tmp/ccUTdGa0.s:524    .text:0000000000000334 .L0 
     /tmp/ccUTdGa0.s:529    .text:0000000000000344 .L0 
     /tmp/ccUTdGa0.s:530    .text:0000000000000344 .L0 
     /tmp/ccUTdGa0.s:531    .text:0000000000000344 .L0 
     /tmp/ccUTdGa0.s:532    .text:0000000000000344 .L0 
     /tmp/ccUTdGa0.s:534    .text:0000000000000348 .L0 
     /tmp/ccUTdGa0.s:536    .text:0000000000000348 .L0 
     /tmp/ccUTdGa0.s:537    .text:0000000000000348 .L0 
     /tmp/ccUTdGa0.s:540    .text:0000000000000350 .L0 
     /tmp/ccUTdGa0.s:541    .text:0000000000000350 .L0 
     /tmp/ccUTdGa0.s:553    .text:000000000000036c .L0 
     /tmp/ccUTdGa0.s:554    .text:000000000000036c .L0 
     /tmp/ccUTdGa0.s:556    .text:0000000000000370 .L0 
     /tmp/ccUTdGa0.s:560    .text:0000000000000374 .L0 
     /tmp/ccUTdGa0.s:561    .text:0000000000000374 .L0 
     /tmp/ccUTdGa0.s:564    .text:000000000000037c .L0 
     /tmp/ccUTdGa0.s:568    .text:0000000000000380 .L0 
     /tmp/ccUTdGa0.s:569    .text:0000000000000380 .L0 
     /tmp/ccUTdGa0.s:572    .text:000000000000038c .L0 
     /tmp/ccUTdGa0.s:575    .text:0000000000000394 .L0 
     /tmp/ccUTdGa0.s:577    .text:0000000000000398 .L0 
     /tmp/ccUTdGa0.s:580    .text:000000000000039c .L0 
     /tmp/ccUTdGa0.s:581    .text:00000000000003a0 .L0 
     /tmp/ccUTdGa0.s:582    .text:00000000000003a0 .L0 
     /tmp/ccUTdGa0.s:584    .text:00000000000003a4 .L0 
     /tmp/ccUTdGa0.s:585    .text:00000000000003a4 .L0 
     /tmp/ccUTdGa0.s:587    .text:00000000000003a8 .L0 
     /tmp/ccUTdGa0.s:590    .text:00000000000003ac .L0 
     /tmp/ccUTdGa0.s:593    .text:00000000000003b0 .L0 
     /tmp/ccUTdGa0.s:597    .text:00000000000003b4 .L0 
     /tmp/ccUTdGa0.s:604    .text:00000000000003b4 .L0 
     /tmp/ccUTdGa0.s:605    .text:00000000000003b4 .L0 
     /tmp/ccUTdGa0.s:606    .text:00000000000003b4 .L0 
  src/../h/riscv.hpp:189    .text:00000000000003b4 .L0 
     /tmp/ccUTdGa0.s:614    .text:00000000000003bc .L0 
     /tmp/ccUTdGa0.s:615    .text:00000000000003bc .L0 
     /tmp/ccUTdGa0.s:620    .text:00000000000003c0 .L0 
     /tmp/ccUTdGa0.s:621    .text:00000000000003c0 .L0 
     /tmp/ccUTdGa0.s:624    .text:00000000000003cc .L0 
     /tmp/ccUTdGa0.s:625    .text:00000000000003cc .L0 
     /tmp/ccUTdGa0.s:627    .text:00000000000003d0 .L0 
     /tmp/ccUTdGa0.s:630    .text:00000000000003d4 .L0 
     /tmp/ccUTdGa0.s:632    .text:00000000000003d8 .L0 
     /tmp/ccUTdGa0.s:634    .text:00000000000003dc .L0 
     /tmp/ccUTdGa0.s:636    .text:00000000000003e0 .L0 
     /tmp/ccUTdGa0.s:637    .text:00000000000003e0 .L0 
     /tmp/ccUTdGa0.s:642    .text:00000000000003f0 .L0 
     /tmp/ccUTdGa0.s:643    .text:00000000000003f0 .L0 
     /tmp/ccUTdGa0.s:650    .text:00000000000003fc .L0 
     /tmp/ccUTdGa0.s:651    .text:00000000000003fc .L0 
     /tmp/ccUTdGa0.s:658    .text:0000000000000408 .L0 
     /tmp/ccUTdGa0.s:665    .text:0000000000000420 .L0 
     /tmp/ccUTdGa0.s:691    .text._ZN3stm14CircularBufferIP3TCBE3getEv:0000000000000000 _ZN3stm14CircularBufferIP3TCBE3getEv
     /tmp/ccUTdGa0.s:694    .text._ZN3stm14CircularBufferIP3TCBE3getEv:0000000000000000 .L0 
     /tmp/ccUTdGa0.s:696    .text._ZN3stm14CircularBufferIP3TCBE3getEv:0000000000000000 .L0 
     /tmp/ccUTdGa0.s:697    .text._ZN3stm14CircularBufferIP3TCBE3getEv:0000000000000004 .L0 
GAS LISTING /tmp/ccUTdGa0.s 			page 43


     /tmp/ccUTdGa0.s:699    .text._ZN3stm14CircularBufferIP3TCBE3getEv:0000000000000008 .L0 
     /tmp/ccUTdGa0.s:701    .text._ZN3stm14CircularBufferIP3TCBE3getEv:000000000000000c .L0 
     /tmp/ccUTdGa0.s:704    .text._ZN3stm14CircularBufferIP3TCBE3getEv:0000000000000010 .L0 
     /tmp/ccUTdGa0.s:706    .text._ZN3stm14CircularBufferIP3TCBE3getEv:0000000000000014 .L0 
     /tmp/ccUTdGa0.s:708    .text._ZN3stm14CircularBufferIP3TCBE3getEv:0000000000000018 .L0 
     /tmp/ccUTdGa0.s:711    .text._ZN3stm14CircularBufferIP3TCBE3getEv:0000000000000020 .L0 
     /tmp/ccUTdGa0.s:714    .text._ZN3stm14CircularBufferIP3TCBE3getEv:0000000000000024 .L0 
     /tmp/ccUTdGa0.s:716    .text._ZN3stm14CircularBufferIP3TCBE3getEv:0000000000000028 .L0 
     /tmp/ccUTdGa0.s:718    .text._ZN3stm14CircularBufferIP3TCBE3getEv:000000000000002c .L0 
     /tmp/ccUTdGa0.s:720    .text._ZN3stm14CircularBufferIP3TCBE3getEv:0000000000000030 .L0 
     /tmp/ccUTdGa0.s:722    .text._ZN3stm14CircularBufferIP3TCBE3getEv:0000000000000034 .L0 
     /tmp/ccUTdGa0.s:724    .text._ZN3stm14CircularBufferIP3TCBE3getEv:0000000000000038 .L0 
     /tmp/ccUTdGa0.s:727    .text._ZN3stm14CircularBufferIP3TCBE3getEv:0000000000000040 .L0 
     /tmp/ccUTdGa0.s:728    .text._ZN3stm14CircularBufferIP3TCBE3getEv:0000000000000044 .L0 
     /tmp/ccUTdGa0.s:729    .text._ZN3stm14CircularBufferIP3TCBE3getEv:0000000000000044 .L0 
     /tmp/ccUTdGa0.s:731    .text._ZN3stm14CircularBufferIP3TCBE3getEv:0000000000000048 .L0 
     /tmp/ccUTdGa0.s:733    .text._ZN3stm14CircularBufferIP3TCBE3getEv:000000000000004c .L0 
     /tmp/ccUTdGa0.s:740    .text._ZN3stm14CircularBufferIP3TCBE7destroyEv:0000000000000000 _ZN3stm14CircularBufferIP3TCBE7destroyEv
     /tmp/ccUTdGa0.s:743    .text._ZN3stm14CircularBufferIP3TCBE7destroyEv:0000000000000000 .L0 
     /tmp/ccUTdGa0.s:745    .text._ZN3stm14CircularBufferIP3TCBE7destroyEv:0000000000000000 .L0 
     /tmp/ccUTdGa0.s:746    .text._ZN3stm14CircularBufferIP3TCBE7destroyEv:0000000000000004 .L0 
     /tmp/ccUTdGa0.s:749    .text._ZN3stm14CircularBufferIP3TCBE7destroyEv:000000000000000c .L0 
     /tmp/ccUTdGa0.s:750    .text._ZN3stm14CircularBufferIP3TCBE7destroyEv:000000000000000c .L0 
     /tmp/ccUTdGa0.s:752    .text._ZN3stm14CircularBufferIP3TCBE7destroyEv:0000000000000010 .L0 
     /tmp/ccUTdGa0.s:754    .text._ZN3stm14CircularBufferIP3TCBE7destroyEv:0000000000000010 .L0 
     /tmp/ccUTdGa0.s:759    .text._ZN3stm14CircularBufferIP3TCBE7destroyEv:000000000000001c .L0 
     /tmp/ccUTdGa0.s:760    .text._ZN3stm14CircularBufferIP3TCBE7destroyEv:0000000000000020 .L0 
     /tmp/ccUTdGa0.s:762    .text._ZN3stm14CircularBufferIP3TCBE7destroyEv:0000000000000024 .L0 
     /tmp/ccUTdGa0.s:763    .text._ZN3stm14CircularBufferIP3TCBE7destroyEv:0000000000000024 .L0 
     /tmp/ccUTdGa0.s:765    .text._ZN3stm14CircularBufferIP3TCBE7destroyEv:0000000000000028 .L0 
     /tmp/ccUTdGa0.s:767    .text._ZN3stm14CircularBufferIP3TCBE7destroyEv:000000000000002c .L0 
     /tmp/ccUTdGa0.s:774    .text:0000000000000420 _ZN3TCB14destroy_threadEPS_
     /tmp/ccUTdGa0.s:777    .text:0000000000000420 .L0 
     /tmp/ccUTdGa0.s:779    .text:0000000000000420 .L0 
     /tmp/ccUTdGa0.s:780    .text:0000000000000424 .L0 
     /tmp/ccUTdGa0.s:784    .text:0000000000000430 .L0 
     /tmp/ccUTdGa0.s:785    .text:0000000000000430 .L0 
     /tmp/ccUTdGa0.s:786    .text:0000000000000430 .L0 
     /tmp/ccUTdGa0.s:788    .text:0000000000000434 .L0 
     /tmp/ccUTdGa0.s:793    .text:0000000000000438 .L0 
     /tmp/ccUTdGa0.s:796    .text:0000000000000438 .L0 
     /tmp/ccUTdGa0.s:797    .text:0000000000000438 .L0 
     /tmp/ccUTdGa0.s:802    .text:000000000000043c .L0 
     /tmp/ccUTdGa0.s:805    .text:0000000000000440 .L0 
     /tmp/ccUTdGa0.s:806    .text:0000000000000440 .L0 
     /tmp/ccUTdGa0.s:812    .text:000000000000044c .L0 
     /tmp/ccUTdGa0.s:813    .text:000000000000044c .L0 
     /tmp/ccUTdGa0.s:814    .text:000000000000044c .L0 
     /tmp/ccUTdGa0.s:819    .text:0000000000000450 .L0 
     /tmp/ccUTdGa0.s:825    .text:0000000000000458 .L0 
     /tmp/ccUTdGa0.s:826    .text:0000000000000458 .L0 
     /tmp/ccUTdGa0.s:827    .text:0000000000000458 .L0 
     /tmp/ccUTdGa0.s:832    .text:000000000000045c .L0 
     /tmp/ccUTdGa0.s:833    .text:000000000000045c .L0 
     /tmp/ccUTdGa0.s:839    .text:0000000000000468 .L0 
     /tmp/ccUTdGa0.s:840    .text:0000000000000468 .L0 
     /tmp/ccUTdGa0.s:844    .text:0000000000000474 .L0 
GAS LISTING /tmp/ccUTdGa0.s 			page 44


     /tmp/ccUTdGa0.s:845    .text:0000000000000474 .L0 
     /tmp/ccUTdGa0.s:847    .text:000000000000047c .L0 
     /tmp/ccUTdGa0.s:849    .text:0000000000000480 .L0 
     /tmp/ccUTdGa0.s:850    .text:0000000000000480 .L0 
     /tmp/ccUTdGa0.s:852    .text:0000000000000484 .L0 
     /tmp/ccUTdGa0.s:855    .text:0000000000000488 .L0 
     /tmp/ccUTdGa0.s:857    .text:000000000000048c .L0 
     /tmp/ccUTdGa0.s:863    .text:000000000000048c _ZN3TCB16_thread_dispatchEv
     /tmp/ccUTdGa0.s:866    .text:000000000000048c .L0 
     /tmp/ccUTdGa0.s:867    .text:000000000000048c .L0 
     /tmp/ccUTdGa0.s:868    .text:0000000000000490 .L0 
     /tmp/ccUTdGa0.s:872    .text:000000000000049c .L0 
     /tmp/ccUTdGa0.s:873    .text:000000000000049c .L0 
     /tmp/ccUTdGa0.s:874    .text:000000000000049c .L0 
     /tmp/ccUTdGa0.s:876    .text:00000000000004a0 .L0 
     /tmp/ccUTdGa0.s:878    .text:00000000000004a0 .L0 
     /tmp/ccUTdGa0.s:879    .text:00000000000004a0 .L0 
     /tmp/ccUTdGa0.s:884    .text:00000000000004a8 .L0 
     /tmp/ccUTdGa0.s:885    .text:00000000000004a8 .L0 
     /tmp/ccUTdGa0.s:886    .text:00000000000004a8 .L0 
     /tmp/ccUTdGa0.s:891    .text:00000000000004ac .L0 
     /tmp/ccUTdGa0.s:894    .text:00000000000004b0 .L0 
     /tmp/ccUTdGa0.s:895    .text:00000000000004b0 .L0 
     /tmp/ccUTdGa0.s:900    .text:00000000000004b8 .L0 
     /tmp/ccUTdGa0.s:901    .text:00000000000004b8 .L0 
     /tmp/ccUTdGa0.s:906    .text:00000000000004bc .L0 
     /tmp/ccUTdGa0.s:909    .text:00000000000004c4 .L0 
     /tmp/ccUTdGa0.s:910    .text:00000000000004c4 .L0 
     /tmp/ccUTdGa0.s:915    .text:00000000000004d4 .L0 
     /tmp/ccUTdGa0.s:919    .text:00000000000004e0 .L0 
     /tmp/ccUTdGa0.s:922    .text:00000000000004e4 .L0 
     /tmp/ccUTdGa0.s:923    .text:00000000000004e4 .L0 
     /tmp/ccUTdGa0.s:929    .text:00000000000004f4 .L0 
     /tmp/ccUTdGa0.s:930    .text:00000000000004f4 .L0 
     /tmp/ccUTdGa0.s:933    .text:00000000000004fc .L0 
     /tmp/ccUTdGa0.s:935    .text:0000000000000504 .L0 
     /tmp/ccUTdGa0.s:936    .text:0000000000000504 .L0 
     /tmp/ccUTdGa0.s:939    .text:000000000000050c .L0 
     /tmp/ccUTdGa0.s:942    .text:0000000000000510 .L0 
     /tmp/ccUTdGa0.s:943    .text:0000000000000514 .L0 
     /tmp/ccUTdGa0.s:944    .text:0000000000000514 .L0 
     /tmp/ccUTdGa0.s:946    .text:0000000000000518 .L0 
     /tmp/ccUTdGa0.s:947    .text:0000000000000518 .L0 
     /tmp/ccUTdGa0.s:949    .text:000000000000051c .L0 
     /tmp/ccUTdGa0.s:952    .text:0000000000000520 .L0 
     /tmp/ccUTdGa0.s:956    .text:0000000000000524 .L0 
     /tmp/ccUTdGa0.s:958    .text:0000000000000524 .L0 
     /tmp/ccUTdGa0.s:959    .text:0000000000000524 .L0 
     /tmp/ccUTdGa0.s:965    .text:000000000000053c .L0 
     /tmp/ccUTdGa0.s:966    .text:000000000000053c .L0 
     /tmp/ccUTdGa0.s:969    .text:0000000000000544 .L0 
     /tmp/ccUTdGa0.s:970    .text:0000000000000548 .L0 
     /tmp/ccUTdGa0.s:976    .text:0000000000000548 _ZN3TCB12_thread_exitEv
     /tmp/ccUTdGa0.s:979    .text:0000000000000548 .L0 
     /tmp/ccUTdGa0.s:980    .text:0000000000000548 .L0 
     /tmp/ccUTdGa0.s:981    .text:000000000000054c .L0 
     /tmp/ccUTdGa0.s:985    .text:0000000000000558 .L0 
GAS LISTING /tmp/ccUTdGa0.s 			page 45


     /tmp/ccUTdGa0.s:986    .text:0000000000000558 .L0 
     /tmp/ccUTdGa0.s:987    .text:0000000000000558 .L0 
     /tmp/ccUTdGa0.s:989    .text:000000000000055c .L0 
     /tmp/ccUTdGa0.s:991    .text:000000000000055c .L0 
     /tmp/ccUTdGa0.s:992    .text:000000000000055c .L0 
     /tmp/ccUTdGa0.s:998    .text:0000000000000568 .L0 
     /tmp/ccUTdGa0.s:999    .text:0000000000000568 .L0 
     /tmp/ccUTdGa0.s:1005   .text:0000000000000570 .L0 
     /tmp/ccUTdGa0.s:1006   .text:0000000000000570 .L0 
     /tmp/ccUTdGa0.s:1009   .text:0000000000000578 .L0 
     /tmp/ccUTdGa0.s:1010   .text:0000000000000578 .L0 
     /tmp/ccUTdGa0.s:1015   .text:0000000000000588 .L0 
     /tmp/ccUTdGa0.s:1016   .text:0000000000000588 .L0 
     /tmp/ccUTdGa0.s:1019   .text:0000000000000590 .L0 
     /tmp/ccUTdGa0.s:1020   .text:0000000000000594 .L0 
     /tmp/ccUTdGa0.s:1022   .text:0000000000000598 .L0 
     /tmp/ccUTdGa0.s:1023   .text:0000000000000598 .L0 
     /tmp/ccUTdGa0.s:1025   .text:000000000000059c .L0 
     /tmp/ccUTdGa0.s:1027   .text:00000000000005a0 .L0 
     /tmp/ccUTdGa0.s:1029   .text:00000000000005a4 .L0 
     /tmp/ccUTdGa0.s:1036   .text._ZN3stm14CircularBufferIP3TCBE6extendEv:0000000000000000 _ZN3stm14CircularBufferIP3TCBE6extendEv
     /tmp/ccUTdGa0.s:1039   .text._ZN3stm14CircularBufferIP3TCBE6extendEv:0000000000000000 .L0 
     /tmp/ccUTdGa0.s:1041   .text._ZN3stm14CircularBufferIP3TCBE6extendEv:0000000000000000 .L0 
     /tmp/ccUTdGa0.s:1042   .text._ZN3stm14CircularBufferIP3TCBE6extendEv:0000000000000004 .L0 
     /tmp/ccUTdGa0.s:1047   .text._ZN3stm14CircularBufferIP3TCBE6extendEv:0000000000000014 .L0 
     /tmp/ccUTdGa0.s:1048   .text._ZN3stm14CircularBufferIP3TCBE6extendEv:0000000000000014 .L0 
     /tmp/ccUTdGa0.s:1049   .text._ZN3stm14CircularBufferIP3TCBE6extendEv:0000000000000014 .L0 
     /tmp/ccUTdGa0.s:1050   .text._ZN3stm14CircularBufferIP3TCBE6extendEv:0000000000000014 .L0 
     /tmp/ccUTdGa0.s:1052   .text._ZN3stm14CircularBufferIP3TCBE6extendEv:0000000000000018 .L0 
     /tmp/ccUTdGa0.s:1055   .text._ZN3stm14CircularBufferIP3TCBE6extendEv:000000000000001c .L0 
     /tmp/ccUTdGa0.s:1058   .text._ZN3stm14CircularBufferIP3TCBE6extendEv:0000000000000020 .L0 
     /tmp/ccUTdGa0.s:1065   .text._ZN3stm14CircularBufferIP3TCBE6extendEv:0000000000000030 .L0 
     /tmp/ccUTdGa0.s:1068   .text._ZN3stm14CircularBufferIP3TCBE6extendEv:0000000000000034 .L0 
     /tmp/ccUTdGa0.s:1072   .text._ZN3stm14CircularBufferIP3TCBE6extendEv:0000000000000038 .L0 
     /tmp/ccUTdGa0.s:1073   .text._ZN3stm14CircularBufferIP3TCBE6extendEv:0000000000000038 .L0 
     /tmp/ccUTdGa0.s:1075   .text._ZN3stm14CircularBufferIP3TCBE6extendEv:000000000000003c .L0 
     /tmp/ccUTdGa0.s:1077   .text._ZN3stm14CircularBufferIP3TCBE6extendEv:0000000000000040 .L0 
     /tmp/ccUTdGa0.s:1079   .text._ZN3stm14CircularBufferIP3TCBE6extendEv:0000000000000044 .L0 
     /tmp/ccUTdGa0.s:1082   .text._ZN3stm14CircularBufferIP3TCBE6extendEv:000000000000004c .L0 
     /tmp/ccUTdGa0.s:1086   .text._ZN3stm14CircularBufferIP3TCBE6extendEv:0000000000000058 .L0 
     /tmp/ccUTdGa0.s:1088   .text._ZN3stm14CircularBufferIP3TCBE6extendEv:000000000000005c .L0 
     /tmp/ccUTdGa0.s:1091   .text._ZN3stm14CircularBufferIP3TCBE6extendEv:0000000000000060 .L0 
     /tmp/ccUTdGa0.s:1094   .text._ZN3stm14CircularBufferIP3TCBE6extendEv:0000000000000064 .L0 
     /tmp/ccUTdGa0.s:1096   .text._ZN3stm14CircularBufferIP3TCBE6extendEv:0000000000000068 .L0 
     /tmp/ccUTdGa0.s:1103   .text._ZN3stm14CircularBufferIP3TCBE6extendEv:0000000000000070 .L0 
     /tmp/ccUTdGa0.s:1108   .text._ZN3stm14CircularBufferIP3TCBE6extendEv:000000000000007c .L0 
     /tmp/ccUTdGa0.s:1110   .text._ZN3stm14CircularBufferIP3TCBE6extendEv:0000000000000080 .L0 
     /tmp/ccUTdGa0.s:1112   .text._ZN3stm14CircularBufferIP3TCBE6extendEv:0000000000000084 .L0 
     /tmp/ccUTdGa0.s:1114   .text._ZN3stm14CircularBufferIP3TCBE6extendEv:0000000000000088 .L0 
     /tmp/ccUTdGa0.s:1116   .text._ZN3stm14CircularBufferIP3TCBE6extendEv:000000000000008c .L0 
     /tmp/ccUTdGa0.s:1118   .text._ZN3stm14CircularBufferIP3TCBE6extendEv:0000000000000090 .L0 
     /tmp/ccUTdGa0.s:1120   .text._ZN3stm14CircularBufferIP3TCBE6extendEv:0000000000000094 .L0 
     /tmp/ccUTdGa0.s:1121   .text._ZN3stm14CircularBufferIP3TCBE6extendEv:0000000000000098 .L0 
     /tmp/ccUTdGa0.s:1123   .text._ZN3stm14CircularBufferIP3TCBE6extendEv:000000000000009c .L0 
     /tmp/ccUTdGa0.s:1124   .text._ZN3stm14CircularBufferIP3TCBE6extendEv:000000000000009c .L0 
     /tmp/ccUTdGa0.s:1126   .text._ZN3stm14CircularBufferIP3TCBE6extendEv:00000000000000a0 .L0 
     /tmp/ccUTdGa0.s:1129   .text._ZN3stm14CircularBufferIP3TCBE6extendEv:00000000000000a4 .L0 
GAS LISTING /tmp/ccUTdGa0.s 			page 46


     /tmp/ccUTdGa0.s:1132   .text._ZN3stm14CircularBufferIP3TCBE6extendEv:00000000000000a8 .L0 
     /tmp/ccUTdGa0.s:1134   .text._ZN3stm14CircularBufferIP3TCBE6extendEv:00000000000000ac .L0 
     /tmp/ccUTdGa0.s:1141   .text._ZN3stm14CircularBufferIP3TCBE3putES2_:0000000000000000 _ZN3stm14CircularBufferIP3TCBE3putES2_
     /tmp/ccUTdGa0.s:1144   .text._ZN3stm14CircularBufferIP3TCBE3putES2_:0000000000000000 .L0 
     /tmp/ccUTdGa0.s:1146   .text._ZN3stm14CircularBufferIP3TCBE3putES2_:0000000000000000 .L0 
     /tmp/ccUTdGa0.s:1147   .text._ZN3stm14CircularBufferIP3TCBE3putES2_:0000000000000004 .L0 
     /tmp/ccUTdGa0.s:1152   .text._ZN3stm14CircularBufferIP3TCBE3putES2_:0000000000000014 .L0 
     /tmp/ccUTdGa0.s:1153   .text._ZN3stm14CircularBufferIP3TCBE3putES2_:0000000000000014 .L0 
     /tmp/ccUTdGa0.s:1154   .text._ZN3stm14CircularBufferIP3TCBE3putES2_:0000000000000014 .L0 
     /tmp/ccUTdGa0.s:1155   .text._ZN3stm14CircularBufferIP3TCBE3putES2_:0000000000000014 .L0 
     /tmp/ccUTdGa0.s:1157   .text._ZN3stm14CircularBufferIP3TCBE3putES2_:0000000000000018 .L0 
     /tmp/ccUTdGa0.s:1161   .text._ZN3stm14CircularBufferIP3TCBE3putES2_:0000000000000020 .L0 
     /tmp/ccUTdGa0.s:1163   .text._ZN3stm14CircularBufferIP3TCBE3putES2_:0000000000000024 .L0 
     /tmp/ccUTdGa0.s:1165   .text._ZN3stm14CircularBufferIP3TCBE3putES2_:0000000000000028 .L0 
     /tmp/ccUTdGa0.s:1169   .text._ZN3stm14CircularBufferIP3TCBE3putES2_:000000000000002c .L0 
     /tmp/ccUTdGa0.s:1171   .text._ZN3stm14CircularBufferIP3TCBE3putES2_:0000000000000030 .L0 
     /tmp/ccUTdGa0.s:1173   .text._ZN3stm14CircularBufferIP3TCBE3putES2_:0000000000000034 .L0 
     /tmp/ccUTdGa0.s:1176   .text._ZN3stm14CircularBufferIP3TCBE3putES2_:000000000000003c .L0 
     /tmp/ccUTdGa0.s:1178   .text._ZN3stm14CircularBufferIP3TCBE3putES2_:0000000000000040 .L0 
     /tmp/ccUTdGa0.s:1180   .text._ZN3stm14CircularBufferIP3TCBE3putES2_:0000000000000044 .L0 
     /tmp/ccUTdGa0.s:1182   .text._ZN3stm14CircularBufferIP3TCBE3putES2_:0000000000000048 .L0 
     /tmp/ccUTdGa0.s:1184   .text._ZN3stm14CircularBufferIP3TCBE3putES2_:000000000000004c .L0 
     /tmp/ccUTdGa0.s:1186   .text._ZN3stm14CircularBufferIP3TCBE3putES2_:0000000000000050 .L0 
     /tmp/ccUTdGa0.s:1188   .text._ZN3stm14CircularBufferIP3TCBE3putES2_:0000000000000054 .L0 
     /tmp/ccUTdGa0.s:1190   .text._ZN3stm14CircularBufferIP3TCBE3putES2_:0000000000000058 .L0 
     /tmp/ccUTdGa0.s:1193   .text._ZN3stm14CircularBufferIP3TCBE3putES2_:0000000000000060 .L0 
     /tmp/ccUTdGa0.s:1194   .text._ZN3stm14CircularBufferIP3TCBE3putES2_:0000000000000064 .L0 
     /tmp/ccUTdGa0.s:1195   .text._ZN3stm14CircularBufferIP3TCBE3putES2_:0000000000000064 .L0 
     /tmp/ccUTdGa0.s:1197   .text._ZN3stm14CircularBufferIP3TCBE3putES2_:0000000000000068 .L0 
     /tmp/ccUTdGa0.s:1198   .text._ZN3stm14CircularBufferIP3TCBE3putES2_:0000000000000068 .L0 
     /tmp/ccUTdGa0.s:1200   .text._ZN3stm14CircularBufferIP3TCBE3putES2_:000000000000006c .L0 
     /tmp/ccUTdGa0.s:1203   .text._ZN3stm14CircularBufferIP3TCBE3putES2_:0000000000000070 .L0 
     /tmp/ccUTdGa0.s:1206   .text._ZN3stm14CircularBufferIP3TCBE3putES2_:0000000000000074 .L0 
     /tmp/ccUTdGa0.s:1210   .text._ZN3stm14CircularBufferIP3TCBE3putES2_:0000000000000078 .L0 
     /tmp/ccUTdGa0.s:1212   .text._ZN3stm14CircularBufferIP3TCBE3putES2_:0000000000000078 .L0 
     /tmp/ccUTdGa0.s:1215   .text._ZN3stm14CircularBufferIP3TCBE3putES2_:0000000000000084 .L0 
     /tmp/ccUTdGa0.s:1222   .text:00000000000005a4 _ZN3TCB12_thread_joinEPS_
     /tmp/ccUTdGa0.s:1225   .text:00000000000005a4 .L0 
     /tmp/ccUTdGa0.s:1227   .text:00000000000005a4 .L0 
     /tmp/ccUTdGa0.s:1230   .text:00000000000005a4 .L0 
     /tmp/ccUTdGa0.s:1231   .text:00000000000005a4 .L0 
     /tmp/ccUTdGa0.s:1232   .text:00000000000005a4 .L0 
     /tmp/ccUTdGa0.s:1237   .text:00000000000005a8 .L0 
     /tmp/ccUTdGa0.s:1240   .text:00000000000005b0 .L0 
     /tmp/ccUTdGa0.s:1241   .text:00000000000005b4 .L0 
     /tmp/ccUTdGa0.s:1244   .text:00000000000005bc .L0 
     /tmp/ccUTdGa0.s:1245   .text:00000000000005bc .L0 
     /tmp/ccUTdGa0.s:1247   .text:00000000000005c0 .L0 
     /tmp/ccUTdGa0.s:1249   .text:00000000000005c0 .L0 
     /tmp/ccUTdGa0.s:1250   .text:00000000000005c0 .L0 
     /tmp/ccUTdGa0.s:1255   .text:00000000000005c8 .L0 
     /tmp/ccUTdGa0.s:1256   .text:00000000000005c8 .L0 
     /tmp/ccUTdGa0.s:1262   .text:00000000000005d0 .L0 
     /tmp/ccUTdGa0.s:1263   .text:00000000000005d0 .L0 
     /tmp/ccUTdGa0.s:1268   .text:00000000000005dc .L0 
     /tmp/ccUTdGa0.s:1269   .text:00000000000005dc .L0 
     /tmp/ccUTdGa0.s:1272   .text:00000000000005e4 .L0 
GAS LISTING /tmp/ccUTdGa0.s 			page 47


     /tmp/ccUTdGa0.s:1273   .text:00000000000005e8 .L0 
     /tmp/ccUTdGa0.s:1275   .text:00000000000005ec .L0 
     /tmp/ccUTdGa0.s:1276   .text:00000000000005ec .L0 
     /tmp/ccUTdGa0.s:1278   .text:00000000000005f0 .L0 
     /tmp/ccUTdGa0.s:1283   .text:00000000000005f8 .L0 
     /tmp/ccUTdGa0.s:1289   .text:00000000000005f8 _ZN3TCB17_thread_join_timeEPS_m
     /tmp/ccUTdGa0.s:1292   .text:00000000000005f8 .L0 
     /tmp/ccUTdGa0.s:1294   .text:00000000000005f8 .L0 
     /tmp/ccUTdGa0.s:1297   .text:00000000000005f8 .L0 
     /tmp/ccUTdGa0.s:1298   .text:00000000000005f8 .L0 
     /tmp/ccUTdGa0.s:1299   .text:00000000000005f8 .L0 
     /tmp/ccUTdGa0.s:1304   .text:00000000000005fc .L0 
     /tmp/ccUTdGa0.s:1307   .text:0000000000000604 .L0 
     /tmp/ccUTdGa0.s:1308   .text:0000000000000608 .L0 
     /tmp/ccUTdGa0.s:1313   .text:0000000000000618 .L0 
     /tmp/ccUTdGa0.s:1314   .text:0000000000000618 .L0 
     /tmp/ccUTdGa0.s:1315   .text:0000000000000618 .L0 
     /tmp/ccUTdGa0.s:1316   .text:0000000000000618 .L0 
     /tmp/ccUTdGa0.s:1318   .text:000000000000061c .L0 
     /tmp/ccUTdGa0.s:1321   .text:0000000000000620 .L0 
     /tmp/ccUTdGa0.s:1322   .text:0000000000000620 .L0 
     /tmp/ccUTdGa0.s:1328   .text:000000000000062c .L0 
     /tmp/ccUTdGa0.s:1329   .text:000000000000062c .L0 
     /tmp/ccUTdGa0.s:1335   .text:0000000000000634 .L0 
     /tmp/ccUTdGa0.s:1336   .text:0000000000000634 .L0 
     /tmp/ccUTdGa0.s:1341   .text:0000000000000640 .L0 
     /tmp/ccUTdGa0.s:1342   .text:0000000000000640 .L0 
     /tmp/ccUTdGa0.s:1347   .text:0000000000000650 .L0 
     /tmp/ccUTdGa0.s:1348   .text:0000000000000650 .L0 
     /tmp/ccUTdGa0.s:1351   .text:0000000000000658 .L0 
     /tmp/ccUTdGa0.s:1352   .text:000000000000065c .L0 
     /tmp/ccUTdGa0.s:1354   .text:0000000000000660 .L0 
     /tmp/ccUTdGa0.s:1355   .text:0000000000000660 .L0 
     /tmp/ccUTdGa0.s:1357   .text:0000000000000664 .L0 
     /tmp/ccUTdGa0.s:1360   .text:0000000000000668 .L0 
     /tmp/ccUTdGa0.s:1362   .text:000000000000066c .L0 
     /tmp/ccUTdGa0.s:1367   .text:0000000000000674 .L0 
     /tmp/ccUTdGa0.s:1387   .bss:0000000000000010 _ZN3TCB13timer_counterE
     /tmp/ccUTdGa0.s:1378   .bss:0000000000000000 _ZN3TCB7runningE
     /tmp/ccUTdGa0.s:1382   .bss:0000000000000008 _ZN3TCB2IDE
     /tmp/ccUTdGa0.s:1375   .bss:0000000000000000 .LANCHOR0
     /tmp/ccUTdGa0.s:1398   .text:0000000000000674 .L0 
     /tmp/ccUTdGa0.s:185    .text._ZN3stm14CircularBufferIP3TCBE4initEv:0000000000000050 .L0 
     /tmp/ccUTdGa0.s:736    .text._ZN3stm14CircularBufferIP3TCBE3getEv:000000000000004c .L0 
     /tmp/ccUTdGa0.s:770    .text._ZN3stm14CircularBufferIP3TCBE7destroyEv:000000000000002c .L0 
     /tmp/ccUTdGa0.s:1137   .text._ZN3stm14CircularBufferIP3TCBE6extendEv:00000000000000ac .L0 
     /tmp/ccUTdGa0.s:1218   .text._ZN3stm14CircularBufferIP3TCBE3putES2_:0000000000000084 .L0 
     /tmp/ccUTdGa0.s:28     .text:0000000000000018 .L0 
     /tmp/ccUTdGa0.s:84     .text:0000000000000064 .L0 
     /tmp/ccUTdGa0.s:209    .text:00000000000000bc .L0 
     /tmp/ccUTdGa0.s:306    .text:0000000000000194 .L0 
     /tmp/ccUTdGa0.s:384    .text:0000000000000238 .L0 
     /tmp/ccUTdGa0.s:444    .text:0000000000000280 .L0 
     /tmp/ccUTdGa0.s:537    .text:0000000000000348 .L0 
     /tmp/ccUTdGa0.s:569    .text:0000000000000380 .L0 
     /tmp/ccUTdGa0.s:621    .text:00000000000003c0 .L0 
     /tmp/ccUTdGa0.s:879    .text:00000000000004a0 .L0 
GAS LISTING /tmp/ccUTdGa0.s 			page 48


     /tmp/ccUTdGa0.s:933    .text:00000000000004fc .L0 
     /tmp/ccUTdGa0.s:959    .text:0000000000000524 .L0 
     /tmp/ccUTdGa0.s:992    .text:000000000000055c .L0 
     /tmp/ccUTdGa0.s:1250   .text:00000000000005c0 .L0 
     /tmp/ccUTdGa0.s:1322   .text:0000000000000620 .L0 
     /tmp/ccUTdGa0.s:112    .text:0000000000000088 .L5
     /tmp/ccUTdGa0.s:119    .text:0000000000000090 .L6
     /tmp/ccUTdGa0.s:125    .text:0000000000000098 .L7
     /tmp/ccUTdGa0.s:102    .text:000000000000007c .L4
     /tmp/ccUTdGa0.s:380    .text:0000000000000238 .L14
     /tmp/ccUTdGa0.s:349    .text:000000000000020c .L15
     /tmp/ccUTdGa0.s:596    .text:00000000000003b4 .L30
     /tmp/ccUTdGa0.s:647    .text:00000000000003fc .L31
     /tmp/ccUTdGa0.s:565    .text:0000000000000380 .L23
     /tmp/ccUTdGa0.s:578    .text:000000000000039c .L28
     /tmp/ccUTdGa0.s:836    .text:0000000000000468 .L37
     /tmp/ccUTdGa0.s:791    .text:0000000000000438 .L38
     /tmp/ccUTdGa0.s:920    .text:00000000000004e4 .L47
     /tmp/ccUTdGa0.s:927    .text:00000000000004f4 .L43
     /tmp/ccUTdGa0.s:892    .text:00000000000004b0 .L44
     /tmp/ccUTdGa0.s:955    .text:0000000000000524 .L48
     /tmp/ccUTdGa0.s:940    .text:0000000000000510 .L41
     /tmp/ccUTdGa0.s:1281   .text:00000000000005f4 .L62
     /tmp/ccUTdGa0.s:1365   .text:0000000000000670 .L68
     /tmp/ccUTdGa0.s:318    .text:00000000000001b4 .LEHB0
     /tmp/ccUTdGa0.s:274    .text:0000000000000158 .LFB70
     /tmp/ccUTdGa0.s:321    .text:00000000000001bc .LEHE0
     /tmp/ccUTdGa0.s:335    .text:00000000000001f0 .LEHB1
     /tmp/ccUTdGa0.s:338    .text:00000000000001f8 .LEHE1
     /tmp/ccUTdGa0.s:386    .text:0000000000000244 .L17
     /tmp/ccUTdGa0.s:346    .text:0000000000000204 .LEHB2
     /tmp/ccUTdGa0.s:396    .text:0000000000000260 .LEHE2
     /tmp/ccUTdGa0.s:542    .text:0000000000000354 .LEHB3
     /tmp/ccUTdGa0.s:518    .text:0000000000000330 .LFB76
     /tmp/ccUTdGa0.s:545    .text:000000000000035c .LEHE3
     /tmp/ccUTdGa0.s:548    .text:0000000000000364 .LEHB4
     /tmp/ccUTdGa0.s:551    .text:000000000000036c .LEHE4
     /tmp/ccUTdGa0.s:654    .text:0000000000000404 .L27
     /tmp/ccUTdGa0.s:558    .text:0000000000000374 .LEHB5
     /tmp/ccUTdGa0.s:664    .text:0000000000000420 .LEHE5
     /tmp/ccUTdGa0.s:1100   .text._ZN3stm14CircularBufferIP3TCBE6extendEv:0000000000000070 .L52
     /tmp/ccUTdGa0.s:1070   .text._ZN3stm14CircularBufferIP3TCBE6extendEv:0000000000000038 .L53
     /tmp/ccUTdGa0.s:1209   .text._ZN3stm14CircularBufferIP3TCBE3putES2_:0000000000000078 .L58
     /tmp/ccUTdGa0.s:1167   .text._ZN3stm14CircularBufferIP3TCBE3putES2_:000000000000002c .L56
     /tmp/ccUTdGa0.s:4535   .debug_abbrev:0000000000000000 .Ldebug_abbrev0
     /tmp/ccUTdGa0.s:7123   .debug_str:0000000000000fdb .LASF301
     /tmp/ccUTdGa0.s:7077   .debug_str:0000000000000e5b .LASF302
     /tmp/ccUTdGa0.s:6835   .debug_str:0000000000000702 .LASF303
     /tmp/ccUTdGa0.s:6597   .debug_ranges:0000000000000000 .Ldebug_ranges0
     /tmp/ccUTdGa0.s:6613   .debug_line:0000000000000000 .Ldebug_line0
     /tmp/ccUTdGa0.s:6653   .debug_str:0000000000000132 .LASF0
     /tmp/ccUTdGa0.s:7179   .debug_str:000000000000127f .LASF1
     /tmp/ccUTdGa0.s:7125   .debug_str:000000000000109f .LASF2
     /tmp/ccUTdGa0.s:7085   .debug_str:0000000000000e9a .LASF4
     /tmp/ccUTdGa0.s:7101   .debug_str:0000000000000f06 .LASF3
     /tmp/ccUTdGa0.s:6785   .debug_str:0000000000000516 .LASF5
     /tmp/ccUTdGa0.s:6899   .debug_str:00000000000008f1 .LASF6
GAS LISTING /tmp/ccUTdGa0.s 			page 49


     /tmp/ccUTdGa0.s:6863   .debug_str:00000000000007c8 .LASF7
     /tmp/ccUTdGa0.s:7019   .debug_str:0000000000000c8d .LASF8
     /tmp/ccUTdGa0.s:6685   .debug_str:00000000000001ed .LASF9
     /tmp/ccUTdGa0.s:7167   .debug_str:0000000000001200 .LASF10
     /tmp/ccUTdGa0.s:6789   .debug_str:0000000000000522 .LASF11
     /tmp/ccUTdGa0.s:6711   .debug_str:00000000000002cd .LASF12
     /tmp/ccUTdGa0.s:6901   .debug_str:00000000000008f8 .LASF13
     /tmp/ccUTdGa0.s:6797   .debug_str:0000000000000551 .LASF14
     /tmp/ccUTdGa0.s:7069   .debug_str:0000000000000e27 .LASF15
     /tmp/ccUTdGa0.s:6801   .debug_str:0000000000000579 .LASF16
     /tmp/ccUTdGa0.s:6753   .debug_str:0000000000000427 .LASF17
     /tmp/ccUTdGa0.s:6773   .debug_str:00000000000004ce .LASF18
     /tmp/ccUTdGa0.s:6875   .debug_str:0000000000000821 .LASF27
     /tmp/ccUTdGa0.s:6883   .debug_str:0000000000000852 .LASF29
     /tmp/ccUTdGa0.s:7161   .debug_str:00000000000011cf .LASF19
     /tmp/ccUTdGa0.s:7139   .debug_str:000000000000111b .LASF21
     /tmp/ccUTdGa0.s:7165   .debug_str:00000000000011ef .LASF20
     /tmp/ccUTdGa0.s:6915   .debug_str:000000000000097f .LASF22
     /tmp/ccUTdGa0.s:6709   .debug_str:00000000000002c0 .LASF23
     /tmp/ccUTdGa0.s:6621   .debug_str:0000000000000047 .LASF25
     /tmp/ccUTdGa0.s:7073   .debug_str:0000000000000e41 .LASF24
     /tmp/ccUTdGa0.s:7113   .debug_str:0000000000000f4a .LASF26
     /tmp/ccUTdGa0.s:6771   .debug_str:00000000000004c8 .LASF96
     /tmp/ccUTdGa0.s:7047   .debug_str:0000000000000d65 .LASF98
     /tmp/ccUTdGa0.s:6859   .debug_str:00000000000007b6 .LASF28
     /tmp/ccUTdGa0.s:7193   .debug_str:00000000000012e7 .LASF30
     /tmp/ccUTdGa0.s:6733   .debug_str:0000000000000384 .LASF31
     /tmp/ccUTdGa0.s:7197   .debug_str:0000000000001302 .LASF32
     /tmp/ccUTdGa0.s:6739   .debug_str:00000000000003ce .LASF33
     /tmp/ccUTdGa0.s:6909   .debug_str:0000000000000938 .LASF34
     /tmp/ccUTdGa0.s:7037   .debug_str:0000000000000d12 .LASF35
     /tmp/ccUTdGa0.s:7119   .debug_str:0000000000000f9e .LASF36
     /tmp/ccUTdGa0.s:6759   .debug_str:0000000000000452 .LASF37
     /tmp/ccUTdGa0.s:6737   .debug_str:00000000000003ab .LASF38
     /tmp/ccUTdGa0.s:7089   .debug_str:0000000000000eab .LASF39
     /tmp/ccUTdGa0.s:6769   .debug_str:00000000000004ac .LASF40
     /tmp/ccUTdGa0.s:7091   .debug_str:0000000000000eba .LASF41
     /tmp/ccUTdGa0.s:6975   .debug_str:0000000000000b12 .LASF42
     /tmp/ccUTdGa0.s:6819   .debug_str:0000000000000647 .LASF43
     /tmp/ccUTdGa0.s:6699   .debug_str:000000000000025e .LASF44
     /tmp/ccUTdGa0.s:6663   .debug_str:0000000000000157 .LASF45
     /tmp/ccUTdGa0.s:6929   .debug_str:00000000000009e1 .LASF47
     /tmp/ccUTdGa0.s:6717   .debug_str:00000000000002fb .LASF46
     /tmp/ccUTdGa0.s:7081   .debug_str:0000000000000e79 .LASF48
     /tmp/ccUTdGa0.s:6999   .debug_str:0000000000000be4 .LASF49
     /tmp/ccUTdGa0.s:6903   .debug_str:0000000000000908 .LASF50
     /tmp/ccUTdGa0.s:6805   .debug_str:00000000000005a7 .LASF51
     /tmp/ccUTdGa0.s:6713   .debug_str:00000000000002dc .LASF52
     /tmp/ccUTdGa0.s:6649   .debug_str:000000000000010a .LASF53
     /tmp/ccUTdGa0.s:7063   .debug_str:0000000000000dd5 .LASF54
     /tmp/ccUTdGa0.s:7071   .debug_str:0000000000000e33 .LASF55
     /tmp/ccUTdGa0.s:7055   .debug_str:0000000000000dae .LASF56
     /tmp/ccUTdGa0.s:6839   .debug_str:0000000000000725 .LASF57
     /tmp/ccUTdGa0.s:7155   .debug_str:0000000000001192 .LASF58
     /tmp/ccUTdGa0.s:6923   .debug_str:00000000000009bb .LASF59
     /tmp/ccUTdGa0.s:6885   .debug_str:000000000000087a .LASF60
     /tmp/ccUTdGa0.s:6941   .debug_str:0000000000000a35 .LASF61
GAS LISTING /tmp/ccUTdGa0.s 			page 50


     /tmp/ccUTdGa0.s:6853   .debug_str:0000000000000789 .LASF62
     /tmp/ccUTdGa0.s:6617   .debug_str:0000000000000028 .LASF63
     /tmp/ccUTdGa0.s:6665   .debug_str:0000000000000163 .LASF64
     /tmp/ccUTdGa0.s:6869   .debug_str:00000000000007eb .LASF65
     /tmp/ccUTdGa0.s:6815   .debug_str:0000000000000618 .LASF66
     /tmp/ccUTdGa0.s:6951   .debug_str:0000000000000a87 .LASF67
     /tmp/ccUTdGa0.s:6907   .debug_str:0000000000000928 .LASF68
     /tmp/ccUTdGa0.s:7169   .debug_str:000000000000120e .LASF69
     /tmp/ccUTdGa0.s:6701   .debug_str:000000000000026c .LASF70
     /tmp/ccUTdGa0.s:6681   .debug_str:00000000000001b9 .LASF71
     /tmp/ccUTdGa0.s:7191   .debug_str:00000000000012d8 .LASF72
     /tmp/ccUTdGa0.s:7157   .debug_str:0000000000001198 .LASF73
     /tmp/ccUTdGa0.s:7195   .debug_str:00000000000012f9 .LASF74
     /tmp/ccUTdGa0.s:7045   .debug_str:0000000000000d52 .LASF75
     /tmp/ccUTdGa0.s:6997   .debug_str:0000000000000bd6 .LASF76
     /tmp/ccUTdGa0.s:7203   .debug_str:0000000000001342 .LASF77
     /tmp/ccUTdGa0.s:6781   .debug_str:000000000000050a .LASF106
     /tmp/ccUTdGa0.s:6639   .debug_str:00000000000000cd .LASF78
     /tmp/ccUTdGa0.s:6837   .debug_str:0000000000000720 .LASF79
     /tmp/ccUTdGa0.s:6973   .debug_str:0000000000000b0c .LASF80
     /tmp/ccUTdGa0.s:7011   .debug_str:0000000000000c42 .LASF81
     /tmp/ccUTdGa0.s:6935   .debug_str:0000000000000a1e .LASF82
     /tmp/ccUTdGa0.s:6895   .debug_str:00000000000008d6 .LASF83
     /tmp/ccUTdGa0.s:7097   .debug_str:0000000000000ee2 .LASF84
     /tmp/ccUTdGa0.s:6843   .debug_str:0000000000000748 .LASF85
     /tmp/ccUTdGa0.s:7207   .debug_str:0000000000001363 .LASF86
     /tmp/ccUTdGa0.s:6705   .debug_str:000000000000028b .LASF87
     /tmp/ccUTdGa0.s:7153   .debug_str:0000000000001186 .LASF244
     /tmp/ccUTdGa0.s:6655   .debug_str:000000000000013f .LASF88
     /tmp/ccUTdGa0.s:6957   .debug_str:0000000000000ab8 .LASF89
     /tmp/ccUTdGa0.s:7033   .debug_str:0000000000000cfb .LASF90
     /tmp/ccUTdGa0.s:6643   .debug_str:00000000000000db .LASF91
     /tmp/ccUTdGa0.s:7147   .debug_str:000000000000114e .LASF92
     /tmp/ccUTdGa0.s:6651   .debug_str:0000000000000116 .LASF93
     /tmp/ccUTdGa0.s:6881   .debug_str:0000000000000849 .LASF94
     /tmp/ccUTdGa0.s:7219   .debug_str:00000000000013b8 .LASF95
     /tmp/ccUTdGa0.s:6889   .debug_str:0000000000000897 .LASF97
     /tmp/ccUTdGa0.s:6735   .debug_str:0000000000000391 .LASF99
     /tmp/ccUTdGa0.s:6725   .debug_str:0000000000000345 .LASF100
     /tmp/ccUTdGa0.s:7093   .debug_str:0000000000000ec4 .LASF101
     /tmp/ccUTdGa0.s:6793   .debug_str:000000000000053e .LASF102
     /tmp/ccUTdGa0.s:6989   .debug_str:0000000000000b9b .LASF103
     /tmp/ccUTdGa0.s:6743   .debug_str:00000000000003e8 .LASF104
     /tmp/ccUTdGa0.s:7115   .debug_str:0000000000000f6a .LASF105
     /tmp/ccUTdGa0.s:6775   .debug_str:00000000000004d7 .LASF256
     /tmp/ccUTdGa0.s:6811   .debug_str:00000000000005e0 .LASF258
     /tmp/ccUTdGa0.s:7035   .debug_str:0000000000000d06 .LASF131
     /tmp/ccUTdGa0.s:6791   .debug_str:0000000000000531 .LASF107
     /tmp/ccUTdGa0.s:7061   .debug_str:0000000000000dd0 .LASF108
     /tmp/ccUTdGa0.s:6715   .debug_str:00000000000002f1 .LASF109
     /tmp/ccUTdGa0.s:7095   .debug_str:0000000000000edd .LASF110
     /tmp/ccUTdGa0.s:7175   .debug_str:0000000000001264 .LASF111
     /tmp/ccUTdGa0.s:7121   .debug_str:0000000000000fc3 .LASF304
     /tmp/ccUTdGa0.s:6931   .debug_str:00000000000009f9 .LASF305
     /tmp/ccUTdGa0.s:6641   .debug_str:00000000000000d2 .LASF112
     /tmp/ccUTdGa0.s:6987   .debug_str:0000000000000b82 .LASF113
     /tmp/ccUTdGa0.s:7221   .debug_str:00000000000013d1 .LASF114
GAS LISTING /tmp/ccUTdGa0.s 			page 51


     /tmp/ccUTdGa0.s:6873   .debug_str:000000000000080c .LASF115
     /tmp/ccUTdGa0.s:7215   .debug_str:000000000000139a .LASF116
     /tmp/ccUTdGa0.s:6693   .debug_str:0000000000000214 .LASF117
     /tmp/ccUTdGa0.s:7225   .debug_str:00000000000013ea .LASF118
     /tmp/ccUTdGa0.s:7189   .debug_str:00000000000012ca .LASF119
     /tmp/ccUTdGa0.s:6927   .debug_str:00000000000009d4 .LASF120
     /tmp/ccUTdGa0.s:6845   .debug_str:0000000000000752 .LASF121
     /tmp/ccUTdGa0.s:7015   .debug_str:0000000000000c5e .LASF122
     /tmp/ccUTdGa0.s:6721   .debug_str:000000000000030b .LASF123
     /tmp/ccUTdGa0.s:6777   .debug_str:00000000000004dd .LASF124
     /tmp/ccUTdGa0.s:6809   .debug_str:00000000000005bb .LASF306
     /tmp/ccUTdGa0.s:7065   .debug_str:0000000000000ded .LASF125
     /tmp/ccUTdGa0.s:6707   .debug_str:0000000000000295 .LASF126
     /tmp/ccUTdGa0.s:7133   .debug_str:00000000000010f7 .LASF127
     /tmp/ccUTdGa0.s:6831   .debug_str:00000000000006c6 .LASF128
     /tmp/ccUTdGa0.s:6659   .debug_str:000000000000014b .LASF129
     /tmp/ccUTdGa0.s:6615   .debug_str:0000000000000000 .LASF130
     /tmp/ccUTdGa0.s:6673   .debug_str:0000000000000185 .LASF132
     /tmp/ccUTdGa0.s:7109   .debug_str:0000000000000f39 .LASF133
     /tmp/ccUTdGa0.s:6669   .debug_str:0000000000000178 .LASF134
     /tmp/ccUTdGa0.s:7145   .debug_str:0000000000001149 .LASF135
     /tmp/ccUTdGa0.s:6631   .debug_str:0000000000000095 .LASF136
     /tmp/ccUTdGa0.s:6871   .debug_str:0000000000000805 .LASF137
     /tmp/ccUTdGa0.s:6855   .debug_str:0000000000000790 .LASF138
     /tmp/ccUTdGa0.s:6995   .debug_str:0000000000000bc1 .LASF139
     /tmp/ccUTdGa0.s:6841   .debug_str:0000000000000735 .LASF140
     /tmp/ccUTdGa0.s:6857   .debug_str:00000000000007a3 .LASF141
     /tmp/ccUTdGa0.s:7163   .debug_str:00000000000011dc .LASF142
     /tmp/ccUTdGa0.s:6849   .debug_str:000000000000076a .LASF143
     /tmp/ccUTdGa0.s:6977   .debug_str:0000000000000b2b .LASF144
     /tmp/ccUTdGa0.s:6765   .debug_str:0000000000000488 .LASF145
     /tmp/ccUTdGa0.s:6955   .debug_str:0000000000000aae .LASF146
     /tmp/ccUTdGa0.s:7027   .debug_str:0000000000000ccf .LASF147
     /tmp/ccUTdGa0.s:7149   .debug_str:0000000000001158 .LASF148
     /tmp/ccUTdGa0.s:7023   .debug_str:0000000000000cab .LASF149
     /tmp/ccUTdGa0.s:7099   .debug_str:0000000000000eed .LASF150
     /tmp/ccUTdGa0.s:6963   .debug_str:0000000000000acd .LASF151
     /tmp/ccUTdGa0.s:6761   .debug_str:0000000000000462 .LASF152
     /tmp/ccUTdGa0.s:6677   .debug_str:0000000000000199 .LASF153
     /tmp/ccUTdGa0.s:6847   .debug_str:000000000000075f .LASF154
     /tmp/ccUTdGa0.s:6745   .debug_str:00000000000003f1 .LASF155
     /tmp/ccUTdGa0.s:6991   .debug_str:0000000000000bb4 .LASF156
     /tmp/ccUTdGa0.s:7227   .debug_str:00000000000013f6 .LASF157
     /tmp/ccUTdGa0.s:6661   .debug_str:0000000000000152 .LASF158
     /tmp/ccUTdGa0.s:7017   .debug_str:0000000000000c73 .LASF159
     /tmp/ccUTdGa0.s:6787   .debug_str:000000000000051d .LASF160
     /tmp/ccUTdGa0.s:7205   .debug_str:000000000000134a .LASF161
     /tmp/ccUTdGa0.s:6671   .debug_str:000000000000017d .LASF162
     /tmp/ccUTdGa0.s:6947   .debug_str:0000000000000a51 .LASF163
     /tmp/ccUTdGa0.s:6757   .debug_str:0000000000000442 .LASF164
     /tmp/ccUTdGa0.s:6911   .debug_str:0000000000000950 .LASF165
     /tmp/ccUTdGa0.s:7111   .debug_str:0000000000000f3f .LASF166
     /tmp/ccUTdGa0.s:7009   .debug_str:0000000000000c34 .LASF167
     /tmp/ccUTdGa0.s:7079   .debug_str:0000000000000e6c .LASF168
     /tmp/ccUTdGa0.s:7105   .debug_str:0000000000000f1e .LASF307
     /tmp/ccUTdGa0.s:6913   .debug_str:0000000000000977 .LASF169
     /tmp/ccUTdGa0.s:6961   .debug_str:0000000000000ac2 .LASF170
GAS LISTING /tmp/ccUTdGa0.s 			page 52


     /tmp/ccUTdGa0.s:7013   .debug_str:0000000000000c49 .LASF171
     /tmp/ccUTdGa0.s:6727   .debug_str:000000000000034e .LASF172
     /tmp/ccUTdGa0.s:6817   .debug_str:0000000000000626 .LASF173
     /tmp/ccUTdGa0.s:7039   .debug_str:0000000000000d21 .LASF174
     /tmp/ccUTdGa0.s:7181   .debug_str:0000000000001292 .LASF175
     /tmp/ccUTdGa0.s:7187   .debug_str:00000000000012b5 .LASF176
     /tmp/ccUTdGa0.s:6893   .debug_str:00000000000008c0 .LASF177
     /tmp/ccUTdGa0.s:7173   .debug_str:000000000000124f .LASF178
     /tmp/ccUTdGa0.s:7231   .debug_str:0000000000001412 .LASF179
     /tmp/ccUTdGa0.s:6637   .debug_str:00000000000000c8 .LASF180
     /tmp/ccUTdGa0.s:6953   .debug_str:0000000000000aa0 .LASF182
     /tmp/ccUTdGa0.s:6689   .debug_str:0000000000000208 .LASF181
     /tmp/ccUTdGa0.s:6619   .debug_str:0000000000000039 .LASF183
     /tmp/ccUTdGa0.s:6625   .debug_str:000000000000006a .LASF184
     /tmp/ccUTdGa0.s:6921   .debug_str:00000000000009ad .LASF185
     /tmp/ccUTdGa0.s:7177   .debug_str:0000000000001279 .LASF186
     /tmp/ccUTdGa0.s:7211   .debug_str:000000000000137c .LASF187
     /tmp/ccUTdGa0.s:7171   .debug_str:0000000000001229 .LASF188
     /tmp/ccUTdGa0.s:6703   .debug_str:000000000000027b .LASF189
     /tmp/ccUTdGa0.s:7159   .debug_str:00000000000011b2 .LASF190
     /tmp/ccUTdGa0.s:6821   .debug_str:0000000000000666 .LASF191
     /tmp/ccUTdGa0.s:6697   .debug_str:0000000000000242 .LASF192
     /tmp/ccUTdGa0.s:7127   .debug_str:00000000000010ad .LASF193
     /tmp/ccUTdGa0.s:6949   .debug_str:0000000000000a6a .LASF194
     /tmp/ccUTdGa0.s:6635   .debug_str:00000000000000b6 .LASF195
     /tmp/ccUTdGa0.s:6891   .debug_str:00000000000008a1 .LASF196
     /tmp/ccUTdGa0.s:6827   .debug_str:00000000000006a0 .LASF197
     /tmp/ccUTdGa0.s:7129   .debug_str:00000000000010bd .LASF198
     /tmp/ccUTdGa0.s:7021   .debug_str:0000000000000ca0 .LASF199
     /tmp/ccUTdGa0.s:6803   .debug_str:000000000000058f .LASF200
     /tmp/ccUTdGa0.s:6905   .debug_str:0000000000000920 .LASF201
     /tmp/ccUTdGa0.s:7067   .debug_str:0000000000000e13 .LASF202
     /tmp/ccUTdGa0.s:6645   .debug_str:00000000000000f7 .LASF203
     /tmp/ccUTdGa0.s:7003   .debug_str:0000000000000c04 .LASF204
     /tmp/ccUTdGa0.s:6959   .debug_str:0000000000000abd .LASF205
     /tmp/ccUTdGa0.s:7053   .debug_str:0000000000000d9d .LASF206
     /tmp/ccUTdGa0.s:7213   .debug_str:0000000000001391 .LASF207
     /tmp/ccUTdGa0.s:7043   .debug_str:0000000000000d3d .LASF208
     /tmp/ccUTdGa0.s:7051   .debug_str:0000000000000d94 .LASF209
     /tmp/ccUTdGa0.s:7137   .debug_str:0000000000001106 .LASF210
     /tmp/ccUTdGa0.s:6729   .debug_str:0000000000000365 .LASF211
     /tmp/ccUTdGa0.s:7107   .debug_str:0000000000000f26 .LASF212
     /tmp/ccUTdGa0.s:6783   .debug_str:000000000000050f .LASF213
     /tmp/ccUTdGa0.s:7005   .debug_str:0000000000000c19 .LASF214
     /tmp/ccUTdGa0.s:7141   .debug_str:0000000000001133 .LASF215
     /tmp/ccUTdGa0.s:7217   .debug_str:00000000000013a4 .LASF216
     /tmp/ccUTdGa0.s:7059   .debug_str:0000000000000dc8 .LASF217
     /tmp/ccUTdGa0.s:7057   .debug_str:0000000000000db4 .LASF218
     /tmp/ccUTdGa0.s:7007   .debug_str:0000000000000c2c .LASF219
     /tmp/ccUTdGa0.s:6723   .debug_str:0000000000000331 .LASF220
     /tmp/ccUTdGa0.s:6917   .debug_str:000000000000099b .LASF221
     /tmp/ccUTdGa0.s:7001   .debug_str:0000000000000bf0 .LASF222
     /tmp/ccUTdGa0.s:7135   .debug_str:00000000000010ff .LASF223
     /tmp/ccUTdGa0.s:6763   .debug_str:0000000000000475 .LASF224
     /tmp/ccUTdGa0.s:6867   .debug_str:00000000000007e4 .LASF225
     /tmp/ccUTdGa0.s:6833   .debug_str:00000000000006ef .LASF226
     /tmp/ccUTdGa0.s:6943   .debug_str:0000000000000a46 .LASF227
GAS LISTING /tmp/ccUTdGa0.s 			page 53


     /tmp/ccUTdGa0.s:6983   .debug_str:0000000000000b5f .LASF228
     /tmp/ccUTdGa0.s:7103   .debug_str:0000000000000f18 .LASF229
     /tmp/ccUTdGa0.s:6879   .debug_str:0000000000000837 .LASF230
     /tmp/ccUTdGa0.s:7031   .debug_str:0000000000000cf0 .LASF231
     /tmp/ccUTdGa0.s:6731   .debug_str:000000000000036c .LASF232
     /tmp/ccUTdGa0.s:6675   .debug_str:000000000000018e .LASF233
     /tmp/ccUTdGa0.s:6799   .debug_str:0000000000000561 .LASF234
     /tmp/ccUTdGa0.s:6795   .debug_str:0000000000000547 .LASF235
     /tmp/ccUTdGa0.s:6829   .debug_str:00000000000006b0 .LASF236
     /tmp/ccUTdGa0.s:7083   .debug_str:0000000000000e90 .LASF237
     /tmp/ccUTdGa0.s:6887   .debug_str:0000000000000881 .LASF238
     /tmp/ccUTdGa0.s:6687   .debug_str:00000000000001fd .LASF239
     /tmp/ccUTdGa0.s:7151   .debug_str:000000000000116e .LASF240
     /tmp/ccUTdGa0.s:7029   .debug_str:0000000000000ce6 .LASF241
     /tmp/ccUTdGa0.s:6965   .debug_str:0000000000000ad8 .LASF242
     /tmp/ccUTdGa0.s:6971   .debug_str:0000000000000b06 .LASF243
     /tmp/ccUTdGa0.s:6939   .debug_str:0000000000000a2d .LASF245
     /tmp/ccUTdGa0.s:6967   .debug_str:0000000000000ae6 .LASF246
     /tmp/ccUTdGa0.s:6657   .debug_str:0000000000000144 .LASF308
     /tmp/ccUTdGa0.s:6865   .debug_str:00000000000007db .LASF247
     /tmp/ccUTdGa0.s:7075   .debug_str:0000000000000e53 .LASF248
     /tmp/ccUTdGa0.s:7229   .debug_str:0000000000001409 .LASF249
     /tmp/ccUTdGa0.s:6877   .debug_str:0000000000000830 .LASF250
     /tmp/ccUTdGa0.s:6925   .debug_str:00000000000009cb .LASF251
     /tmp/ccUTdGa0.s:6691   .debug_str:000000000000020d .LASF252
     /tmp/ccUTdGa0.s:6719   .debug_str:0000000000000306 .LASF253
     /tmp/ccUTdGa0.s:6981   .debug_str:0000000000000b52 .LASF254
     /tmp/ccUTdGa0.s:6695   .debug_str:000000000000022e .LASF255
     /tmp/ccUTdGa0.s:6979   .debug_str:0000000000000b42 .LASF257
     /tmp/ccUTdGa0.s:6823   .debug_str:0000000000000675 .LASF259
     /tmp/ccUTdGa0.s:7025   .debug_str:0000000000000cb2 .LASF260
     /tmp/ccUTdGa0.s:7183   .debug_str:00000000000012a7 .LASF261
     /tmp/ccUTdGa0.s:6919   .debug_str:00000000000009a3 .LASF262
     /tmp/ccUTdGa0.s:7041   .debug_str:0000000000000d36 .LASF263
     /tmp/ccUTdGa0.s:6683   .debug_str:00000000000001d4 .LASF264
     /tmp/ccUTdGa0.s:6629   .debug_str:000000000000008e .LASF265
     /tmp/ccUTdGa0.s:6897   .debug_str:00000000000008dd .LASF266
     /tmp/ccUTdGa0.s:6667   .debug_str:0000000000000171 .LASF267
     /tmp/ccUTdGa0.s:7223   .debug_str:00000000000013d6 .LASF268
     /tmp/ccUTdGa0.s:6945   .debug_str:0000000000000a4c .LASF269
     /tmp/ccUTdGa0.s:7209   .debug_str:000000000000136a .LASF270
     /tmp/ccUTdGa0.s:6825   .debug_str:000000000000068a .LASF271
     /tmp/ccUTdGa0.s:6851   .debug_str:000000000000077d .LASF272
     /tmp/ccUTdGa0.s:7199   .debug_str:000000000000131a .LASF273
     /tmp/ccUTdGa0.s:6741   .debug_str:00000000000003db .LASF274
     /tmp/ccUTdGa0.s:7049   .debug_str:0000000000000d75 .LASF275
     /tmp/ccUTdGa0.s:6861   .debug_str:00000000000007bc .LASF276
     /tmp/ccUTdGa0.s:6985   .debug_str:0000000000000b71 .LASF277
     /tmp/ccUTdGa0.s:6969   .debug_str:0000000000000aee .LASF278
     /tmp/ccUTdGa0.s:1037   .text._ZN3stm14CircularBufferIP3TCBE6extendEv:0000000000000000 .LFB85
     /tmp/ccUTdGa0.s:1135   .text._ZN3stm14CircularBufferIP3TCBE6extendEv:00000000000000ac .LFE85
     /tmp/ccUTdGa0.s:6993   .debug_str:0000000000000bbc .LASF280
     /tmp/ccUTdGa0.s:5944   .debug_loc:0000000000000000 .LLST28
     /tmp/ccUTdGa0.s:6647   .debug_str:0000000000000100 .LASF279
     /tmp/ccUTdGa0.s:5962   .debug_loc:000000000000004c .LLST29
     /tmp/ccUTdGa0.s:1063   .text._ZN3stm14CircularBufferIP3TCBE6extendEv:0000000000000030 .LBB55
     /tmp/ccUTdGa0.s:1101   .text._ZN3stm14CircularBufferIP3TCBE6extendEv:0000000000000070 .LBE55
GAS LISTING /tmp/ccUTdGa0.s 			page 54


     /tmp/ccUTdGa0.s:5979   .debug_loc:0000000000000097 .LLST30
     /tmp/ccUTdGa0.s:5995   .debug_loc:00000000000000e1 .LLST31
     /tmp/ccUTdGa0.s:1060   .text._ZN3stm14CircularBufferIP3TCBE6extendEv:000000000000002c .LVL97
     /tmp/ccUTdGa0.s:1106   .text._ZN3stm14CircularBufferIP3TCBE6extendEv:000000000000007c .LVL106
     /tmp/ccUTdGa0.s:1142   .text._ZN3stm14CircularBufferIP3TCBE3putES2_:0000000000000000 .LFB84
     /tmp/ccUTdGa0.s:1216   .text._ZN3stm14CircularBufferIP3TCBE3putES2_:0000000000000084 .LFE84
     /tmp/ccUTdGa0.s:6012   .debug_loc:000000000000012c .LLST32
     /tmp/ccUTdGa0.s:6747   .debug_str:0000000000000408 .LASF281
     /tmp/ccUTdGa0.s:6034   .debug_loc:000000000000018b .LLST33
     /tmp/ccUTdGa0.s:1213   .text._ZN3stm14CircularBufferIP3TCBE3putES2_:0000000000000080 .LVL114
     /tmp/ccUTdGa0.s:741    .text._ZN3stm14CircularBufferIP3TCBE7destroyEv:0000000000000000 .LFB83
     /tmp/ccUTdGa0.s:768    .text._ZN3stm14CircularBufferIP3TCBE7destroyEv:000000000000002c .LFE83
     /tmp/ccUTdGa0.s:6060   .debug_loc:00000000000001fd .LLST18
     /tmp/ccUTdGa0.s:757    .text._ZN3stm14CircularBufferIP3TCBE7destroyEv:000000000000001c .LVL65
     /tmp/ccUTdGa0.s:692    .text._ZN3stm14CircularBufferIP3TCBE3getEv:0000000000000000 .LFB82
     /tmp/ccUTdGa0.s:734    .text._ZN3stm14CircularBufferIP3TCBE3getEv:000000000000004c .LFE82
     /tmp/ccUTdGa0.s:6074   .debug_loc:0000000000000236 .LLST17
     /tmp/ccUTdGa0.s:138    .text._ZN3stm14CircularBufferIP3TCBE4initEv:0000000000000000 .LFB79
     /tmp/ccUTdGa0.s:183    .text._ZN3stm14CircularBufferIP3TCBE4initEv:0000000000000050 .LFE79
     /tmp/ccUTdGa0.s:6085   .debug_loc:000000000000026c .LLST3
     /tmp/ccUTdGa0.s:167    .text._ZN3stm14CircularBufferIP3TCBE4initEv:0000000000000038 .LVL17
     /tmp/ccUTdGa0.s:10     .text:0000000000000000 .LFB78
     /tmp/ccUTdGa0.s:48     .text:0000000000000044 .LFE78
     /tmp/ccUTdGa0.s:25     .text:0000000000000018 .LVL0
     /tmp/ccUTdGa0.s:37     .text:0000000000000034 .LVL2
     /tmp/ccUTdGa0.s:54     .text:0000000000000044 .LFB77
     /tmp/ccUTdGa0.s:131    .text:00000000000000a0 .LFE77
     /tmp/ccUTdGa0.s:7117   .debug_str:0000000000000f97 .LASF282
     /tmp/ccUTdGa0.s:6103   .debug_loc:00000000000002b8 .LLST0
     /tmp/ccUTdGa0.s:68     .text:0000000000000054 .LBB31
     /tmp/ccUTdGa0.s:76     .text:0000000000000058 .LBE31
     /tmp/ccUTdGa0.s:6150   .debug_loc:000000000000036c .LLST1
     /tmp/ccUTdGa0.s:89     .text:0000000000000070 .LBB33
     /tmp/ccUTdGa0.s:97     .text:0000000000000078 .LBE33
     /tmp/ccUTdGa0.s:6157   .debug_loc:000000000000038f .LLST2
     /tmp/ccUTdGa0.s:666    .text:0000000000000420 .LFE76
     /tmp/ccUTdGa0.s:6164   .debug_loc:00000000000003b2 .LLST14
     /tmp/ccUTdGa0.s:6751   .debug_str:0000000000000421 .LASF283
     /tmp/ccUTdGa0.s:6175   .debug_loc:00000000000003e8 .LLST15
     /tmp/ccUTdGa0.s:6807   .debug_str:00000000000005b1 .LASF284
     /tmp/ccUTdGa0.s:599    .text:00000000000003b4 .LBB38
     /tmp/ccUTdGa0.s:645    .text:00000000000003f8 .LBE38
     /tmp/ccUTdGa0.s:6186   .debug_loc:000000000000041e .LLST16
     /tmp/ccUTdGa0.s:601    .text:00000000000003b4 .LBB39
     /tmp/ccUTdGa0.s:618    .text:00000000000003c0 .LBE39
     /tmp/ccUTdGa0.s:640    .text:00000000000003f0 .LVL55
     /tmp/ccUTdGa0.s:644    .text:00000000000003f8 .LVL56
     /tmp/ccUTdGa0.s:544    .text:000000000000035c .LVL47
     /tmp/ccUTdGa0.s:550    .text:000000000000036c .LVL48
     /tmp/ccUTdGa0.s:562    .text:000000000000037c .LVL49
     /tmp/ccUTdGa0.s:660    .text:0000000000000414 .LVL59
     /tmp/ccUTdGa0.s:663    .text:0000000000000420 .LVL60
     /tmp/ccUTdGa0.s:1290   .text:00000000000005f8 .LFB75
     /tmp/ccUTdGa0.s:1368   .text:0000000000000674 .LFE75
     /tmp/ccUTdGa0.s:6193   .debug_loc:0000000000000441 .LLST37
     /tmp/ccUTdGa0.s:6755   .debug_str:000000000000043d .LASF285
     /tmp/ccUTdGa0.s:6217   .debug_loc:00000000000004a3 .LLST38
GAS LISTING /tmp/ccUTdGa0.s 			page 55


     /tmp/ccUTdGa0.s:1295   .text:00000000000005f8 .LBB60
     /tmp/ccUTdGa0.s:1302   .text:00000000000005fc .LBE60
     /tmp/ccUTdGa0.s:6239   .debug_loc:0000000000000502 .LLST39
     /tmp/ccUTdGa0.s:1325   .text:000000000000062c .LBB62
     /tmp/ccUTdGa0.s:1333   .text:0000000000000634 .LBE62
     /tmp/ccUTdGa0.s:6246   .debug_loc:0000000000000525 .LLST40
     /tmp/ccUTdGa0.s:1339   .text:0000000000000640 .LVL128
     /tmp/ccUTdGa0.s:1345   .text:0000000000000650 .LVL129
     /tmp/ccUTdGa0.s:1349   .text:0000000000000658 .LVL130
     /tmp/ccUTdGa0.s:1223   .text:00000000000005a4 .LFB74
     /tmp/ccUTdGa0.s:1284   .text:00000000000005f8 .LFE74
     /tmp/ccUTdGa0.s:6253   .debug_loc:0000000000000548 .LLST34
     /tmp/ccUTdGa0.s:1228   .text:00000000000005a4 .LBB56
     /tmp/ccUTdGa0.s:1235   .text:00000000000005a8 .LBE56
     /tmp/ccUTdGa0.s:6277   .debug_loc:00000000000005aa .LLST35
     /tmp/ccUTdGa0.s:1252   .text:00000000000005c8 .LBB58
     /tmp/ccUTdGa0.s:1260   .text:00000000000005d0 .LBE58
     /tmp/ccUTdGa0.s:6284   .debug_loc:00000000000005cd .LLST36
     /tmp/ccUTdGa0.s:1266   .text:00000000000005dc .LVL120
     /tmp/ccUTdGa0.s:1270   .text:00000000000005e4 .LVL121
     /tmp/ccUTdGa0.s:977    .text:0000000000000548 .LFB73
     /tmp/ccUTdGa0.s:1030   .text:00000000000005a4 .LFE73
     /tmp/ccUTdGa0.s:995    .text:0000000000000568 .LBB53
     /tmp/ccUTdGa0.s:1003   .text:0000000000000570 .LBE53
     /tmp/ccUTdGa0.s:6291   .debug_loc:00000000000005f0 .LLST27
     /tmp/ccUTdGa0.s:1007   .text:0000000000000578 .LVL92
     /tmp/ccUTdGa0.s:1013   .text:0000000000000588 .LVL93
     /tmp/ccUTdGa0.s:1017   .text:0000000000000590 .LVL94
     /tmp/ccUTdGa0.s:775    .text:0000000000000420 .LFB72
     /tmp/ccUTdGa0.s:858    .text:000000000000048c .LFE72
     /tmp/ccUTdGa0.s:6298   .debug_loc:0000000000000613 .LLST19
     /tmp/ccUTdGa0.s:803    .text:0000000000000440 .LBB44
     /tmp/ccUTdGa0.s:837    .text:0000000000000468 .LBE44
     /tmp/ccUTdGa0.s:6313   .debug_loc:000000000000065c .LLST21
     /tmp/ccUTdGa0.s:810    .text:000000000000044c .LBB45
     /tmp/ccUTdGa0.s:817    .text:0000000000000450 .LBE45
     /tmp/ccUTdGa0.s:6320   .debug_loc:000000000000067f .LLST22
     /tmp/ccUTdGa0.s:823    .text:0000000000000458 .LBB47
     /tmp/ccUTdGa0.s:830    .text:000000000000045c .LBE47
     /tmp/ccUTdGa0.s:6327   .debug_loc:00000000000006a2 .LLST23
     /tmp/ccUTdGa0.s:808    .text:000000000000044c .LVL69
     /tmp/ccUTdGa0.s:834    .text:0000000000000464 .LVL73
     /tmp/ccUTdGa0.s:794    .text:0000000000000438 .LBB42
     /tmp/ccUTdGa0.s:800    .text:000000000000043c .LBE42
     /tmp/ccUTdGa0.s:6334   .debug_loc:00000000000006c5 .LLST20
     /tmp/ccUTdGa0.s:842    .text:0000000000000474 .LVL74
     /tmp/ccUTdGa0.s:864    .text:000000000000048c .LFB71
     /tmp/ccUTdGa0.s:971    .text:0000000000000548 .LFE71
     /tmp/ccUTdGa0.s:6343   .debug_loc:00000000000006eb .LLST24
     /tmp/ccUTdGa0.s:882    .text:00000000000004a8 .LBB49
     /tmp/ccUTdGa0.s:889    .text:00000000000004ac .LBE49
     /tmp/ccUTdGa0.s:6354   .debug_loc:0000000000000721 .LLST25
     /tmp/ccUTdGa0.s:897    .text:00000000000004b8 .LBB51
     /tmp/ccUTdGa0.s:904    .text:00000000000004bc .LBE51
     /tmp/ccUTdGa0.s:6361   .debug_loc:0000000000000744 .LLST26
     /tmp/ccUTdGa0.s:896    .text:00000000000004b8 .LVL78
     /tmp/ccUTdGa0.s:911    .text:00000000000004cc .LVL80
GAS LISTING /tmp/ccUTdGa0.s 			page 56


     /tmp/ccUTdGa0.s:913    .text:00000000000004d4 .LVL81
     /tmp/ccUTdGa0.s:917    .text:00000000000004e0 .LVL82
     /tmp/ccUTdGa0.s:925    .text:00000000000004f0 .LVL83
     /tmp/ccUTdGa0.s:931    .text:00000000000004fc .LVL84
     /tmp/ccUTdGa0.s:937    .text:000000000000050c .LVL85
     /tmp/ccUTdGa0.s:963    .text:000000000000053c .LVL88
     /tmp/ccUTdGa0.s:967    .text:0000000000000544 .LVL89
     /tmp/ccUTdGa0.s:398    .text:0000000000000260 .LFE70
     /tmp/ccUTdGa0.s:6368   .debug_loc:0000000000000767 .LLST8
     /tmp/ccUTdGa0.s:7201   .debug_str:0000000000001334 .LASF286
     /tmp/ccUTdGa0.s:6397   .debug_loc:00000000000007dc .LLST9
     /tmp/ccUTdGa0.s:6419   .debug_loc:000000000000083b .LLST10
     /tmp/ccUTdGa0.s:6441   .debug_loc:000000000000089a .LLST11
     /tmp/ccUTdGa0.s:320    .text:00000000000001bc .LVL28
     /tmp/ccUTdGa0.s:337    .text:00000000000001f8 .LVL29
     /tmp/ccUTdGa0.s:348    .text:000000000000020c .LVL30
     /tmp/ccUTdGa0.s:392    .text:0000000000000254 .LVL37
     /tmp/ccUTdGa0.s:395    .text:0000000000000260 .LVL38
     /tmp/ccUTdGa0.s:7143   .debug_str:000000000000113b .LASF287
     /tmp/ccUTdGa0.s:424    .text:0000000000000260 .LFB68
     /tmp/ccUTdGa0.s:510    .text:0000000000000330 .LFE68
     /tmp/ccUTdGa0.s:6463   .debug_loc:00000000000008f9 .LLST12
     /tmp/ccUTdGa0.s:6481   .debug_loc:0000000000000945 .LLST13
     /tmp/ccUTdGa0.s:462    .text:00000000000002b4 .LVL41
     /tmp/ccUTdGa0.s:487    .text:000000000000030c .LVL42
     /tmp/ccUTdGa0.s:492    .text:0000000000000318 .LVL43
     /tmp/ccUTdGa0.s:6627   .debug_str:000000000000006f .LASF288
     /tmp/ccUTdGa0.s:190    .text:00000000000000a0 .LFB65
     /tmp/ccUTdGa0.s:266    .text:0000000000000158 .LFE65
     /tmp/ccUTdGa0.s:6499   .debug_loc:0000000000000991 .LLST4
     /tmp/ccUTdGa0.s:6517   .debug_loc:00000000000009dd .LLST5
     /tmp/ccUTdGa0.s:6536   .debug_loc:0000000000000a2a .LLST6
     /tmp/ccUTdGa0.s:6555   .debug_loc:0000000000000a77 .LLST7
     /tmp/ccUTdGa0.s:245    .text:0000000000000138 .LVL24
     /tmp/ccUTdGa0.s:6767   .debug_str:000000000000049e .LASF289
     /tmp/ccUTdGa0.s:7087   .debug_str:0000000000000ea1 .LASF291
     /tmp/ccUTdGa0.s:6813   .debug_str:000000000000060a .LASF290
     /tmp/ccUTdGa0.s:6623   .debug_str:0000000000000061 .LASF292
     /tmp/ccUTdGa0.s:6933   .debug_str:0000000000000a0d .LASF293
     /tmp/ccUTdGa0.s:6679   .debug_str:00000000000001ad .LASF294
     /tmp/ccUTdGa0.s:6749   .debug_str:0000000000000410 .LASF295
     /tmp/ccUTdGa0.s:7185   .debug_str:00000000000012ae .LASF296
     /tmp/ccUTdGa0.s:6779   .debug_str:0000000000000504 .LASF297
     /tmp/ccUTdGa0.s:6937   .debug_str:0000000000000a26 .LASF298
     /tmp/ccUTdGa0.s:7131   .debug_str:00000000000010e8 .LASF299
     /tmp/ccUTdGa0.s:6633   .debug_str:000000000000009e .LASF300
     /tmp/ccUTdGa0.s:1040   .text._ZN3stm14CircularBufferIP3TCBE6extendEv:0000000000000000 .LVL95
     /tmp/ccUTdGa0.s:1056   .text._ZN3stm14CircularBufferIP3TCBE6extendEv:0000000000000020 .LVL96
     /tmp/ccUTdGa0.s:1127   .text._ZN3stm14CircularBufferIP3TCBE6extendEv:00000000000000a0 .LVL107
     /tmp/ccUTdGa0.s:1062   .text._ZN3stm14CircularBufferIP3TCBE6extendEv:0000000000000030 .LVL98
     /tmp/ccUTdGa0.s:1104   .text._ZN3stm14CircularBufferIP3TCBE6extendEv:0000000000000074 .LVL105
     /tmp/ccUTdGa0.s:1130   .text._ZN3stm14CircularBufferIP3TCBE6extendEv:00000000000000a4 .LVL108
     /tmp/ccUTdGa0.s:1069   .text._ZN3stm14CircularBufferIP3TCBE6extendEv:0000000000000038 .LVL100
     /tmp/ccUTdGa0.s:1089   .text._ZN3stm14CircularBufferIP3TCBE6extendEv:0000000000000060 .LVL101
     /tmp/ccUTdGa0.s:1099   .text._ZN3stm14CircularBufferIP3TCBE6extendEv:0000000000000070 .LVL104
     /tmp/ccUTdGa0.s:1066   .text._ZN3stm14CircularBufferIP3TCBE6extendEv:0000000000000034 .LVL99
     /tmp/ccUTdGa0.s:1092   .text._ZN3stm14CircularBufferIP3TCBE6extendEv:0000000000000064 .LVL102
GAS LISTING /tmp/ccUTdGa0.s 			page 57


     /tmp/ccUTdGa0.s:1097   .text._ZN3stm14CircularBufferIP3TCBE6extendEv:000000000000006c .LVL103
     /tmp/ccUTdGa0.s:1145   .text._ZN3stm14CircularBufferIP3TCBE3putES2_:0000000000000000 .LVL109
     /tmp/ccUTdGa0.s:1166   .text._ZN3stm14CircularBufferIP3TCBE3putES2_:000000000000002c .LVL110
     /tmp/ccUTdGa0.s:1201   .text._ZN3stm14CircularBufferIP3TCBE3putES2_:000000000000006c .LVL111
     /tmp/ccUTdGa0.s:1208   .text._ZN3stm14CircularBufferIP3TCBE3putES2_:0000000000000078 .LVL113
     /tmp/ccUTdGa0.s:1204   .text._ZN3stm14CircularBufferIP3TCBE3putES2_:0000000000000070 .LVL112
     /tmp/ccUTdGa0.s:744    .text._ZN3stm14CircularBufferIP3TCBE7destroyEv:0000000000000000 .LVL63
     /tmp/ccUTdGa0.s:755    .text._ZN3stm14CircularBufferIP3TCBE7destroyEv:0000000000000014 .LVL64
     /tmp/ccUTdGa0.s:695    .text._ZN3stm14CircularBufferIP3TCBE3getEv:0000000000000000 .LVL61
     /tmp/ccUTdGa0.s:712    .text._ZN3stm14CircularBufferIP3TCBE3getEv:0000000000000024 .LVL62
     /tmp/ccUTdGa0.s:142    .text._ZN3stm14CircularBufferIP3TCBE4initEv:0000000000000000 .LVL15
     /tmp/ccUTdGa0.s:165    .text._ZN3stm14CircularBufferIP3TCBE4initEv:0000000000000030 .LVL16
     /tmp/ccUTdGa0.s:178    .text._ZN3stm14CircularBufferIP3TCBE4initEv:0000000000000048 .LVL18
     /tmp/ccUTdGa0.s:57     .text:0000000000000044 .LVL3
     /tmp/ccUTdGa0.s:101    .text:000000000000007c .LVL8
     /tmp/ccUTdGa0.s:111    .text:0000000000000088 .LVL9
     /tmp/ccUTdGa0.s:116    .text:000000000000008c .LVL10
     /tmp/ccUTdGa0.s:118    .text:0000000000000090 .LVL11
     /tmp/ccUTdGa0.s:122    .text:0000000000000094 .LVL12
     /tmp/ccUTdGa0.s:124    .text:0000000000000098 .LVL13
     /tmp/ccUTdGa0.s:128    .text:000000000000009c .LVL14
     /tmp/ccUTdGa0.s:67     .text:0000000000000054 .LVL4
     /tmp/ccUTdGa0.s:74     .text:0000000000000058 .LVL5
     /tmp/ccUTdGa0.s:88     .text:0000000000000070 .LVL6
     /tmp/ccUTdGa0.s:95     .text:0000000000000078 .LVL7
     /tmp/ccUTdGa0.s:538    .text:0000000000000350 .LVL46
     /tmp/ccUTdGa0.s:591    .text:00000000000003ac .LVL51
     /tmp/ccUTdGa0.s:595    .text:00000000000003b4 .LVL52
     /tmp/ccUTdGa0.s:656    .text:0000000000000408 .LVL58
     /tmp/ccUTdGa0.s:588    .text:00000000000003a8 .LVL50
     /tmp/ccUTdGa0.s:653    .text:0000000000000404 .LVL57
     /tmp/ccUTdGa0.s:616    .text:00000000000003c0 .LVL53
     /tmp/ccUTdGa0.s:628    .text:00000000000003d4 .LVL54
     /tmp/ccUTdGa0.s:1293   .text:00000000000005f8 .LVL123
     /tmp/ccUTdGa0.s:1337   .text:0000000000000638 .LVL127
     /tmp/ccUTdGa0.s:1364   .text:0000000000000670 .LVL132
     /tmp/ccUTdGa0.s:1324   .text:000000000000062c .LVL125
     /tmp/ccUTdGa0.s:1358   .text:0000000000000664 .LVL131
     /tmp/ccUTdGa0.s:1300   .text:00000000000005fc .LVL124
     /tmp/ccUTdGa0.s:1331   .text:0000000000000634 .LVL126
     /tmp/ccUTdGa0.s:1226   .text:00000000000005a4 .LVL115
     /tmp/ccUTdGa0.s:1264   .text:00000000000005d4 .LVL119
     /tmp/ccUTdGa0.s:1280   .text:00000000000005f4 .LVL122
     /tmp/ccUTdGa0.s:1233   .text:00000000000005a8 .LVL116
     /tmp/ccUTdGa0.s:1251   .text:00000000000005c8 .LVL117
     /tmp/ccUTdGa0.s:1258   .text:00000000000005d0 .LVL118
     /tmp/ccUTdGa0.s:994    .text:0000000000000568 .LVL90
     /tmp/ccUTdGa0.s:1001   .text:0000000000000570 .LVL91
     /tmp/ccUTdGa0.s:778    .text:0000000000000420 .LVL66
     /tmp/ccUTdGa0.s:790    .text:0000000000000438 .LVL67
     /tmp/ccUTdGa0.s:853    .text:0000000000000484 .LVL75
     /tmp/ccUTdGa0.s:815    .text:0000000000000450 .LVL70
     /tmp/ccUTdGa0.s:822    .text:0000000000000458 .LVL71
     /tmp/ccUTdGa0.s:828    .text:000000000000045c .LVL72
     /tmp/ccUTdGa0.s:798    .text:000000000000043c .LVL68
     /tmp/ccUTdGa0.s:880    .text:00000000000004a8 .LVL76
     /tmp/ccUTdGa0.s:950    .text:000000000000051c .LVL86
GAS LISTING /tmp/ccUTdGa0.s 			page 58


     /tmp/ccUTdGa0.s:954    .text:0000000000000524 .LVL87
     /tmp/ccUTdGa0.s:887    .text:00000000000004ac .LVL77
     /tmp/ccUTdGa0.s:902    .text:00000000000004bc .LVL79
     /tmp/ccUTdGa0.s:279    .text:0000000000000158 .LVL26
     /tmp/ccUTdGa0.s:317    .text:00000000000001b4 .LVL27
     /tmp/ccUTdGa0.s:366    .text:0000000000000224 .LVL31
     /tmp/ccUTdGa0.s:379    .text:0000000000000238 .LVL35
     /tmp/ccUTdGa0.s:388    .text:0000000000000248 .LVL36
     /tmp/ccUTdGa0.s:369    .text:0000000000000228 .LVL32
     /tmp/ccUTdGa0.s:375    .text:0000000000000230 .LVL34
     /tmp/ccUTdGa0.s:372    .text:000000000000022c .LVL33
     /tmp/ccUTdGa0.s:427    .text:0000000000000260 .LVL39
     /tmp/ccUTdGa0.s:460    .text:00000000000002ac .LVL40
     /tmp/ccUTdGa0.s:502    .text:0000000000000324 .LVL44
     /tmp/ccUTdGa0.s:505    .text:0000000000000328 .LVL45
     /tmp/ccUTdGa0.s:193    .text:00000000000000a0 .LVL19
     /tmp/ccUTdGa0.s:212    .text:00000000000000cc .LVL20
     /tmp/ccUTdGa0.s:259    .text:000000000000014c .LVL25
     /tmp/ccUTdGa0.s:222    .text:00000000000000ec .LVL21
     /tmp/ccUTdGa0.s:224    .text:00000000000000f0 .LVL22
     /tmp/ccUTdGa0.s:226    .text:00000000000000f4 .LVL23
     /tmp/ccUTdGa0.s:1399   .debug_info:0000000000000000 .Ldebug_info0
     /tmp/ccUTdGa0.s:5      .text:0000000000000000 .Ltext0
     /tmp/ccUTdGa0.s:1390   .text:0000000000000674 .Letext0
     /tmp/ccUTdGa0.s:401    .gcc_except_table:0000000000000000 .LLSDA70
     /tmp/ccUTdGa0.s:668    .gcc_except_table:000000000000002b .LLSDA76

UNDEFINED SYMBOLS
_ZN5riscv10popSppSpieEv
_Z11thread_exitv
_Z9mem_allocm
_Znwm
_ZN9Scheduler3putEP3TCB
_ZdlPv
_Unwind_Resume
__gxx_personality_v0
_ZN9Allocator10_mem_allocEm
_ZN5riscv7setjumpEv
_ZN5riscv8longjumpEv
_Z6memcpyPKvS0_i
_Z8mem_freePv
_ZN9Scheduler4peekEv
_ZN9Scheduler3getEv
_ZN9Allocator9_mem_freeEPKv
_ZN3TCB14context_switchEP7ContextS1_
_ZN6Cradle6insertEP3TCBm
