GAS LISTING /tmp/ccGdnASE.s 			page 1


   1              		.file	"c_thread.cpp"
   2              		.option pic
   3              		.option norelax
   4              		.text
   5              	.Ltext0:
   6              		.align	2
   7              		.globl	_ZN3TCB12thread_startEv
   9              	_ZN3TCB12thread_startEv:
  10              	.LFB61:
  11              		.file 1 "src/c_thread.cpp"
   1:src/c_thread.cpp **** #include "../h/scheduler.hpp"
   2:src/c_thread.cpp **** #include "../h/riscv.hpp"
   3:src/c_thread.cpp **** #include "../h/c_console.hpp"
   4:src/c_thread.cpp **** #include "../h/c_thread.hpp"
   5:src/c_thread.cpp **** #include "../h/c_sleep.hpp"
   6:src/c_thread.cpp **** 
   7:src/c_thread.cpp **** int TCB::ID = 0;
   8:src/c_thread.cpp **** TCB *TCB::running = nullptr;
   9:src/c_thread.cpp **** time_t TCB::timer_counter = 0;
  10:src/c_thread.cpp **** typedef TCB *thread_t;
  11:src/c_thread.cpp **** extern thread_t handle_bleya;
  12:src/c_thread.cpp **** 
  13:src/c_thread.cpp **** TCB::TCB(run_t start_routine, void *arg, void *stack, Context context) :
  14:src/c_thread.cpp ****         t_id(TCB::ID++), _run(start_routine), arg(arg),
  15:src/c_thread.cpp ****         stack(stack), parent(TCB::running),
  16:src/c_thread.cpp ****         context(context), status(RUNNABLE),
  17:src/c_thread.cpp ****         time_slice(DEFAULT_TIME_SLICE), preempted(false), joiner() {
  18:src/c_thread.cpp ****     this->joiner.init();
  19:src/c_thread.cpp ****     this->parent = TCB::running;
  20:src/c_thread.cpp **** }
  21:src/c_thread.cpp **** 
  22:src/c_thread.cpp **** TCB::TCB(TCB &parent) :
  23:src/c_thread.cpp ****         t_id(TCB::ID++), _run(parent._run), arg(parent.arg),
  24:src/c_thread.cpp ****         stack(Allocator::_mem_alloc(DEFAULT_STACK_SIZE)),
  25:src/c_thread.cpp ****         parent(&parent), context(parent.context), status(RUNNABLE), time_slice(DEFAULT_TIME_SLICE),
  26:src/c_thread.cpp ****         preempted(false), joiner() {
  27:src/c_thread.cpp ****     this->joiner.init();
  28:src/c_thread.cpp **** }
  29:src/c_thread.cpp **** 
  30:src/c_thread.cpp **** int TCB::_thread_create(thread_t *handle, void(*start_routine)(void *), void *arg, void *stack) {
  31:src/c_thread.cpp ****     *handle = new TCB(start_routine, arg, stack, {(uint64) thread_start, (uint64) stack + DEFAULT_S
  32:src/c_thread.cpp ****     if (start_routine) Scheduler::put(*handle);
  33:src/c_thread.cpp ****     return (*handle)->t_id;
  34:src/c_thread.cpp **** }
  35:src/c_thread.cpp **** 
  36:src/c_thread.cpp **** void TCB::yield() {
  37:src/c_thread.cpp ****     thread_t old = TCB::running;
  38:src/c_thread.cpp ****     old->context.sstatus = Riscv::r_sstatus();
  39:src/c_thread.cpp ****     old->context.sepc = Riscv::r_sepc();
  40:src/c_thread.cpp ****     if (old->is_runnable() && old != handle_bleya) {
  41:src/c_thread.cpp ****         Scheduler::put(old);
  42:src/c_thread.cpp ****     } else if (old->is_finished()) {
  43:src/c_thread.cpp ****         Allocator::_mem_free(old->stack);
  44:src/c_thread.cpp ****     }
  45:src/c_thread.cpp ****     if (Scheduler::is_empty()) {
  46:src/c_thread.cpp ****         TCB::running = handle_bleya;
  47:src/c_thread.cpp ****     } else {
GAS LISTING /tmp/ccGdnASE.s 			page 2


  48:src/c_thread.cpp ****         while (Scheduler::peek()->is_finished()) {
  49:src/c_thread.cpp ****             Allocator::_mem_free(TCB::destroy_thread(Scheduler::get())->stack);
  50:src/c_thread.cpp ****         }
  51:src/c_thread.cpp ****         TCB::running = Scheduler::get();
  52:src/c_thread.cpp ****     }
  53:src/c_thread.cpp ****     Riscv::w_sstatus(TCB::running->context.sstatus);
  54:src/c_thread.cpp ****     Riscv::w_sepc(TCB::running->context.sepc);
  55:src/c_thread.cpp ****     TCB::context_switch(&old->context, &TCB::running->context);
  56:src/c_thread.cpp **** }
  57:src/c_thread.cpp **** 
  58:src/c_thread.cpp **** void TCB::_thread_dispatch() {
  59:src/c_thread.cpp ****     Riscv::push();
  60:src/c_thread.cpp ****     TCB::yield();
  61:src/c_thread.cpp ****     Riscv::pop();
  62:src/c_thread.cpp **** }
  63:src/c_thread.cpp **** 
  64:src/c_thread.cpp **** TCB *TCB::destroy_thread(TCB *thread) {
  65:src/c_thread.cpp ****     while (!thread->joiner.is_empty()) {
  66:src/c_thread.cpp ****         TCB *next = thread->joiner.get();
  67:src/c_thread.cpp ****         if (next->is_joined()) {
  68:src/c_thread.cpp ****             next->run();
  69:src/c_thread.cpp ****             Scheduler::put(next);
  70:src/c_thread.cpp ****         }
  71:src/c_thread.cpp ****     }
  72:src/c_thread.cpp ****     thread->joiner.destroy();
  73:src/c_thread.cpp ****     return thread;
  74:src/c_thread.cpp **** }
  75:src/c_thread.cpp **** 
  76:src/c_thread.cpp **** void TCB::_thread_exit() {
  77:src/c_thread.cpp ****     TCB::running->finish();
  78:src/c_thread.cpp ****     TCB::destroy_thread(TCB::running);
  79:src/c_thread.cpp ****     TCB::_thread_dispatch();
  80:src/c_thread.cpp **** }
  81:src/c_thread.cpp **** 
  82:src/c_thread.cpp **** void TCB::_thread_join(thread_t handle) {
  83:src/c_thread.cpp ****     if (handle->is_finished())
  84:src/c_thread.cpp ****         return;
  85:src/c_thread.cpp ****     TCB::running->enjoin();
  86:src/c_thread.cpp ****     handle->joiner.put(TCB::running);
  87:src/c_thread.cpp ****     TCB::_thread_dispatch();
  88:src/c_thread.cpp **** }
  89:src/c_thread.cpp **** 
  90:src/c_thread.cpp **** void TCB::_thread_join(thread_t handle, time_t time) {
  91:src/c_thread.cpp ****     if (handle->is_finished())
  92:src/c_thread.cpp ****         return;
  93:src/c_thread.cpp ****     TCB::running->enjoin();
  94:src/c_thread.cpp ****     handle->joiner.put(TCB::running);
  95:src/c_thread.cpp ****     Cradle::insert(TCB::running, time);
  96:src/c_thread.cpp ****     TCB::_thread_dispatch();
  97:src/c_thread.cpp **** }
  98:src/c_thread.cpp **** 
  99:src/c_thread.cpp **** void TCB::duplicate(TCB *parent, TCB *child) {
 100:src/c_thread.cpp ****     Riscv::push();
 101:src/c_thread.cpp ****     memcpy(parent->stack, child->stack, DEFAULT_STACK_SIZE);
 102:src/c_thread.cpp ****     child->context = parent->context;
 103:src/c_thread.cpp ****     Riscv::pop();
 104:src/c_thread.cpp **** }
GAS LISTING /tmp/ccGdnASE.s 			page 3


 105:src/c_thread.cpp **** 
 106:src/c_thread.cpp **** int TCB::_fork() {
 107:src/c_thread.cpp ****     int id_parent = TCB::running->t_id;
 108:src/c_thread.cpp ****     TCB *handle = new TCB(*TCB::running);
 109:src/c_thread.cpp ****     TCB::duplicate(TCB::running, handle);
 110:src/c_thread.cpp ****     print(TCB::running->t_id);
 111:src/c_thread.cpp ****     putc(' ');
 112:src/c_thread.cpp ****     print(id_parent);
 113:src/c_thread.cpp ****     putc(' ');
 114:src/c_thread.cpp ****     print(handle->t_id);
 115:src/c_thread.cpp ****     putc('\n');
 116:src/c_thread.cpp ****     if (TCB::running->t_id == id_parent) {
 117:src/c_thread.cpp ****         Scheduler::put(handle);
 118:src/c_thread.cpp ****         return handle->t_id;
 119:src/c_thread.cpp ****     } else {
 120:src/c_thread.cpp ****         print(TCB::running->t_id);
 121:src/c_thread.cpp ****         return 0;
 122:src/c_thread.cpp ****     }
 123:src/c_thread.cpp **** }
 124:src/c_thread.cpp **** 
 125:src/c_thread.cpp **** int TCB::_kill(TCB *thread) {
 126:src/c_thread.cpp ****     if (!thread) return -1;
 127:src/c_thread.cpp ****     if (thread->is_finished()) return -2;
 128:src/c_thread.cpp ****     if (TCB::running != thread->parent) return -4;
 129:src/c_thread.cpp ****     thread->finish();
 130:src/c_thread.cpp ****     return 0;
 131:src/c_thread.cpp **** }
 132:src/c_thread.cpp **** 
 133:src/c_thread.cpp **** void TCB::thread_start() {
  12              		.loc 1 133 26
  13              		.cfi_startproc
  14 0000 130101FF 		addi	sp,sp,-16
  15              		.cfi_def_cfa_offset 16
  16 0004 23341100 		sd	ra,8(sp)
  17 0008 23308100 		sd	s0,0(sp)
  18              		.cfi_offset 1, -8
  19              		.cfi_offset 8, -16
  20 000c 13040101 		addi	s0,sp,16
  21              		.cfi_def_cfa 8, 0
 134:src/c_thread.cpp ****     Riscv::popSppSpie();
  22              		.loc 1 134 5
  23              		.loc 1 134 22 is_stmt 0
  24 0010 97000000 		call	_ZN5Riscv10popSppSpieEv@plt
  24      E7800000 
  25              	.LVL0:
 135:src/c_thread.cpp ****     TCB::running->_run(TCB::running->arg);
  26              		.loc 1 135 5 is_stmt 1
  27              		.loc 1 135 19 is_stmt 0
  28 0018 97070000 		ld	a5,.LANCHOR0
  28      83B70700 
  29 0020 03B78700 		ld	a4,8(a5)
  30              		.loc 1 135 23
  31 0024 03B50701 		ld	a0,16(a5)
  32 0028 E7000700 		jalr	a4
  33              	.LVL1:
 136:src/c_thread.cpp ****     thread_exit();
  34              		.loc 1 136 5 is_stmt 1
GAS LISTING /tmp/ccGdnASE.s 			page 4


  35              		.loc 1 136 16 is_stmt 0
  36 002c 97000000 		call	_Z11thread_exitv@plt
  36      E7800000 
  37              	.LVL2:
 137:src/c_thread.cpp **** }...
  38              		.loc 1 137 1
  39 0034 83308100 		ld	ra,8(sp)
  40              		.cfi_restore 1
  41 0038 03340100 		ld	s0,0(sp)
  42              		.cfi_restore 8
  43              		.cfi_def_cfa 2, 16
  44 003c 13010101 		addi	sp,sp,16
  45              		.cfi_def_cfa_offset 0
  46 0040 67800000 		jr	ra
  47              		.cfi_endproc
  48              	.LFE61:
  50              		.align	2
  51              		.globl	_ZN3TCB9duplicateEPS_S0_
  53              	_ZN3TCB9duplicateEPS_S0_:
  54              	.LFB58:
  99:src/c_thread.cpp **** void TCB::duplicate(TCB *parent, TCB *child) {
  55              		.loc 1 99 46 is_stmt 1
  56              		.cfi_startproc
  57              	.LVL3:
  58 0044 130101FE 		addi	sp,sp,-32
  59              		.cfi_def_cfa_offset 32
  60 0048 233C1100 		sd	ra,24(sp)
  61 004c 23388100 		sd	s0,16(sp)
  62 0050 23349100 		sd	s1,8(sp)
  63 0054 23302101 		sd	s2,0(sp)
  64              		.cfi_offset 1, -8
  65              		.cfi_offset 8, -16
  66              		.cfi_offset 9, -24
  67              		.cfi_offset 18, -32
  68 0058 13040102 		addi	s0,sp,32
  69              		.cfi_def_cfa 8, 0
  70 005c 13090500 		mv	s2,a0
  71 0060 93840500 		mv	s1,a1
 100:src/c_thread.cpp ****     Riscv::push();
  72              		.loc 1 100 5
 100:src/c_thread.cpp ****     Riscv::push();
  73              		.loc 1 100 16 is_stmt 0
  74 0064 97000000 		call	_ZN5Riscv4pushEv@plt
  74      E7800000 
  75              	.LVL4:
 101:src/c_thread.cpp ****     memcpy(parent->stack, child->stack, DEFAULT_STACK_SIZE);
  76              		.loc 1 101 5 is_stmt 1
 101:src/c_thread.cpp ****     memcpy(parent->stack, child->stack, DEFAULT_STACK_SIZE);
  77              		.loc 1 101 11 is_stmt 0
  78 006c 37460000 		li	a2,16384
  79 0070 83B58401 		ld	a1,24(s1)
  80 0074 03358901 		ld	a0,24(s2)
  81 0078 97000000 		call	_Z6memcpyPKvS0_i@plt
  81      E7800000 
  82              	.LVL5:
 102:src/c_thread.cpp ****     child->context = parent->context;
  83              		.loc 1 102 5 is_stmt 1
GAS LISTING /tmp/ccGdnASE.s 			page 5


 102:src/c_thread.cpp ****     child->context = parent->context;
  84              		.loc 1 102 20 is_stmt 0
  85 0080 03368902 		ld	a2,40(s2)
  86 0084 83360903 		ld	a3,48(s2)
  87 0088 03378903 		ld	a4,56(s2)
  88 008c 83370904 		ld	a5,64(s2)
  89 0090 23B4C402 		sd	a2,40(s1)
  90 0094 23B8D402 		sd	a3,48(s1)
  91 0098 23BCE402 		sd	a4,56(s1)
  92 009c 23B0F404 		sd	a5,64(s1)
 103:src/c_thread.cpp ****     Riscv::pop();
  93              		.loc 1 103 5 is_stmt 1
 103:src/c_thread.cpp ****     Riscv::pop();
  94              		.loc 1 103 15 is_stmt 0
  95 00a0 97000000 		call	_ZN5Riscv3popEv@plt
  95      E7800000 
  96              	.LVL6:
 104:src/c_thread.cpp **** }
  97              		.loc 1 104 1
  98 00a8 83308101 		ld	ra,24(sp)
  99              		.cfi_restore 1
 100 00ac 03340101 		ld	s0,16(sp)
 101              		.cfi_restore 8
 102              		.cfi_def_cfa 2, 32
 103 00b0 83348100 		ld	s1,8(sp)
 104              		.cfi_restore 9
 105              	.LVL7:
 106 00b4 03390100 		ld	s2,0(sp)
 107              		.cfi_restore 18
 108              	.LVL8:
 109 00b8 13010102 		addi	sp,sp,32
 110              		.cfi_def_cfa_offset 0
 111 00bc 67800000 		jr	ra
 112              		.cfi_endproc
 113              	.LFE58:
 115              		.align	2
 116              		.globl	_ZN3TCB5_killEPS_
 118              	_ZN3TCB5_killEPS_:
 119              	.LFB60:
 125:src/c_thread.cpp **** int TCB::_kill(TCB *thread) {
 120              		.loc 1 125 29 is_stmt 1
 121              		.cfi_startproc
 122              	.LVL9:
 123 00c0 130101FF 		addi	sp,sp,-16
 124              		.cfi_def_cfa_offset 16
 125 00c4 23348100 		sd	s0,8(sp)
 126              		.cfi_offset 8, -8
 127 00c8 13040101 		addi	s0,sp,16
 128              		.cfi_def_cfa 8, 0
 126:src/c_thread.cpp ****     if (!thread) return -1;
 129              		.loc 1 126 5
 130 00cc 630C0502 		beqz	a0,.L7
 127:src/c_thread.cpp ****     if (thread->is_finished()) return -2;
 131              		.loc 1 127 5
 132              	.LVL10:
 133              	.LBB51:
 134              	.LBB52:
GAS LISTING /tmp/ccGdnASE.s 			page 6


 135              		.file 2 "src/../h/c_thread.hpp"
   1:src/../h/c_thread.hpp **** #ifndef PROJECT_BASE_C_THREAD_HPP
   2:src/../h/c_thread.hpp **** #define PROJECT_BASE_C_THREAD_HPP
   3:src/../h/c_thread.hpp **** 
   4:src/../h/c_thread.hpp **** #include "syscall_c.hpp"
   5:src/../h/c_thread.hpp **** #include "../lib/hw.h"
   6:src/../h/c_thread.hpp **** #include "circular_buffer.hpp"
   7:src/../h/c_thread.hpp **** 
   8:src/../h/c_thread.hpp **** using run_t = void (*)(void *);
   9:src/../h/c_thread.hpp **** 
  10:src/../h/c_thread.hpp **** struct Context {
  11:src/../h/c_thread.hpp ****     uint64 ra;
  12:src/../h/c_thread.hpp ****     uint64 sp;
  13:src/../h/c_thread.hpp ****     uint64 sstatus;
  14:src/../h/c_thread.hpp ****     uint64 sepc;
  15:src/../h/c_thread.hpp **** };
  16:src/../h/c_thread.hpp **** 
  17:src/../h/c_thread.hpp **** enum Status {
  18:src/../h/c_thread.hpp ****     RUNNABLE, BLOCKED, SLEEPING, JOINED, FINISHED
  19:src/../h/c_thread.hpp **** };
  20:src/../h/c_thread.hpp **** 
  21:src/../h/c_thread.hpp **** class TCB final {
  22:src/../h/c_thread.hpp **** public:
  23:src/../h/c_thread.hpp ****     static int _thread_create(thread_t *, void(*)(void *), void *, void *);
  24:src/../h/c_thread.hpp **** 
  25:src/../h/c_thread.hpp ****     static void _thread_exit();
  26:src/../h/c_thread.hpp **** 
  27:src/../h/c_thread.hpp ****     static void _thread_dispatch();
  28:src/../h/c_thread.hpp **** 
  29:src/../h/c_thread.hpp ****     static void _thread_join(thread_t);
  30:src/../h/c_thread.hpp **** 
  31:src/../h/c_thread.hpp ****     static void _thread_join(thread_t, time_t);
  32:src/../h/c_thread.hpp **** 
  33:src/../h/c_thread.hpp ****     static int _fork();
  34:src/../h/c_thread.hpp **** 
  35:src/../h/c_thread.hpp ****     static int _kill(TCB *);
  36:src/../h/c_thread.hpp **** 
  37:src/../h/c_thread.hpp ****     static void thread_start();
  38:src/../h/c_thread.hpp **** 
  39:src/../h/c_thread.hpp ****     static void context_switch(Context *, Context *);
  40:src/../h/c_thread.hpp **** 
  41:src/../h/c_thread.hpp ****     static void yield();
  42:src/../h/c_thread.hpp **** 
  43:src/../h/c_thread.hpp ****     static TCB *destroy_thread(TCB *);
  44:src/../h/c_thread.hpp **** 
  45:src/../h/c_thread.hpp ****     static void duplicate(TCB *, TCB *);
  46:src/../h/c_thread.hpp **** 
  47:src/../h/c_thread.hpp ****     TCB(run_t, void *, void *, Context);
  48:src/../h/c_thread.hpp **** 
  49:src/../h/c_thread.hpp ****     TCB(TCB &);
  50:src/../h/c_thread.hpp **** 
  51:src/../h/c_thread.hpp ****     bool is_runnable() const { return this->status == RUNNABLE; }
  52:src/../h/c_thread.hpp **** 
  53:src/../h/c_thread.hpp ****     bool is_blocked() const { return this->status == BLOCKED; }
  54:src/../h/c_thread.hpp **** 
  55:src/../h/c_thread.hpp ****     bool is_sleeping() const { return this->status == SLEEPING; }
  56:src/../h/c_thread.hpp **** 
GAS LISTING /tmp/ccGdnASE.s 			page 7


  57:src/../h/c_thread.hpp ****     bool is_joined() const { return this->status == JOINED; }
  58:src/../h/c_thread.hpp **** 
  59:src/../h/c_thread.hpp ****     bool is_finished() const { return this->status == FINISHED; }
 136              		.loc 2 59 32
 137              		.loc 2 59 45 is_stmt 0
 138 00d0 03278504 		lw	a4,72(a0)
 139              	.LVL11:
 140              	.LBE52:
 141              	.LBE51:
 127:src/c_thread.cpp ****     if (thread->is_finished()) return -2;
 142              		.loc 1 127 5
 143 00d4 93074000 		li	a5,4
 144 00d8 630AF702 		beq	a4,a5,.L8
 128:src/c_thread.cpp ****     if (TCB::running != thread->parent) return -4;
 145              		.loc 1 128 5 is_stmt 1
 128:src/c_thread.cpp ****     if (TCB::running != thread->parent) return -4;
 146              		.loc 1 128 33 is_stmt 0
 147 00dc 03370502 		ld	a4,32(a0)
 128:src/c_thread.cpp ****     if (TCB::running != thread->parent) return -4;
 148              		.loc 1 128 14
 149 00e0 97070000 		ld	a5,.LANCHOR0
 149      83B70700 
 128:src/c_thread.cpp ****     if (TCB::running != thread->parent) return -4;
 150              		.loc 1 128 5
 151 00e8 6316F702 		bne	a4,a5,.L9
 129:src/c_thread.cpp ****     thread->finish();
 152              		.loc 1 129 5 is_stmt 1
 153              	.LVL12:
 154              	.LBB53:
 155              	.LBB54:
  60:src/../h/c_thread.hpp **** 
  61:src/../h/c_thread.hpp ****     void run() { this->status = RUNNABLE; }
  62:src/../h/c_thread.hpp **** 
  63:src/../h/c_thread.hpp ****     void block() { this->status = BLOCKED; }
  64:src/../h/c_thread.hpp **** 
  65:src/../h/c_thread.hpp ****     void sleep() { this->status = SLEEPING; }
  66:src/../h/c_thread.hpp **** 
  67:src/../h/c_thread.hpp ****     void enjoin() { this->status = JOINED; }
  68:src/../h/c_thread.hpp **** 
  69:src/../h/c_thread.hpp ****     void finish() { this->status = FINISHED; }
 156              		.loc 2 69 21
 157              		.loc 2 69 34 is_stmt 0
 158 00ec 93074000 		li	a5,4
 159 00f0 2324F504 		sw	a5,72(a0)
 160              	.LVL13:
 161              	.LBE54:
 162              	.LBE53:
 130:src/c_thread.cpp ****     return 0;
 163              		.loc 1 130 5 is_stmt 1
 130:src/c_thread.cpp ****     return 0;
 164              		.loc 1 130 12 is_stmt 0
 165 00f4 13050000 		li	a0,0
 166              	.LVL14:
 167              	.L6:
 131:src/c_thread.cpp **** }
 168              		.loc 1 131 1
 169 00f8 03348100 		ld	s0,8(sp)
GAS LISTING /tmp/ccGdnASE.s 			page 8


 170              		.cfi_remember_state
 171              		.cfi_restore 8
 172              		.cfi_def_cfa 2, 16
 173 00fc 13010101 		addi	sp,sp,16
 174              		.cfi_def_cfa_offset 0
 175 0100 67800000 		jr	ra
 176              	.LVL15:
 177              	.L7:
 178              		.cfi_restore_state
 126:src/c_thread.cpp ****     if (!thread) return -1;
 179              		.loc 1 126 26
 180 0104 1305F0FF 		li	a0,-1
 181              	.LVL16:
 182 0108 6FF01FFF 		j	.L6
 183              	.LVL17:
 184              	.L8:
 127:src/c_thread.cpp ****     if (thread->is_finished()) return -2;
 185              		.loc 1 127 40
 186 010c 1305E0FF 		li	a0,-2
 187              	.LVL18:
 188 0110 6FF09FFE 		j	.L6
 189              	.LVL19:
 190              	.L9:
 128:src/c_thread.cpp ****     if (TCB::running != thread->parent) return -4;
 191              		.loc 1 128 49
 192 0114 1305C0FF 		li	a0,-4
 193              	.LVL20:
 194 0118 6FF01FFE 		j	.L6
 195              		.cfi_endproc
 196              	.LFE60:
 198              		.section	.text._ZN3stm14CircularBufferIP3TCBE4initEv,"axG",@progbits,_ZN3stm14CircularBufferIP3TCB
 199              		.align	2
 200              		.weak	_ZN3stm14CircularBufferIP3TCBE4initEv
 202              	_ZN3stm14CircularBufferIP3TCBE4initEv:
 203              	.LFB62:
 204              		.file 3 "src/../h/circular_buffer.hpp"
   1:src/../h/circular_buffer.hpp **** #ifndef PROJECT_BASE_CIRCULAR_BUFFER_HPP
   2:src/../h/circular_buffer.hpp **** #define PROJECT_BASE_CIRCULAR_BUFFER_HPP
   3:src/../h/circular_buffer.hpp **** 
   4:src/../h/circular_buffer.hpp **** #include "syscall_c.hpp"
   5:src/../h/circular_buffer.hpp **** #include "c_memory.hpp"
   6:src/../h/circular_buffer.hpp **** 
   7:src/../h/circular_buffer.hpp **** namespace stm {
   8:src/../h/circular_buffer.hpp ****     template<typename T>
   9:src/../h/circular_buffer.hpp ****     class CircularBuffer {
  10:src/../h/circular_buffer.hpp ****     public:
  11:src/../h/circular_buffer.hpp **** 
  12:src/../h/circular_buffer.hpp ****         void init();
  13:src/../h/circular_buffer.hpp **** 
  14:src/../h/circular_buffer.hpp ****         void put(T);
  15:src/../h/circular_buffer.hpp **** 
  16:src/../h/circular_buffer.hpp ****         T get();
  17:src/../h/circular_buffer.hpp **** 
  18:src/../h/circular_buffer.hpp ****         T &peek();
  19:src/../h/circular_buffer.hpp **** 
  20:src/../h/circular_buffer.hpp ****         inline bool is_empty() const { return this->size == 0; }
  21:src/../h/circular_buffer.hpp **** 
GAS LISTING /tmp/ccGdnASE.s 			page 9


  22:src/../h/circular_buffer.hpp ****         void destroy();
  23:src/../h/circular_buffer.hpp **** 
  24:src/../h/circular_buffer.hpp ****     private:
  25:src/../h/circular_buffer.hpp **** 
  26:src/../h/circular_buffer.hpp ****         void extend();
  27:src/../h/circular_buffer.hpp **** 
  28:src/../h/circular_buffer.hpp ****         static int constexpr CAPACITY = 16;
  29:src/../h/circular_buffer.hpp ****         T *queue;
  30:src/../h/circular_buffer.hpp ****         int head;
  31:src/../h/circular_buffer.hpp ****         int tail;
  32:src/../h/circular_buffer.hpp ****         int size;
  33:src/../h/circular_buffer.hpp ****         int capacity;
  34:src/../h/circular_buffer.hpp ****     };
  35:src/../h/circular_buffer.hpp **** }
  36:src/../h/circular_buffer.hpp **** 
  37:src/../h/circular_buffer.hpp **** template<typename T>
  38:src/../h/circular_buffer.hpp **** void stm::CircularBuffer<T>::init() {
 205              		.loc 3 38 6 is_stmt 1
 206              		.cfi_startproc
 207              	.LVL21:
 208 0000 130101FE 		addi	sp,sp,-32
 209              		.cfi_def_cfa_offset 32
 210 0004 233C1100 		sd	ra,24(sp)
 211 0008 23388100 		sd	s0,16(sp)
 212 000c 23349100 		sd	s1,8(sp)
 213              		.cfi_offset 1, -8
 214              		.cfi_offset 8, -16
 215              		.cfi_offset 9, -24
 216 0010 13040102 		addi	s0,sp,32
 217              		.cfi_def_cfa 8, 0
 218 0014 93040500 		mv	s1,a0
  39:src/../h/circular_buffer.hpp ****     this->head = 0;
 219              		.loc 3 39 5 is_stmt 0
 220 0018 23240500 		sw	zero,8(a0)
  40:src/../h/circular_buffer.hpp ****     this->tail = 0;
 221              		.loc 3 40 5
 222 001c 23260500 		sw	zero,12(a0)
  41:src/../h/circular_buffer.hpp ****     this->size = 0;
 223              		.loc 3 41 5
 224 0020 23280500 		sw	zero,16(a0)
  42:src/../h/circular_buffer.hpp ****     this->capacity = CAPACITY;
 225              		.loc 3 42 5
 226 0024 93070001 		li	a5,16
 227 0028 232AF500 		sw	a5,20(a0)
  43:src/../h/circular_buffer.hpp ****     this->queue = (T *) mem_alloc(sizeof(T) * CAPACITY);
 228              		.loc 3 43 34
 229 002c 13050008 		li	a0,128
 230              	.LVL22:
 231 0030 97000000 		call	_Z9mem_allocm@plt
 231      E7800000 
 232              	.LVL23:
 233              		.loc 3 43 5
 234 0038 23B0A400 		sd	a0,0(s1)
  44:src/../h/circular_buffer.hpp **** }
 235              		.loc 3 44 1
 236 003c 83308101 		ld	ra,24(sp)
 237              		.cfi_restore 1
GAS LISTING /tmp/ccGdnASE.s 			page 10


 238 0040 03340101 		ld	s0,16(sp)
 239              		.cfi_restore 8
 240              		.cfi_def_cfa 2, 32
 241 0044 83348100 		ld	s1,8(sp)
 242              		.cfi_restore 9
 243              	.LVL24:
 244 0048 13010102 		addi	sp,sp,32
 245              		.cfi_def_cfa_offset 0
 246 004c 67800000 		jr	ra
 247              		.cfi_endproc
 248              	.LFE62:
 250              		.text
 251              		.align	2
 252              		.globl	_ZN3TCBC2EPFvPvES0_S0_7Context
 254              	_ZN3TCBC2EPFvPvES0_S0_7Context:
 255              	.LFB46:
  13:src/c_thread.cpp **** TCB::TCB(run_t start_routine, void *arg, void *stack, Context context) :
 256              		.loc 1 13 1 is_stmt 1
 257              		.cfi_startproc
 258              	.LVL25:
 259 011c 130101FE 		addi	sp,sp,-32
 260              		.cfi_def_cfa_offset 32
 261 0120 233C1100 		sd	ra,24(sp)
 262 0124 23388100 		sd	s0,16(sp)
 263 0128 23349100 		sd	s1,8(sp)
 264 012c 23302101 		sd	s2,0(sp)
 265              		.cfi_offset 1, -8
 266              		.cfi_offset 8, -16
 267              		.cfi_offset 9, -24
 268              		.cfi_offset 18, -32
 269 0130 13040102 		addi	s0,sp,32
 270              		.cfi_def_cfa 8, 0
 271 0134 93040500 		mv	s1,a0
 272              	.LBB55:
  14:src/c_thread.cpp ****         t_id(TCB::ID++), _run(start_routine), arg(arg),
 273              		.loc 1 14 21 is_stmt 0
 274 0138 17090000 		lla	s2,.LANCHOR0
 274      13090900 
 275 0140 83278900 		lw	a5,8(s2)
 276 0144 1B851700 		addiw	a0,a5,1
 277              	.LVL26:
 278 0148 2324A900 		sw	a0,8(s2)
  17:src/c_thread.cpp ****         time_slice(DEFAULT_TIME_SLICE), preempted(false), joiner() {
 279              		.loc 1 17 66
 280 014c 23A0F400 		sw	a5,0(s1)
 281 0150 23B4B400 		sd	a1,8(s1)
 282 0154 23B8C400 		sd	a2,16(s1)
 283 0158 23BCD400 		sd	a3,24(s1)
 284 015c 83370900 		ld	a5,0(s2)
 285 0160 23B0F402 		sd	a5,32(s1)
 286 0164 83350700 		ld	a1,0(a4)
 287              	.LVL27:
 288 0168 03368700 		ld	a2,8(a4)
 289              	.LVL28:
 290 016c 83360701 		ld	a3,16(a4)
 291              	.LVL29:
 292 0170 83378701 		ld	a5,24(a4)
GAS LISTING /tmp/ccGdnASE.s 			page 11


 293 0174 23B4B402 		sd	a1,40(s1)
 294 0178 23B8C402 		sd	a2,48(s1)
 295 017c 23BCD402 		sd	a3,56(s1)
 296 0180 23B0F404 		sd	a5,64(s1)
 297 0184 23A40404 		sw	zero,72(s1)
 298 0188 93071000 		li	a5,1
 299 018c 23B8F404 		sd	a5,80(s1)
 300 0190 238C0404 		sb	zero,88(s1)
 301 0194 23B00406 		sd	zero,96(s1)
 302 0198 23A40406 		sw	zero,104(s1)
 303 019c 23A60406 		sw	zero,108(s1)
 304 01a0 23A80406 		sw	zero,112(s1)
 305 01a4 23AA0406 		sw	zero,116(s1)
  18:src/c_thread.cpp ****     this->joiner.init();
 306              		.loc 1 18 5 is_stmt 1
  18:src/c_thread.cpp ****     this->joiner.init();
 307              		.loc 1 18 22 is_stmt 0
 308 01a8 13850406 		addi	a0,s1,96
 309 01ac 97000000 		call	_ZN3stm14CircularBufferIP3TCBE4initEv
 309      E7800000 
 310              	.LVL30:
  19:src/c_thread.cpp ****     this->parent = TCB::running;
 311              		.loc 1 19 5 is_stmt 1
  19:src/c_thread.cpp ****     this->parent = TCB::running;
 312              		.loc 1 19 18 is_stmt 0
 313 01b4 83370900 		ld	a5,0(s2)
 314 01b8 23B0F402 		sd	a5,32(s1)
 315              	.LBE55:
  20:src/c_thread.cpp **** }
 316              		.loc 1 20 1
 317 01bc 83308101 		ld	ra,24(sp)
 318              		.cfi_restore 1
 319 01c0 03340101 		ld	s0,16(sp)
 320              		.cfi_restore 8
 321              		.cfi_def_cfa 2, 32
 322 01c4 83348100 		ld	s1,8(sp)
 323              		.cfi_restore 9
 324              	.LVL31:
 325 01c8 03390100 		ld	s2,0(sp)
 326              		.cfi_restore 18
 327 01cc 13010102 		addi	sp,sp,32
 328              		.cfi_def_cfa_offset 0
 329 01d0 67800000 		jr	ra
 330              		.cfi_endproc
 331              	.LFE46:
 333              		.globl	_ZN3TCBC1EPFvPvES0_S0_7Context
 334              		.set	_ZN3TCBC1EPFvPvES0_S0_7Context,_ZN3TCBC2EPFvPvES0_S0_7Context
 335              		.align	2
 336              		.globl	_ZN3TCB14_thread_createEPPS_PFvPvES2_S2_
 338              	_ZN3TCB14_thread_createEPPS_PFvPvES2_S2_:
 339              	.LFB51:
  30:src/c_thread.cpp **** int TCB::_thread_create(thread_t *handle, void(*start_routine)(void *), void *arg, void *stack) {
 340              		.loc 1 30 97 is_stmt 1
 341              		.cfi_startproc
 342              		.cfi_personality 0x9b,DW.ref.__gxx_personality_v0
 343              		.cfi_lsda 0x1b,.LLSDA51
 344              	.LVL32:
GAS LISTING /tmp/ccGdnASE.s 			page 12


 345 01d4 130101F8 		addi	sp,sp,-128
 346              		.cfi_def_cfa_offset 128
 347 01d8 233C1106 		sd	ra,120(sp)
 348 01dc 23388106 		sd	s0,112(sp)
 349 01e0 23349106 		sd	s1,104(sp)
 350 01e4 23302107 		sd	s2,96(sp)
 351 01e8 233C3105 		sd	s3,88(sp)
 352 01ec 23384105 		sd	s4,80(sp)
 353 01f0 23345105 		sd	s5,72(sp)
 354              		.cfi_offset 1, -8
 355              		.cfi_offset 8, -16
 356              		.cfi_offset 9, -24
 357              		.cfi_offset 18, -32
 358              		.cfi_offset 19, -40
 359              		.cfi_offset 20, -48
 360              		.cfi_offset 21, -56
 361 01f4 13040108 		addi	s0,sp,128
 362              		.cfi_def_cfa 8, 0
 363 01f8 93040500 		mv	s1,a0
 364 01fc 13890500 		mv	s2,a1
 365 0200 930A0600 		mv	s5,a2
 366 0204 93890600 		mv	s3,a3
  31:src/c_thread.cpp ****     *handle = new TCB(start_routine, arg, stack, {(uint64) thread_start, (uint64) stack + DEFAULT_S
 367              		.loc 1 31 5
  31:src/c_thread.cpp ****     *handle = new TCB(start_routine, arg, stack, {(uint64) thread_start, (uint64) stack + DEFAULT_S
 368              		.loc 1 31 13 is_stmt 0
 369 0208 233804FA 		sd	zero,-80(s0)
 370 020c 233C04FA 		sd	zero,-72(s0)
 371 0210 97070000 		lla	a5,_ZN3TCB12thread_startEv
 371      93870700 
 372 0218 2330F4FA 		sd	a5,-96(s0)
  31:src/c_thread.cpp ****     *handle = new TCB(start_routine, arg, stack, {(uint64) thread_start, (uint64) stack + DEFAULT_S
 373              		.loc 1 31 110
 374 021c B7470000 		li	a5,16384
 375 0220 9387F7FF 		addi	a5,a5,-1
 376 0224 B387F600 		add	a5,a3,a5
  31:src/c_thread.cpp ****     *handle = new TCB(start_routine, arg, stack, {(uint64) thread_start, (uint64) stack + DEFAULT_S
 377              		.loc 1 31 13
 378 0228 2334F4FA 		sd	a5,-88(s0)
  31:src/c_thread.cpp ****     *handle = new TCB(start_routine, arg, stack, {(uint64) thread_start, (uint64) stack + DEFAULT_S
 379              		.loc 1 31 114
 380 022c 13058007 		li	a0,120
 381              	.LVL33:
 382              	.LEHB0:
 383 0230 97000000 		call	_Znwm@plt
 383      E7800000 
 384              	.LVL34:
 385              	.LEHE0:
 386 0238 130A0500 		mv	s4,a0
 387 023c 833704FA 		ld	a5,-96(s0)
 388 0240 2330F4F8 		sd	a5,-128(s0)
 389 0244 833784FA 		ld	a5,-88(s0)
 390 0248 2334F4F8 		sd	a5,-120(s0)
 391 024c 833704FB 		ld	a5,-80(s0)
 392 0250 2338F4F8 		sd	a5,-112(s0)
 393 0254 833784FB 		ld	a5,-72(s0)
 394 0258 233CF4F8 		sd	a5,-104(s0)
GAS LISTING /tmp/ccGdnASE.s 			page 13


 395 025c 130704F8 		addi	a4,s0,-128
 396 0260 93860900 		mv	a3,s3
 397 0264 13860A00 		mv	a2,s5
 398 0268 93050900 		mv	a1,s2
 399              	.LEHB1:
 400 026c 97000000 		call	_ZN3TCBC1EPFvPvES0_S0_7Context
 400      E7800000 
 401              	.LVL35:
 402              	.LEHE1:
  31:src/c_thread.cpp ****     *handle = new TCB(start_routine, arg, stack, {(uint64) thread_start, (uint64) stack + DEFAULT_S
 403              		.loc 1 31 13 discriminator 4
 404 0274 23B04401 		sd	s4,0(s1)
  32:src/c_thread.cpp ****     if (start_routine) Scheduler::put(*handle);
 405              		.loc 1 32 5 is_stmt 1 discriminator 4
 406 0278 63080900 		beqz	s2,.L16
  32:src/c_thread.cpp ****     if (start_routine) Scheduler::put(*handle);
 407              		.loc 1 32 24 discriminator 1
  32:src/c_thread.cpp ****     if (start_routine) Scheduler::put(*handle);
 408              		.loc 1 32 38 is_stmt 0 discriminator 1
 409 027c 13050A00 		mv	a0,s4
 410              	.LEHB2:
 411 0280 97000000 		call	_ZN9Scheduler3putEP3TCB@plt
 411      E7800000 
 412              	.LVL36:
 413              	.L16:
  33:src/c_thread.cpp ****     return (*handle)->t_id;
 414              		.loc 1 33 5 is_stmt 1
  33:src/c_thread.cpp ****     return (*handle)->t_id;
 415              		.loc 1 33 13 is_stmt 0
 416 0288 83B70400 		ld	a5,0(s1)
  33:src/c_thread.cpp ****     return (*handle)->t_id;
 417              		.loc 1 33 23
 418 028c 03A50700 		lw	a0,0(a5)
  34:src/c_thread.cpp **** }
 419              		.loc 1 34 1
 420 0290 83308107 		ld	ra,120(sp)
 421              		.cfi_remember_state
 422              		.cfi_restore 1
 423 0294 03340107 		ld	s0,112(sp)
 424              		.cfi_restore 8
 425              		.cfi_def_cfa 2, 128
 426 0298 83348106 		ld	s1,104(sp)
 427              		.cfi_restore 9
 428              	.LVL37:
 429 029c 03390106 		ld	s2,96(sp)
 430              		.cfi_restore 18
 431              	.LVL38:
 432 02a0 83398105 		ld	s3,88(sp)
 433              		.cfi_restore 19
 434              	.LVL39:
 435 02a4 033A0105 		ld	s4,80(sp)
 436              		.cfi_restore 20
 437 02a8 833A8104 		ld	s5,72(sp)
 438              		.cfi_restore 21
 439              	.LVL40:
 440 02ac 13010108 		addi	sp,sp,128
 441              		.cfi_def_cfa_offset 0
GAS LISTING /tmp/ccGdnASE.s 			page 14


 442              	.LVL41:
 443 02b0 67800000 		jr	ra
 444              	.LVL42:
 445              	.L18:
 446              		.cfi_restore_state
 447 02b4 93040500 		mv	s1,a0
 448              	.LVL43:
  31:src/c_thread.cpp ****     *handle = new TCB(start_routine, arg, stack, {(uint64) thread_start, (uint64) stack + DEFAULT_S
 449              		.loc 1 31 114
 450 02b8 13050A00 		mv	a0,s4
 451 02bc 97000000 		call	_ZdlPv@plt
 451      E7800000 
 452              	.LVL44:
 453 02c4 13850400 		mv	a0,s1
 454 02c8 97000000 		call	_Unwind_Resume@plt
 454      E7800000 
 455              	.LVL45:
 456              	.LEHE2:
 457              		.cfi_endproc
 458              	.LFE51:
 459              		.globl	__gxx_personality_v0
 460              		.section	.gcc_except_table,"a",@progbits
 461              	.LLSDA51:
 462 0000 FF       		.byte	0xff
 463 0001 FF       		.byte	0xff
 464 0002 03       		.byte	0x3
 465 0003 27       		.byte	0x27
 466 0004 00000000 		.4byte	.LEHB0-.LFB51
 467 0008 00000000 		.4byte	.LEHE0-.LEHB0
 468 000c 00000000 		.4byte	0
 469 0010 00       		.byte	0
 470 0011 00000000 		.4byte	.LEHB1-.LFB51
 471 0015 00000000 		.4byte	.LEHE1-.LEHB1
 472 0019 00000000 		.4byte	.L18-.LFB51
 473 001d 00       		.byte	0
 474 001e 00000000 		.4byte	.LEHB2-.LFB51
 475 0022 00000000 		.4byte	.LEHE2-.LEHB2
 476 0026 00000000 		.4byte	0
 477 002a 00       		.byte	0
 478              		.text
 480              		.align	2
 481              		.globl	_ZN3TCBC2ERS_
 483              	_ZN3TCBC2ERS_:
 484              	.LFB49:
  22:src/c_thread.cpp **** TCB::TCB(TCB &parent) :
 485              		.loc 1 22 1 is_stmt 1
 486              		.cfi_startproc
 487              	.LVL46:
 488 02d0 130101FE 		addi	sp,sp,-32
 489              		.cfi_def_cfa_offset 32
 490 02d4 233C1100 		sd	ra,24(sp)
 491 02d8 23388100 		sd	s0,16(sp)
 492 02dc 23349100 		sd	s1,8(sp)
 493 02e0 23302101 		sd	s2,0(sp)
 494              		.cfi_offset 1, -8
 495              		.cfi_offset 8, -16
 496              		.cfi_offset 9, -24
GAS LISTING /tmp/ccGdnASE.s 			page 15


 497              		.cfi_offset 18, -32
 498 02e4 13040102 		addi	s0,sp,32
 499              		.cfi_def_cfa 8, 0
 500 02e8 93040500 		mv	s1,a0
 501 02ec 13890500 		mv	s2,a1
 502              	.LBB56:
  23:src/c_thread.cpp ****         t_id(TCB::ID++), _run(parent._run), arg(parent.arg),
 503              		.loc 1 23 21 is_stmt 0
 504 02f0 17070000 		lla	a4,.LANCHOR0
 504      13070700 
 505 02f8 83278700 		lw	a5,8(a4)
 506 02fc 9B861700 		addiw	a3,a5,1
 507 0300 2324D700 		sw	a3,8(a4)
  26:src/c_thread.cpp ****         preempted(false), joiner() {
 508              		.loc 1 26 34
 509 0304 2320F500 		sw	a5,0(a0)
  23:src/c_thread.cpp ****         t_id(TCB::ID++), _run(parent._run), arg(parent.arg),
 510              		.loc 1 23 38
 511 0308 83B78500 		ld	a5,8(a1)
  26:src/c_thread.cpp ****         preempted(false), joiner() {
 512              		.loc 1 26 34
 513 030c 2334F500 		sd	a5,8(a0)
  23:src/c_thread.cpp ****         t_id(TCB::ID++), _run(parent._run), arg(parent.arg),
 514              		.loc 1 23 56
 515 0310 83B70501 		ld	a5,16(a1)
  26:src/c_thread.cpp ****         preempted(false), joiner() {
 516              		.loc 1 26 34
 517 0314 2338F500 		sd	a5,16(a0)
  24:src/c_thread.cpp ****         stack(Allocator::_mem_alloc(DEFAULT_STACK_SIZE)),
 518              		.loc 1 24 36
 519 0318 37450000 		li	a0,16384
 520              	.LVL47:
 521 031c 97000000 		call	_ZN9Allocator10_mem_allocEm@plt
 521      E7800000 
 522              	.LVL48:
  26:src/c_thread.cpp ****         preempted(false), joiner() {
 523              		.loc 1 26 34
 524 0324 23BCA400 		sd	a0,24(s1)
 525 0328 23B02403 		sd	s2,32(s1)
 526 032c 03368902 		ld	a2,40(s2)
 527 0330 83360903 		ld	a3,48(s2)
 528 0334 03378903 		ld	a4,56(s2)
 529 0338 83370904 		ld	a5,64(s2)
 530 033c 23B4C402 		sd	a2,40(s1)
 531 0340 23B8D402 		sd	a3,48(s1)
 532 0344 23BCE402 		sd	a4,56(s1)
 533 0348 23B0F404 		sd	a5,64(s1)
 534 034c 23A40404 		sw	zero,72(s1)
 535 0350 93071000 		li	a5,1
 536 0354 23B8F404 		sd	a5,80(s1)
 537 0358 238C0404 		sb	zero,88(s1)
 538 035c 23B00406 		sd	zero,96(s1)
 539 0360 23A40406 		sw	zero,104(s1)
 540 0364 23A60406 		sw	zero,108(s1)
 541 0368 23A80406 		sw	zero,112(s1)
 542 036c 23AA0406 		sw	zero,116(s1)
  27:src/c_thread.cpp ****     this->joiner.init();
GAS LISTING /tmp/ccGdnASE.s 			page 16


 543              		.loc 1 27 5 is_stmt 1
  27:src/c_thread.cpp ****     this->joiner.init();
 544              		.loc 1 27 22 is_stmt 0
 545 0370 13850406 		addi	a0,s1,96
 546 0374 97000000 		call	_ZN3stm14CircularBufferIP3TCBE4initEv
 546      E7800000 
 547              	.LVL49:
 548              	.LBE56:
  28:src/c_thread.cpp **** }
 549              		.loc 1 28 1
 550 037c 83308101 		ld	ra,24(sp)
 551              		.cfi_restore 1
 552 0380 03340101 		ld	s0,16(sp)
 553              		.cfi_restore 8
 554              		.cfi_def_cfa 2, 32
 555 0384 83348100 		ld	s1,8(sp)
 556              		.cfi_restore 9
 557              	.LVL50:
 558 0388 03390100 		ld	s2,0(sp)
 559              		.cfi_restore 18
 560              	.LVL51:
 561 038c 13010102 		addi	sp,sp,32
 562              		.cfi_def_cfa_offset 0
 563 0390 67800000 		jr	ra
 564              		.cfi_endproc
 565              	.LFE49:
 567              		.globl	_ZN3TCBC1ERS_
 568              		.set	_ZN3TCBC1ERS_,_ZN3TCBC2ERS_
 569              		.align	2
 570              		.globl	_ZN3TCB5_forkEv
 572              	_ZN3TCB5_forkEv:
 573              	.LFB59:
 106:src/c_thread.cpp **** int TCB::_fork() {
 574              		.loc 1 106 18 is_stmt 1
 575              		.cfi_startproc
 576              		.cfi_personality 0x9b,DW.ref.__gxx_personality_v0
 577              		.cfi_lsda 0x1b,.LLSDA59
 578 0394 130101FD 		addi	sp,sp,-48
 579              		.cfi_def_cfa_offset 48
 580 0398 23341102 		sd	ra,40(sp)
 581 039c 23308102 		sd	s0,32(sp)
 582 03a0 233C9100 		sd	s1,24(sp)
 583 03a4 23382101 		sd	s2,16(sp)
 584 03a8 23343101 		sd	s3,8(sp)
 585              		.cfi_offset 1, -8
 586              		.cfi_offset 8, -16
 587              		.cfi_offset 9, -24
 588              		.cfi_offset 18, -32
 589              		.cfi_offset 19, -40
 590 03ac 13040103 		addi	s0,sp,48
 591              		.cfi_def_cfa 8, 0
 107:src/c_thread.cpp ****     int id_parent = TCB::running->t_id;
 592              		.loc 1 107 5
 107:src/c_thread.cpp ****     int id_parent = TCB::running->t_id;
 593              		.loc 1 107 35 is_stmt 0
 594 03b0 17090000 		lla	s2,.LANCHOR0
 594      13090900 
GAS LISTING /tmp/ccGdnASE.s 			page 17


 595 03b8 83370900 		ld	a5,0(s2)
 107:src/c_thread.cpp ****     int id_parent = TCB::running->t_id;
 596              		.loc 1 107 9
 597 03bc 83A90700 		lw	s3,0(a5)
 598              	.LVL52:
 108:src/c_thread.cpp ****     TCB *handle = new TCB(*TCB::running);
 599              		.loc 1 108 5 is_stmt 1
 108:src/c_thread.cpp ****     TCB *handle = new TCB(*TCB::running);
 600              		.loc 1 108 40 is_stmt 0
 601 03c0 13058007 		li	a0,120
 602              	.LEHB3:
 603 03c4 97000000 		call	_Znwm@plt
 603      E7800000 
 604              	.LVL53:
 605              	.LEHE3:
 606 03cc 93040500 		mv	s1,a0
 607 03d0 83350900 		ld	a1,0(s2)
 608              	.LEHB4:
 609 03d4 97000000 		call	_ZN3TCBC1ERS_
 609      E7800000 
 610              	.LVL54:
 611              	.LEHE4:
 109:src/c_thread.cpp ****     TCB::duplicate(TCB::running, handle);
 612              		.loc 1 109 5 is_stmt 1 discriminator 2
 109:src/c_thread.cpp ****     TCB::duplicate(TCB::running, handle);
 613              		.loc 1 109 19 is_stmt 0 discriminator 2
 614 03dc 93850400 		mv	a1,s1
 615 03e0 03350900 		ld	a0,0(s2)
 616              	.LEHB5:
 617 03e4 97000000 		call	_ZN3TCB9duplicateEPS_S0_
 617      E7800000 
 618              	.LVL55:
 110:src/c_thread.cpp ****     print(TCB::running->t_id);
 619              		.loc 1 110 5 is_stmt 1 discriminator 2
 110:src/c_thread.cpp ****     print(TCB::running->t_id);
 620              		.loc 1 110 10 is_stmt 0 discriminator 2
 621 03ec 83370900 		ld	a5,0(s2)
 622 03f0 03A50700 		lw	a0,0(a5)
 623 03f4 97000000 		call	_Z5printi@plt
 623      E7800000 
 624              	.LVL56:
 111:src/c_thread.cpp ****     putc(' ');
 625              		.loc 1 111 5 is_stmt 1 discriminator 2
 111:src/c_thread.cpp ****     putc(' ');
 626              		.loc 1 111 9 is_stmt 0 discriminator 2
 627 03fc 13050002 		li	a0,32
 628 0400 97000000 		call	_Z4putcc@plt
 628      E7800000 
 629              	.LVL57:
 112:src/c_thread.cpp ****     print(id_parent);
 630              		.loc 1 112 5 is_stmt 1 discriminator 2
 112:src/c_thread.cpp ****     print(id_parent);
 631              		.loc 1 112 10 is_stmt 0 discriminator 2
 632 0408 13850900 		mv	a0,s3
 633 040c 97000000 		call	_Z5printi@plt
 633      E7800000 
 634              	.LVL58:
GAS LISTING /tmp/ccGdnASE.s 			page 18


 113:src/c_thread.cpp ****     putc(' ');
 635              		.loc 1 113 5 is_stmt 1 discriminator 2
 113:src/c_thread.cpp ****     putc(' ');
 636              		.loc 1 113 9 is_stmt 0 discriminator 2
 637 0414 13050002 		li	a0,32
 638 0418 97000000 		call	_Z4putcc@plt
 638      E7800000 
 639              	.LVL59:
 114:src/c_thread.cpp ****     print(handle->t_id);
 640              		.loc 1 114 5 is_stmt 1 discriminator 2
 114:src/c_thread.cpp ****     print(handle->t_id);
 641              		.loc 1 114 10 is_stmt 0 discriminator 2
 642 0420 03A50400 		lw	a0,0(s1)
 643 0424 97000000 		call	_Z5printi@plt
 643      E7800000 
 644              	.LVL60:
 115:src/c_thread.cpp ****     putc('\n');
 645              		.loc 1 115 5 is_stmt 1 discriminator 2
 115:src/c_thread.cpp ****     putc('\n');
 646              		.loc 1 115 9 is_stmt 0 discriminator 2
 647 042c 1305A000 		li	a0,10
 648 0430 97000000 		call	_Z4putcc@plt
 648      E7800000 
 649              	.LVL61:
 116:src/c_thread.cpp ****     if (TCB::running->t_id == id_parent) {
 650              		.loc 1 116 5 is_stmt 1 discriminator 2
 116:src/c_thread.cpp ****     if (TCB::running->t_id == id_parent) {
 651              		.loc 1 116 23 is_stmt 0 discriminator 2
 652 0438 83370900 		ld	a5,0(s2)
 653 043c 03A50700 		lw	a0,0(a5)
 116:src/c_thread.cpp ****     if (TCB::running->t_id == id_parent) {
 654              		.loc 1 116 5 discriminator 2
 655 0440 63063503 		beq	a0,s3,.L30
 120:src/c_thread.cpp ****         print(TCB::running->t_id);
 656              		.loc 1 120 9 is_stmt 1
 120:src/c_thread.cpp ****         print(TCB::running->t_id);
 657              		.loc 1 120 14 is_stmt 0
 658 0444 97000000 		call	_Z5printi@plt
 658      E7800000 
 659              	.LVL62:
 121:src/c_thread.cpp ****         return 0;
 660              		.loc 1 121 9 is_stmt 1
 121:src/c_thread.cpp ****         return 0;
 661              		.loc 1 121 16 is_stmt 0
 662 044c 13050000 		li	a0,0
 663              	.L28:
 123:src/c_thread.cpp **** }
 664              		.loc 1 123 1
 665 0450 83308102 		ld	ra,40(sp)
 666              		.cfi_remember_state
 667              		.cfi_restore 1
 668 0454 03340102 		ld	s0,32(sp)
 669              		.cfi_restore 8
 670              		.cfi_def_cfa 2, 48
 671 0458 83348101 		ld	s1,24(sp)
 672              		.cfi_restore 9
 673              	.LVL63:
GAS LISTING /tmp/ccGdnASE.s 			page 19


 674 045c 03390101 		ld	s2,16(sp)
 675              		.cfi_restore 18
 676 0460 83398100 		ld	s3,8(sp)
 677              		.cfi_restore 19
 678              	.LVL64:
 679 0464 13010103 		addi	sp,sp,48
 680              		.cfi_def_cfa_offset 0
 681 0468 67800000 		jr	ra
 682              	.LVL65:
 683              	.L30:
 684              		.cfi_restore_state
 117:src/c_thread.cpp ****         Scheduler::put(handle);
 685              		.loc 1 117 9 is_stmt 1
 117:src/c_thread.cpp ****         Scheduler::put(handle);
 686              		.loc 1 117 23 is_stmt 0
 687 046c 13850400 		mv	a0,s1
 688 0470 97000000 		call	_ZN9Scheduler3putEP3TCB@plt
 688      E7800000 
 689              	.LVL66:
 118:src/c_thread.cpp ****         return handle->t_id;
 690              		.loc 1 118 9 is_stmt 1
 118:src/c_thread.cpp ****         return handle->t_id;
 691              		.loc 1 118 24 is_stmt 0
 692 0478 03A50400 		lw	a0,0(s1)
 693 047c 6FF05FFD 		j	.L28
 694              	.LVL67:
 695              	.L27:
 696 0480 13090500 		mv	s2,a0
 108:src/c_thread.cpp ****     TCB *handle = new TCB(*TCB::running);
 697              		.loc 1 108 40
 698 0484 13850400 		mv	a0,s1
 699 0488 97000000 		call	_ZdlPv@plt
 699      E7800000 
 700              	.LVL68:
 701 0490 13050900 		mv	a0,s2
 702 0494 97000000 		call	_Unwind_Resume@plt
 702      E7800000 
 703              	.LVL69:
 704              	.LEHE5:
 705              		.cfi_endproc
 706              	.LFE59:
 707              		.section	.gcc_except_table
 708              	.LLSDA59:
 709 002b FF       		.byte	0xff
 710 002c FF       		.byte	0xff
 711 002d 03       		.byte	0x3
 712 002e 27       		.byte	0x27
 713 002f 00000000 		.4byte	.LEHB3-.LFB59
 714 0033 00000000 		.4byte	.LEHE3-.LEHB3
 715 0037 00000000 		.4byte	0
 716 003b 00       		.byte	0
 717 003c 00000000 		.4byte	.LEHB4-.LFB59
 718 0040 00000000 		.4byte	.LEHE4-.LEHB4
 719 0044 00000000 		.4byte	.L27-.LFB59
 720 0048 00       		.byte	0
 721 0049 00000000 		.4byte	.LEHB5-.LFB59
 722 004d 00000000 		.4byte	.LEHE5-.LEHB5
GAS LISTING /tmp/ccGdnASE.s 			page 20


 723 0051 00000000 		.4byte	0
 724 0055 00       		.byte	0
 725              		.text
 727              		.section	.text._ZN3stm14CircularBufferIP3TCBE3getEv,"axG",@progbits,_ZN3stm14CircularBufferIP3TCBE
 728              		.align	2
 729              		.weak	_ZN3stm14CircularBufferIP3TCBE3getEv
 731              	_ZN3stm14CircularBufferIP3TCBE3getEv:
 732              	.LFB65:
  45:src/../h/circular_buffer.hpp **** 
  46:src/../h/circular_buffer.hpp **** template<typename T>
  47:src/../h/circular_buffer.hpp **** void stm::CircularBuffer<T>::put(T element) {
  48:src/../h/circular_buffer.hpp ****     if (this->size == this->capacity) {
  49:src/../h/circular_buffer.hpp ****         this->extend();
  50:src/../h/circular_buffer.hpp ****     }
  51:src/../h/circular_buffer.hpp ****     this->queue[this->tail] = element;
  52:src/../h/circular_buffer.hpp ****     this->tail = (this->tail + 1) % this->capacity;
  53:src/../h/circular_buffer.hpp ****     this->size++;
  54:src/../h/circular_buffer.hpp **** }
  55:src/../h/circular_buffer.hpp **** 
  56:src/../h/circular_buffer.hpp **** template<typename T>
  57:src/../h/circular_buffer.hpp **** T stm::CircularBuffer<T>::get() {
 733              		.loc 3 57 3 is_stmt 1
 734              		.cfi_startproc
 735              	.LVL70:
 736 0000 130101FF 		addi	sp,sp,-16
 737              		.cfi_def_cfa_offset 16
 738 0004 23348100 		sd	s0,8(sp)
 739              		.cfi_offset 8, -8
 740 0008 13040101 		addi	s0,sp,16
 741              		.cfi_def_cfa 8, 0
 742 000c 93070500 		mv	a5,a0
  58:src/../h/circular_buffer.hpp ****     T ret = this->queue[this->head];
 743              		.loc 3 58 19 is_stmt 0
 744 0010 83360500 		ld	a3,0(a0)
 745              		.loc 3 58 31
 746 0014 03278500 		lw	a4,8(a0)
 747              		.loc 3 58 24
 748 0018 13163700 		slli	a2,a4,3
 749 001c B386C600 		add	a3,a3,a2
 750              		.loc 3 58 7
 751 0020 03B50600 		ld	a0,0(a3)
 752              	.LVL71:
  59:src/../h/circular_buffer.hpp ****     this->head = (this->head + 1) % this->capacity;
 753              		.loc 3 59 30
 754 0024 1B071700 		addiw	a4,a4,1
 755              		.loc 3 59 43
 756 0028 83A64701 		lw	a3,20(a5)
 757              		.loc 3 59 35
 758 002c 3B67D702 		remw	a4,a4,a3
 759              		.loc 3 59 5
 760 0030 23A4E700 		sw	a4,8(a5)
  60:src/../h/circular_buffer.hpp ****     this->size--;
 761              		.loc 3 60 11
 762 0034 03A70701 		lw	a4,16(a5)
 763              		.loc 3 60 5
 764 0038 1B07F7FF 		addiw	a4,a4,-1
 765 003c 23A8E700 		sw	a4,16(a5)
GAS LISTING /tmp/ccGdnASE.s 			page 21


  61:src/../h/circular_buffer.hpp ****     return ret;
  62:src/../h/circular_buffer.hpp **** }
 766              		.loc 3 62 1
 767 0040 03348100 		ld	s0,8(sp)
 768              		.cfi_restore 8
 769              		.cfi_def_cfa 2, 16
 770 0044 13010101 		addi	sp,sp,16
 771              		.cfi_def_cfa_offset 0
 772 0048 67800000 		jr	ra
 773              		.cfi_endproc
 774              	.LFE65:
 776              		.section	.text._ZN3stm14CircularBufferIP3TCBE7destroyEv,"axG",@progbits,_ZN3stm14CircularBufferIP3
 777              		.align	2
 778              		.weak	_ZN3stm14CircularBufferIP3TCBE7destroyEv
 780              	_ZN3stm14CircularBufferIP3TCBE7destroyEv:
 781              	.LFB66:
  63:src/../h/circular_buffer.hpp **** 
  64:src/../h/circular_buffer.hpp **** template<typename T>
  65:src/../h/circular_buffer.hpp **** T &stm::CircularBuffer<T>::peek() {
  66:src/../h/circular_buffer.hpp ****     return this->queue[this->head];
  67:src/../h/circular_buffer.hpp **** }
  68:src/../h/circular_buffer.hpp **** 
  69:src/../h/circular_buffer.hpp **** template<typename T>
  70:src/../h/circular_buffer.hpp **** void stm::CircularBuffer<T>::extend() {
  71:src/../h/circular_buffer.hpp ****     T *new_queue = (T *) mem_alloc(sizeof(T *) * this->capacity * 2);
  72:src/../h/circular_buffer.hpp ****     for (int i = 0, j = this->head; i < this->capacity; i++, j = (j + 1) % this->capacity)
  73:src/../h/circular_buffer.hpp ****         new_queue[i] = this->queue[j];
  74:src/../h/circular_buffer.hpp ****     mem_free(queue);
  75:src/../h/circular_buffer.hpp ****     this->queue = new_queue;
  76:src/../h/circular_buffer.hpp ****     this->head = 0;
  77:src/../h/circular_buffer.hpp ****     this->tail = this->capacity;
  78:src/../h/circular_buffer.hpp ****     this->capacity *= 2;
  79:src/../h/circular_buffer.hpp **** }
  80:src/../h/circular_buffer.hpp **** 
  81:src/../h/circular_buffer.hpp **** template<typename T>
  82:src/../h/circular_buffer.hpp **** void stm::CircularBuffer<T>::destroy() {
 782              		.loc 3 82 6 is_stmt 1
 783              		.cfi_startproc
 784              	.LVL72:
 785 0000 130101FF 		addi	sp,sp,-16
 786              		.cfi_def_cfa_offset 16
 787 0004 23341100 		sd	ra,8(sp)
 788 0008 23308100 		sd	s0,0(sp)
 789              		.cfi_offset 1, -8
 790              		.cfi_offset 8, -16
 791 000c 13040101 		addi	s0,sp,16
 792              		.cfi_def_cfa 8, 0
  83:src/../h/circular_buffer.hpp ****     mem_free(this->queue);
 793              		.loc 3 83 13 is_stmt 0
 794 0010 03350500 		ld	a0,0(a0)
 795              	.LVL73:
 796 0014 97000000 		call	_Z8mem_freePv@plt
 796      E7800000 
 797              	.LVL74:
  84:src/../h/circular_buffer.hpp **** }
 798              		.loc 3 84 1
 799 001c 83308100 		ld	ra,8(sp)
GAS LISTING /tmp/ccGdnASE.s 			page 22


 800              		.cfi_restore 1
 801 0020 03340100 		ld	s0,0(sp)
 802              		.cfi_restore 8
 803              		.cfi_def_cfa 2, 16
 804 0024 13010101 		addi	sp,sp,16
 805              		.cfi_def_cfa_offset 0
 806 0028 67800000 		jr	ra
 807              		.cfi_endproc
 808              	.LFE66:
 810              		.text
 811              		.align	2
 812              		.globl	_ZN3TCB14destroy_threadEPS_
 814              	_ZN3TCB14destroy_threadEPS_:
 815              	.LFB54:
  64:src/c_thread.cpp **** TCB *TCB::destroy_thread(TCB *thread) {
 816              		.loc 1 64 39 is_stmt 1
 817              		.cfi_startproc
 818              	.LVL75:
 819 049c 130101FE 		addi	sp,sp,-32
 820              		.cfi_def_cfa_offset 32
 821 04a0 233C1100 		sd	ra,24(sp)
 822 04a4 23388100 		sd	s0,16(sp)
 823 04a8 23349100 		sd	s1,8(sp)
 824              		.cfi_offset 1, -8
 825              		.cfi_offset 8, -16
 826              		.cfi_offset 9, -24
 827 04ac 13040102 		addi	s0,sp,32
 828              		.cfi_def_cfa 8, 0
 829 04b0 93040500 		mv	s1,a0
 830              	.LVL76:
 831              	.L37:
  65:src/c_thread.cpp ****     while (!thread->joiner.is_empty()) {
 832              		.loc 1 65 5
  65:src/c_thread.cpp ****     while (!thread->joiner.is_empty()) {
 833              		.loc 1 65 12
 834              	.LBB57:
 835              	.LBB58:
  20:src/../h/circular_buffer.hpp **** 
 836              		.loc 3 20 53 is_stmt 0
 837 04b4 83A70407 		lw	a5,112(s1)
 838              	.LVL77:
 839              	.LBE58:
 840              	.LBE57:
  65:src/c_thread.cpp ****     while (!thread->joiner.is_empty()) {
 841              		.loc 1 65 12
 842 04b8 63860702 		beqz	a5,.L36
 843              	.LBB59:
  66:src/c_thread.cpp ****         TCB *next = thread->joiner.get();
 844              		.loc 1 66 9 is_stmt 1
  66:src/c_thread.cpp ****         TCB *next = thread->joiner.get();
 845              		.loc 1 66 39 is_stmt 0
 846 04bc 13850406 		addi	a0,s1,96
 847 04c0 97000000 		call	_ZN3stm14CircularBufferIP3TCBE3getEv
 847      E7800000 
 848              	.LVL78:
  67:src/c_thread.cpp ****         if (next->is_joined()) {
 849              		.loc 1 67 9 is_stmt 1
GAS LISTING /tmp/ccGdnASE.s 			page 23


 850              	.LBB60:
 851              	.LBB61:
  57:src/../h/c_thread.hpp **** 
 852              		.loc 2 57 30
  57:src/../h/c_thread.hpp **** 
 853              		.loc 2 57 43 is_stmt 0
 854 04c8 03278504 		lw	a4,72(a0)
 855              	.LVL79:
 856              	.LBE61:
 857              	.LBE60:
  67:src/c_thread.cpp ****         if (next->is_joined()) {
 858              		.loc 1 67 9
 859 04cc 93073000 		li	a5,3
 860 04d0 E312F7FE 		bne	a4,a5,.L37
  68:src/c_thread.cpp ****             next->run();
 861              		.loc 1 68 13 is_stmt 1
 862              	.LVL80:
 863              	.LBB62:
 864              	.LBB63:
  61:src/../h/c_thread.hpp **** 
 865              		.loc 2 61 18
  61:src/../h/c_thread.hpp **** 
 866              		.loc 2 61 31 is_stmt 0
 867 04d4 23240504 		sw	zero,72(a0)
 868              	.LVL81:
 869              	.LBE63:
 870              	.LBE62:
  69:src/c_thread.cpp ****             Scheduler::put(next);
 871              		.loc 1 69 13 is_stmt 1
  69:src/c_thread.cpp ****             Scheduler::put(next);
 872              		.loc 1 69 27 is_stmt 0
 873 04d8 97000000 		call	_ZN9Scheduler3putEP3TCB@plt
 873      E7800000 
 874              	.LVL82:
 875 04e0 6FF05FFD 		j	.L37
 876              	.L36:
 877              	.LBE59:
  72:src/c_thread.cpp ****     thread->joiner.destroy();
 878              		.loc 1 72 5 is_stmt 1
  72:src/c_thread.cpp ****     thread->joiner.destroy();
 879              		.loc 1 72 27 is_stmt 0
 880 04e4 13850406 		addi	a0,s1,96
 881 04e8 97000000 		call	_ZN3stm14CircularBufferIP3TCBE7destroyEv
 881      E7800000 
 882              	.LVL83:
  73:src/c_thread.cpp ****     return thread;
 883              		.loc 1 73 5 is_stmt 1
  74:src/c_thread.cpp **** }
 884              		.loc 1 74 1 is_stmt 0
 885 04f0 13850400 		mv	a0,s1
 886 04f4 83308101 		ld	ra,24(sp)
 887              		.cfi_restore 1
 888 04f8 03340101 		ld	s0,16(sp)
 889              		.cfi_restore 8
 890              		.cfi_def_cfa 2, 32
 891 04fc 83348100 		ld	s1,8(sp)
 892              		.cfi_restore 9
GAS LISTING /tmp/ccGdnASE.s 			page 24


 893              	.LVL84:
 894 0500 13010102 		addi	sp,sp,32
 895              		.cfi_def_cfa_offset 0
 896 0504 67800000 		jr	ra
 897              		.cfi_endproc
 898              	.LFE54:
 900              		.align	2
 901              		.globl	_ZN3TCB5yieldEv
 903              	_ZN3TCB5yieldEv:
 904              	.LFB52:
  36:src/c_thread.cpp **** void TCB::yield() {
 905              		.loc 1 36 19 is_stmt 1
 906              		.cfi_startproc
 907 0508 130101FD 		addi	sp,sp,-48
 908              		.cfi_def_cfa_offset 48
 909 050c 23341102 		sd	ra,40(sp)
 910 0510 23308102 		sd	s0,32(sp)
 911 0514 233C9100 		sd	s1,24(sp)
 912              		.cfi_offset 1, -8
 913              		.cfi_offset 8, -16
 914              		.cfi_offset 9, -24
 915 0518 13040103 		addi	s0,sp,48
 916              		.cfi_def_cfa 8, 0
  37:src/c_thread.cpp ****     thread_t old = TCB::running;
 917              		.loc 1 37 5
  37:src/c_thread.cpp ****     thread_t old = TCB::running;
 918              		.loc 1 37 14 is_stmt 0
 919 051c 97040000 		ld	s1,.LANCHOR0
 919      83B40400 
 920              	.LVL85:
  38:src/c_thread.cpp ****     old->context.sstatus = Riscv::r_sstatus();
 921              		.loc 1 38 5 is_stmt 1
 922              	.LBB64:
 923              	.LBB65:
 924              		.file 4 "src/../h/riscv.hpp"
   1:src/../h/riscv.hpp **** #ifndef PROJECT_BASE_RISCV_HPP
   2:src/../h/riscv.hpp **** #define PROJECT_BASE_RISCV_HPP
   3:src/../h/riscv.hpp **** 
   4:src/../h/riscv.hpp **** #include "../lib/hw.h"
   5:src/../h/riscv.hpp **** 
   6:src/../h/riscv.hpp **** extern "C" void supervisorTrap();
   7:src/../h/riscv.hpp **** 
   8:src/../h/riscv.hpp **** class Riscv {
   9:src/../h/riscv.hpp **** public:
  10:src/../h/riscv.hpp **** 
  11:src/../h/riscv.hpp ****     __attribute__((unused)) static void handleSupervisorTrap();
  12:src/../h/riscv.hpp **** 
  13:src/../h/riscv.hpp ****     static void handleTimerTrap();
  14:src/../h/riscv.hpp **** 
  15:src/../h/riscv.hpp ****     static void handleReadTrap();
  16:src/../h/riscv.hpp **** 
  17:src/../h/riscv.hpp ****     static void handleWriteTrap();
  18:src/../h/riscv.hpp **** 
  19:src/../h/riscv.hpp ****     static void popSppSpie();
  20:src/../h/riscv.hpp **** 
  21:src/../h/riscv.hpp ****     static void handleConsoleTrap();
  22:src/../h/riscv.hpp **** 
GAS LISTING /tmp/ccGdnASE.s 			page 25


  23:src/../h/riscv.hpp ****     static void push();
  24:src/../h/riscv.hpp **** 
  25:src/../h/riscv.hpp ****     static void pop();
  26:src/../h/riscv.hpp **** 
  27:src/../h/riscv.hpp ****     // read register scause
  28:src/../h/riscv.hpp ****     static uint64 r_scause();
  29:src/../h/riscv.hpp **** 
  30:src/../h/riscv.hpp ****     // write register scause
  31:src/../h/riscv.hpp ****     static void w_scause(uint64 scause);
  32:src/../h/riscv.hpp **** 
  33:src/../h/riscv.hpp ****     // read register sepc
  34:src/../h/riscv.hpp ****     static uint64 r_sepc();
  35:src/../h/riscv.hpp **** 
  36:src/../h/riscv.hpp ****     // write register sepc
  37:src/../h/riscv.hpp ****     static void w_sepc(uint64 sepc);
  38:src/../h/riscv.hpp **** 
  39:src/../h/riscv.hpp ****     // read register stvec
  40:src/../h/riscv.hpp ****     static uint64 r_stvec();
  41:src/../h/riscv.hpp **** 
  42:src/../h/riscv.hpp ****     // write register stvec
  43:src/../h/riscv.hpp ****     static void w_stvec(uint64 stvec);
  44:src/../h/riscv.hpp **** 
  45:src/../h/riscv.hpp ****     // read register stval
  46:src/../h/riscv.hpp ****     static uint64 r_stval();
  47:src/../h/riscv.hpp **** 
  48:src/../h/riscv.hpp ****     // write register stval
  49:src/../h/riscv.hpp ****     static void w_stval(uint64 stval);
  50:src/../h/riscv.hpp **** 
  51:src/../h/riscv.hpp ****     enum BitMaskSip {
  52:src/../h/riscv.hpp ****         SIP_SSIE = (1 << 1),
  53:src/../h/riscv.hpp ****         SIP_STIE = (1 << 5),
  54:src/../h/riscv.hpp ****         SIP_SEIE = (1 << 9),
  55:src/../h/riscv.hpp ****     };
  56:src/../h/riscv.hpp **** 
  57:src/../h/riscv.hpp ****     // mask set register sip
  58:src/../h/riscv.hpp ****     static void ms_sip(uint64 mask);
  59:src/../h/riscv.hpp **** 
  60:src/../h/riscv.hpp ****     // mask clear register sip
  61:src/../h/riscv.hpp ****     static void mc_sip(uint64 mask);
  62:src/../h/riscv.hpp **** 
  63:src/../h/riscv.hpp ****     // read register sip
  64:src/../h/riscv.hpp ****     static uint64 r_sip();
  65:src/../h/riscv.hpp **** 
  66:src/../h/riscv.hpp ****     // write register sip
  67:src/../h/riscv.hpp ****     static void w_sip(uint64 sip);
  68:src/../h/riscv.hpp **** 
  69:src/../h/riscv.hpp ****     enum BitMaskSstatus {
  70:src/../h/riscv.hpp ****         SSTATUS_SIE = (1 << 1),
  71:src/../h/riscv.hpp ****         SSTATUS_SPIE = (1 << 5),
  72:src/../h/riscv.hpp ****         SSTATUS_SPP = (1 << 8),
  73:src/../h/riscv.hpp ****     };
  74:src/../h/riscv.hpp **** 
  75:src/../h/riscv.hpp ****     // mask set register sstatus
  76:src/../h/riscv.hpp ****     static void ms_sstatus(uint64 mask);
  77:src/../h/riscv.hpp **** 
  78:src/../h/riscv.hpp ****     // mask clear register sstatus
  79:src/../h/riscv.hpp ****     static void mc_sstatus(uint64 mask);
GAS LISTING /tmp/ccGdnASE.s 			page 26


  80:src/../h/riscv.hpp **** 
  81:src/../h/riscv.hpp ****     // read register sstatus
  82:src/../h/riscv.hpp ****     static uint64 r_sstatus();
  83:src/../h/riscv.hpp **** 
  84:src/../h/riscv.hpp ****     // write register sstatus
  85:src/../h/riscv.hpp ****     static void w_sstatus(uint64 sstatus);
  86:src/../h/riscv.hpp **** 
  87:src/../h/riscv.hpp ****     static uint64 r_sscratch();
  88:src/../h/riscv.hpp **** 
  89:src/../h/riscv.hpp **** private:
  90:src/../h/riscv.hpp **** 
  91:src/../h/riscv.hpp **** };
  92:src/../h/riscv.hpp **** 
  93:src/../h/riscv.hpp **** inline uint64 Riscv::r_sscratch() {
  94:src/../h/riscv.hpp ****     uint64 volatile sscratch;
  95:src/../h/riscv.hpp ****     __asm__ volatile ("csrr %[scause], scause" : [scause] "=r"(sscratch));
  96:src/../h/riscv.hpp ****     return sscratch;
  97:src/../h/riscv.hpp **** }
  98:src/../h/riscv.hpp **** 
  99:src/../h/riscv.hpp **** inline uint64 Riscv::r_scause() {
 100:src/../h/riscv.hpp ****     uint64 volatile scause;
 101:src/../h/riscv.hpp ****     __asm__ volatile ("csrr %[scause], scause" : [scause] "=r"(scause));
 102:src/../h/riscv.hpp ****     return scause;
 103:src/../h/riscv.hpp **** }
 104:src/../h/riscv.hpp **** 
 105:src/../h/riscv.hpp **** inline void Riscv::w_scause(uint64 scause) {
 106:src/../h/riscv.hpp ****     __asm__ volatile ("csrw scause, %[scause]" : : [scause] "r"(scause));
 107:src/../h/riscv.hpp **** }
 108:src/../h/riscv.hpp **** 
 109:src/../h/riscv.hpp **** inline uint64 Riscv::r_sepc() {
 110:src/../h/riscv.hpp ****     uint64 volatile sepc;
 111:src/../h/riscv.hpp ****     __asm__ volatile ("csrr %[sepc], sepc" : [sepc] "=r"(sepc));
 112:src/../h/riscv.hpp ****     return sepc;
 113:src/../h/riscv.hpp **** }
 114:src/../h/riscv.hpp **** 
 115:src/../h/riscv.hpp **** inline void Riscv::w_sepc(uint64 sepc) {
 116:src/../h/riscv.hpp ****     __asm__ volatile ("csrw sepc, %[sepc]" : : [sepc] "r"(sepc));
 117:src/../h/riscv.hpp **** }
 118:src/../h/riscv.hpp **** 
 119:src/../h/riscv.hpp **** inline uint64 Riscv::r_stvec() {
 120:src/../h/riscv.hpp ****     uint64 volatile stvec;
 121:src/../h/riscv.hpp ****     __asm__ volatile ("csrr %[stvec], stvec" : [stvec] "=r"(stvec));
 122:src/../h/riscv.hpp ****     return stvec;
 123:src/../h/riscv.hpp **** }
 124:src/../h/riscv.hpp **** 
 125:src/../h/riscv.hpp **** inline void Riscv::w_stvec(uint64 stvec) {
 126:src/../h/riscv.hpp ****     __asm__ volatile ("csrw stvec, %[stvec]" : : [stvec] "r"(stvec));
 127:src/../h/riscv.hpp **** }
 128:src/../h/riscv.hpp **** 
 129:src/../h/riscv.hpp **** inline uint64 Riscv::r_stval() {
 130:src/../h/riscv.hpp ****     uint64 volatile stval;
 131:src/../h/riscv.hpp ****     __asm__ volatile ("csrr %[stval], stval" : [stval] "=r"(stval));
 132:src/../h/riscv.hpp ****     return stval;
 133:src/../h/riscv.hpp **** }
 134:src/../h/riscv.hpp **** 
 135:src/../h/riscv.hpp **** inline void Riscv::w_stval(uint64 stval) {
 136:src/../h/riscv.hpp ****     __asm__ volatile ("csrw stval, %[stval]" : : [stval] "r"(stval));
GAS LISTING /tmp/ccGdnASE.s 			page 27


 137:src/../h/riscv.hpp **** }
 138:src/../h/riscv.hpp **** 
 139:src/../h/riscv.hpp **** inline void Riscv::ms_sip(uint64 mask) {
 140:src/../h/riscv.hpp ****     __asm__ volatile ("csrs sip, %[mask]" : : [mask] "r"(mask));
 141:src/../h/riscv.hpp **** }
 142:src/../h/riscv.hpp **** 
 143:src/../h/riscv.hpp **** inline void Riscv::mc_sip(uint64 mask) {
 144:src/../h/riscv.hpp ****     __asm__ volatile ("csrc sip, %[mask]" : : [mask] "r"(mask));
 145:src/../h/riscv.hpp **** }
 146:src/../h/riscv.hpp **** 
 147:src/../h/riscv.hpp **** inline uint64 Riscv::r_sip() {
 148:src/../h/riscv.hpp ****     uint64 volatile sip;
 149:src/../h/riscv.hpp ****     __asm__ volatile ("csrr %[sip], sip" : [sip] "=r"(sip));
 150:src/../h/riscv.hpp ****     return sip;
 151:src/../h/riscv.hpp **** }
 152:src/../h/riscv.hpp **** 
 153:src/../h/riscv.hpp **** inline void Riscv::w_sip(uint64 sip) {
 154:src/../h/riscv.hpp ****     __asm__ volatile ("csrw sip, %[sip]" : : [sip] "r"(sip));
 155:src/../h/riscv.hpp **** }
 156:src/../h/riscv.hpp **** 
 157:src/../h/riscv.hpp **** inline void Riscv::ms_sstatus(uint64 mask) {
 158:src/../h/riscv.hpp ****     __asm__ volatile ("csrs sstatus, %[mask]" : : [mask] "r"(mask));
 159:src/../h/riscv.hpp **** }
 160:src/../h/riscv.hpp **** 
 161:src/../h/riscv.hpp **** inline void Riscv::mc_sstatus(uint64 mask) {
 162:src/../h/riscv.hpp ****     __asm__ volatile ("csrc sstatus, %[mask]" : : [mask] "r"(mask));
 163:src/../h/riscv.hpp **** }
 164:src/../h/riscv.hpp **** 
 165:src/../h/riscv.hpp **** inline uint64 Riscv::r_sstatus() {
 166:src/../h/riscv.hpp ****     uint64 volatile sstatus;
 925              		.loc 4 166 5
 167:src/../h/riscv.hpp ****     __asm__ volatile ("csrr %[sstatus], sstatus" : [sstatus] "=r"(sstatus));
 926              		.loc 4 167 5
 927              		.loc 4 167 76 is_stmt 0
 928              	#APP
 929              	# 167 "src/../h/riscv.hpp" 1
 168              	    return sstatus;
 930              		csrr a5, sstatus
 931              	# 0 "" 2
 932              	#NO_APP
 933 0528 233CF4FC 		sd	a5,-40(s0)
 934              		.loc 4 168 5 is_stmt 1
 935              		.loc 4 168 12 is_stmt 0
 936 052c 833784FD 		ld	a5,-40(s0)
 937              	.LBE65:
 938              	.LBE64:
  38:src/c_thread.cpp ****     old->context.sstatus = Riscv::r_sstatus();
 939              		.loc 1 38 26
 940 0530 23BCF402 		sd	a5,56(s1)
  39:src/c_thread.cpp ****     old->context.sepc = Riscv::r_sepc();
 941              		.loc 1 39 5 is_stmt 1
 942              	.LBB66:
 943              	.LBB67:
 110:src/../h/riscv.hpp ****     __asm__ volatile ("csrr %[sepc], sepc" : [sepc] "=r"(sepc));
 944              		.loc 4 110 5
 111:src/../h/riscv.hpp ****     return sepc;
 945              		.loc 4 111 5
GAS LISTING /tmp/ccGdnASE.s 			page 28


 111:src/../h/riscv.hpp ****     return sepc;
 946              		.loc 4 111 64 is_stmt 0
 947              	#APP
 948              	# 111 "src/../h/riscv.hpp" 1
 949              		csrr a5, sepc
 950              	# 0 "" 2
 951              	#NO_APP
 952 0538 2338F4FC 		sd	a5,-48(s0)
 112:src/../h/riscv.hpp **** }
 953              		.loc 4 112 5 is_stmt 1
 112:src/../h/riscv.hpp **** }
 954              		.loc 4 112 12 is_stmt 0
 955 053c 833704FD 		ld	a5,-48(s0)
 956              	.LBE67:
 957              	.LBE66:
  39:src/c_thread.cpp ****     old->context.sepc = Riscv::r_sepc();
 958              		.loc 1 39 23
 959 0540 23B0F404 		sd	a5,64(s1)
  40:src/c_thread.cpp ****     if (old->is_runnable() && old != handle_bleya) {
 960              		.loc 1 40 5 is_stmt 1
 961              	.LVL86:
 962              	.LBB68:
 963              	.LBB69:
  51:src/../h/c_thread.hpp **** 
 964              		.loc 2 51 32
  51:src/../h/c_thread.hpp **** 
 965              		.loc 2 51 45 is_stmt 0
 966 0544 83A78404 		lw	a5,72(s1)
 967              	.LVL87:
 968              	.LBE69:
 969              	.LBE68:
  40:src/c_thread.cpp ****     if (old->is_runnable() && old != handle_bleya) {
 970              		.loc 1 40 28
 971 0548 63920702 		bnez	a5,.L41
  40:src/c_thread.cpp ****     if (old->is_runnable() && old != handle_bleya) {
 972              		.loc 1 40 35 discriminator 1
 973 054c 17070000 		la	a4,handle_bleya
 973      03370700 
 974 0554 03370700 		ld	a4,0(a4)
  40:src/c_thread.cpp ****     if (old->is_runnable() && old != handle_bleya) {
 975              		.loc 1 40 28 discriminator 1
 976 0558 630A9700 		beq	a4,s1,.L41
  41:src/c_thread.cpp ****         Scheduler::put(old);
 977              		.loc 1 41 9 is_stmt 1
  41:src/c_thread.cpp ****         Scheduler::put(old);
 978              		.loc 1 41 23 is_stmt 0
 979 055c 13850400 		mv	a0,s1
 980 0560 97000000 		call	_ZN9Scheduler3putEP3TCB@plt
 980      E7800000 
 981              	.LVL88:
 982 0568 6F00C000 		j	.L42
 983              	.L41:
  42:src/c_thread.cpp ****     } else if (old->is_finished()) {
 984              		.loc 1 42 12 is_stmt 1
 985              	.LVL89:
  59:src/../h/c_thread.hpp **** 
 986              		.loc 2 59 32
GAS LISTING /tmp/ccGdnASE.s 			page 29


  42:src/c_thread.cpp ****     } else if (old->is_finished()) {
 987              		.loc 1 42 12 is_stmt 0
 988 056c 13074000 		li	a4,4
 989 0570 6386E704 		beq	a5,a4,.L48
 990              	.L42:
  45:src/c_thread.cpp ****     if (Scheduler::is_empty()) {
 991              		.loc 1 45 5 is_stmt 1
 992              	.LBB70:
 993              	.LBB71:
 994              		.file 5 "src/../h/scheduler.hpp"
   1:src/../h/scheduler.hpp **** #ifndef PROJECT_BASE_SCHEDULER_HPP
   2:src/../h/scheduler.hpp **** #define PROJECT_BASE_SCHEDULER_HPP
   3:src/../h/scheduler.hpp **** 
   4:src/../h/scheduler.hpp **** #include "circular_buffer.hpp"
   5:src/../h/scheduler.hpp **** #include "syscall_c.hpp"
   6:src/../h/scheduler.hpp **** 
   7:src/../h/scheduler.hpp **** class Scheduler final {
   8:src/../h/scheduler.hpp **** public:
   9:src/../h/scheduler.hpp **** 
  10:src/../h/scheduler.hpp ****     static void init() { high_priority.init(); mid_priority.init(); low_priority.init(); }
  11:src/../h/scheduler.hpp **** 
  12:src/../h/scheduler.hpp ****     static void put(TCB *thread);
  13:src/../h/scheduler.hpp **** 
  14:src/../h/scheduler.hpp ****     static TCB *get();
  15:src/../h/scheduler.hpp **** 
  16:src/../h/scheduler.hpp ****     static inline bool is_empty() {
  17:src/../h/scheduler.hpp ****         return high_priority.is_empty() && mid_priority.is_empty() && low_priority.is_empty();
 995              		.loc 5 17 9
 996              	.LVL90:
 997              	.LBB72:
 998              	.LBB73:
  20:src/../h/circular_buffer.hpp **** 
 999              		.loc 3 20 53 is_stmt 0
 1000 0574 97070000 		la	a5,_ZN9Scheduler13high_priorityE
 1000      83B70700 
 1001 057c 83A70701 		lw	a5,16(a5)
 1002              	.LVL91:
 1003              	.LBE73:
 1004              	.LBE72:
 1005              		.loc 5 17 68
 1006 0580 63940706 		bnez	a5,.L46
 1007              	.LVL92:
 1008              	.LBB74:
 1009              	.LBB75:
  20:src/../h/circular_buffer.hpp **** 
 1010              		.loc 3 20 53
 1011 0584 97070000 		la	a5,_ZN9Scheduler12mid_priorityE
 1011      83B70700 
 1012 058c 83A70701 		lw	a5,16(a5)
 1013              	.LVL93:
 1014              	.LBE75:
 1015              	.LBE74:
 1016              		.loc 5 17 41
 1017 0590 639C0704 		bnez	a5,.L46
 1018              	.LVL94:
 1019              	.LBB76:
 1020              	.LBB77:
GAS LISTING /tmp/ccGdnASE.s 			page 30


  20:src/../h/circular_buffer.hpp **** 
 1021              		.loc 3 20 53
 1022 0594 97070000 		la	a5,_ZN9Scheduler12low_priorityE
 1022      83B70700 
 1023 059c 83A70701 		lw	a5,16(a5)
 1024              	.LVL95:
 1025              	.LBE77:
 1026              	.LBE76:
 1027              		.loc 5 17 68
 1028 05a0 63940704 		bnez	a5,.L46
 1029              	.LBE71:
 1030              	.LBE70:
  46:src/c_thread.cpp ****         TCB::running = handle_bleya;
 1031              		.loc 1 46 9 is_stmt 1
  46:src/c_thread.cpp ****         TCB::running = handle_bleya;
 1032              		.loc 1 46 22 is_stmt 0
 1033 05a4 97070000 		la	a5,handle_bleya
 1033      83B70700 
 1034 05ac 83B70700 		ld	a5,0(a5)
 1035 05b0 17070000 		sd	a5,.LANCHOR0,a4
 1035      2330F700 
 1036 05b8 6F004005 		j	.L44
 1037              	.L48:
  43:src/c_thread.cpp ****         Allocator::_mem_free(old->stack);
 1038              		.loc 1 43 9 is_stmt 1
  43:src/c_thread.cpp ****         Allocator::_mem_free(old->stack);
 1039              		.loc 1 43 29 is_stmt 0
 1040 05bc 03B58401 		ld	a0,24(s1)
 1041 05c0 97000000 		call	_ZN9Allocator9_mem_freeEPKv@plt
 1041      E7800000 
 1042              	.LVL96:
 1043 05c8 6FF0DFFA 		j	.L42
 1044              	.L49:
  49:src/c_thread.cpp ****             Allocator::_mem_free(TCB::destroy_thread(Scheduler::get())->stack);
 1045              		.loc 1 49 13 is_stmt 1
  49:src/c_thread.cpp ****             Allocator::_mem_free(TCB::destroy_thread(Scheduler::get())->stack);
 1046              		.loc 1 49 53 is_stmt 0
 1047 05cc 97000000 		call	_ZN9Scheduler3getEv@plt
 1047      E7800000 
 1048              	.LVL97:
 1049 05d4 97000000 		call	_ZN3TCB14destroy_threadEPS_
 1049      E7800000 
 1050              	.LVL98:
  49:src/c_thread.cpp ****             Allocator::_mem_free(TCB::destroy_thread(Scheduler::get())->stack);
 1051              		.loc 1 49 33
 1052 05dc 03358501 		ld	a0,24(a0)
 1053 05e0 97000000 		call	_ZN9Allocator9_mem_freeEPKv@plt
 1053      E7800000 
 1054              	.LVL99:
 1055              	.L46:
  48:src/c_thread.cpp ****         while (Scheduler::peek()->is_finished()) {
 1056              		.loc 1 48 9 is_stmt 1
  48:src/c_thread.cpp ****         while (Scheduler::peek()->is_finished()) {
 1057              		.loc 1 48 46
 1058 05e8 97000000 		call	_ZN9Scheduler4peekEv@plt
 1058      E7800000 
 1059              	.LVL100:
GAS LISTING /tmp/ccGdnASE.s 			page 31


 1060              	.LBB78:
 1061              	.LBB79:
  59:src/../h/c_thread.hpp **** 
 1062              		.loc 2 59 32
  59:src/../h/c_thread.hpp **** 
 1063              		.loc 2 59 45 is_stmt 0
 1064 05f0 03278504 		lw	a4,72(a0)
 1065              	.LVL101:
 1066              	.LBE79:
 1067              	.LBE78:
  48:src/c_thread.cpp ****         while (Scheduler::peek()->is_finished()) {
 1068              		.loc 1 48 46
 1069 05f4 93074000 		li	a5,4
 1070 05f8 E30AF7FC 		beq	a4,a5,.L49
  51:src/c_thread.cpp ****         TCB::running = Scheduler::get();
 1071              		.loc 1 51 9 is_stmt 1
  51:src/c_thread.cpp ****         TCB::running = Scheduler::get();
 1072              		.loc 1 51 38 is_stmt 0
 1073 05fc 97000000 		call	_ZN9Scheduler3getEv@plt
 1073      E7800000 
 1074              	.LVL102:
  51:src/c_thread.cpp ****         TCB::running = Scheduler::get();
 1075              		.loc 1 51 22
 1076 0604 97070000 		sd	a0,.LANCHOR0,a5
 1076      23B0A700 
 1077              	.L44:
  53:src/c_thread.cpp ****     Riscv::w_sstatus(TCB::running->context.sstatus);
 1078              		.loc 1 53 5 is_stmt 1
  53:src/c_thread.cpp ****     Riscv::w_sstatus(TCB::running->context.sstatus);
 1079              		.loc 1 53 21 is_stmt 0
 1080 060c 97050000 		ld	a1,.LANCHOR0
 1080      83B50500 
 1081 0614 83B78503 		ld	a5,56(a1)
 1082              	.LVL103:
 1083              	.LBB80:
 1084              	.LBB81:
 169:src/../h/riscv.hpp **** }
 170:src/../h/riscv.hpp **** 
 171:src/../h/riscv.hpp **** inline void Riscv::w_sstatus(uint64 sstatus) {
 172:src/../h/riscv.hpp ****     __asm__ volatile ("csrw sstatus, %[sstatus]" : : [sstatus] "r"(sstatus));
 1085              		.loc 4 172 5 is_stmt 1
 1086              		.loc 4 172 77 is_stmt 0
 1087              	#APP
 1088              	# 172 "src/../h/riscv.hpp" 1
 173              	}
 1089              		csrw sstatus, a5
 1090              	# 0 "" 2
 1091              	.LVL104:
 1092              	#NO_APP
 1093              	.LBE81:
 1094              	.LBE80:
  54:src/c_thread.cpp ****     Riscv::w_sepc(TCB::running->context.sepc);
 1095              		.loc 1 54 5 is_stmt 1
  54:src/c_thread.cpp ****     Riscv::w_sepc(TCB::running->context.sepc);
 1096              		.loc 1 54 18 is_stmt 0
 1097 061c 83B70504 		ld	a5,64(a1)
 1098              	.LVL105:
GAS LISTING /tmp/ccGdnASE.s 			page 32


 1099              	.LBB82:
 1100              	.LBB83:
 116:src/../h/riscv.hpp **** }
 1101              		.loc 4 116 5 is_stmt 1
 116:src/../h/riscv.hpp **** }
 1102              		.loc 4 116 65 is_stmt 0
 1103              	#APP
 1104              	# 116 "src/../h/riscv.hpp" 1
 1105              		csrw sepc, a5
 1106              	# 0 "" 2
 1107              	.LVL106:
 1108              	#NO_APP
 1109              	.LBE83:
 1110              	.LBE82:
  55:src/c_thread.cpp ****     TCB::context_switch(&old->context, &TCB::running->context);
 1111              		.loc 1 55 5 is_stmt 1
  55:src/c_thread.cpp ****     TCB::context_switch(&old->context, &TCB::running->context);
 1112              		.loc 1 55 24 is_stmt 0
 1113 0624 93858502 		addi	a1,a1,40
 1114 0628 13858402 		addi	a0,s1,40
 1115 062c 97000000 		call	_ZN3TCB14context_switchEP7ContextS1_@plt
 1115      E7800000 
 1116              	.LVL107:
  56:src/c_thread.cpp **** }
 1117              		.loc 1 56 1
 1118 0634 83308102 		ld	ra,40(sp)
 1119              		.cfi_restore 1
 1120 0638 03340102 		ld	s0,32(sp)
 1121              		.cfi_restore 8
 1122              		.cfi_def_cfa 2, 48
 1123 063c 83348101 		ld	s1,24(sp)
 1124              		.cfi_restore 9
 1125              	.LVL108:
 1126 0640 13010103 		addi	sp,sp,48
 1127              		.cfi_def_cfa_offset 0
 1128 0644 67800000 		jr	ra
 1129              		.cfi_endproc
 1130              	.LFE52:
 1132              		.align	2
 1133              		.globl	_ZN3TCB16_thread_dispatchEv
 1135              	_ZN3TCB16_thread_dispatchEv:
 1136              	.LFB53:
  58:src/c_thread.cpp **** void TCB::_thread_dispatch() {
 1137              		.loc 1 58 30 is_stmt 1
 1138              		.cfi_startproc
 1139 0648 130101FF 		addi	sp,sp,-16
 1140              		.cfi_def_cfa_offset 16
 1141 064c 23341100 		sd	ra,8(sp)
 1142 0650 23308100 		sd	s0,0(sp)
 1143              		.cfi_offset 1, -8
 1144              		.cfi_offset 8, -16
 1145 0654 13040101 		addi	s0,sp,16
 1146              		.cfi_def_cfa 8, 0
  59:src/c_thread.cpp ****     Riscv::push();
 1147              		.loc 1 59 5
  59:src/c_thread.cpp ****     Riscv::push();
 1148              		.loc 1 59 16 is_stmt 0
GAS LISTING /tmp/ccGdnASE.s 			page 33


 1149 0658 97000000 		call	_ZN5Riscv4pushEv@plt
 1149      E7800000 
 1150              	.LVL109:
  60:src/c_thread.cpp ****     TCB::yield();
 1151              		.loc 1 60 5 is_stmt 1
  60:src/c_thread.cpp ****     TCB::yield();
 1152              		.loc 1 60 15 is_stmt 0
 1153 0660 97000000 		call	_ZN3TCB5yieldEv
 1153      E7800000 
 1154              	.LVL110:
  61:src/c_thread.cpp ****     Riscv::pop();
 1155              		.loc 1 61 5 is_stmt 1
  61:src/c_thread.cpp ****     Riscv::pop();
 1156              		.loc 1 61 15 is_stmt 0
 1157 0668 97000000 		call	_ZN5Riscv3popEv@plt
 1157      E7800000 
 1158              	.LVL111:
  62:src/c_thread.cpp **** }
 1159              		.loc 1 62 1
 1160 0670 83308100 		ld	ra,8(sp)
 1161              		.cfi_restore 1
 1162 0674 03340100 		ld	s0,0(sp)
 1163              		.cfi_restore 8
 1164              		.cfi_def_cfa 2, 16
 1165 0678 13010101 		addi	sp,sp,16
 1166              		.cfi_def_cfa_offset 0
 1167 067c 67800000 		jr	ra
 1168              		.cfi_endproc
 1169              	.LFE53:
 1171              		.align	2
 1172              		.globl	_ZN3TCB12_thread_exitEv
 1174              	_ZN3TCB12_thread_exitEv:
 1175              	.LFB55:
  76:src/c_thread.cpp **** void TCB::_thread_exit() {
 1176              		.loc 1 76 26 is_stmt 1
 1177              		.cfi_startproc
 1178 0680 130101FF 		addi	sp,sp,-16
 1179              		.cfi_def_cfa_offset 16
 1180 0684 23341100 		sd	ra,8(sp)
 1181 0688 23308100 		sd	s0,0(sp)
 1182              		.cfi_offset 1, -8
 1183              		.cfi_offset 8, -16
 1184 068c 13040101 		addi	s0,sp,16
 1185              		.cfi_def_cfa 8, 0
  77:src/c_thread.cpp ****     TCB::running->finish();
 1186              		.loc 1 77 5
  77:src/c_thread.cpp ****     TCB::running->finish();
 1187              		.loc 1 77 25 is_stmt 0
 1188 0690 17050000 		ld	a0,.LANCHOR0
 1188      03350500 
 1189              	.LVL112:
 1190              	.LBB84:
 1191              	.LBB85:
 1192              		.loc 2 69 21 is_stmt 1
 1193              		.loc 2 69 34 is_stmt 0
 1194 0698 93074000 		li	a5,4
 1195 069c 2324F504 		sw	a5,72(a0)
GAS LISTING /tmp/ccGdnASE.s 			page 34


 1196              	.LVL113:
 1197              	.LBE85:
 1198              	.LBE84:
  78:src/c_thread.cpp ****     TCB::destroy_thread(TCB::running);
 1199              		.loc 1 78 5 is_stmt 1
  78:src/c_thread.cpp ****     TCB::destroy_thread(TCB::running);
 1200              		.loc 1 78 24 is_stmt 0
 1201 06a0 97000000 		call	_ZN3TCB14destroy_threadEPS_
 1201      E7800000 
 1202              	.LVL114:
  79:src/c_thread.cpp ****     TCB::_thread_dispatch();
 1203              		.loc 1 79 5 is_stmt 1
  79:src/c_thread.cpp ****     TCB::_thread_dispatch();
 1204              		.loc 1 79 26 is_stmt 0
 1205 06a8 97000000 		call	_ZN3TCB16_thread_dispatchEv
 1205      E7800000 
 1206              	.LVL115:
  80:src/c_thread.cpp **** }
 1207              		.loc 1 80 1
 1208 06b0 83308100 		ld	ra,8(sp)
 1209              		.cfi_restore 1
 1210 06b4 03340100 		ld	s0,0(sp)
 1211              		.cfi_restore 8
 1212              		.cfi_def_cfa 2, 16
 1213 06b8 13010101 		addi	sp,sp,16
 1214              		.cfi_def_cfa_offset 0
 1215 06bc 67800000 		jr	ra
 1216              		.cfi_endproc
 1217              	.LFE55:
 1219              		.section	.text._ZN3stm14CircularBufferIP3TCBE6extendEv,"axG",@progbits,_ZN3stm14CircularBufferIP3T
 1220              		.align	2
 1221              		.weak	_ZN3stm14CircularBufferIP3TCBE6extendEv
 1223              	_ZN3stm14CircularBufferIP3TCBE6extendEv:
 1224              	.LFB68:
  70:src/../h/circular_buffer.hpp ****     T *new_queue = (T *) mem_alloc(sizeof(T *) * this->capacity * 2);
 1225              		.loc 3 70 6 is_stmt 1
 1226              		.cfi_startproc
 1227              	.LVL116:
 1228 0000 130101FE 		addi	sp,sp,-32
 1229              		.cfi_def_cfa_offset 32
 1230 0004 233C1100 		sd	ra,24(sp)
 1231 0008 23388100 		sd	s0,16(sp)
 1232 000c 23349100 		sd	s1,8(sp)
 1233 0010 23302101 		sd	s2,0(sp)
 1234              		.cfi_offset 1, -8
 1235              		.cfi_offset 8, -16
 1236              		.cfi_offset 9, -24
 1237              		.cfi_offset 18, -32
 1238 0014 13040102 		addi	s0,sp,32
 1239              		.cfi_def_cfa 8, 0
 1240 0018 93040500 		mv	s1,a0
  71:src/../h/circular_buffer.hpp ****     for (int i = 0, j = this->head; i < this->capacity; i++, j = (j + 1) % this->capacity)
 1241              		.loc 3 71 56 is_stmt 0
 1242 001c 03254501 		lw	a0,20(a0)
 1243              	.LVL117:
  71:src/../h/circular_buffer.hpp ****     for (int i = 0, j = this->head; i < this->capacity; i++, j = (j + 1) % this->capacity)
 1244              		.loc 3 71 35
GAS LISTING /tmp/ccGdnASE.s 			page 35


 1245 0020 13154500 		slli	a0,a0,4
 1246 0024 97000000 		call	_Z9mem_allocm@plt
 1246      E7800000 
 1247              	.LVL118:
 1248 002c 13090500 		mv	s2,a0
 1249              	.LVL119:
 1250              	.LBB86:
  72:src/../h/circular_buffer.hpp ****         new_queue[i] = this->queue[j];
 1251              		.loc 3 72 21
 1252 0030 83A78400 		lw	a5,8(s1)
 1253              	.LVL120:
  72:src/../h/circular_buffer.hpp ****         new_queue[i] = this->queue[j];
 1254              		.loc 3 72 14
 1255 0034 13070000 		li	a4,0
 1256              	.LVL121:
 1257              	.L56:
  72:src/../h/circular_buffer.hpp ****         new_queue[i] = this->queue[j];
 1258              		.loc 3 72 39 is_stmt 1 discriminator 3
  72:src/../h/circular_buffer.hpp ****         new_queue[i] = this->queue[j];
 1259              		.loc 3 72 47 is_stmt 0 discriminator 3
 1260 0038 83A64401 		lw	a3,20(s1)
  72:src/../h/circular_buffer.hpp ****         new_queue[i] = this->queue[j];
 1261              		.loc 3 72 39 discriminator 3
 1262 003c 635AD702 		ble	a3,a4,.L55
  73:src/../h/circular_buffer.hpp ****     mem_free(queue);
 1263              		.loc 3 73 30 discriminator 2
 1264 0040 03B60400 		ld	a2,0(s1)
  73:src/../h/circular_buffer.hpp ****     mem_free(queue);
 1265              		.loc 3 73 18 discriminator 2
 1266 0044 93163700 		slli	a3,a4,3
 1267 0048 B306D900 		add	a3,s2,a3
  73:src/../h/circular_buffer.hpp ****     mem_free(queue);
 1268              		.loc 3 73 35 discriminator 2
 1269 004c 93953700 		slli	a1,a5,3
 1270 0050 3306B600 		add	a2,a2,a1
 1271 0054 03360600 		ld	a2,0(a2)
  73:src/../h/circular_buffer.hpp ****     mem_free(queue);
 1272              		.loc 3 73 9 discriminator 2
 1273 0058 23B0C600 		sd	a2,0(a3)
  72:src/../h/circular_buffer.hpp ****         new_queue[i] = this->queue[j];
 1274              		.loc 3 72 5 is_stmt 1 discriminator 2
 1275 005c 1B071700 		addiw	a4,a4,1
 1276              	.LVL122:
  72:src/../h/circular_buffer.hpp ****         new_queue[i] = this->queue[j];
 1277              		.loc 3 72 69 is_stmt 0 discriminator 2
 1278 0060 9B871700 		addiw	a5,a5,1
 1279              	.LVL123:
  72:src/../h/circular_buffer.hpp ****         new_queue[i] = this->queue[j];
 1280              		.loc 3 72 82 discriminator 2
 1281 0064 83A64401 		lw	a3,20(s1)
  72:src/../h/circular_buffer.hpp ****         new_queue[i] = this->queue[j];
 1282              		.loc 3 72 5 discriminator 2
 1283 0068 BBE7D702 		remw	a5,a5,a3
 1284              	.LVL124:
 1285 006c 6FF0DFFC 		j	.L56
 1286              	.LVL125:
 1287              	.L55:
GAS LISTING /tmp/ccGdnASE.s 			page 36


 1288              	.LBE86:
  74:src/../h/circular_buffer.hpp ****     this->queue = new_queue;
 1289              		.loc 3 74 13
 1290 0070 03B50400 		ld	a0,0(s1)
 1291              	.LVL126:
 1292 0074 97000000 		call	_Z8mem_freePv@plt
 1292      E7800000 
 1293              	.LVL127:
  75:src/../h/circular_buffer.hpp ****     this->head = 0;
 1294              		.loc 3 75 5
 1295 007c 23B02401 		sd	s2,0(s1)
  76:src/../h/circular_buffer.hpp ****     this->tail = this->capacity;
 1296              		.loc 3 76 5
 1297 0080 23A40400 		sw	zero,8(s1)
  77:src/../h/circular_buffer.hpp ****     this->capacity *= 2;
 1298              		.loc 3 77 24
 1299 0084 83A74401 		lw	a5,20(s1)
  77:src/../h/circular_buffer.hpp ****     this->capacity *= 2;
 1300              		.loc 3 77 5
 1301 0088 23A6F400 		sw	a5,12(s1)
  78:src/../h/circular_buffer.hpp **** }
 1302              		.loc 3 78 20
 1303 008c 9B971700 		slliw	a5,a5,1
  78:src/../h/circular_buffer.hpp **** }
 1304              		.loc 3 78 5
 1305 0090 23AAF400 		sw	a5,20(s1)
  79:src/../h/circular_buffer.hpp **** 
 1306              		.loc 3 79 1
 1307 0094 83308101 		ld	ra,24(sp)
 1308              		.cfi_restore 1
 1309 0098 03340101 		ld	s0,16(sp)
 1310              		.cfi_restore 8
 1311              		.cfi_def_cfa 2, 32
 1312 009c 83348100 		ld	s1,8(sp)
 1313              		.cfi_restore 9
 1314              	.LVL128:
 1315 00a0 03390100 		ld	s2,0(sp)
 1316              		.cfi_restore 18
 1317              	.LVL129:
 1318 00a4 13010102 		addi	sp,sp,32
 1319              		.cfi_def_cfa_offset 0
 1320 00a8 67800000 		jr	ra
 1321              		.cfi_endproc
 1322              	.LFE68:
 1324              		.section	.text._ZN3stm14CircularBufferIP3TCBE3putES2_,"axG",@progbits,_ZN3stm14CircularBufferIP3TC
 1325              		.align	2
 1326              		.weak	_ZN3stm14CircularBufferIP3TCBE3putES2_
 1328              	_ZN3stm14CircularBufferIP3TCBE3putES2_:
 1329              	.LFB67:
  47:src/../h/circular_buffer.hpp ****     if (this->size == this->capacity) {
 1330              		.loc 3 47 6 is_stmt 1
 1331              		.cfi_startproc
 1332              	.LVL130:
 1333 0000 130101FE 		addi	sp,sp,-32
 1334              		.cfi_def_cfa_offset 32
 1335 0004 233C1100 		sd	ra,24(sp)
 1336 0008 23388100 		sd	s0,16(sp)
GAS LISTING /tmp/ccGdnASE.s 			page 37


 1337 000c 23349100 		sd	s1,8(sp)
 1338 0010 23302101 		sd	s2,0(sp)
 1339              		.cfi_offset 1, -8
 1340              		.cfi_offset 8, -16
 1341              		.cfi_offset 9, -24
 1342              		.cfi_offset 18, -32
 1343 0014 13040102 		addi	s0,sp,32
 1344              		.cfi_def_cfa 8, 0
 1345 0018 93040500 		mv	s1,a0
 1346 001c 13890500 		mv	s2,a1
  48:src/../h/circular_buffer.hpp ****         this->extend();
 1347              		.loc 3 48 15 is_stmt 0
 1348 0020 03270501 		lw	a4,16(a0)
  48:src/../h/circular_buffer.hpp ****         this->extend();
 1349              		.loc 3 48 29
 1350 0024 83274501 		lw	a5,20(a0)
  48:src/../h/circular_buffer.hpp ****         this->extend();
 1351              		.loc 3 48 5
 1352 0028 6308F704 		beq	a4,a5,.L61
 1353              	.LVL131:
 1354              	.L59:
  51:src/../h/circular_buffer.hpp ****     this->tail = (this->tail + 1) % this->capacity;
 1355              		.loc 3 51 11
 1356 002c 83B70400 		ld	a5,0(s1)
  51:src/../h/circular_buffer.hpp ****     this->tail = (this->tail + 1) % this->capacity;
 1357              		.loc 3 51 23
 1358 0030 03A7C400 		lw	a4,12(s1)
  51:src/../h/circular_buffer.hpp ****     this->tail = (this->tail + 1) % this->capacity;
 1359              		.loc 3 51 16
 1360 0034 13173700 		slli	a4,a4,3
 1361 0038 B387E700 		add	a5,a5,a4
  51:src/../h/circular_buffer.hpp ****     this->tail = (this->tail + 1) % this->capacity;
 1362              		.loc 3 51 5
 1363 003c 23B02701 		sd	s2,0(a5)
  52:src/../h/circular_buffer.hpp ****     this->size++;
 1364              		.loc 3 52 25
 1365 0040 83A7C400 		lw	a5,12(s1)
  52:src/../h/circular_buffer.hpp ****     this->size++;
 1366              		.loc 3 52 30
 1367 0044 9B871700 		addiw	a5,a5,1
  52:src/../h/circular_buffer.hpp ****     this->size++;
 1368              		.loc 3 52 43
 1369 0048 03A74401 		lw	a4,20(s1)
  52:src/../h/circular_buffer.hpp ****     this->size++;
 1370              		.loc 3 52 35
 1371 004c BBE7E702 		remw	a5,a5,a4
  52:src/../h/circular_buffer.hpp ****     this->size++;
 1372              		.loc 3 52 5
 1373 0050 23A6F400 		sw	a5,12(s1)
  53:src/../h/circular_buffer.hpp **** }
 1374              		.loc 3 53 11
 1375 0054 83A70401 		lw	a5,16(s1)
  53:src/../h/circular_buffer.hpp **** }
 1376              		.loc 3 53 5
 1377 0058 9B871700 		addiw	a5,a5,1
 1378 005c 23A8F400 		sw	a5,16(s1)
  54:src/../h/circular_buffer.hpp **** 
GAS LISTING /tmp/ccGdnASE.s 			page 38


 1379              		.loc 3 54 1
 1380 0060 83308101 		ld	ra,24(sp)
 1381              		.cfi_remember_state
 1382              		.cfi_restore 1
 1383 0064 03340101 		ld	s0,16(sp)
 1384              		.cfi_restore 8
 1385              		.cfi_def_cfa 2, 32
 1386 0068 83348100 		ld	s1,8(sp)
 1387              		.cfi_restore 9
 1388              	.LVL132:
 1389 006c 03390100 		ld	s2,0(sp)
 1390              		.cfi_restore 18
 1391              	.LVL133:
 1392 0070 13010102 		addi	sp,sp,32
 1393              		.cfi_def_cfa_offset 0
 1394 0074 67800000 		jr	ra
 1395              	.LVL134:
 1396              	.L61:
 1397              		.cfi_restore_state
  49:src/../h/circular_buffer.hpp ****     }
 1398              		.loc 3 49 9
 1399 0078 97000000 		call	_ZN3stm14CircularBufferIP3TCBE6extendEv
 1399      E7800000 
 1400              	.LVL135:
 1401 0080 6FF0DFFA 		j	.L59
 1402              		.cfi_endproc
 1403              	.LFE67:
 1405              		.text
 1406              		.align	2
 1407              		.globl	_ZN3TCB12_thread_joinEPS_
 1409              	_ZN3TCB12_thread_joinEPS_:
 1410              	.LFB56:
  82:src/c_thread.cpp **** void TCB::_thread_join(thread_t handle) {
 1411              		.loc 1 82 41 is_stmt 1
 1412              		.cfi_startproc
 1413              	.LVL136:
  83:src/c_thread.cpp ****     if (handle->is_finished())
 1414              		.loc 1 83 5
 1415              	.LBB87:
 1416              	.LBB88:
  59:src/../h/c_thread.hpp **** 
 1417              		.loc 2 59 32
  59:src/../h/c_thread.hpp **** 
 1418              		.loc 2 59 45 is_stmt 0
 1419 06c0 03278504 		lw	a4,72(a0)
 1420              	.LVL137:
 1421              	.LBE88:
 1422              	.LBE87:
  83:src/c_thread.cpp ****     if (handle->is_finished())
 1423              		.loc 1 83 5
 1424 06c4 93074000 		li	a5,4
 1425 06c8 6304F704 		beq	a4,a5,.L65
  82:src/c_thread.cpp **** void TCB::_thread_join(thread_t handle) {
 1426              		.loc 1 82 41
 1427 06cc 130101FF 		addi	sp,sp,-16
 1428              		.cfi_def_cfa_offset 16
 1429 06d0 23341100 		sd	ra,8(sp)
GAS LISTING /tmp/ccGdnASE.s 			page 39


 1430 06d4 23308100 		sd	s0,0(sp)
 1431              		.cfi_offset 1, -8
 1432              		.cfi_offset 8, -16
 1433 06d8 13040101 		addi	s0,sp,16
 1434              		.cfi_def_cfa 8, 0
  85:src/c_thread.cpp ****     TCB::running->enjoin();
 1435              		.loc 1 85 5 is_stmt 1
  85:src/c_thread.cpp ****     TCB::running->enjoin();
 1436              		.loc 1 85 25 is_stmt 0
 1437 06dc 97050000 		ld	a1,.LANCHOR0
 1437      83B50500 
 1438              	.LVL138:
 1439              	.LBB89:
 1440              	.LBB90:
  67:src/../h/c_thread.hpp **** 
 1441              		.loc 2 67 21 is_stmt 1
  67:src/../h/c_thread.hpp **** 
 1442              		.loc 2 67 34 is_stmt 0
 1443 06e4 93073000 		li	a5,3
 1444 06e8 23A4F504 		sw	a5,72(a1)
 1445              	.LVL139:
 1446              	.LBE90:
 1447              	.LBE89:
  86:src/c_thread.cpp ****     handle->joiner.put(TCB::running);
 1448              		.loc 1 86 5 is_stmt 1
  86:src/c_thread.cpp ****     handle->joiner.put(TCB::running);
 1449              		.loc 1 86 23 is_stmt 0
 1450 06ec 13050506 		addi	a0,a0,96
 1451              	.LVL140:
 1452 06f0 97000000 		call	_ZN3stm14CircularBufferIP3TCBE3putES2_
 1452      E7800000 
 1453              	.LVL141:
  87:src/c_thread.cpp ****     TCB::_thread_dispatch();
 1454              		.loc 1 87 5 is_stmt 1
  87:src/c_thread.cpp ****     TCB::_thread_dispatch();
 1455              		.loc 1 87 26 is_stmt 0
 1456 06f8 97000000 		call	_ZN3TCB16_thread_dispatchEv
 1456      E7800000 
 1457              	.LVL142:
  88:src/c_thread.cpp **** }
 1458              		.loc 1 88 1
 1459 0700 83308100 		ld	ra,8(sp)
 1460              		.cfi_restore 1
 1461 0704 03340100 		ld	s0,0(sp)
 1462              		.cfi_restore 8
 1463              		.cfi_def_cfa 2, 16
 1464 0708 13010101 		addi	sp,sp,16
 1465              		.cfi_def_cfa_offset 0
 1466 070c 67800000 		jr	ra
 1467              	.LVL143:
 1468              	.L65:
 1469 0710 67800000 		ret
 1470              		.cfi_endproc
 1471              	.LFE56:
 1473              		.align	2
 1474              		.globl	_ZN3TCB12_thread_joinEPS_m
 1476              	_ZN3TCB12_thread_joinEPS_m:
GAS LISTING /tmp/ccGdnASE.s 			page 40


 1477              	.LFB57:
  90:src/c_thread.cpp **** void TCB::_thread_join(thread_t handle, time_t time) {
 1478              		.loc 1 90 54 is_stmt 1
 1479              		.cfi_startproc
 1480              	.LVL144:
  91:src/c_thread.cpp ****     if (handle->is_finished())
 1481              		.loc 1 91 5
 1482              	.LBB91:
 1483              	.LBB92:
  59:src/../h/c_thread.hpp **** 
 1484              		.loc 2 59 32
  59:src/../h/c_thread.hpp **** 
 1485              		.loc 2 59 45 is_stmt 0
 1486 0714 03278504 		lw	a4,72(a0)
 1487              	.LVL145:
 1488              	.LBE92:
 1489              	.LBE91:
  91:src/c_thread.cpp ****     if (handle->is_finished())
 1490              		.loc 1 91 5
 1491 0718 93074000 		li	a5,4
 1492 071c 6308F706 		beq	a4,a5,.L71
  90:src/c_thread.cpp **** void TCB::_thread_join(thread_t handle, time_t time) {
 1493              		.loc 1 90 54
 1494 0720 130101FE 		addi	sp,sp,-32
 1495              		.cfi_def_cfa_offset 32
 1496 0724 233C1100 		sd	ra,24(sp)
 1497 0728 23388100 		sd	s0,16(sp)
 1498 072c 23349100 		sd	s1,8(sp)
 1499 0730 23302101 		sd	s2,0(sp)
 1500              		.cfi_offset 1, -8
 1501              		.cfi_offset 8, -16
 1502              		.cfi_offset 9, -24
 1503              		.cfi_offset 18, -32
 1504 0734 13040102 		addi	s0,sp,32
 1505              		.cfi_def_cfa 8, 0
 1506 0738 93840500 		mv	s1,a1
  93:src/c_thread.cpp ****     TCB::running->enjoin();
 1507              		.loc 1 93 5 is_stmt 1
  93:src/c_thread.cpp ****     TCB::running->enjoin();
 1508              		.loc 1 93 25 is_stmt 0
 1509 073c 17090000 		lla	s2,.LANCHOR0
 1509      13090900 
 1510 0744 83350900 		ld	a1,0(s2)
 1511              	.LVL146:
 1512              	.LBB93:
 1513              	.LBB94:
  67:src/../h/c_thread.hpp **** 
 1514              		.loc 2 67 21 is_stmt 1
  67:src/../h/c_thread.hpp **** 
 1515              		.loc 2 67 34 is_stmt 0
 1516 0748 93073000 		li	a5,3
 1517 074c 23A4F504 		sw	a5,72(a1)
 1518              	.LVL147:
 1519              	.LBE94:
 1520              	.LBE93:
  94:src/c_thread.cpp ****     handle->joiner.put(TCB::running);
 1521              		.loc 1 94 5 is_stmt 1
GAS LISTING /tmp/ccGdnASE.s 			page 41


  94:src/c_thread.cpp ****     handle->joiner.put(TCB::running);
 1522              		.loc 1 94 23 is_stmt 0
 1523 0750 13050506 		addi	a0,a0,96
 1524              	.LVL148:
 1525 0754 97000000 		call	_ZN3stm14CircularBufferIP3TCBE3putES2_
 1525      E7800000 
 1526              	.LVL149:
  95:src/c_thread.cpp ****     Cradle::insert(TCB::running, time);
 1527              		.loc 1 95 5 is_stmt 1
  95:src/c_thread.cpp ****     Cradle::insert(TCB::running, time);
 1528              		.loc 1 95 19 is_stmt 0
 1529 075c 93850400 		mv	a1,s1
 1530 0760 03350900 		ld	a0,0(s2)
 1531 0764 97000000 		call	_ZN6Cradle6insertEP3TCBm@plt
 1531      E7800000 
 1532              	.LVL150:
  96:src/c_thread.cpp ****     TCB::_thread_dispatch();
 1533              		.loc 1 96 5 is_stmt 1
  96:src/c_thread.cpp ****     TCB::_thread_dispatch();
 1534              		.loc 1 96 26 is_stmt 0
 1535 076c 97000000 		call	_ZN3TCB16_thread_dispatchEv
 1535      E7800000 
 1536              	.LVL151:
  97:src/c_thread.cpp **** }
 1537              		.loc 1 97 1
 1538 0774 83308101 		ld	ra,24(sp)
 1539              		.cfi_restore 1
 1540 0778 03340101 		ld	s0,16(sp)
 1541              		.cfi_restore 8
 1542              		.cfi_def_cfa 2, 32
 1543 077c 83348100 		ld	s1,8(sp)
 1544              		.cfi_restore 9
 1545              	.LVL152:
 1546 0780 03390100 		ld	s2,0(sp)
 1547              		.cfi_restore 18
 1548 0784 13010102 		addi	sp,sp,32
 1549              		.cfi_def_cfa_offset 0
 1550 0788 67800000 		jr	ra
 1551              	.LVL153:
 1552              	.L71:
 1553 078c 67800000 		ret
 1554              		.cfi_endproc
 1555              	.LFE57:
 1557              		.globl	_ZN3TCB13timer_counterE
 1558              		.globl	_ZN3TCB7runningE
 1559              		.globl	_ZN3TCB2IDE
 1560              		.bss
 1561              		.align	3
 1562              		.set	.LANCHOR0,. + 0
 1565              	_ZN3TCB7runningE:
 1566 0000 00000000 		.zero	8
 1566      00000000 
 1569              	_ZN3TCB2IDE:
 1570 0008 00000000 		.zero	4
 1571 000c 00000000 		.zero	4
 1574              	_ZN3TCB13timer_counterE:
 1575 0010 00000000 		.zero	8
GAS LISTING /tmp/ccGdnASE.s 			page 42


 1575      00000000 
 1576              		.text
 1577              	.Letext0:
 1578              		.file 6 "src/../h/../lib/hw.h"
 1579              		.file 7 "src/../h/syscall_c.hpp"
 1580              		.file 8 "src/../h/c_memory.hpp"
 1581              		.file 9 "src/../h/c_sleep.hpp"
 1582              		.file 10 "src/../h/c_console.hpp"
 6811              		.align	3
 6814              	DW.ref.__gxx_personality_v0:
 6815 0000 00000000 		.dword	__gxx_personality_v0
 6815      00000000 
 6816              		.ident	"GCC: (Ubuntu 9.4.0-1ubuntu1~20.04) 9.4.0"
 6817              		.section	.note.GNU-stack,"",@progbits
GAS LISTING /tmp/ccGdnASE.s 			page 43


DEFINED SYMBOLS
                            *ABS*:0000000000000000 c_thread.cpp
     /tmp/ccGdnASE.s:9      .text:0000000000000000 _ZN3TCB12thread_startEv
     /tmp/ccGdnASE.s:13     .text:0000000000000000 .L0 
     /tmp/ccGdnASE.s:14     .text:0000000000000000 .L0 
     /tmp/ccGdnASE.s:15     .text:0000000000000004 .L0 
     /tmp/ccGdnASE.s:18     .text:000000000000000c .L0 
     /tmp/ccGdnASE.s:19     .text:000000000000000c .L0 
     /tmp/ccGdnASE.s:21     .text:0000000000000010 .L0 
     /tmp/ccGdnASE.s:23     .text:0000000000000010 .L0 
     /tmp/ccGdnASE.s:24     .text:0000000000000010 .L0 
     /tmp/ccGdnASE.s:27     .text:0000000000000018 .L0 
     /tmp/ccGdnASE.s:28     .text:0000000000000018 .L0 
     /tmp/ccGdnASE.s:31     .text:0000000000000024 .L0 
     /tmp/ccGdnASE.s:35     .text:000000000000002c .L0 
     /tmp/ccGdnASE.s:36     .text:000000000000002c .L0 
     /tmp/ccGdnASE.s:39     .text:0000000000000034 .L0 
     /tmp/ccGdnASE.s:40     .text:0000000000000038 .L0 
     /tmp/ccGdnASE.s:42     .text:000000000000003c .L0 
     /tmp/ccGdnASE.s:43     .text:000000000000003c .L0 
     /tmp/ccGdnASE.s:45     .text:0000000000000040 .L0 
     /tmp/ccGdnASE.s:47     .text:0000000000000044 .L0 
     /tmp/ccGdnASE.s:53     .text:0000000000000044 _ZN3TCB9duplicateEPS_S0_
     /tmp/ccGdnASE.s:56     .text:0000000000000044 .L0 
     /tmp/ccGdnASE.s:58     .text:0000000000000044 .L0 
     /tmp/ccGdnASE.s:59     .text:0000000000000048 .L0 
     /tmp/ccGdnASE.s:64     .text:0000000000000058 .L0 
     /tmp/ccGdnASE.s:65     .text:0000000000000058 .L0 
     /tmp/ccGdnASE.s:66     .text:0000000000000058 .L0 
     /tmp/ccGdnASE.s:67     .text:0000000000000058 .L0 
     /tmp/ccGdnASE.s:69     .text:000000000000005c .L0 
     /tmp/ccGdnASE.s:73     .text:0000000000000064 .L0 
     /tmp/ccGdnASE.s:74     .text:0000000000000064 .L0 
     /tmp/ccGdnASE.s:77     .text:000000000000006c .L0 
     /tmp/ccGdnASE.s:78     .text:000000000000006c .L0 
     /tmp/ccGdnASE.s:84     .text:0000000000000080 .L0 
     /tmp/ccGdnASE.s:85     .text:0000000000000080 .L0 
     /tmp/ccGdnASE.s:94     .text:00000000000000a0 .L0 
     /tmp/ccGdnASE.s:95     .text:00000000000000a0 .L0 
     /tmp/ccGdnASE.s:98     .text:00000000000000a8 .L0 
     /tmp/ccGdnASE.s:99     .text:00000000000000ac .L0 
     /tmp/ccGdnASE.s:101    .text:00000000000000b0 .L0 
     /tmp/ccGdnASE.s:102    .text:00000000000000b0 .L0 
     /tmp/ccGdnASE.s:104    .text:00000000000000b4 .L0 
     /tmp/ccGdnASE.s:107    .text:00000000000000b8 .L0 
     /tmp/ccGdnASE.s:110    .text:00000000000000bc .L0 
     /tmp/ccGdnASE.s:112    .text:00000000000000c0 .L0 
     /tmp/ccGdnASE.s:118    .text:00000000000000c0 _ZN3TCB5_killEPS_
     /tmp/ccGdnASE.s:121    .text:00000000000000c0 .L0 
     /tmp/ccGdnASE.s:123    .text:00000000000000c0 .L0 
     /tmp/ccGdnASE.s:124    .text:00000000000000c4 .L0 
     /tmp/ccGdnASE.s:126    .text:00000000000000c8 .L0 
     /tmp/ccGdnASE.s:128    .text:00000000000000cc .L0 
     /tmp/ccGdnASE.s:130    .text:00000000000000cc .L0 
     /tmp/ccGdnASE.s:136    .text:00000000000000d0 .L0 
     /tmp/ccGdnASE.s:137    .text:00000000000000d0 .L0 
     /tmp/ccGdnASE.s:138    .text:00000000000000d0 .L0 
GAS LISTING /tmp/ccGdnASE.s 			page 44


     /tmp/ccGdnASE.s:143    .text:00000000000000d4 .L0 
     /tmp/ccGdnASE.s:146    .text:00000000000000dc .L0 
     /tmp/ccGdnASE.s:147    .text:00000000000000dc .L0 
     /tmp/ccGdnASE.s:149    .text:00000000000000e0 .L0 
     /tmp/ccGdnASE.s:151    .text:00000000000000e8 .L0 
     /tmp/ccGdnASE.s:156    .text:00000000000000ec .L0 
     /tmp/ccGdnASE.s:157    .text:00000000000000ec .L0 
     /tmp/ccGdnASE.s:158    .text:00000000000000ec .L0 
     /tmp/ccGdnASE.s:164    .text:00000000000000f4 .L0 
     /tmp/ccGdnASE.s:165    .text:00000000000000f4 .L0 
     /tmp/ccGdnASE.s:169    .text:00000000000000f8 .L0 
     /tmp/ccGdnASE.s:170    .text:00000000000000fc .L0 
     /tmp/ccGdnASE.s:171    .text:00000000000000fc .L0 
     /tmp/ccGdnASE.s:172    .text:00000000000000fc .L0 
     /tmp/ccGdnASE.s:174    .text:0000000000000100 .L0 
     /tmp/ccGdnASE.s:178    .text:0000000000000104 .L0 
     /tmp/ccGdnASE.s:180    .text:0000000000000104 .L0 
     /tmp/ccGdnASE.s:186    .text:000000000000010c .L0 
     /tmp/ccGdnASE.s:192    .text:0000000000000114 .L0 
     /tmp/ccGdnASE.s:195    .text:000000000000011c .L0 
     /tmp/ccGdnASE.s:202    .text._ZN3stm14CircularBufferIP3TCBE4initEv:0000000000000000 _ZN3stm14CircularBufferIP3TCBE4initEv
     /tmp/ccGdnASE.s:206    .text._ZN3stm14CircularBufferIP3TCBE4initEv:0000000000000000 .L0 
     /tmp/ccGdnASE.s:208    .text._ZN3stm14CircularBufferIP3TCBE4initEv:0000000000000000 .L0 
     /tmp/ccGdnASE.s:209    .text._ZN3stm14CircularBufferIP3TCBE4initEv:0000000000000004 .L0 
     /tmp/ccGdnASE.s:213    .text._ZN3stm14CircularBufferIP3TCBE4initEv:0000000000000010 .L0 
     /tmp/ccGdnASE.s:214    .text._ZN3stm14CircularBufferIP3TCBE4initEv:0000000000000010 .L0 
     /tmp/ccGdnASE.s:215    .text._ZN3stm14CircularBufferIP3TCBE4initEv:0000000000000010 .L0 
     /tmp/ccGdnASE.s:217    .text._ZN3stm14CircularBufferIP3TCBE4initEv:0000000000000014 .L0 
     /tmp/ccGdnASE.s:220    .text._ZN3stm14CircularBufferIP3TCBE4initEv:0000000000000018 .L0 
     /tmp/ccGdnASE.s:222    .text._ZN3stm14CircularBufferIP3TCBE4initEv:000000000000001c .L0 
     /tmp/ccGdnASE.s:224    .text._ZN3stm14CircularBufferIP3TCBE4initEv:0000000000000020 .L0 
     /tmp/ccGdnASE.s:226    .text._ZN3stm14CircularBufferIP3TCBE4initEv:0000000000000024 .L0 
     /tmp/ccGdnASE.s:229    .text._ZN3stm14CircularBufferIP3TCBE4initEv:000000000000002c .L0 
     /tmp/ccGdnASE.s:234    .text._ZN3stm14CircularBufferIP3TCBE4initEv:0000000000000038 .L0 
     /tmp/ccGdnASE.s:236    .text._ZN3stm14CircularBufferIP3TCBE4initEv:000000000000003c .L0 
     /tmp/ccGdnASE.s:237    .text._ZN3stm14CircularBufferIP3TCBE4initEv:0000000000000040 .L0 
     /tmp/ccGdnASE.s:239    .text._ZN3stm14CircularBufferIP3TCBE4initEv:0000000000000044 .L0 
     /tmp/ccGdnASE.s:240    .text._ZN3stm14CircularBufferIP3TCBE4initEv:0000000000000044 .L0 
     /tmp/ccGdnASE.s:242    .text._ZN3stm14CircularBufferIP3TCBE4initEv:0000000000000048 .L0 
     /tmp/ccGdnASE.s:245    .text._ZN3stm14CircularBufferIP3TCBE4initEv:000000000000004c .L0 
     /tmp/ccGdnASE.s:247    .text._ZN3stm14CircularBufferIP3TCBE4initEv:0000000000000050 .L0 
     /tmp/ccGdnASE.s:254    .text:000000000000011c _ZN3TCBC2EPFvPvES0_S0_7Context
     /tmp/ccGdnASE.s:257    .text:000000000000011c .L0 
     /tmp/ccGdnASE.s:259    .text:000000000000011c .L0 
     /tmp/ccGdnASE.s:260    .text:0000000000000120 .L0 
     /tmp/ccGdnASE.s:265    .text:0000000000000130 .L0 
     /tmp/ccGdnASE.s:266    .text:0000000000000130 .L0 
     /tmp/ccGdnASE.s:267    .text:0000000000000130 .L0 
     /tmp/ccGdnASE.s:268    .text:0000000000000130 .L0 
     /tmp/ccGdnASE.s:270    .text:0000000000000134 .L0 
     /tmp/ccGdnASE.s:274    .text:0000000000000138 .L0 
     /tmp/ccGdnASE.s:280    .text:000000000000014c .L0 
     /tmp/ccGdnASE.s:307    .text:00000000000001a8 .L0 
     /tmp/ccGdnASE.s:308    .text:00000000000001a8 .L0 
     /tmp/ccGdnASE.s:312    .text:00000000000001b4 .L0 
     /tmp/ccGdnASE.s:313    .text:00000000000001b4 .L0 
     /tmp/ccGdnASE.s:317    .text:00000000000001bc .L0 
GAS LISTING /tmp/ccGdnASE.s 			page 45


     /tmp/ccGdnASE.s:318    .text:00000000000001c0 .L0 
     /tmp/ccGdnASE.s:320    .text:00000000000001c4 .L0 
     /tmp/ccGdnASE.s:321    .text:00000000000001c4 .L0 
     /tmp/ccGdnASE.s:323    .text:00000000000001c8 .L0 
     /tmp/ccGdnASE.s:326    .text:00000000000001cc .L0 
     /tmp/ccGdnASE.s:328    .text:00000000000001d0 .L0 
     /tmp/ccGdnASE.s:330    .text:00000000000001d4 .L0 
     /tmp/ccGdnASE.s:254    .text:000000000000011c _ZN3TCBC1EPFvPvES0_S0_7Context
     /tmp/ccGdnASE.s:338    .text:00000000000001d4 _ZN3TCB14_thread_createEPPS_PFvPvES2_S2_
     /tmp/ccGdnASE.s:341    .text:00000000000001d4 .L0 
     /tmp/ccGdnASE.s:6814   .data.rel.local.DW.ref.__gxx_personality_v0:0000000000000000 DW.ref.__gxx_personality_v0
     /tmp/ccGdnASE.s:345    .text:00000000000001d4 .L0 
     /tmp/ccGdnASE.s:346    .text:00000000000001d8 .L0 
     /tmp/ccGdnASE.s:354    .text:00000000000001f4 .L0 
     /tmp/ccGdnASE.s:355    .text:00000000000001f4 .L0 
     /tmp/ccGdnASE.s:356    .text:00000000000001f4 .L0 
     /tmp/ccGdnASE.s:357    .text:00000000000001f4 .L0 
     /tmp/ccGdnASE.s:358    .text:00000000000001f4 .L0 
     /tmp/ccGdnASE.s:359    .text:00000000000001f4 .L0 
     /tmp/ccGdnASE.s:360    .text:00000000000001f4 .L0 
     /tmp/ccGdnASE.s:362    .text:00000000000001f8 .L0 
     /tmp/ccGdnASE.s:368    .text:0000000000000208 .L0 
     /tmp/ccGdnASE.s:369    .text:0000000000000208 .L0 
     /tmp/ccGdnASE.s:374    .text:000000000000021c .L0 
     /tmp/ccGdnASE.s:378    .text:0000000000000228 .L0 
     /tmp/ccGdnASE.s:380    .text:000000000000022c .L0 
     /tmp/ccGdnASE.s:404    .text:0000000000000274 .L0 
     /tmp/ccGdnASE.s:406    .text:0000000000000278 .L0 
     /tmp/ccGdnASE.s:408    .text:000000000000027c .L0 
     /tmp/ccGdnASE.s:409    .text:000000000000027c .L0 
     /tmp/ccGdnASE.s:415    .text:0000000000000288 .L0 
     /tmp/ccGdnASE.s:416    .text:0000000000000288 .L0 
     /tmp/ccGdnASE.s:418    .text:000000000000028c .L0 
     /tmp/ccGdnASE.s:420    .text:0000000000000290 .L0 
     /tmp/ccGdnASE.s:421    .text:0000000000000294 .L0 
     /tmp/ccGdnASE.s:422    .text:0000000000000294 .L0 
     /tmp/ccGdnASE.s:424    .text:0000000000000298 .L0 
     /tmp/ccGdnASE.s:425    .text:0000000000000298 .L0 
     /tmp/ccGdnASE.s:427    .text:000000000000029c .L0 
     /tmp/ccGdnASE.s:430    .text:00000000000002a0 .L0 
     /tmp/ccGdnASE.s:433    .text:00000000000002a4 .L0 
     /tmp/ccGdnASE.s:436    .text:00000000000002a8 .L0 
     /tmp/ccGdnASE.s:438    .text:00000000000002ac .L0 
     /tmp/ccGdnASE.s:441    .text:00000000000002b0 .L0 
     /tmp/ccGdnASE.s:446    .text:00000000000002b4 .L0 
     /tmp/ccGdnASE.s:450    .text:00000000000002b8 .L0 
     /tmp/ccGdnASE.s:457    .text:00000000000002d0 .L0 
     /tmp/ccGdnASE.s:483    .text:00000000000002d0 _ZN3TCBC2ERS_
     /tmp/ccGdnASE.s:486    .text:00000000000002d0 .L0 
     /tmp/ccGdnASE.s:488    .text:00000000000002d0 .L0 
     /tmp/ccGdnASE.s:489    .text:00000000000002d4 .L0 
     /tmp/ccGdnASE.s:494    .text:00000000000002e4 .L0 
     /tmp/ccGdnASE.s:495    .text:00000000000002e4 .L0 
     /tmp/ccGdnASE.s:496    .text:00000000000002e4 .L0 
     /tmp/ccGdnASE.s:497    .text:00000000000002e4 .L0 
     /tmp/ccGdnASE.s:499    .text:00000000000002e8 .L0 
     /tmp/ccGdnASE.s:504    .text:00000000000002f0 .L0 
GAS LISTING /tmp/ccGdnASE.s 			page 46


     /tmp/ccGdnASE.s:509    .text:0000000000000304 .L0 
     /tmp/ccGdnASE.s:511    .text:0000000000000308 .L0 
     /tmp/ccGdnASE.s:513    .text:000000000000030c .L0 
     /tmp/ccGdnASE.s:515    .text:0000000000000310 .L0 
     /tmp/ccGdnASE.s:517    .text:0000000000000314 .L0 
     /tmp/ccGdnASE.s:519    .text:0000000000000318 .L0 
     /tmp/ccGdnASE.s:524    .text:0000000000000324 .L0 
     /tmp/ccGdnASE.s:544    .text:0000000000000370 .L0 
     /tmp/ccGdnASE.s:545    .text:0000000000000370 .L0 
     /tmp/ccGdnASE.s:550    .text:000000000000037c .L0 
     /tmp/ccGdnASE.s:551    .text:0000000000000380 .L0 
     /tmp/ccGdnASE.s:553    .text:0000000000000384 .L0 
     /tmp/ccGdnASE.s:554    .text:0000000000000384 .L0 
     /tmp/ccGdnASE.s:556    .text:0000000000000388 .L0 
     /tmp/ccGdnASE.s:559    .text:000000000000038c .L0 
     /tmp/ccGdnASE.s:562    .text:0000000000000390 .L0 
     /tmp/ccGdnASE.s:564    .text:0000000000000394 .L0 
     /tmp/ccGdnASE.s:483    .text:00000000000002d0 _ZN3TCBC1ERS_
     /tmp/ccGdnASE.s:572    .text:0000000000000394 _ZN3TCB5_forkEv
     /tmp/ccGdnASE.s:575    .text:0000000000000394 .L0 
     /tmp/ccGdnASE.s:578    .text:0000000000000394 .L0 
     /tmp/ccGdnASE.s:579    .text:0000000000000398 .L0 
     /tmp/ccGdnASE.s:585    .text:00000000000003ac .L0 
     /tmp/ccGdnASE.s:586    .text:00000000000003ac .L0 
     /tmp/ccGdnASE.s:587    .text:00000000000003ac .L0 
     /tmp/ccGdnASE.s:588    .text:00000000000003ac .L0 
     /tmp/ccGdnASE.s:589    .text:00000000000003ac .L0 
     /tmp/ccGdnASE.s:591    .text:00000000000003b0 .L0 
     /tmp/ccGdnASE.s:593    .text:00000000000003b0 .L0 
     /tmp/ccGdnASE.s:594    .text:00000000000003b0 .L0 
     /tmp/ccGdnASE.s:597    .text:00000000000003bc .L0 
     /tmp/ccGdnASE.s:600    .text:00000000000003c0 .L0 
     /tmp/ccGdnASE.s:601    .text:00000000000003c0 .L0 
     /tmp/ccGdnASE.s:613    .text:00000000000003dc .L0 
     /tmp/ccGdnASE.s:614    .text:00000000000003dc .L0 
     /tmp/ccGdnASE.s:620    .text:00000000000003ec .L0 
     /tmp/ccGdnASE.s:621    .text:00000000000003ec .L0 
     /tmp/ccGdnASE.s:626    .text:00000000000003fc .L0 
     /tmp/ccGdnASE.s:627    .text:00000000000003fc .L0 
     /tmp/ccGdnASE.s:631    .text:0000000000000408 .L0 
     /tmp/ccGdnASE.s:632    .text:0000000000000408 .L0 
     /tmp/ccGdnASE.s:636    .text:0000000000000414 .L0 
     /tmp/ccGdnASE.s:637    .text:0000000000000414 .L0 
     /tmp/ccGdnASE.s:641    .text:0000000000000420 .L0 
     /tmp/ccGdnASE.s:642    .text:0000000000000420 .L0 
     /tmp/ccGdnASE.s:646    .text:000000000000042c .L0 
     /tmp/ccGdnASE.s:647    .text:000000000000042c .L0 
     /tmp/ccGdnASE.s:651    .text:0000000000000438 .L0 
     /tmp/ccGdnASE.s:652    .text:0000000000000438 .L0 
     /tmp/ccGdnASE.s:655    .text:0000000000000440 .L0 
     /tmp/ccGdnASE.s:657    .text:0000000000000444 .L0 
     /tmp/ccGdnASE.s:658    .text:0000000000000444 .L0 
     /tmp/ccGdnASE.s:661    .text:000000000000044c .L0 
     /tmp/ccGdnASE.s:662    .text:000000000000044c .L0 
     /tmp/ccGdnASE.s:665    .text:0000000000000450 .L0 
     /tmp/ccGdnASE.s:666    .text:0000000000000454 .L0 
     /tmp/ccGdnASE.s:667    .text:0000000000000454 .L0 
GAS LISTING /tmp/ccGdnASE.s 			page 47


     /tmp/ccGdnASE.s:669    .text:0000000000000458 .L0 
     /tmp/ccGdnASE.s:670    .text:0000000000000458 .L0 
     /tmp/ccGdnASE.s:672    .text:000000000000045c .L0 
     /tmp/ccGdnASE.s:675    .text:0000000000000460 .L0 
     /tmp/ccGdnASE.s:677    .text:0000000000000464 .L0 
     /tmp/ccGdnASE.s:680    .text:0000000000000468 .L0 
     /tmp/ccGdnASE.s:684    .text:000000000000046c .L0 
     /tmp/ccGdnASE.s:686    .text:000000000000046c .L0 
     /tmp/ccGdnASE.s:687    .text:000000000000046c .L0 
     /tmp/ccGdnASE.s:691    .text:0000000000000478 .L0 
     /tmp/ccGdnASE.s:692    .text:0000000000000478 .L0 
     /tmp/ccGdnASE.s:698    .text:0000000000000484 .L0 
     /tmp/ccGdnASE.s:705    .text:000000000000049c .L0 
     /tmp/ccGdnASE.s:731    .text._ZN3stm14CircularBufferIP3TCBE3getEv:0000000000000000 _ZN3stm14CircularBufferIP3TCBE3getEv
     /tmp/ccGdnASE.s:734    .text._ZN3stm14CircularBufferIP3TCBE3getEv:0000000000000000 .L0 
     /tmp/ccGdnASE.s:736    .text._ZN3stm14CircularBufferIP3TCBE3getEv:0000000000000000 .L0 
     /tmp/ccGdnASE.s:737    .text._ZN3stm14CircularBufferIP3TCBE3getEv:0000000000000004 .L0 
     /tmp/ccGdnASE.s:739    .text._ZN3stm14CircularBufferIP3TCBE3getEv:0000000000000008 .L0 
     /tmp/ccGdnASE.s:741    .text._ZN3stm14CircularBufferIP3TCBE3getEv:000000000000000c .L0 
     /tmp/ccGdnASE.s:744    .text._ZN3stm14CircularBufferIP3TCBE3getEv:0000000000000010 .L0 
     /tmp/ccGdnASE.s:746    .text._ZN3stm14CircularBufferIP3TCBE3getEv:0000000000000014 .L0 
     /tmp/ccGdnASE.s:748    .text._ZN3stm14CircularBufferIP3TCBE3getEv:0000000000000018 .L0 
     /tmp/ccGdnASE.s:751    .text._ZN3stm14CircularBufferIP3TCBE3getEv:0000000000000020 .L0 
     /tmp/ccGdnASE.s:754    .text._ZN3stm14CircularBufferIP3TCBE3getEv:0000000000000024 .L0 
     /tmp/ccGdnASE.s:756    .text._ZN3stm14CircularBufferIP3TCBE3getEv:0000000000000028 .L0 
     /tmp/ccGdnASE.s:758    .text._ZN3stm14CircularBufferIP3TCBE3getEv:000000000000002c .L0 
     /tmp/ccGdnASE.s:760    .text._ZN3stm14CircularBufferIP3TCBE3getEv:0000000000000030 .L0 
     /tmp/ccGdnASE.s:762    .text._ZN3stm14CircularBufferIP3TCBE3getEv:0000000000000034 .L0 
     /tmp/ccGdnASE.s:764    .text._ZN3stm14CircularBufferIP3TCBE3getEv:0000000000000038 .L0 
     /tmp/ccGdnASE.s:767    .text._ZN3stm14CircularBufferIP3TCBE3getEv:0000000000000040 .L0 
     /tmp/ccGdnASE.s:768    .text._ZN3stm14CircularBufferIP3TCBE3getEv:0000000000000044 .L0 
     /tmp/ccGdnASE.s:769    .text._ZN3stm14CircularBufferIP3TCBE3getEv:0000000000000044 .L0 
     /tmp/ccGdnASE.s:771    .text._ZN3stm14CircularBufferIP3TCBE3getEv:0000000000000048 .L0 
     /tmp/ccGdnASE.s:773    .text._ZN3stm14CircularBufferIP3TCBE3getEv:000000000000004c .L0 
     /tmp/ccGdnASE.s:780    .text._ZN3stm14CircularBufferIP3TCBE7destroyEv:0000000000000000 _ZN3stm14CircularBufferIP3TCBE7destroyEv
     /tmp/ccGdnASE.s:783    .text._ZN3stm14CircularBufferIP3TCBE7destroyEv:0000000000000000 .L0 
     /tmp/ccGdnASE.s:785    .text._ZN3stm14CircularBufferIP3TCBE7destroyEv:0000000000000000 .L0 
     /tmp/ccGdnASE.s:786    .text._ZN3stm14CircularBufferIP3TCBE7destroyEv:0000000000000004 .L0 
     /tmp/ccGdnASE.s:789    .text._ZN3stm14CircularBufferIP3TCBE7destroyEv:000000000000000c .L0 
     /tmp/ccGdnASE.s:790    .text._ZN3stm14CircularBufferIP3TCBE7destroyEv:000000000000000c .L0 
     /tmp/ccGdnASE.s:792    .text._ZN3stm14CircularBufferIP3TCBE7destroyEv:0000000000000010 .L0 
     /tmp/ccGdnASE.s:794    .text._ZN3stm14CircularBufferIP3TCBE7destroyEv:0000000000000010 .L0 
     /tmp/ccGdnASE.s:799    .text._ZN3stm14CircularBufferIP3TCBE7destroyEv:000000000000001c .L0 
     /tmp/ccGdnASE.s:800    .text._ZN3stm14CircularBufferIP3TCBE7destroyEv:0000000000000020 .L0 
     /tmp/ccGdnASE.s:802    .text._ZN3stm14CircularBufferIP3TCBE7destroyEv:0000000000000024 .L0 
     /tmp/ccGdnASE.s:803    .text._ZN3stm14CircularBufferIP3TCBE7destroyEv:0000000000000024 .L0 
     /tmp/ccGdnASE.s:805    .text._ZN3stm14CircularBufferIP3TCBE7destroyEv:0000000000000028 .L0 
     /tmp/ccGdnASE.s:807    .text._ZN3stm14CircularBufferIP3TCBE7destroyEv:000000000000002c .L0 
     /tmp/ccGdnASE.s:814    .text:000000000000049c _ZN3TCB14destroy_threadEPS_
     /tmp/ccGdnASE.s:817    .text:000000000000049c .L0 
     /tmp/ccGdnASE.s:819    .text:000000000000049c .L0 
     /tmp/ccGdnASE.s:820    .text:00000000000004a0 .L0 
     /tmp/ccGdnASE.s:824    .text:00000000000004ac .L0 
     /tmp/ccGdnASE.s:825    .text:00000000000004ac .L0 
     /tmp/ccGdnASE.s:826    .text:00000000000004ac .L0 
     /tmp/ccGdnASE.s:828    .text:00000000000004b0 .L0 
     /tmp/ccGdnASE.s:833    .text:00000000000004b4 .L0 
GAS LISTING /tmp/ccGdnASE.s 			page 48


     /tmp/ccGdnASE.s:836    .text:00000000000004b4 .L0 
     /tmp/ccGdnASE.s:837    .text:00000000000004b4 .L0 
     /tmp/ccGdnASE.s:842    .text:00000000000004b8 .L0 
     /tmp/ccGdnASE.s:845    .text:00000000000004bc .L0 
     /tmp/ccGdnASE.s:846    .text:00000000000004bc .L0 
     /tmp/ccGdnASE.s:852    .text:00000000000004c8 .L0 
     /tmp/ccGdnASE.s:853    .text:00000000000004c8 .L0 
     /tmp/ccGdnASE.s:854    .text:00000000000004c8 .L0 
     /tmp/ccGdnASE.s:859    .text:00000000000004cc .L0 
     /tmp/ccGdnASE.s:865    .text:00000000000004d4 .L0 
     /tmp/ccGdnASE.s:866    .text:00000000000004d4 .L0 
     /tmp/ccGdnASE.s:867    .text:00000000000004d4 .L0 
     /tmp/ccGdnASE.s:872    .text:00000000000004d8 .L0 
     /tmp/ccGdnASE.s:873    .text:00000000000004d8 .L0 
     /tmp/ccGdnASE.s:879    .text:00000000000004e4 .L0 
     /tmp/ccGdnASE.s:880    .text:00000000000004e4 .L0 
     /tmp/ccGdnASE.s:884    .text:00000000000004f0 .L0 
     /tmp/ccGdnASE.s:885    .text:00000000000004f0 .L0 
     /tmp/ccGdnASE.s:887    .text:00000000000004f8 .L0 
     /tmp/ccGdnASE.s:889    .text:00000000000004fc .L0 
     /tmp/ccGdnASE.s:890    .text:00000000000004fc .L0 
     /tmp/ccGdnASE.s:892    .text:0000000000000500 .L0 
     /tmp/ccGdnASE.s:895    .text:0000000000000504 .L0 
     /tmp/ccGdnASE.s:897    .text:0000000000000508 .L0 
     /tmp/ccGdnASE.s:903    .text:0000000000000508 _ZN3TCB5yieldEv
     /tmp/ccGdnASE.s:906    .text:0000000000000508 .L0 
     /tmp/ccGdnASE.s:907    .text:0000000000000508 .L0 
     /tmp/ccGdnASE.s:908    .text:000000000000050c .L0 
     /tmp/ccGdnASE.s:912    .text:0000000000000518 .L0 
     /tmp/ccGdnASE.s:913    .text:0000000000000518 .L0 
     /tmp/ccGdnASE.s:914    .text:0000000000000518 .L0 
     /tmp/ccGdnASE.s:916    .text:000000000000051c .L0 
     /tmp/ccGdnASE.s:918    .text:000000000000051c .L0 
     /tmp/ccGdnASE.s:919    .text:000000000000051c .L0 
     /tmp/ccGdnASE.s:925    .text:0000000000000524 .L0 
     /tmp/ccGdnASE.s:926    .text:0000000000000524 .L0 
     /tmp/ccGdnASE.s:927    .text:0000000000000524 .L0 
  src/../h/riscv.hpp:167    .text:0000000000000524 .L0 
     /tmp/ccGdnASE.s:935    .text:000000000000052c .L0 
     /tmp/ccGdnASE.s:936    .text:000000000000052c .L0 
     /tmp/ccGdnASE.s:940    .text:0000000000000530 .L0 
     /tmp/ccGdnASE.s:944    .text:0000000000000534 .L0 
     /tmp/ccGdnASE.s:945    .text:0000000000000534 .L0 
     /tmp/ccGdnASE.s:946    .text:0000000000000534 .L0 
  src/../h/riscv.hpp:111    .text:0000000000000534 .L0 
     /tmp/ccGdnASE.s:954    .text:000000000000053c .L0 
     /tmp/ccGdnASE.s:955    .text:000000000000053c .L0 
     /tmp/ccGdnASE.s:959    .text:0000000000000540 .L0 
     /tmp/ccGdnASE.s:964    .text:0000000000000544 .L0 
     /tmp/ccGdnASE.s:965    .text:0000000000000544 .L0 
     /tmp/ccGdnASE.s:966    .text:0000000000000544 .L0 
     /tmp/ccGdnASE.s:971    .text:0000000000000548 .L0 
     /tmp/ccGdnASE.s:973    .text:000000000000054c .L0 
     /tmp/ccGdnASE.s:976    .text:0000000000000558 .L0 
     /tmp/ccGdnASE.s:978    .text:000000000000055c .L0 
     /tmp/ccGdnASE.s:979    .text:000000000000055c .L0 
     /tmp/ccGdnASE.s:986    .text:000000000000056c .L0 
GAS LISTING /tmp/ccGdnASE.s 			page 49


     /tmp/ccGdnASE.s:987    .text:000000000000056c .L0 
     /tmp/ccGdnASE.s:988    .text:000000000000056c .L0 
     /tmp/ccGdnASE.s:995    .text:0000000000000574 .L0 
     /tmp/ccGdnASE.s:999    .text:0000000000000574 .L0 
     /tmp/ccGdnASE.s:1000   .text:0000000000000574 .L0 
     /tmp/ccGdnASE.s:1006   .text:0000000000000580 .L0 
     /tmp/ccGdnASE.s:1011   .text:0000000000000584 .L0 
     /tmp/ccGdnASE.s:1017   .text:0000000000000590 .L0 
     /tmp/ccGdnASE.s:1022   .text:0000000000000594 .L0 
     /tmp/ccGdnASE.s:1028   .text:00000000000005a0 .L0 
     /tmp/ccGdnASE.s:1032   .text:00000000000005a4 .L0 
     /tmp/ccGdnASE.s:1033   .text:00000000000005a4 .L0 
     /tmp/ccGdnASE.s:1039   .text:00000000000005bc .L0 
     /tmp/ccGdnASE.s:1040   .text:00000000000005bc .L0 
     /tmp/ccGdnASE.s:1046   .text:00000000000005cc .L0 
     /tmp/ccGdnASE.s:1047   .text:00000000000005cc .L0 
     /tmp/ccGdnASE.s:1052   .text:00000000000005dc .L0 
     /tmp/ccGdnASE.s:1057   .text:00000000000005e8 .L0 
     /tmp/ccGdnASE.s:1058   .text:00000000000005e8 .L0 
     /tmp/ccGdnASE.s:1063   .text:00000000000005f0 .L0 
     /tmp/ccGdnASE.s:1064   .text:00000000000005f0 .L0 
     /tmp/ccGdnASE.s:1069   .text:00000000000005f4 .L0 
     /tmp/ccGdnASE.s:1072   .text:00000000000005fc .L0 
     /tmp/ccGdnASE.s:1073   .text:00000000000005fc .L0 
     /tmp/ccGdnASE.s:1076   .text:0000000000000604 .L0 
     /tmp/ccGdnASE.s:1079   .text:000000000000060c .L0 
     /tmp/ccGdnASE.s:1080   .text:000000000000060c .L0 
     /tmp/ccGdnASE.s:1086   .text:0000000000000618 .L0 
  src/../h/riscv.hpp:172    .text:0000000000000618 .L0 
     /tmp/ccGdnASE.s:1096   .text:000000000000061c .L0 
     /tmp/ccGdnASE.s:1097   .text:000000000000061c .L0 
     /tmp/ccGdnASE.s:1102   .text:0000000000000620 .L0 
  src/../h/riscv.hpp:116    .text:0000000000000620 .L0 
     /tmp/ccGdnASE.s:1112   .text:0000000000000624 .L0 
     /tmp/ccGdnASE.s:1113   .text:0000000000000624 .L0 
     /tmp/ccGdnASE.s:1118   .text:0000000000000634 .L0 
     /tmp/ccGdnASE.s:1119   .text:0000000000000638 .L0 
     /tmp/ccGdnASE.s:1121   .text:000000000000063c .L0 
     /tmp/ccGdnASE.s:1122   .text:000000000000063c .L0 
     /tmp/ccGdnASE.s:1124   .text:0000000000000640 .L0 
     /tmp/ccGdnASE.s:1127   .text:0000000000000644 .L0 
     /tmp/ccGdnASE.s:1129   .text:0000000000000648 .L0 
     /tmp/ccGdnASE.s:1135   .text:0000000000000648 _ZN3TCB16_thread_dispatchEv
     /tmp/ccGdnASE.s:1138   .text:0000000000000648 .L0 
     /tmp/ccGdnASE.s:1139   .text:0000000000000648 .L0 
     /tmp/ccGdnASE.s:1140   .text:000000000000064c .L0 
     /tmp/ccGdnASE.s:1143   .text:0000000000000654 .L0 
     /tmp/ccGdnASE.s:1144   .text:0000000000000654 .L0 
     /tmp/ccGdnASE.s:1146   .text:0000000000000658 .L0 
     /tmp/ccGdnASE.s:1148   .text:0000000000000658 .L0 
     /tmp/ccGdnASE.s:1149   .text:0000000000000658 .L0 
     /tmp/ccGdnASE.s:1152   .text:0000000000000660 .L0 
     /tmp/ccGdnASE.s:1153   .text:0000000000000660 .L0 
     /tmp/ccGdnASE.s:1156   .text:0000000000000668 .L0 
     /tmp/ccGdnASE.s:1157   .text:0000000000000668 .L0 
     /tmp/ccGdnASE.s:1160   .text:0000000000000670 .L0 
     /tmp/ccGdnASE.s:1161   .text:0000000000000674 .L0 
GAS LISTING /tmp/ccGdnASE.s 			page 50


     /tmp/ccGdnASE.s:1163   .text:0000000000000678 .L0 
     /tmp/ccGdnASE.s:1164   .text:0000000000000678 .L0 
     /tmp/ccGdnASE.s:1166   .text:000000000000067c .L0 
     /tmp/ccGdnASE.s:1168   .text:0000000000000680 .L0 
     /tmp/ccGdnASE.s:1174   .text:0000000000000680 _ZN3TCB12_thread_exitEv
     /tmp/ccGdnASE.s:1177   .text:0000000000000680 .L0 
     /tmp/ccGdnASE.s:1178   .text:0000000000000680 .L0 
     /tmp/ccGdnASE.s:1179   .text:0000000000000684 .L0 
     /tmp/ccGdnASE.s:1182   .text:000000000000068c .L0 
     /tmp/ccGdnASE.s:1183   .text:000000000000068c .L0 
     /tmp/ccGdnASE.s:1185   .text:0000000000000690 .L0 
     /tmp/ccGdnASE.s:1187   .text:0000000000000690 .L0 
     /tmp/ccGdnASE.s:1188   .text:0000000000000690 .L0 
     /tmp/ccGdnASE.s:1193   .text:0000000000000698 .L0 
     /tmp/ccGdnASE.s:1194   .text:0000000000000698 .L0 
     /tmp/ccGdnASE.s:1200   .text:00000000000006a0 .L0 
     /tmp/ccGdnASE.s:1201   .text:00000000000006a0 .L0 
     /tmp/ccGdnASE.s:1204   .text:00000000000006a8 .L0 
     /tmp/ccGdnASE.s:1205   .text:00000000000006a8 .L0 
     /tmp/ccGdnASE.s:1208   .text:00000000000006b0 .L0 
     /tmp/ccGdnASE.s:1209   .text:00000000000006b4 .L0 
     /tmp/ccGdnASE.s:1211   .text:00000000000006b8 .L0 
     /tmp/ccGdnASE.s:1212   .text:00000000000006b8 .L0 
     /tmp/ccGdnASE.s:1214   .text:00000000000006bc .L0 
     /tmp/ccGdnASE.s:1216   .text:00000000000006c0 .L0 
     /tmp/ccGdnASE.s:1223   .text._ZN3stm14CircularBufferIP3TCBE6extendEv:0000000000000000 _ZN3stm14CircularBufferIP3TCBE6extendEv
     /tmp/ccGdnASE.s:1226   .text._ZN3stm14CircularBufferIP3TCBE6extendEv:0000000000000000 .L0 
     /tmp/ccGdnASE.s:1228   .text._ZN3stm14CircularBufferIP3TCBE6extendEv:0000000000000000 .L0 
     /tmp/ccGdnASE.s:1229   .text._ZN3stm14CircularBufferIP3TCBE6extendEv:0000000000000004 .L0 
     /tmp/ccGdnASE.s:1234   .text._ZN3stm14CircularBufferIP3TCBE6extendEv:0000000000000014 .L0 
     /tmp/ccGdnASE.s:1235   .text._ZN3stm14CircularBufferIP3TCBE6extendEv:0000000000000014 .L0 
     /tmp/ccGdnASE.s:1236   .text._ZN3stm14CircularBufferIP3TCBE6extendEv:0000000000000014 .L0 
     /tmp/ccGdnASE.s:1237   .text._ZN3stm14CircularBufferIP3TCBE6extendEv:0000000000000014 .L0 
     /tmp/ccGdnASE.s:1239   .text._ZN3stm14CircularBufferIP3TCBE6extendEv:0000000000000018 .L0 
     /tmp/ccGdnASE.s:1242   .text._ZN3stm14CircularBufferIP3TCBE6extendEv:000000000000001c .L0 
     /tmp/ccGdnASE.s:1245   .text._ZN3stm14CircularBufferIP3TCBE6extendEv:0000000000000020 .L0 
     /tmp/ccGdnASE.s:1252   .text._ZN3stm14CircularBufferIP3TCBE6extendEv:0000000000000030 .L0 
     /tmp/ccGdnASE.s:1255   .text._ZN3stm14CircularBufferIP3TCBE6extendEv:0000000000000034 .L0 
     /tmp/ccGdnASE.s:1259   .text._ZN3stm14CircularBufferIP3TCBE6extendEv:0000000000000038 .L0 
     /tmp/ccGdnASE.s:1260   .text._ZN3stm14CircularBufferIP3TCBE6extendEv:0000000000000038 .L0 
     /tmp/ccGdnASE.s:1262   .text._ZN3stm14CircularBufferIP3TCBE6extendEv:000000000000003c .L0 
     /tmp/ccGdnASE.s:1264   .text._ZN3stm14CircularBufferIP3TCBE6extendEv:0000000000000040 .L0 
     /tmp/ccGdnASE.s:1266   .text._ZN3stm14CircularBufferIP3TCBE6extendEv:0000000000000044 .L0 
     /tmp/ccGdnASE.s:1269   .text._ZN3stm14CircularBufferIP3TCBE6extendEv:000000000000004c .L0 
     /tmp/ccGdnASE.s:1273   .text._ZN3stm14CircularBufferIP3TCBE6extendEv:0000000000000058 .L0 
     /tmp/ccGdnASE.s:1275   .text._ZN3stm14CircularBufferIP3TCBE6extendEv:000000000000005c .L0 
     /tmp/ccGdnASE.s:1278   .text._ZN3stm14CircularBufferIP3TCBE6extendEv:0000000000000060 .L0 
     /tmp/ccGdnASE.s:1281   .text._ZN3stm14CircularBufferIP3TCBE6extendEv:0000000000000064 .L0 
     /tmp/ccGdnASE.s:1283   .text._ZN3stm14CircularBufferIP3TCBE6extendEv:0000000000000068 .L0 
     /tmp/ccGdnASE.s:1290   .text._ZN3stm14CircularBufferIP3TCBE6extendEv:0000000000000070 .L0 
     /tmp/ccGdnASE.s:1295   .text._ZN3stm14CircularBufferIP3TCBE6extendEv:000000000000007c .L0 
     /tmp/ccGdnASE.s:1297   .text._ZN3stm14CircularBufferIP3TCBE6extendEv:0000000000000080 .L0 
     /tmp/ccGdnASE.s:1299   .text._ZN3stm14CircularBufferIP3TCBE6extendEv:0000000000000084 .L0 
     /tmp/ccGdnASE.s:1301   .text._ZN3stm14CircularBufferIP3TCBE6extendEv:0000000000000088 .L0 
     /tmp/ccGdnASE.s:1303   .text._ZN3stm14CircularBufferIP3TCBE6extendEv:000000000000008c .L0 
     /tmp/ccGdnASE.s:1305   .text._ZN3stm14CircularBufferIP3TCBE6extendEv:0000000000000090 .L0 
     /tmp/ccGdnASE.s:1307   .text._ZN3stm14CircularBufferIP3TCBE6extendEv:0000000000000094 .L0 
GAS LISTING /tmp/ccGdnASE.s 			page 51


     /tmp/ccGdnASE.s:1308   .text._ZN3stm14CircularBufferIP3TCBE6extendEv:0000000000000098 .L0 
     /tmp/ccGdnASE.s:1310   .text._ZN3stm14CircularBufferIP3TCBE6extendEv:000000000000009c .L0 
     /tmp/ccGdnASE.s:1311   .text._ZN3stm14CircularBufferIP3TCBE6extendEv:000000000000009c .L0 
     /tmp/ccGdnASE.s:1313   .text._ZN3stm14CircularBufferIP3TCBE6extendEv:00000000000000a0 .L0 
     /tmp/ccGdnASE.s:1316   .text._ZN3stm14CircularBufferIP3TCBE6extendEv:00000000000000a4 .L0 
     /tmp/ccGdnASE.s:1319   .text._ZN3stm14CircularBufferIP3TCBE6extendEv:00000000000000a8 .L0 
     /tmp/ccGdnASE.s:1321   .text._ZN3stm14CircularBufferIP3TCBE6extendEv:00000000000000ac .L0 
     /tmp/ccGdnASE.s:1328   .text._ZN3stm14CircularBufferIP3TCBE3putES2_:0000000000000000 _ZN3stm14CircularBufferIP3TCBE3putES2_
     /tmp/ccGdnASE.s:1331   .text._ZN3stm14CircularBufferIP3TCBE3putES2_:0000000000000000 .L0 
     /tmp/ccGdnASE.s:1333   .text._ZN3stm14CircularBufferIP3TCBE3putES2_:0000000000000000 .L0 
     /tmp/ccGdnASE.s:1334   .text._ZN3stm14CircularBufferIP3TCBE3putES2_:0000000000000004 .L0 
     /tmp/ccGdnASE.s:1339   .text._ZN3stm14CircularBufferIP3TCBE3putES2_:0000000000000014 .L0 
     /tmp/ccGdnASE.s:1340   .text._ZN3stm14CircularBufferIP3TCBE3putES2_:0000000000000014 .L0 
     /tmp/ccGdnASE.s:1341   .text._ZN3stm14CircularBufferIP3TCBE3putES2_:0000000000000014 .L0 
     /tmp/ccGdnASE.s:1342   .text._ZN3stm14CircularBufferIP3TCBE3putES2_:0000000000000014 .L0 
     /tmp/ccGdnASE.s:1344   .text._ZN3stm14CircularBufferIP3TCBE3putES2_:0000000000000018 .L0 
     /tmp/ccGdnASE.s:1348   .text._ZN3stm14CircularBufferIP3TCBE3putES2_:0000000000000020 .L0 
     /tmp/ccGdnASE.s:1350   .text._ZN3stm14CircularBufferIP3TCBE3putES2_:0000000000000024 .L0 
     /tmp/ccGdnASE.s:1352   .text._ZN3stm14CircularBufferIP3TCBE3putES2_:0000000000000028 .L0 
     /tmp/ccGdnASE.s:1356   .text._ZN3stm14CircularBufferIP3TCBE3putES2_:000000000000002c .L0 
     /tmp/ccGdnASE.s:1358   .text._ZN3stm14CircularBufferIP3TCBE3putES2_:0000000000000030 .L0 
     /tmp/ccGdnASE.s:1360   .text._ZN3stm14CircularBufferIP3TCBE3putES2_:0000000000000034 .L0 
     /tmp/ccGdnASE.s:1363   .text._ZN3stm14CircularBufferIP3TCBE3putES2_:000000000000003c .L0 
     /tmp/ccGdnASE.s:1365   .text._ZN3stm14CircularBufferIP3TCBE3putES2_:0000000000000040 .L0 
     /tmp/ccGdnASE.s:1367   .text._ZN3stm14CircularBufferIP3TCBE3putES2_:0000000000000044 .L0 
     /tmp/ccGdnASE.s:1369   .text._ZN3stm14CircularBufferIP3TCBE3putES2_:0000000000000048 .L0 
     /tmp/ccGdnASE.s:1371   .text._ZN3stm14CircularBufferIP3TCBE3putES2_:000000000000004c .L0 
     /tmp/ccGdnASE.s:1373   .text._ZN3stm14CircularBufferIP3TCBE3putES2_:0000000000000050 .L0 
     /tmp/ccGdnASE.s:1375   .text._ZN3stm14CircularBufferIP3TCBE3putES2_:0000000000000054 .L0 
     /tmp/ccGdnASE.s:1377   .text._ZN3stm14CircularBufferIP3TCBE3putES2_:0000000000000058 .L0 
     /tmp/ccGdnASE.s:1380   .text._ZN3stm14CircularBufferIP3TCBE3putES2_:0000000000000060 .L0 
     /tmp/ccGdnASE.s:1381   .text._ZN3stm14CircularBufferIP3TCBE3putES2_:0000000000000064 .L0 
     /tmp/ccGdnASE.s:1382   .text._ZN3stm14CircularBufferIP3TCBE3putES2_:0000000000000064 .L0 
     /tmp/ccGdnASE.s:1384   .text._ZN3stm14CircularBufferIP3TCBE3putES2_:0000000000000068 .L0 
     /tmp/ccGdnASE.s:1385   .text._ZN3stm14CircularBufferIP3TCBE3putES2_:0000000000000068 .L0 
     /tmp/ccGdnASE.s:1387   .text._ZN3stm14CircularBufferIP3TCBE3putES2_:000000000000006c .L0 
     /tmp/ccGdnASE.s:1390   .text._ZN3stm14CircularBufferIP3TCBE3putES2_:0000000000000070 .L0 
     /tmp/ccGdnASE.s:1393   .text._ZN3stm14CircularBufferIP3TCBE3putES2_:0000000000000074 .L0 
     /tmp/ccGdnASE.s:1397   .text._ZN3stm14CircularBufferIP3TCBE3putES2_:0000000000000078 .L0 
     /tmp/ccGdnASE.s:1399   .text._ZN3stm14CircularBufferIP3TCBE3putES2_:0000000000000078 .L0 
     /tmp/ccGdnASE.s:1402   .text._ZN3stm14CircularBufferIP3TCBE3putES2_:0000000000000084 .L0 
     /tmp/ccGdnASE.s:1409   .text:00000000000006c0 _ZN3TCB12_thread_joinEPS_
     /tmp/ccGdnASE.s:1412   .text:00000000000006c0 .L0 
     /tmp/ccGdnASE.s:1414   .text:00000000000006c0 .L0 
     /tmp/ccGdnASE.s:1417   .text:00000000000006c0 .L0 
     /tmp/ccGdnASE.s:1418   .text:00000000000006c0 .L0 
     /tmp/ccGdnASE.s:1419   .text:00000000000006c0 .L0 
     /tmp/ccGdnASE.s:1424   .text:00000000000006c4 .L0 
     /tmp/ccGdnASE.s:1427   .text:00000000000006cc .L0 
     /tmp/ccGdnASE.s:1428   .text:00000000000006d0 .L0 
     /tmp/ccGdnASE.s:1431   .text:00000000000006d8 .L0 
     /tmp/ccGdnASE.s:1432   .text:00000000000006d8 .L0 
     /tmp/ccGdnASE.s:1434   .text:00000000000006dc .L0 
     /tmp/ccGdnASE.s:1436   .text:00000000000006dc .L0 
     /tmp/ccGdnASE.s:1437   .text:00000000000006dc .L0 
     /tmp/ccGdnASE.s:1442   .text:00000000000006e4 .L0 
     /tmp/ccGdnASE.s:1443   .text:00000000000006e4 .L0 
GAS LISTING /tmp/ccGdnASE.s 			page 52


     /tmp/ccGdnASE.s:1449   .text:00000000000006ec .L0 
     /tmp/ccGdnASE.s:1450   .text:00000000000006ec .L0 
     /tmp/ccGdnASE.s:1455   .text:00000000000006f8 .L0 
     /tmp/ccGdnASE.s:1456   .text:00000000000006f8 .L0 
     /tmp/ccGdnASE.s:1459   .text:0000000000000700 .L0 
     /tmp/ccGdnASE.s:1460   .text:0000000000000704 .L0 
     /tmp/ccGdnASE.s:1462   .text:0000000000000708 .L0 
     /tmp/ccGdnASE.s:1463   .text:0000000000000708 .L0 
     /tmp/ccGdnASE.s:1465   .text:000000000000070c .L0 
     /tmp/ccGdnASE.s:1470   .text:0000000000000714 .L0 
     /tmp/ccGdnASE.s:1476   .text:0000000000000714 _ZN3TCB12_thread_joinEPS_m
     /tmp/ccGdnASE.s:1479   .text:0000000000000714 .L0 
     /tmp/ccGdnASE.s:1481   .text:0000000000000714 .L0 
     /tmp/ccGdnASE.s:1484   .text:0000000000000714 .L0 
     /tmp/ccGdnASE.s:1485   .text:0000000000000714 .L0 
     /tmp/ccGdnASE.s:1486   .text:0000000000000714 .L0 
     /tmp/ccGdnASE.s:1491   .text:0000000000000718 .L0 
     /tmp/ccGdnASE.s:1494   .text:0000000000000720 .L0 
     /tmp/ccGdnASE.s:1495   .text:0000000000000724 .L0 
     /tmp/ccGdnASE.s:1500   .text:0000000000000734 .L0 
     /tmp/ccGdnASE.s:1501   .text:0000000000000734 .L0 
     /tmp/ccGdnASE.s:1502   .text:0000000000000734 .L0 
     /tmp/ccGdnASE.s:1503   .text:0000000000000734 .L0 
     /tmp/ccGdnASE.s:1505   .text:0000000000000738 .L0 
     /tmp/ccGdnASE.s:1508   .text:000000000000073c .L0 
     /tmp/ccGdnASE.s:1509   .text:000000000000073c .L0 
     /tmp/ccGdnASE.s:1515   .text:0000000000000748 .L0 
     /tmp/ccGdnASE.s:1516   .text:0000000000000748 .L0 
     /tmp/ccGdnASE.s:1522   .text:0000000000000750 .L0 
     /tmp/ccGdnASE.s:1523   .text:0000000000000750 .L0 
     /tmp/ccGdnASE.s:1528   .text:000000000000075c .L0 
     /tmp/ccGdnASE.s:1529   .text:000000000000075c .L0 
     /tmp/ccGdnASE.s:1534   .text:000000000000076c .L0 
     /tmp/ccGdnASE.s:1535   .text:000000000000076c .L0 
     /tmp/ccGdnASE.s:1538   .text:0000000000000774 .L0 
     /tmp/ccGdnASE.s:1539   .text:0000000000000778 .L0 
     /tmp/ccGdnASE.s:1541   .text:000000000000077c .L0 
     /tmp/ccGdnASE.s:1542   .text:000000000000077c .L0 
     /tmp/ccGdnASE.s:1544   .text:0000000000000780 .L0 
     /tmp/ccGdnASE.s:1547   .text:0000000000000784 .L0 
     /tmp/ccGdnASE.s:1549   .text:0000000000000788 .L0 
     /tmp/ccGdnASE.s:1554   .text:0000000000000790 .L0 
     /tmp/ccGdnASE.s:1574   .bss:0000000000000010 _ZN3TCB13timer_counterE
     /tmp/ccGdnASE.s:1565   .bss:0000000000000000 _ZN3TCB7runningE
     /tmp/ccGdnASE.s:1569   .bss:0000000000000008 _ZN3TCB2IDE
     /tmp/ccGdnASE.s:1562   .bss:0000000000000000 .LANCHOR0
     /tmp/ccGdnASE.s:1583   .text:0000000000000790 .L0 
     /tmp/ccGdnASE.s:250    .text._ZN3stm14CircularBufferIP3TCBE4initEv:0000000000000050 .L0 
     /tmp/ccGdnASE.s:776    .text._ZN3stm14CircularBufferIP3TCBE3getEv:000000000000004c .L0 
     /tmp/ccGdnASE.s:810    .text._ZN3stm14CircularBufferIP3TCBE7destroyEv:000000000000002c .L0 
     /tmp/ccGdnASE.s:1324   .text._ZN3stm14CircularBufferIP3TCBE6extendEv:00000000000000ac .L0 
     /tmp/ccGdnASE.s:1405   .text._ZN3stm14CircularBufferIP3TCBE3putES2_:0000000000000084 .L0 
     /tmp/ccGdnASE.s:28     .text:0000000000000018 .L0 
     /tmp/ccGdnASE.s:149    .text:00000000000000e0 .L0 
     /tmp/ccGdnASE.s:274    .text:0000000000000138 .L0 
     /tmp/ccGdnASE.s:371    .text:0000000000000210 .L0 
     /tmp/ccGdnASE.s:504    .text:00000000000002f0 .L0 
GAS LISTING /tmp/ccGdnASE.s 			page 53


     /tmp/ccGdnASE.s:594    .text:00000000000003b0 .L0 
     /tmp/ccGdnASE.s:919    .text:000000000000051c .L0 
     /tmp/ccGdnASE.s:973    .text:000000000000054c .L0 
     /tmp/ccGdnASE.s:1000   .text:0000000000000574 .L0 
     /tmp/ccGdnASE.s:1011   .text:0000000000000584 .L0 
     /tmp/ccGdnASE.s:1022   .text:0000000000000594 .L0 
     /tmp/ccGdnASE.s:1033   .text:00000000000005a4 .L0 
     /tmp/ccGdnASE.s:1035   .text:00000000000005b0 .L0 
     /tmp/ccGdnASE.s:1076   .text:0000000000000604 .L0 
     /tmp/ccGdnASE.s:1080   .text:000000000000060c .L0 
     /tmp/ccGdnASE.s:1188   .text:0000000000000690 .L0 
     /tmp/ccGdnASE.s:1437   .text:00000000000006dc .L0 
     /tmp/ccGdnASE.s:1509   .text:000000000000073c .L0 
     /tmp/ccGdnASE.s:177    .text:0000000000000104 .L7
     /tmp/ccGdnASE.s:184    .text:000000000000010c .L8
     /tmp/ccGdnASE.s:190    .text:0000000000000114 .L9
     /tmp/ccGdnASE.s:167    .text:00000000000000f8 .L6
     /tmp/ccGdnASE.s:413    .text:0000000000000288 .L16
     /tmp/ccGdnASE.s:683    .text:000000000000046c .L30
     /tmp/ccGdnASE.s:663    .text:0000000000000450 .L28
     /tmp/ccGdnASE.s:876    .text:00000000000004e4 .L36
     /tmp/ccGdnASE.s:831    .text:00000000000004b4 .L37
     /tmp/ccGdnASE.s:983    .text:000000000000056c .L41
     /tmp/ccGdnASE.s:990    .text:0000000000000574 .L42
     /tmp/ccGdnASE.s:1037   .text:00000000000005bc .L48
     /tmp/ccGdnASE.s:1055   .text:00000000000005e8 .L46
     /tmp/ccGdnASE.s:1077   .text:000000000000060c .L44
     /tmp/ccGdnASE.s:1044   .text:00000000000005cc .L49
     /tmp/ccGdnASE.s:1468   .text:0000000000000710 .L65
     /tmp/ccGdnASE.s:1552   .text:000000000000078c .L71
     /tmp/ccGdnASE.s:382    .text:0000000000000230 .LEHB0
     /tmp/ccGdnASE.s:339    .text:00000000000001d4 .LFB51
     /tmp/ccGdnASE.s:385    .text:0000000000000238 .LEHE0
     /tmp/ccGdnASE.s:399    .text:000000000000026c .LEHB1
     /tmp/ccGdnASE.s:402    .text:0000000000000274 .LEHE1
     /tmp/ccGdnASE.s:445    .text:00000000000002b4 .L18
     /tmp/ccGdnASE.s:410    .text:0000000000000280 .LEHB2
     /tmp/ccGdnASE.s:456    .text:00000000000002d0 .LEHE2
     /tmp/ccGdnASE.s:602    .text:00000000000003c4 .LEHB3
     /tmp/ccGdnASE.s:573    .text:0000000000000394 .LFB59
     /tmp/ccGdnASE.s:605    .text:00000000000003cc .LEHE3
     /tmp/ccGdnASE.s:608    .text:00000000000003d4 .LEHB4
     /tmp/ccGdnASE.s:611    .text:00000000000003dc .LEHE4
     /tmp/ccGdnASE.s:695    .text:0000000000000480 .L27
     /tmp/ccGdnASE.s:616    .text:00000000000003e4 .LEHB5
     /tmp/ccGdnASE.s:704    .text:000000000000049c .LEHE5
     /tmp/ccGdnASE.s:1287   .text._ZN3stm14CircularBufferIP3TCBE6extendEv:0000000000000070 .L55
     /tmp/ccGdnASE.s:1257   .text._ZN3stm14CircularBufferIP3TCBE6extendEv:0000000000000038 .L56
     /tmp/ccGdnASE.s:1396   .text._ZN3stm14CircularBufferIP3TCBE3putES2_:0000000000000078 .L61
     /tmp/ccGdnASE.s:1354   .text._ZN3stm14CircularBufferIP3TCBE3putES2_:000000000000002c .L59
     /tmp/ccGdnASE.s:4312   .debug_abbrev:0000000000000000 .Ldebug_abbrev0
     /tmp/ccGdnASE.s:6688   .debug_str:0000000000000b3f .LASF243
     /tmp/ccGdnASE.s:6528   .debug_str:000000000000070d .LASF244
     /tmp/ccGdnASE.s:6438   .debug_str:000000000000041d .LASF245
     /tmp/ccGdnASE.s:6288   .debug_ranges:0000000000000000 .Ldebug_ranges0
     /tmp/ccGdnASE.s:6304   .debug_line:0000000000000000 .Ldebug_line0
     /tmp/ccGdnASE.s:6472   .debug_str:000000000000055d .LASF0
GAS LISTING /tmp/ccGdnASE.s 			page 54


     /tmp/ccGdnASE.s:6510   .debug_str:0000000000000678 .LASF1
     /tmp/ccGdnASE.s:6632   .debug_str:00000000000009d1 .LASF2
     /tmp/ccGdnASE.s:6640   .debug_str:0000000000000a11 .LASF4
     /tmp/ccGdnASE.s:6490   .debug_str:00000000000005e1 .LASF3
     /tmp/ccGdnASE.s:6324   .debug_str:000000000000008f .LASF5
     /tmp/ccGdnASE.s:6598   .debug_str:00000000000008f9 .LASF6
     /tmp/ccGdnASE.s:6584   .debug_str:0000000000000895 .LASF7
     /tmp/ccGdnASE.s:6500   .debug_str:0000000000000637 .LASF8
     /tmp/ccGdnASE.s:6436   .debug_str:000000000000040d .LASF9
     /tmp/ccGdnASE.s:6442   .debug_str:0000000000000453 .LASF10
     /tmp/ccGdnASE.s:6366   .debug_str:00000000000001b8 .LASF11
     /tmp/ccGdnASE.s:6428   .debug_str:00000000000003e1 .LASF12
     /tmp/ccGdnASE.s:6380   .debug_str:000000000000024a .LASF13
     /tmp/ccGdnASE.s:6364   .debug_str:00000000000001a8 .LASF14
     /tmp/ccGdnASE.s:6670   .debug_str:0000000000000ae9 .LASF15
     /tmp/ccGdnASE.s:6408   .debug_str:000000000000033a .LASF16
     /tmp/ccGdnASE.s:6656   .debug_str:0000000000000a77 .LASF17
     /tmp/ccGdnASE.s:6750   .debug_str:0000000000000e27 .LASF18
     /tmp/ccGdnASE.s:6516   .debug_str:00000000000006a5 .LASF26
     /tmp/ccGdnASE.s:6318   .debug_str:0000000000000048 .LASF28
     /tmp/ccGdnASE.s:6684   .debug_str:0000000000000b2a .LASF19
     /tmp/ccGdnASE.s:6530   .debug_str:000000000000071e .LASF21
     /tmp/ccGdnASE.s:6652   .debug_str:0000000000000a5d .LASF20
     /tmp/ccGdnASE.s:6694   .debug_str:0000000000000c1a .LASF22
     /tmp/ccGdnASE.s:6724   .debug_str:0000000000000d34 .LASF23
     /tmp/ccGdnASE.s:6444   .debug_str:0000000000000461 .LASF24
     /tmp/ccGdnASE.s:6504   .debug_str:0000000000000653 .LASF25
     /tmp/ccGdnASE.s:6348   .debug_str:000000000000014d .LASF91
     /tmp/ccGdnASE.s:6562   .debug_str:000000000000080d .LASF93
     /tmp/ccGdnASE.s:6708   .debug_str:0000000000000cbd .LASF27
     /tmp/ccGdnASE.s:6748   .debug_str:0000000000000e15 .LASF29
     /tmp/ccGdnASE.s:6586   .debug_str:00000000000008a8 .LASF30
     /tmp/ccGdnASE.s:6798   .debug_str:0000000000000f9a .LASF31
     /tmp/ccGdnASE.s:6526   .debug_str:00000000000006fe .LASF32
     /tmp/ccGdnASE.s:6386   .debug_str:0000000000000268 .LASF33
     /tmp/ccGdnASE.s:6514   .debug_str:000000000000069f .LASF34
     /tmp/ccGdnASE.s:6696   .debug_str:0000000000000c36 .LASF35
     /tmp/ccGdnASE.s:6534   .debug_str:000000000000073d .LASF36
     /tmp/ccGdnASE.s:6704   .debug_str:0000000000000c7b .LASF37
     /tmp/ccGdnASE.s:6756   .debug_str:0000000000000e43 .LASF38
     /tmp/ccGdnASE.s:6394   .debug_str:00000000000002c1 .LASF39
     /tmp/ccGdnASE.s:6538   .debug_str:0000000000000751 .LASF40
     /tmp/ccGdnASE.s:6674   .debug_str:0000000000000afe .LASF41
     /tmp/ccGdnASE.s:6710   .debug_str:0000000000000cc3 .LASF42
     /tmp/ccGdnASE.s:6740   .debug_str:0000000000000dc0 .LASF44
     /tmp/ccGdnASE.s:6774   .debug_str:0000000000000eba .LASF43
     /tmp/ccGdnASE.s:6342   .debug_str:0000000000000103 .LASF45
     /tmp/ccGdnASE.s:6594   .debug_str:00000000000008e3 .LASF46
     /tmp/ccGdnASE.s:6390   .debug_str:0000000000000297 .LASF47
     /tmp/ccGdnASE.s:6388   .debug_str:000000000000028d .LASF48
     /tmp/ccGdnASE.s:6786   .debug_str:0000000000000f29 .LASF49
     /tmp/ccGdnASE.s:6580   .debug_str:0000000000000874 .LASF50
     /tmp/ccGdnASE.s:6554   .debug_str:00000000000007cd .LASF51
     /tmp/ccGdnASE.s:6362   .debug_str:000000000000019a .LASF52
     /tmp/ccGdnASE.s:6470   .debug_str:0000000000000557 .LASF53
     /tmp/ccGdnASE.s:6326   .debug_str:0000000000000096 .LASF54
     /tmp/ccGdnASE.s:6338   .debug_str:00000000000000f1 .LASF55
GAS LISTING /tmp/ccGdnASE.s 			page 55


     /tmp/ccGdnASE.s:6646   .debug_str:0000000000000a32 .LASF56
     /tmp/ccGdnASE.s:6570   .debug_str:000000000000083b .LASF57
     /tmp/ccGdnASE.s:6360   .debug_str:0000000000000189 .LASF58
     /tmp/ccGdnASE.s:6532   .debug_str:0000000000000736 .LASF59
     /tmp/ccGdnASE.s:6426   .debug_str:00000000000003d0 .LASF60
     /tmp/ccGdnASE.s:6666   .debug_str:0000000000000ac7 .LASF61
     /tmp/ccGdnASE.s:6480   .debug_str:000000000000057a .LASF62
     /tmp/ccGdnASE.s:6334   .debug_str:00000000000000da .LASF63
     /tmp/ccGdnASE.s:6404   .debug_str:0000000000000310 .LASF64
     /tmp/ccGdnASE.s:6448   .debug_str:0000000000000489 .LASF65
     /tmp/ccGdnASE.s:6344   .debug_str:000000000000011a .LASF66
     /tmp/ccGdnASE.s:6698   .debug_str:0000000000000c46 .LASF67
     /tmp/ccGdnASE.s:6484   .debug_str:000000000000059e .LASF68
     /tmp/ccGdnASE.s:6492   .debug_str:00000000000005f3 .LASF69
     /tmp/ccGdnASE.s:6772   .debug_str:0000000000000ea0 .LASF70
     /tmp/ccGdnASE.s:6430   .debug_str:00000000000003f0 .LASF71
     /tmp/ccGdnASE.s:6686   .debug_str:0000000000000b37 .LASF72
     /tmp/ccGdnASE.s:6726   .debug_str:0000000000000d41 .LASF73
     /tmp/ccGdnASE.s:6458   .debug_str:00000000000004cd .LASF74
     /tmp/ccGdnASE.s:6792   .debug_str:0000000000000f71 .LASF75
     /tmp/ccGdnASE.s:6396   .debug_str:00000000000002da .LASF76
     /tmp/ccGdnASE.s:6712   .debug_str:0000000000000ccf .LASF77
     /tmp/ccGdnASE.s:6746   .debug_str:0000000000000e0e .LASF78
     /tmp/ccGdnASE.s:6620   .debug_str:0000000000000992 .LASF79
     /tmp/ccGdnASE.s:6714   .debug_str:0000000000000cd7 .LASF80
     /tmp/ccGdnASE.s:6518   .debug_str:00000000000006b4 .LASF81
     /tmp/ccGdnASE.s:6352   .debug_str:0000000000000164 .LASF82
     /tmp/ccGdnASE.s:6358   .debug_str:000000000000017d .LASF180
     /tmp/ccGdnASE.s:6368   .debug_str:00000000000001c7 .LASF83
     /tmp/ccGdnASE.s:6508   .debug_str:0000000000000673 .LASF84
     /tmp/ccGdnASE.s:6306   .debug_str:0000000000000000 .LASF85
     /tmp/ccGdnASE.s:6488   .debug_str:00000000000005c5 .LASF86
     /tmp/ccGdnASE.s:6482   .debug_str:0000000000000594 .LASF87
     /tmp/ccGdnASE.s:6402   .debug_str:00000000000002f4 .LASF88
     /tmp/ccGdnASE.s:6650   .debug_str:0000000000000a54 .LASF89
     /tmp/ccGdnASE.s:6720   .debug_str:0000000000000cf3 .LASF90
     /tmp/ccGdnASE.s:6738   .debug_str:0000000000000db6 .LASF92
     /tmp/ccGdnASE.s:6374   .debug_str:000000000000020a .LASF94
     /tmp/ccGdnASE.s:6550   .debug_str:00000000000007b6 .LASF95
     /tmp/ccGdnASE.s:6806   .debug_str:0000000000000fe2 .LASF96
     /tmp/ccGdnASE.s:6654   .debug_str:0000000000000a6e .LASF97
     /tmp/ccGdnASE.s:6638   .debug_str:00000000000009f8 .LASF98
     /tmp/ccGdnASE.s:6336   .debug_str:00000000000000e8 .LASF99
     /tmp/ccGdnASE.s:6730   .debug_str:0000000000000d4f .LASF100
     /tmp/ccGdnASE.s:6804   .debug_str:0000000000000fdc .LASF193
     /tmp/ccGdnASE.s:6520   .debug_str:00000000000006bb .LASF195
     /tmp/ccGdnASE.s:6522   .debug_str:00000000000006e5 .LASF123
     /tmp/ccGdnASE.s:6540   .debug_str:0000000000000770 .LASF110
     /tmp/ccGdnASE.s:6618   .debug_str:000000000000098d .LASF101
     /tmp/ccGdnASE.s:6434   .debug_str:0000000000000403 .LASF102
     /tmp/ccGdnASE.s:6608   .debug_str:000000000000093b .LASF103
     /tmp/ccGdnASE.s:6664   .debug_str:0000000000000ab2 .LASF104
     /tmp/ccGdnASE.s:6462   .debug_str:00000000000004fb .LASF246
     /tmp/ccGdnASE.s:6788   .debug_str:0000000000000f3e .LASF247
     /tmp/ccGdnASE.s:6622   .debug_str:000000000000099d .LASF105
     /tmp/ccGdnASE.s:6558   .debug_str:00000000000007ef .LASF106
     /tmp/ccGdnASE.s:6506   .debug_str:000000000000066e .LASF107
GAS LISTING /tmp/ccGdnASE.s 			page 56


     /tmp/ccGdnASE.s:6604   .debug_str:000000000000091f .LASF108
     /tmp/ccGdnASE.s:6780   .debug_str:0000000000000ee2 .LASF109
     /tmp/ccGdnASE.s:6734   .debug_str:0000000000000d94 .LASF111
     /tmp/ccGdnASE.s:6524   .debug_str:00000000000006f1 .LASF112
     /tmp/ccGdnASE.s:6328   .debug_str:00000000000000a6 .LASF113
     /tmp/ccGdnASE.s:6312   .debug_str:000000000000001c .LASF114
     /tmp/ccGdnASE.s:6784   .debug_str:0000000000000f03 .LASF115
     /tmp/ccGdnASE.s:6494   .debug_str:0000000000000602 .LASF116
     /tmp/ccGdnASE.s:6464   .debug_str:0000000000000513 .LASF248
     /tmp/ccGdnASE.s:6706   .debug_str:0000000000000c97 .LASF117
     /tmp/ccGdnASE.s:6372   .debug_str:00000000000001df .LASF118
     /tmp/ccGdnASE.s:6718   .debug_str:0000000000000ceb .LASF119
     /tmp/ccGdnASE.s:6460   .debug_str:00000000000004d2 .LASF120
     /tmp/ccGdnASE.s:6378   .debug_str:0000000000000243 .LASF121
     /tmp/ccGdnASE.s:6722   .debug_str:0000000000000d0c .LASF122
     /tmp/ccGdnASE.s:6450   .debug_str:0000000000000499 .LASF124
     /tmp/ccGdnASE.s:6422   .debug_str:00000000000003c4 .LASF125
     /tmp/ccGdnASE.s:6662   .debug_str:0000000000000aad .LASF126
     /tmp/ccGdnASE.s:6560   .debug_str:0000000000000808 .LASF127
     /tmp/ccGdnASE.s:6310   .debug_str:0000000000000013 .LASF128
     /tmp/ccGdnASE.s:6418   .debug_str:00000000000003a8 .LASF129
     /tmp/ccGdnASE.s:6590   .debug_str:00000000000008ba .LASF130
     /tmp/ccGdnASE.s:6412   .debug_str:000000000000036a .LASF131
     /tmp/ccGdnASE.s:6690   .debug_str:0000000000000c03 .LASF132
     /tmp/ccGdnASE.s:6744   .debug_str:0000000000000df1 .LASF133
     /tmp/ccGdnASE.s:6576   .debug_str:000000000000085e .LASF134
     /tmp/ccGdnASE.s:6702   .debug_str:0000000000000c5f .LASF135
     /tmp/ccGdnASE.s:6768   .debug_str:0000000000000e88 .LASF136
     /tmp/ccGdnASE.s:6802   .debug_str:0000000000000fbf .LASF137
     /tmp/ccGdnASE.s:6456   .debug_str:00000000000004c2 .LASF138
     /tmp/ccGdnASE.s:6468   .debug_str:000000000000053f .LASF139
     /tmp/ccGdnASE.s:6648   .debug_str:0000000000000a42 .LASF140
     /tmp/ccGdnASE.s:6616   .debug_str:000000000000096e .LASF141
     /tmp/ccGdnASE.s:6474   .debug_str:000000000000056a .LASF142
     /tmp/ccGdnASE.s:6322   .debug_str:000000000000007e .LASF143
     /tmp/ccGdnASE.s:6624   .debug_str:00000000000009a6 .LASF249
     /tmp/ccGdnASE.s:6728   .debug_str:0000000000000d46 .LASF144
     /tmp/ccGdnASE.s:6416   .debug_str:0000000000000393 .LASF145
     /tmp/ccGdnASE.s:6628   .debug_str:00000000000009bd .LASF146
     /tmp/ccGdnASE.s:6332   .debug_str:00000000000000c5 .LASF147
     /tmp/ccGdnASE.s:6606   .debug_str:0000000000000934 .LASF148
     /tmp/ccGdnASE.s:6610   .debug_str:0000000000000940 .LASF149
     /tmp/ccGdnASE.s:6566   .debug_str:0000000000000829 .LASF150
     /tmp/ccGdnASE.s:6636   .debug_str:00000000000009e5 .LASF151
     /tmp/ccGdnASE.s:6770   .debug_str:0000000000000e98 .LASF152
     /tmp/ccGdnASE.s:6668   .debug_str:0000000000000ad5 .LASF153
     /tmp/ccGdnASE.s:6498   .debug_str:000000000000062f .LASF154
     /tmp/ccGdnASE.s:6574   .debug_str:000000000000084a .LASF155
     /tmp/ccGdnASE.s:6548   .debug_str:00000000000007ae .LASF156
     /tmp/ccGdnASE.s:6612   .debug_str:0000000000000953 .LASF157
     /tmp/ccGdnASE.s:6660   .debug_str:0000000000000aa5 .LASF158
     /tmp/ccGdnASE.s:6736   .debug_str:0000000000000da2 .LASF159
     /tmp/ccGdnASE.s:6778   .debug_str:0000000000000edb .LASF160
     /tmp/ccGdnASE.s:6642   .debug_str:0000000000000a18 .LASF161
     /tmp/ccGdnASE.s:6644   .debug_str:0000000000000a2b .LASF162
     /tmp/ccGdnASE.s:6370   .debug_str:00000000000001cc .LASF163
     /tmp/ccGdnASE.s:6400   .debug_str:00000000000002ee .LASF164
GAS LISTING /tmp/ccGdnASE.s 			page 57


     /tmp/ccGdnASE.s:6330   .debug_str:00000000000000b3 .LASF165
     /tmp/ccGdnASE.s:6478   .debug_str:0000000000000574 .LASF166
     /tmp/ccGdnASE.s:6392   .debug_str:00000000000002af .LASF167
     /tmp/ccGdnASE.s:6794   .debug_str:0000000000000f77 .LASF168
     /tmp/ccGdnASE.s:6658   .debug_str:0000000000000a8d .LASF169
     /tmp/ccGdnASE.s:6630   .debug_str:00000000000009c6 .LASF170
     /tmp/ccGdnASE.s:6796   .debug_str:0000000000000f82 .LASF171
     /tmp/ccGdnASE.s:6760   .debug_str:0000000000000e52 .LASF172
     /tmp/ccGdnASE.s:6776   .debug_str:0000000000000ec5 .LASF173
     /tmp/ccGdnASE.s:6752   .debug_str:0000000000000e30 .LASF174
     /tmp/ccGdnASE.s:6544   .debug_str:0000000000000791 .LASF175
     /tmp/ccGdnASE.s:6568   .debug_str:0000000000000830 .LASF176
     /tmp/ccGdnASE.s:6346   .debug_str:0000000000000135 .LASF177
     /tmp/ccGdnASE.s:6680   .debug_str:0000000000000b1e .LASF178
     /tmp/ccGdnASE.s:6496   .debug_str:0000000000000629 .LASF179
     /tmp/ccGdnASE.s:6676   .debug_str:0000000000000b0c .LASF181
     /tmp/ccGdnASE.s:6764   .debug_str:0000000000000e79 .LASF182
     /tmp/ccGdnASE.s:6758   .debug_str:0000000000000e4d .LASF183
     /tmp/ccGdnASE.s:6682   .debug_str:0000000000000b23 .LASF250
     /tmp/ccGdnASE.s:6502   .debug_str:000000000000064a .LASF184
     /tmp/ccGdnASE.s:6308   .debug_str:000000000000000b .LASF185
     /tmp/ccGdnASE.s:6382   .debug_str:000000000000025a .LASF186
     /tmp/ccGdnASE.s:6692   .debug_str:0000000000000c13 .LASF187
     /tmp/ccGdnASE.s:6354   .debug_str:000000000000016e .LASF188
     /tmp/ccGdnASE.s:6766   .debug_str:0000000000000e81 .LASF189
     /tmp/ccGdnASE.s:6476   .debug_str:000000000000056f .LASF190
     /tmp/ccGdnASE.s:6800   .debug_str:0000000000000fb2 .LASF191
     /tmp/ccGdnASE.s:6512   .debug_str:000000000000068b .LASF192
     /tmp/ccGdnASE.s:6316   .debug_str:0000000000000038 .LASF194
     /tmp/ccGdnASE.s:6582   .debug_str:0000000000000880 .LASF196
     /tmp/ccGdnASE.s:6762   .debug_str:0000000000000e5c .LASF197
     /tmp/ccGdnASE.s:6546   .debug_str:00000000000007a7 .LASF198
     /tmp/ccGdnASE.s:6556   .debug_str:00000000000007e5 .LASF199
     /tmp/ccGdnASE.s:6466   .debug_str:0000000000000538 .LASF200
     /tmp/ccGdnASE.s:6742   .debug_str:0000000000000dd8 .LASF201
     /tmp/ccGdnASE.s:6314   .debug_str:0000000000000031 .LASF202
     /tmp/ccGdnASE.s:6592   .debug_str:00000000000008cf .LASF203
     /tmp/ccGdnASE.s:6614   .debug_str:0000000000000967 .LASF204
     /tmp/ccGdnASE.s:6542   .debug_str:000000000000077d .LASF205
     /tmp/ccGdnASE.s:6384   .debug_str:0000000000000263 .LASF206
     /tmp/ccGdnASE.s:6452   .debug_str:00000000000004a2 .LASF207
     /tmp/ccGdnASE.s:6420   .debug_str:00000000000003ae .LASF208
     /tmp/ccGdnASE.s:6340   .debug_str:00000000000000f7 .LASF209
     /tmp/ccGdnASE.s:6410   .debug_str:0000000000000350 .LASF210
     /tmp/ccGdnASE.s:6398   .debug_str:00000000000002e1 .LASF211
     /tmp/ccGdnASE.s:6376   .debug_str:0000000000000224 .LASF212
     /tmp/ccGdnASE.s:6564   .debug_str:000000000000081d .LASF213
     /tmp/ccGdnASE.s:6350   .debug_str:0000000000000153 .LASF214
     /tmp/ccGdnASE.s:6732   .debug_str:0000000000000d7c .LASF215
     /tmp/ccGdnASE.s:6320   .debug_str:0000000000000071 .LASF216
     /tmp/ccGdnASE.s:1224   .text._ZN3stm14CircularBufferIP3TCBE6extendEv:0000000000000000 .LFB68
     /tmp/ccGdnASE.s:1322   .text._ZN3stm14CircularBufferIP3TCBE6extendEv:00000000000000ac .LFE68
     /tmp/ccGdnASE.s:6432   .debug_str:00000000000003fe .LASF218
     /tmp/ccGdnASE.s:5583   .debug_loc:0000000000000000 .LLST31
     /tmp/ccGdnASE.s:6716   .debug_str:0000000000000ce1 .LASF217
     /tmp/ccGdnASE.s:5601   .debug_loc:000000000000004c .LLST32
     /tmp/ccGdnASE.s:1250   .text._ZN3stm14CircularBufferIP3TCBE6extendEv:0000000000000030 .LBB86
GAS LISTING /tmp/ccGdnASE.s 			page 58


     /tmp/ccGdnASE.s:1288   .text._ZN3stm14CircularBufferIP3TCBE6extendEv:0000000000000070 .LBE86
     /tmp/ccGdnASE.s:5618   .debug_loc:0000000000000097 .LLST33
     /tmp/ccGdnASE.s:5634   .debug_loc:00000000000000e1 .LLST34
     /tmp/ccGdnASE.s:1247   .text._ZN3stm14CircularBufferIP3TCBE6extendEv:000000000000002c .LVL118
     /tmp/ccGdnASE.s:1293   .text._ZN3stm14CircularBufferIP3TCBE6extendEv:000000000000007c .LVL127
     /tmp/ccGdnASE.s:1329   .text._ZN3stm14CircularBufferIP3TCBE3putES2_:0000000000000000 .LFB67
     /tmp/ccGdnASE.s:1403   .text._ZN3stm14CircularBufferIP3TCBE3putES2_:0000000000000084 .LFE67
     /tmp/ccGdnASE.s:5651   .debug_loc:000000000000012c .LLST35
     /tmp/ccGdnASE.s:6572   .debug_str:0000000000000842 .LASF219
     /tmp/ccGdnASE.s:5673   .debug_loc:000000000000018b .LLST36
     /tmp/ccGdnASE.s:1400   .text._ZN3stm14CircularBufferIP3TCBE3putES2_:0000000000000080 .LVL135
     /tmp/ccGdnASE.s:781    .text._ZN3stm14CircularBufferIP3TCBE7destroyEv:0000000000000000 .LFB66
     /tmp/ccGdnASE.s:808    .text._ZN3stm14CircularBufferIP3TCBE7destroyEv:000000000000002c .LFE66
     /tmp/ccGdnASE.s:5699   .debug_loc:00000000000001fd .LLST19
     /tmp/ccGdnASE.s:797    .text._ZN3stm14CircularBufferIP3TCBE7destroyEv:000000000000001c .LVL74
     /tmp/ccGdnASE.s:732    .text._ZN3stm14CircularBufferIP3TCBE3getEv:0000000000000000 .LFB65
     /tmp/ccGdnASE.s:774    .text._ZN3stm14CircularBufferIP3TCBE3getEv:000000000000004c .LFE65
     /tmp/ccGdnASE.s:5713   .debug_loc:0000000000000236 .LLST18
     /tmp/ccGdnASE.s:203    .text._ZN3stm14CircularBufferIP3TCBE4initEv:0000000000000000 .LFB62
     /tmp/ccGdnASE.s:248    .text._ZN3stm14CircularBufferIP3TCBE4initEv:0000000000000050 .LFE62
     /tmp/ccGdnASE.s:5724   .debug_loc:000000000000026c .LLST5
     /tmp/ccGdnASE.s:232    .text._ZN3stm14CircularBufferIP3TCBE4initEv:0000000000000038 .LVL23
     /tmp/ccGdnASE.s:10     .text:0000000000000000 .LFB61
     /tmp/ccGdnASE.s:48     .text:0000000000000044 .LFE61
     /tmp/ccGdnASE.s:25     .text:0000000000000018 .LVL0
     /tmp/ccGdnASE.s:37     .text:0000000000000034 .LVL2
     /tmp/ccGdnASE.s:119    .text:00000000000000c0 .LFB60
     /tmp/ccGdnASE.s:196    .text:000000000000011c .LFE60
     /tmp/ccGdnASE.s:6626   .debug_str:00000000000009b6 .LASF220
     /tmp/ccGdnASE.s:5742   .debug_loc:00000000000002b8 .LLST2
     /tmp/ccGdnASE.s:133    .text:00000000000000d0 .LBB51
     /tmp/ccGdnASE.s:141    .text:00000000000000d4 .LBE51
     /tmp/ccGdnASE.s:5789   .debug_loc:000000000000036c .LLST3
     /tmp/ccGdnASE.s:154    .text:00000000000000ec .LBB53
     /tmp/ccGdnASE.s:162    .text:00000000000000f4 .LBE53
     /tmp/ccGdnASE.s:5796   .debug_loc:000000000000038f .LLST4
     /tmp/ccGdnASE.s:706    .text:000000000000049c .LFE59
     /tmp/ccGdnASE.s:6678   .debug_str:0000000000000b14 .LASF221
     /tmp/ccGdnASE.s:5803   .debug_loc:00000000000003b2 .LLST16
     /tmp/ccGdnASE.s:5814   .debug_loc:00000000000003e8 .LLST17
     /tmp/ccGdnASE.s:604    .text:00000000000003cc .LVL53
     /tmp/ccGdnASE.s:610    .text:00000000000003dc .LVL54
     /tmp/ccGdnASE.s:618    .text:00000000000003ec .LVL55
     /tmp/ccGdnASE.s:624    .text:00000000000003fc .LVL56
     /tmp/ccGdnASE.s:629    .text:0000000000000408 .LVL57
     /tmp/ccGdnASE.s:634    .text:0000000000000414 .LVL58
     /tmp/ccGdnASE.s:639    .text:0000000000000420 .LVL59
     /tmp/ccGdnASE.s:644    .text:000000000000042c .LVL60
     /tmp/ccGdnASE.s:649    .text:0000000000000438 .LVL61
     /tmp/ccGdnASE.s:659    .text:000000000000044c .LVL62
     /tmp/ccGdnASE.s:689    .text:0000000000000478 .LVL66
     /tmp/ccGdnASE.s:700    .text:0000000000000490 .LVL68
     /tmp/ccGdnASE.s:703    .text:000000000000049c .LVL69
     /tmp/ccGdnASE.s:54     .text:0000000000000044 .LFB58
     /tmp/ccGdnASE.s:113    .text:00000000000000c0 .LFE58
     /tmp/ccGdnASE.s:5825   .debug_loc:000000000000041e .LLST0
     /tmp/ccGdnASE.s:6634   .debug_str:00000000000009df .LASF222
GAS LISTING /tmp/ccGdnASE.s 			page 59


     /tmp/ccGdnASE.s:5843   .debug_loc:000000000000046a .LLST1
     /tmp/ccGdnASE.s:75     .text:000000000000006c .LVL4
     /tmp/ccGdnASE.s:82     .text:0000000000000080 .LVL5
     /tmp/ccGdnASE.s:96     .text:00000000000000a8 .LVL6
     /tmp/ccGdnASE.s:1477   .text:0000000000000714 .LFB57
     /tmp/ccGdnASE.s:1555   .text:0000000000000790 .LFE57
     /tmp/ccGdnASE.s:5861   .debug_loc:00000000000004b6 .LLST40
     /tmp/ccGdnASE.s:6588   .debug_str:00000000000008b5 .LASF223
     /tmp/ccGdnASE.s:5885   .debug_loc:0000000000000518 .LLST41
     /tmp/ccGdnASE.s:1482   .text:0000000000000714 .LBB91
     /tmp/ccGdnASE.s:1489   .text:0000000000000718 .LBE91
     /tmp/ccGdnASE.s:5907   .debug_loc:0000000000000577 .LLST42
     /tmp/ccGdnASE.s:1512   .text:0000000000000748 .LBB93
     /tmp/ccGdnASE.s:1520   .text:0000000000000750 .LBE93
     /tmp/ccGdnASE.s:5914   .debug_loc:000000000000059a .LLST43
     /tmp/ccGdnASE.s:1526   .text:000000000000075c .LVL149
     /tmp/ccGdnASE.s:1532   .text:000000000000076c .LVL150
     /tmp/ccGdnASE.s:1536   .text:0000000000000774 .LVL151
     /tmp/ccGdnASE.s:1410   .text:00000000000006c0 .LFB56
     /tmp/ccGdnASE.s:1471   .text:0000000000000714 .LFE56
     /tmp/ccGdnASE.s:5921   .debug_loc:00000000000005bd .LLST37
     /tmp/ccGdnASE.s:1415   .text:00000000000006c0 .LBB87
     /tmp/ccGdnASE.s:1422   .text:00000000000006c4 .LBE87
     /tmp/ccGdnASE.s:5945   .debug_loc:000000000000061f .LLST38
     /tmp/ccGdnASE.s:1439   .text:00000000000006e4 .LBB89
     /tmp/ccGdnASE.s:1447   .text:00000000000006ec .LBE89
     /tmp/ccGdnASE.s:5952   .debug_loc:0000000000000642 .LLST39
     /tmp/ccGdnASE.s:1453   .text:00000000000006f8 .LVL141
     /tmp/ccGdnASE.s:1457   .text:0000000000000700 .LVL142
     /tmp/ccGdnASE.s:1175   .text:0000000000000680 .LFB55
     /tmp/ccGdnASE.s:1217   .text:00000000000006c0 .LFE55
     /tmp/ccGdnASE.s:1190   .text:0000000000000698 .LBB84
     /tmp/ccGdnASE.s:1198   .text:00000000000006a0 .LBE84
     /tmp/ccGdnASE.s:5959   .debug_loc:0000000000000665 .LLST30
     /tmp/ccGdnASE.s:1202   .text:00000000000006a8 .LVL114
     /tmp/ccGdnASE.s:1206   .text:00000000000006b0 .LVL115
     /tmp/ccGdnASE.s:815    .text:000000000000049c .LFB54
     /tmp/ccGdnASE.s:898    .text:0000000000000508 .LFE54
     /tmp/ccGdnASE.s:5966   .debug_loc:0000000000000688 .LLST20
     /tmp/ccGdnASE.s:843    .text:00000000000004bc .LBB59
     /tmp/ccGdnASE.s:877    .text:00000000000004e4 .LBE59
     /tmp/ccGdnASE.s:5981   .debug_loc:00000000000006d1 .LLST22
     /tmp/ccGdnASE.s:850    .text:00000000000004c8 .LBB60
     /tmp/ccGdnASE.s:857    .text:00000000000004cc .LBE60
     /tmp/ccGdnASE.s:5988   .debug_loc:00000000000006f4 .LLST23
     /tmp/ccGdnASE.s:863    .text:00000000000004d4 .LBB62
     /tmp/ccGdnASE.s:870    .text:00000000000004d8 .LBE62
     /tmp/ccGdnASE.s:5995   .debug_loc:0000000000000717 .LLST24
     /tmp/ccGdnASE.s:848    .text:00000000000004c8 .LVL78
     /tmp/ccGdnASE.s:874    .text:00000000000004e0 .LVL82
     /tmp/ccGdnASE.s:834    .text:00000000000004b4 .LBB57
     /tmp/ccGdnASE.s:840    .text:00000000000004b8 .LBE57
     /tmp/ccGdnASE.s:6002   .debug_loc:000000000000073a .LLST21
     /tmp/ccGdnASE.s:882    .text:00000000000004f0 .LVL83
     /tmp/ccGdnASE.s:1136   .text:0000000000000648 .LFB53
     /tmp/ccGdnASE.s:1169   .text:0000000000000680 .LFE53
     /tmp/ccGdnASE.s:1150   .text:0000000000000660 .LVL109
GAS LISTING /tmp/ccGdnASE.s 			page 60


     /tmp/ccGdnASE.s:1154   .text:0000000000000668 .LVL110
     /tmp/ccGdnASE.s:1158   .text:0000000000000670 .LVL111
     /tmp/ccGdnASE.s:904    .text:0000000000000508 .LFB52
     /tmp/ccGdnASE.s:1130   .text:0000000000000648 .LFE52
     /tmp/ccGdnASE.s:6011   .debug_loc:0000000000000760 .LLST25
     /tmp/ccGdnASE.s:922    .text:0000000000000524 .LBB64
     /tmp/ccGdnASE.s:938    .text:0000000000000530 .LBE64
     /tmp/ccGdnASE.s:942    .text:0000000000000534 .LBB66
     /tmp/ccGdnASE.s:957    .text:0000000000000540 .LBE66
     /tmp/ccGdnASE.s:962    .text:0000000000000544 .LBB68
     /tmp/ccGdnASE.s:969    .text:0000000000000548 .LBE68
     /tmp/ccGdnASE.s:6018   .debug_loc:0000000000000783 .LLST26
     /tmp/ccGdnASE.s:992    .text:0000000000000574 .LBB70
     /tmp/ccGdnASE.s:1030   .text:00000000000005a4 .LBE70
     /tmp/ccGdnASE.s:997    .text:0000000000000574 .LBB72
     /tmp/ccGdnASE.s:1004   .text:0000000000000580 .LBE72
     /tmp/ccGdnASE.s:1008   .text:0000000000000584 .LBB74
     /tmp/ccGdnASE.s:1015   .text:0000000000000590 .LBE74
     /tmp/ccGdnASE.s:1019   .text:0000000000000594 .LBB76
     /tmp/ccGdnASE.s:1026   .text:00000000000005a0 .LBE76
     /tmp/ccGdnASE.s:1060   .text:00000000000005f0 .LBB78
     /tmp/ccGdnASE.s:1067   .text:00000000000005f4 .LBE78
     /tmp/ccGdnASE.s:6025   .debug_loc:00000000000007a6 .LLST27
     /tmp/ccGdnASE.s:1083   .text:0000000000000618 .LBB80
     /tmp/ccGdnASE.s:1094   .text:000000000000061c .LBE80
     /tmp/ccGdnASE.s:6032   .debug_loc:00000000000007c9 .LLST28
     /tmp/ccGdnASE.s:1099   .text:0000000000000620 .LBB82
     /tmp/ccGdnASE.s:1110   .text:0000000000000624 .LBE82
     /tmp/ccGdnASE.s:6039   .debug_loc:00000000000007ec .LLST29
     /tmp/ccGdnASE.s:981    .text:0000000000000568 .LVL88
     /tmp/ccGdnASE.s:1042   .text:00000000000005c8 .LVL96
     /tmp/ccGdnASE.s:1048   .text:00000000000005d4 .LVL97
     /tmp/ccGdnASE.s:1050   .text:00000000000005dc .LVL98
     /tmp/ccGdnASE.s:1054   .text:00000000000005e8 .LVL99
     /tmp/ccGdnASE.s:1059   .text:00000000000005f0 .LVL100
     /tmp/ccGdnASE.s:1074   .text:0000000000000604 .LVL102
     /tmp/ccGdnASE.s:1116   .text:0000000000000634 .LVL107
     /tmp/ccGdnASE.s:458    .text:00000000000002d0 .LFE51
     /tmp/ccGdnASE.s:6046   .debug_loc:000000000000080f .LLST10
     /tmp/ccGdnASE.s:6602   .debug_str:0000000000000911 .LASF224
     /tmp/ccGdnASE.s:6075   .debug_loc:0000000000000884 .LLST11
     /tmp/ccGdnASE.s:6097   .debug_loc:00000000000008e3 .LLST12
     /tmp/ccGdnASE.s:6119   .debug_loc:0000000000000942 .LLST13
     /tmp/ccGdnASE.s:384    .text:0000000000000238 .LVL34
     /tmp/ccGdnASE.s:401    .text:0000000000000274 .LVL35
     /tmp/ccGdnASE.s:412    .text:0000000000000288 .LVL36
     /tmp/ccGdnASE.s:452    .text:00000000000002c4 .LVL44
     /tmp/ccGdnASE.s:455    .text:00000000000002d0 .LVL45
     /tmp/ccGdnASE.s:6552   .debug_str:00000000000007bf .LASF225
     /tmp/ccGdnASE.s:484    .text:00000000000002d0 .LFB49
     /tmp/ccGdnASE.s:565    .text:0000000000000394 .LFE49
     /tmp/ccGdnASE.s:6154   .debug_loc:00000000000009c0 .LLST14
     /tmp/ccGdnASE.s:6172   .debug_loc:0000000000000a0c .LLST15
     /tmp/ccGdnASE.s:522    .text:0000000000000324 .LVL48
     /tmp/ccGdnASE.s:547    .text:000000000000037c .LVL49
     /tmp/ccGdnASE.s:6790   .debug_str:0000000000000f52 .LASF226
     /tmp/ccGdnASE.s:255    .text:000000000000011c .LFB46
GAS LISTING /tmp/ccGdnASE.s 			page 61


     /tmp/ccGdnASE.s:331    .text:00000000000001d4 .LFE46
     /tmp/ccGdnASE.s:6190   .debug_loc:0000000000000a58 .LLST6
     /tmp/ccGdnASE.s:6208   .debug_loc:0000000000000aa4 .LLST7
     /tmp/ccGdnASE.s:6227   .debug_loc:0000000000000af1 .LLST8
     /tmp/ccGdnASE.s:6246   .debug_loc:0000000000000b3e .LLST9
     /tmp/ccGdnASE.s:310    .text:00000000000001b4 .LVL30
     /tmp/ccGdnASE.s:6454   .debug_str:00000000000004b4 .LASF227
     /tmp/ccGdnASE.s:6700   .debug_str:0000000000000c55 .LASF229
     /tmp/ccGdnASE.s:6446   .debug_str:000000000000047b .LASF228
     /tmp/ccGdnASE.s:6754   .debug_str:0000000000000e3a .LASF230
     /tmp/ccGdnASE.s:6406   .debug_str:0000000000000329 .LASF231
     /tmp/ccGdnASE.s:6486   .debug_str:00000000000005b9 .LASF232
     /tmp/ccGdnASE.s:6424   .debug_str:00000000000003ca .LASF237
     /tmp/ccGdnASE.s:6596   .debug_str:00000000000008ef .LASF233
     /tmp/ccGdnASE.s:6356   .debug_str:0000000000000177 .LASF234
     /tmp/ccGdnASE.s:6672   .debug_str:0000000000000af5 .LASF235
     /tmp/ccGdnASE.s:6536   .debug_str:000000000000074c .LASF236
     /tmp/ccGdnASE.s:6578   .debug_str:000000000000086d .LASF238
     /tmp/ccGdnASE.s:6782   .debug_str:0000000000000ef4 .LASF239
     /tmp/ccGdnASE.s:6440   .debug_str:000000000000043b .LASF240
     /tmp/ccGdnASE.s:6600   .debug_str:0000000000000900 .LASF241
     /tmp/ccGdnASE.s:6414   .debug_str:000000000000038c .LASF242
     /tmp/ccGdnASE.s:1227   .text._ZN3stm14CircularBufferIP3TCBE6extendEv:0000000000000000 .LVL116
     /tmp/ccGdnASE.s:1243   .text._ZN3stm14CircularBufferIP3TCBE6extendEv:0000000000000020 .LVL117
     /tmp/ccGdnASE.s:1314   .text._ZN3stm14CircularBufferIP3TCBE6extendEv:00000000000000a0 .LVL128
     /tmp/ccGdnASE.s:1249   .text._ZN3stm14CircularBufferIP3TCBE6extendEv:0000000000000030 .LVL119
     /tmp/ccGdnASE.s:1291   .text._ZN3stm14CircularBufferIP3TCBE6extendEv:0000000000000074 .LVL126
     /tmp/ccGdnASE.s:1317   .text._ZN3stm14CircularBufferIP3TCBE6extendEv:00000000000000a4 .LVL129
     /tmp/ccGdnASE.s:1256   .text._ZN3stm14CircularBufferIP3TCBE6extendEv:0000000000000038 .LVL121
     /tmp/ccGdnASE.s:1276   .text._ZN3stm14CircularBufferIP3TCBE6extendEv:0000000000000060 .LVL122
     /tmp/ccGdnASE.s:1286   .text._ZN3stm14CircularBufferIP3TCBE6extendEv:0000000000000070 .LVL125
     /tmp/ccGdnASE.s:1253   .text._ZN3stm14CircularBufferIP3TCBE6extendEv:0000000000000034 .LVL120
     /tmp/ccGdnASE.s:1279   .text._ZN3stm14CircularBufferIP3TCBE6extendEv:0000000000000064 .LVL123
     /tmp/ccGdnASE.s:1284   .text._ZN3stm14CircularBufferIP3TCBE6extendEv:000000000000006c .LVL124
     /tmp/ccGdnASE.s:1332   .text._ZN3stm14CircularBufferIP3TCBE3putES2_:0000000000000000 .LVL130
     /tmp/ccGdnASE.s:1353   .text._ZN3stm14CircularBufferIP3TCBE3putES2_:000000000000002c .LVL131
     /tmp/ccGdnASE.s:1388   .text._ZN3stm14CircularBufferIP3TCBE3putES2_:000000000000006c .LVL132
     /tmp/ccGdnASE.s:1395   .text._ZN3stm14CircularBufferIP3TCBE3putES2_:0000000000000078 .LVL134
     /tmp/ccGdnASE.s:1391   .text._ZN3stm14CircularBufferIP3TCBE3putES2_:0000000000000070 .LVL133
     /tmp/ccGdnASE.s:784    .text._ZN3stm14CircularBufferIP3TCBE7destroyEv:0000000000000000 .LVL72
     /tmp/ccGdnASE.s:795    .text._ZN3stm14CircularBufferIP3TCBE7destroyEv:0000000000000014 .LVL73
     /tmp/ccGdnASE.s:735    .text._ZN3stm14CircularBufferIP3TCBE3getEv:0000000000000000 .LVL70
     /tmp/ccGdnASE.s:752    .text._ZN3stm14CircularBufferIP3TCBE3getEv:0000000000000024 .LVL71
     /tmp/ccGdnASE.s:207    .text._ZN3stm14CircularBufferIP3TCBE4initEv:0000000000000000 .LVL21
     /tmp/ccGdnASE.s:230    .text._ZN3stm14CircularBufferIP3TCBE4initEv:0000000000000030 .LVL22
     /tmp/ccGdnASE.s:243    .text._ZN3stm14CircularBufferIP3TCBE4initEv:0000000000000048 .LVL24
     /tmp/ccGdnASE.s:122    .text:00000000000000c0 .LVL9
     /tmp/ccGdnASE.s:166    .text:00000000000000f8 .LVL14
     /tmp/ccGdnASE.s:176    .text:0000000000000104 .LVL15
     /tmp/ccGdnASE.s:181    .text:0000000000000108 .LVL16
     /tmp/ccGdnASE.s:183    .text:000000000000010c .LVL17
     /tmp/ccGdnASE.s:187    .text:0000000000000110 .LVL18
     /tmp/ccGdnASE.s:189    .text:0000000000000114 .LVL19
     /tmp/ccGdnASE.s:193    .text:0000000000000118 .LVL20
     /tmp/ccGdnASE.s:132    .text:00000000000000d0 .LVL10
     /tmp/ccGdnASE.s:139    .text:00000000000000d4 .LVL11
     /tmp/ccGdnASE.s:153    .text:00000000000000ec .LVL12
GAS LISTING /tmp/ccGdnASE.s 			page 62


     /tmp/ccGdnASE.s:160    .text:00000000000000f4 .LVL13
     /tmp/ccGdnASE.s:598    .text:00000000000003c0 .LVL52
     /tmp/ccGdnASE.s:678    .text:0000000000000464 .LVL64
     /tmp/ccGdnASE.s:682    .text:000000000000046c .LVL65
     /tmp/ccGdnASE.s:673    .text:000000000000045c .LVL63
     /tmp/ccGdnASE.s:694    .text:0000000000000480 .LVL67
     /tmp/ccGdnASE.s:57     .text:0000000000000044 .LVL3
     /tmp/ccGdnASE.s:108    .text:00000000000000b8 .LVL8
     /tmp/ccGdnASE.s:105    .text:00000000000000b4 .LVL7
     /tmp/ccGdnASE.s:1480   .text:0000000000000714 .LVL144
     /tmp/ccGdnASE.s:1524   .text:0000000000000754 .LVL148
     /tmp/ccGdnASE.s:1551   .text:000000000000078c .LVL153
     /tmp/ccGdnASE.s:1511   .text:0000000000000748 .LVL146
     /tmp/ccGdnASE.s:1545   .text:0000000000000780 .LVL152
     /tmp/ccGdnASE.s:1487   .text:0000000000000718 .LVL145
     /tmp/ccGdnASE.s:1518   .text:0000000000000750 .LVL147
     /tmp/ccGdnASE.s:1413   .text:00000000000006c0 .LVL136
     /tmp/ccGdnASE.s:1451   .text:00000000000006f0 .LVL140
     /tmp/ccGdnASE.s:1467   .text:0000000000000710 .LVL143
     /tmp/ccGdnASE.s:1420   .text:00000000000006c4 .LVL137
     /tmp/ccGdnASE.s:1438   .text:00000000000006e4 .LVL138
     /tmp/ccGdnASE.s:1445   .text:00000000000006ec .LVL139
     /tmp/ccGdnASE.s:1189   .text:0000000000000698 .LVL112
     /tmp/ccGdnASE.s:1196   .text:00000000000006a0 .LVL113
     /tmp/ccGdnASE.s:818    .text:000000000000049c .LVL75
     /tmp/ccGdnASE.s:830    .text:00000000000004b4 .LVL76
     /tmp/ccGdnASE.s:893    .text:0000000000000500 .LVL84
     /tmp/ccGdnASE.s:855    .text:00000000000004cc .LVL79
     /tmp/ccGdnASE.s:862    .text:00000000000004d4 .LVL80
     /tmp/ccGdnASE.s:868    .text:00000000000004d8 .LVL81
     /tmp/ccGdnASE.s:838    .text:00000000000004b8 .LVL77
     /tmp/ccGdnASE.s:920    .text:0000000000000524 .LVL85
     /tmp/ccGdnASE.s:1125   .text:0000000000000640 .LVL108
     /tmp/ccGdnASE.s:961    .text:0000000000000544 .LVL86
     /tmp/ccGdnASE.s:967    .text:0000000000000548 .LVL87
     /tmp/ccGdnASE.s:1065   .text:00000000000005f4 .LVL101
     /tmp/ccGdnASE.s:1082   .text:0000000000000618 .LVL103
     /tmp/ccGdnASE.s:1091   .text:000000000000061c .LVL104
     /tmp/ccGdnASE.s:1098   .text:0000000000000620 .LVL105
     /tmp/ccGdnASE.s:1107   .text:0000000000000624 .LVL106
     /tmp/ccGdnASE.s:344    .text:00000000000001d4 .LVL32
     /tmp/ccGdnASE.s:381    .text:0000000000000230 .LVL33
     /tmp/ccGdnASE.s:428    .text:000000000000029c .LVL37
     /tmp/ccGdnASE.s:444    .text:00000000000002b4 .LVL42
     /tmp/ccGdnASE.s:448    .text:00000000000002b8 .LVL43
     /tmp/ccGdnASE.s:431    .text:00000000000002a0 .LVL38
     /tmp/ccGdnASE.s:439    .text:00000000000002ac .LVL40
     /tmp/ccGdnASE.s:434    .text:00000000000002a4 .LVL39
     /tmp/ccGdnASE.s:442    .text:00000000000002b0 .LVL41
     /tmp/ccGdnASE.s:487    .text:00000000000002d0 .LVL46
     /tmp/ccGdnASE.s:520    .text:000000000000031c .LVL47
     /tmp/ccGdnASE.s:557    .text:0000000000000388 .LVL50
     /tmp/ccGdnASE.s:560    .text:000000000000038c .LVL51
     /tmp/ccGdnASE.s:258    .text:000000000000011c .LVL25
     /tmp/ccGdnASE.s:277    .text:0000000000000148 .LVL26
     /tmp/ccGdnASE.s:324    .text:00000000000001c8 .LVL31
     /tmp/ccGdnASE.s:287    .text:0000000000000168 .LVL27
GAS LISTING /tmp/ccGdnASE.s 			page 63


     /tmp/ccGdnASE.s:289    .text:000000000000016c .LVL28
     /tmp/ccGdnASE.s:291    .text:0000000000000170 .LVL29
     /tmp/ccGdnASE.s:1584   .debug_info:0000000000000000 .Ldebug_info0
     /tmp/ccGdnASE.s:5      .text:0000000000000000 .Ltext0
     /tmp/ccGdnASE.s:1577   .text:0000000000000790 .Letext0
     /tmp/ccGdnASE.s:461    .gcc_except_table:0000000000000000 .LLSDA51
     /tmp/ccGdnASE.s:708    .gcc_except_table:000000000000002b .LLSDA59

UNDEFINED SYMBOLS
_ZN5Riscv10popSppSpieEv
_Z11thread_exitv
_ZN5Riscv4pushEv
_Z6memcpyPKvS0_i
_ZN5Riscv3popEv
_Z9mem_allocm
_Znwm
_ZN9Scheduler3putEP3TCB
_ZdlPv
_Unwind_Resume
__gxx_personality_v0
_ZN9Allocator10_mem_allocEm
_Z5printi
_Z4putcc
_Z8mem_freePv
handle_bleya
_ZN9Scheduler13high_priorityE
_ZN9Scheduler12mid_priorityE
_ZN9Scheduler12low_priorityE
_ZN9Allocator9_mem_freeEPKv
_ZN9Scheduler3getEv
_ZN9Scheduler4peekEv
_ZN3TCB14context_switchEP7ContextS1_
_ZN6Cradle6insertEP3TCBm
