GAS LISTING /tmp/ccelktR0.s 			page 1


   1              		.file	"c_thread.cpp"
   2              		.option pic
   3              		.option norelax
   4              		.text
   5              	.Ltext0:
   6              		.align	2
   7              		.globl	_ZN3TCB12thread_startEv
   9              	_ZN3TCB12thread_startEv:
  10              	.LFB61:
  11              		.file 1 "src/c_thread.cpp"
   1:src/c_thread.cpp **** #include "../h/scheduler.hpp"
   2:src/c_thread.cpp **** #include "../h/riscv.hpp"
   3:src/c_thread.cpp **** #include "../h/c_console.hpp"
   4:src/c_thread.cpp **** #include "../h/c_thread.hpp"
   5:src/c_thread.cpp **** #include "../h/c_sleep.hpp"
   6:src/c_thread.cpp **** 
   7:src/c_thread.cpp **** int TCB::ID = 0;
   8:src/c_thread.cpp **** TCB *TCB::running = nullptr;
   9:src/c_thread.cpp **** time_t TCB::timer_counter = 0;
  10:src/c_thread.cpp **** typedef TCB *thread_t;
  11:src/c_thread.cpp **** extern thread_t handle_bleya;
  12:src/c_thread.cpp **** 
  13:src/c_thread.cpp **** TCB::TCB(run_t start_routine, void *arg, void *stack, Context context) :
  14:src/c_thread.cpp ****         t_id(TCB::ID++), _run(start_routine), arg(arg),
  15:src/c_thread.cpp ****         stack(stack), parent(TCB::running),
  16:src/c_thread.cpp ****         context(context), status(RUNNABLE),
  17:src/c_thread.cpp ****         time_slice(DEFAULT_TIME_SLICE), preempted(false), joiner() {
  18:src/c_thread.cpp ****     this->joiner.init();
  19:src/c_thread.cpp ****     this->parent = TCB::running;
  20:src/c_thread.cpp **** }
  21:src/c_thread.cpp **** 
  22:src/c_thread.cpp **** TCB::TCB(TCB &parent) :
  23:src/c_thread.cpp ****         t_id(TCB::ID++), _run(parent._run), arg(parent.arg),
  24:src/c_thread.cpp ****         stack(Allocator::_mem_alloc(DEFAULT_STACK_SIZE)),
  25:src/c_thread.cpp ****         parent(&parent), context(parent.context), status(RUNNABLE), time_slice(DEFAULT_TIME_SLICE),
  26:src/c_thread.cpp ****         preempted(false), joiner() {
  27:src/c_thread.cpp ****     this->joiner.init();
  28:src/c_thread.cpp **** }
  29:src/c_thread.cpp **** 
  30:src/c_thread.cpp **** int TCB::_thread_create(thread_t *handle, void(*start_routine)(void *), void *arg, void *stack) {
  31:src/c_thread.cpp ****     *handle = new TCB(start_routine, arg, stack, {(uint64) thread_start, (uint64) stack + DEFAULT_S
  32:src/c_thread.cpp ****     if (start_routine) Scheduler::put(*handle);
  33:src/c_thread.cpp ****     else TCB::running = *handle;
  34:src/c_thread.cpp ****     return (*handle)->t_id;
  35:src/c_thread.cpp **** }
  36:src/c_thread.cpp **** 
  37:src/c_thread.cpp **** void TCB::yield() {
  38:src/c_thread.cpp ****     thread_t old = TCB::running;
  39:src/c_thread.cpp ****     if (old->is_runnable() && old != handle_bleya) {
  40:src/c_thread.cpp ****         Scheduler::put(old);
  41:src/c_thread.cpp ****     } else if (old->is_finished()) {
  42:src/c_thread.cpp ****         Allocator::_mem_free(old->stack);
  43:src/c_thread.cpp ****     }
  44:src/c_thread.cpp ****     if (Scheduler::is_empty()) {
  45:src/c_thread.cpp ****         TCB::running = handle_bleya;
  46:src/c_thread.cpp ****     } else {
  47:src/c_thread.cpp ****         while (Scheduler::peek()->is_finished()) {
GAS LISTING /tmp/ccelktR0.s 			page 2


  48:src/c_thread.cpp ****             Allocator::_mem_free(TCB::destroy_thread(Scheduler::get())->stack);
  49:src/c_thread.cpp ****         }
  50:src/c_thread.cpp ****         TCB::running = Scheduler::get();
  51:src/c_thread.cpp ****     }
  52:src/c_thread.cpp ****     TCB::context_switch(&old->context, &TCB::running->context);
  53:src/c_thread.cpp **** }
  54:src/c_thread.cpp **** 
  55:src/c_thread.cpp **** void TCB::_thread_dispatch() {
  56:src/c_thread.cpp ****     Riscv::push();
  57:src/c_thread.cpp ****     TCB::yield();
  58:src/c_thread.cpp ****     Riscv::pop();
  59:src/c_thread.cpp **** }
  60:src/c_thread.cpp **** 
  61:src/c_thread.cpp **** TCB *TCB::destroy_thread(TCB *thread) {
  62:src/c_thread.cpp ****     while (!thread->joiner.is_empty()) {
  63:src/c_thread.cpp ****         TCB *next = thread->joiner.get();
  64:src/c_thread.cpp ****         if (next->is_joined()) {
  65:src/c_thread.cpp ****             next->run();
  66:src/c_thread.cpp ****             Scheduler::put(next);
  67:src/c_thread.cpp ****         }
  68:src/c_thread.cpp ****     }
  69:src/c_thread.cpp ****     thread->joiner.destroy();
  70:src/c_thread.cpp ****     return thread;
  71:src/c_thread.cpp **** }
  72:src/c_thread.cpp **** 
  73:src/c_thread.cpp **** void TCB::_thread_exit() {
  74:src/c_thread.cpp ****     TCB::running->finish();
  75:src/c_thread.cpp ****     TCB::destroy_thread(TCB::running);
  76:src/c_thread.cpp ****     TCB::_thread_dispatch();
  77:src/c_thread.cpp **** }
  78:src/c_thread.cpp **** 
  79:src/c_thread.cpp **** void TCB::_thread_join(thread_t handle) {
  80:src/c_thread.cpp ****     if (handle->is_finished())
  81:src/c_thread.cpp ****         return;
  82:src/c_thread.cpp ****     TCB::running->enjoin();
  83:src/c_thread.cpp ****     handle->joiner.put(TCB::running);
  84:src/c_thread.cpp ****     TCB::_thread_dispatch();
  85:src/c_thread.cpp **** }
  86:src/c_thread.cpp **** 
  87:src/c_thread.cpp **** void TCB::_thread_join_time(thread_t handle, time_t time) {
  88:src/c_thread.cpp ****     if (handle->is_finished())
  89:src/c_thread.cpp ****         return;
  90:src/c_thread.cpp ****     TCB::running->enjoin();
  91:src/c_thread.cpp ****     handle->joiner.put(TCB::running);
  92:src/c_thread.cpp ****     Cradle::insert(TCB::running, time);
  93:src/c_thread.cpp ****     TCB::_thread_dispatch();
  94:src/c_thread.cpp **** }
  95:src/c_thread.cpp **** 
  96:src/c_thread.cpp **** void TCB::duplicate(TCB *parent, TCB *child) {
  97:src/c_thread.cpp ****     Riscv::push();
  98:src/c_thread.cpp ****     memcpy(parent->stack, child->stack, DEFAULT_STACK_SIZE);
  99:src/c_thread.cpp ****     child->context = parent->context;
 100:src/c_thread.cpp ****     Riscv::pop();
 101:src/c_thread.cpp **** }
 102:src/c_thread.cpp **** 
 103:src/c_thread.cpp **** int TCB::_fork() {
 104:src/c_thread.cpp ****     int id_parent = TCB::running->t_id;
GAS LISTING /tmp/ccelktR0.s 			page 3


 105:src/c_thread.cpp ****     TCB *handle = new TCB(*TCB::running);
 106:src/c_thread.cpp ****     TCB::duplicate(TCB::running, handle);
 107:src/c_thread.cpp ****     print(TCB::running->t_id);
 108:src/c_thread.cpp ****     putc(' ');
 109:src/c_thread.cpp ****     print(id_parent);
 110:src/c_thread.cpp ****     putc(' ');
 111:src/c_thread.cpp ****     print(handle->t_id);
 112:src/c_thread.cpp ****     putc('\n');
 113:src/c_thread.cpp ****     if (TCB::running->t_id == id_parent) {
 114:src/c_thread.cpp ****         Scheduler::put(handle);
 115:src/c_thread.cpp ****         return handle->t_id;
 116:src/c_thread.cpp ****     } else {
 117:src/c_thread.cpp ****         print(TCB::running->t_id);
 118:src/c_thread.cpp ****         return 0;
 119:src/c_thread.cpp ****     }
 120:src/c_thread.cpp **** }
 121:src/c_thread.cpp **** 
 122:src/c_thread.cpp **** int TCB::_kill(TCB *thread) {
 123:src/c_thread.cpp ****     if (!thread) return -1;
 124:src/c_thread.cpp ****     if (thread->is_finished()) return -2;
 125:src/c_thread.cpp ****     if (TCB::running != thread->parent) return -4;
 126:src/c_thread.cpp ****     thread->finish();
 127:src/c_thread.cpp ****     return 0;
 128:src/c_thread.cpp **** }
 129:src/c_thread.cpp **** 
 130:src/c_thread.cpp **** void TCB::thread_start() {
  12              		.loc 1 130 26
  13              		.cfi_startproc
  14 0000 130101FF 		addi	sp,sp,-16
  15              		.cfi_def_cfa_offset 16
  16 0004 23341100 		sd	ra,8(sp)
  17 0008 23308100 		sd	s0,0(sp)
  18              		.cfi_offset 1, -8
  19              		.cfi_offset 8, -16
  20 000c 13040101 		addi	s0,sp,16
  21              		.cfi_def_cfa 8, 0
 131:src/c_thread.cpp ****     Riscv::popSppSpie();
  22              		.loc 1 131 5
  23              		.loc 1 131 22 is_stmt 0
  24 0010 97000000 		call	_ZN5Riscv10popSppSpieEv@plt
  24      E7800000 
  25              	.LVL0:
 132:src/c_thread.cpp ****     TCB::running->_run(TCB::running->arg);
  26              		.loc 1 132 5 is_stmt 1
  27              		.loc 1 132 19 is_stmt 0
  28 0018 97070000 		ld	a5,.LANCHOR0
  28      83B70700 
  29 0020 03B78700 		ld	a4,8(a5)
  30              		.loc 1 132 23
  31 0024 03B50701 		ld	a0,16(a5)
  32 0028 E7000700 		jalr	a4
  33              	.LVL1:
 133:src/c_thread.cpp ****     thread_exit();
  34              		.loc 1 133 5 is_stmt 1
  35              		.loc 1 133 16 is_stmt 0
  36 002c 97000000 		call	_Z11thread_exitv@plt
  36      E7800000 
GAS LISTING /tmp/ccelktR0.s 			page 4


  37              	.LVL2:
 134:src/c_thread.cpp **** }...
  38              		.loc 1 134 1
  39 0034 83308100 		ld	ra,8(sp)
  40              		.cfi_restore 1
  41 0038 03340100 		ld	s0,0(sp)
  42              		.cfi_restore 8
  43              		.cfi_def_cfa 2, 16
  44 003c 13010101 		addi	sp,sp,16
  45              		.cfi_def_cfa_offset 0
  46 0040 67800000 		jr	ra
  47              		.cfi_endproc
  48              	.LFE61:
  50              		.align	2
  51              		.globl	_ZN3TCB9duplicateEPS_S0_
  53              	_ZN3TCB9duplicateEPS_S0_:
  54              	.LFB58:
  96:src/c_thread.cpp **** void TCB::duplicate(TCB *parent, TCB *child) {
  55              		.loc 1 96 46 is_stmt 1
  56              		.cfi_startproc
  57              	.LVL3:
  58 0044 130101FE 		addi	sp,sp,-32
  59              		.cfi_def_cfa_offset 32
  60 0048 233C1100 		sd	ra,24(sp)
  61 004c 23388100 		sd	s0,16(sp)
  62 0050 23349100 		sd	s1,8(sp)
  63 0054 23302101 		sd	s2,0(sp)
  64              		.cfi_offset 1, -8
  65              		.cfi_offset 8, -16
  66              		.cfi_offset 9, -24
  67              		.cfi_offset 18, -32
  68 0058 13040102 		addi	s0,sp,32
  69              		.cfi_def_cfa 8, 0
  70 005c 13090500 		mv	s2,a0
  71 0060 93840500 		mv	s1,a1
  97:src/c_thread.cpp ****     Riscv::push();
  72              		.loc 1 97 5
  97:src/c_thread.cpp ****     Riscv::push();
  73              		.loc 1 97 16 is_stmt 0
  74 0064 97000000 		call	_ZN5Riscv4pushEv@plt
  74      E7800000 
  75              	.LVL4:
  98:src/c_thread.cpp ****     memcpy(parent->stack, child->stack, DEFAULT_STACK_SIZE);
  76              		.loc 1 98 5 is_stmt 1
  98:src/c_thread.cpp ****     memcpy(parent->stack, child->stack, DEFAULT_STACK_SIZE);
  77              		.loc 1 98 11 is_stmt 0
  78 006c 37460000 		li	a2,16384
  79 0070 83B58401 		ld	a1,24(s1)
  80 0074 03358901 		ld	a0,24(s2)
  81 0078 97000000 		call	_Z6memcpyPKvS0_i@plt
  81      E7800000 
  82              	.LVL5:
  99:src/c_thread.cpp ****     child->context = parent->context;
  83              		.loc 1 99 5 is_stmt 1
  99:src/c_thread.cpp ****     child->context = parent->context;
  84              		.loc 1 99 20 is_stmt 0
  85 0080 03368902 		ld	a2,40(s2)
GAS LISTING /tmp/ccelktR0.s 			page 5


  86 0084 83360903 		ld	a3,48(s2)
  87 0088 03378903 		ld	a4,56(s2)
  88 008c 83370904 		ld	a5,64(s2)
  89 0090 23B4C402 		sd	a2,40(s1)
  90 0094 23B8D402 		sd	a3,48(s1)
  91 0098 23BCE402 		sd	a4,56(s1)
  92 009c 23B0F404 		sd	a5,64(s1)
 100:src/c_thread.cpp ****     Riscv::pop();
  93              		.loc 1 100 5 is_stmt 1
 100:src/c_thread.cpp ****     Riscv::pop();
  94              		.loc 1 100 15 is_stmt 0
  95 00a0 97000000 		call	_ZN5Riscv3popEv@plt
  95      E7800000 
  96              	.LVL6:
 101:src/c_thread.cpp **** }
  97              		.loc 1 101 1
  98 00a8 83308101 		ld	ra,24(sp)
  99              		.cfi_restore 1
 100 00ac 03340101 		ld	s0,16(sp)
 101              		.cfi_restore 8
 102              		.cfi_def_cfa 2, 32
 103 00b0 83348100 		ld	s1,8(sp)
 104              		.cfi_restore 9
 105              	.LVL7:
 106 00b4 03390100 		ld	s2,0(sp)
 107              		.cfi_restore 18
 108              	.LVL8:
 109 00b8 13010102 		addi	sp,sp,32
 110              		.cfi_def_cfa_offset 0
 111 00bc 67800000 		jr	ra
 112              		.cfi_endproc
 113              	.LFE58:
 115              		.align	2
 116              		.globl	_ZN3TCB5_killEPS_
 118              	_ZN3TCB5_killEPS_:
 119              	.LFB60:
 122:src/c_thread.cpp **** int TCB::_kill(TCB *thread) {
 120              		.loc 1 122 29 is_stmt 1
 121              		.cfi_startproc
 122              	.LVL9:
 123 00c0 130101FF 		addi	sp,sp,-16
 124              		.cfi_def_cfa_offset 16
 125 00c4 23348100 		sd	s0,8(sp)
 126              		.cfi_offset 8, -8
 127 00c8 13040101 		addi	s0,sp,16
 128              		.cfi_def_cfa 8, 0
 123:src/c_thread.cpp ****     if (!thread) return -1;
 129              		.loc 1 123 5
 130 00cc 630C0502 		beqz	a0,.L7
 124:src/c_thread.cpp ****     if (thread->is_finished()) return -2;
 131              		.loc 1 124 5
 132              	.LVL10:
 133              	.LBB43:
 134              	.LBB44:
 135              		.file 2 "src/../h/c_thread.hpp"
   1:src/../h/c_thread.hpp **** #ifndef PROJECT_BASE_C_THREAD_HPP
   2:src/../h/c_thread.hpp **** #define PROJECT_BASE_C_THREAD_HPP
GAS LISTING /tmp/ccelktR0.s 			page 6


   3:src/../h/c_thread.hpp **** 
   4:src/../h/c_thread.hpp **** #include "syscall_c.hpp"
   5:src/../h/c_thread.hpp **** #include "../lib/hw.h"
   6:src/../h/c_thread.hpp **** #include "circular_buffer.hpp"
   7:src/../h/c_thread.hpp **** 
   8:src/../h/c_thread.hpp **** using run_t = void (*)(void *);
   9:src/../h/c_thread.hpp **** 
  10:src/../h/c_thread.hpp **** struct Context {
  11:src/../h/c_thread.hpp ****     uint64 ra;
  12:src/../h/c_thread.hpp ****     uint64 sp;
  13:src/../h/c_thread.hpp ****     uint64 sstatus;
  14:src/../h/c_thread.hpp ****     uint64 sepc;
  15:src/../h/c_thread.hpp **** };
  16:src/../h/c_thread.hpp **** 
  17:src/../h/c_thread.hpp **** enum Status {
  18:src/../h/c_thread.hpp ****     RUNNABLE, BLOCKED, SLEEPING, JOINED, FINISHED
  19:src/../h/c_thread.hpp **** };
  20:src/../h/c_thread.hpp **** 
  21:src/../h/c_thread.hpp **** class TCB final {
  22:src/../h/c_thread.hpp **** public:
  23:src/../h/c_thread.hpp ****     static int _thread_create(thread_t *, void(*)(void *), void *, void *);
  24:src/../h/c_thread.hpp **** 
  25:src/../h/c_thread.hpp ****     static void _thread_exit();
  26:src/../h/c_thread.hpp **** 
  27:src/../h/c_thread.hpp ****     static void _thread_dispatch();
  28:src/../h/c_thread.hpp **** 
  29:src/../h/c_thread.hpp ****     static void _thread_join(thread_t);
  30:src/../h/c_thread.hpp **** 
  31:src/../h/c_thread.hpp ****     static void _thread_join_time(thread_t, time_t);
  32:src/../h/c_thread.hpp **** 
  33:src/../h/c_thread.hpp ****     static int _fork();
  34:src/../h/c_thread.hpp **** 
  35:src/../h/c_thread.hpp ****     static int _kill(TCB *);
  36:src/../h/c_thread.hpp **** 
  37:src/../h/c_thread.hpp ****     static void thread_start();
  38:src/../h/c_thread.hpp **** 
  39:src/../h/c_thread.hpp ****     static void context_switch(Context *, Context *);
  40:src/../h/c_thread.hpp **** 
  41:src/../h/c_thread.hpp ****     static void yield();
  42:src/../h/c_thread.hpp **** 
  43:src/../h/c_thread.hpp ****     static TCB *destroy_thread(TCB *);
  44:src/../h/c_thread.hpp **** 
  45:src/../h/c_thread.hpp ****     static void duplicate(TCB *, TCB *);
  46:src/../h/c_thread.hpp **** 
  47:src/../h/c_thread.hpp ****     TCB(run_t, void *, void *, Context);
  48:src/../h/c_thread.hpp **** 
  49:src/../h/c_thread.hpp ****     TCB(TCB &);
  50:src/../h/c_thread.hpp **** 
  51:src/../h/c_thread.hpp ****     bool is_runnable() const { return this->status == RUNNABLE; }
  52:src/../h/c_thread.hpp **** 
  53:src/../h/c_thread.hpp ****     bool is_blocked() const { return this->status == BLOCKED; }
  54:src/../h/c_thread.hpp **** 
  55:src/../h/c_thread.hpp ****     bool is_sleeping() const { return this->status == SLEEPING; }
  56:src/../h/c_thread.hpp **** 
  57:src/../h/c_thread.hpp ****     bool is_joined() const { return this->status == JOINED; }
  58:src/../h/c_thread.hpp **** 
  59:src/../h/c_thread.hpp ****     bool is_finished() const { return this->status == FINISHED; }
GAS LISTING /tmp/ccelktR0.s 			page 7


 136              		.loc 2 59 32
 137              		.loc 2 59 45 is_stmt 0
 138 00d0 03278504 		lw	a4,72(a0)
 139              	.LVL11:
 140              	.LBE44:
 141              	.LBE43:
 124:src/c_thread.cpp ****     if (thread->is_finished()) return -2;
 142              		.loc 1 124 5
 143 00d4 93074000 		li	a5,4
 144 00d8 630AF702 		beq	a4,a5,.L8
 125:src/c_thread.cpp ****     if (TCB::running != thread->parent) return -4;
 145              		.loc 1 125 5 is_stmt 1
 125:src/c_thread.cpp ****     if (TCB::running != thread->parent) return -4;
 146              		.loc 1 125 33 is_stmt 0
 147 00dc 03370502 		ld	a4,32(a0)
 125:src/c_thread.cpp ****     if (TCB::running != thread->parent) return -4;
 148              		.loc 1 125 14
 149 00e0 97070000 		ld	a5,.LANCHOR0
 149      83B70700 
 125:src/c_thread.cpp ****     if (TCB::running != thread->parent) return -4;
 150              		.loc 1 125 5
 151 00e8 6316F702 		bne	a4,a5,.L9
 126:src/c_thread.cpp ****     thread->finish();
 152              		.loc 1 126 5 is_stmt 1
 153              	.LVL12:
 154              	.LBB45:
 155              	.LBB46:
  60:src/../h/c_thread.hpp **** 
  61:src/../h/c_thread.hpp ****     void run() { this->status = RUNNABLE; }
  62:src/../h/c_thread.hpp **** 
  63:src/../h/c_thread.hpp ****     void block() { this->status = BLOCKED; }
  64:src/../h/c_thread.hpp **** 
  65:src/../h/c_thread.hpp ****     void sleep() { this->status = SLEEPING; }
  66:src/../h/c_thread.hpp **** 
  67:src/../h/c_thread.hpp ****     void enjoin() { this->status = JOINED; }
  68:src/../h/c_thread.hpp **** 
  69:src/../h/c_thread.hpp ****     void finish() { this->status = FINISHED; }
 156              		.loc 2 69 21
 157              		.loc 2 69 34 is_stmt 0
 158 00ec 93074000 		li	a5,4
 159 00f0 2324F504 		sw	a5,72(a0)
 160              	.LVL13:
 161              	.LBE46:
 162              	.LBE45:
 127:src/c_thread.cpp ****     return 0;
 163              		.loc 1 127 5 is_stmt 1
 127:src/c_thread.cpp ****     return 0;
 164              		.loc 1 127 12 is_stmt 0
 165 00f4 13050000 		li	a0,0
 166              	.LVL14:
 167              	.L6:
 128:src/c_thread.cpp **** }
 168              		.loc 1 128 1
 169 00f8 03348100 		ld	s0,8(sp)
 170              		.cfi_remember_state
 171              		.cfi_restore 8
 172              		.cfi_def_cfa 2, 16
GAS LISTING /tmp/ccelktR0.s 			page 8


 173 00fc 13010101 		addi	sp,sp,16
 174              		.cfi_def_cfa_offset 0
 175 0100 67800000 		jr	ra
 176              	.LVL15:
 177              	.L7:
 178              		.cfi_restore_state
 123:src/c_thread.cpp ****     if (!thread) return -1;
 179              		.loc 1 123 26
 180 0104 1305F0FF 		li	a0,-1
 181              	.LVL16:
 182 0108 6FF01FFF 		j	.L6
 183              	.LVL17:
 184              	.L8:
 124:src/c_thread.cpp ****     if (thread->is_finished()) return -2;
 185              		.loc 1 124 40
 186 010c 1305E0FF 		li	a0,-2
 187              	.LVL18:
 188 0110 6FF09FFE 		j	.L6
 189              	.LVL19:
 190              	.L9:
 125:src/c_thread.cpp ****     if (TCB::running != thread->parent) return -4;
 191              		.loc 1 125 49
 192 0114 1305C0FF 		li	a0,-4
 193              	.LVL20:
 194 0118 6FF01FFE 		j	.L6
 195              		.cfi_endproc
 196              	.LFE60:
 198              		.section	.text._ZN3stm14CircularBufferIP3TCBE4initEv,"axG",@progbits,_ZN3stm14CircularBufferIP3TCB
 199              		.align	2
 200              		.weak	_ZN3stm14CircularBufferIP3TCBE4initEv
 202              	_ZN3stm14CircularBufferIP3TCBE4initEv:
 203              	.LFB62:
 204              		.file 3 "src/../h/circular_buffer.hpp"
   1:src/../h/circular_buffer.hpp **** #ifndef PROJECT_BASE_CIRCULAR_BUFFER_HPP
   2:src/../h/circular_buffer.hpp **** #define PROJECT_BASE_CIRCULAR_BUFFER_HPP
   3:src/../h/circular_buffer.hpp **** 
   4:src/../h/circular_buffer.hpp **** #include "syscall_c.hpp"
   5:src/../h/circular_buffer.hpp **** #include "c_memory.hpp"
   6:src/../h/circular_buffer.hpp **** 
   7:src/../h/circular_buffer.hpp **** namespace stm {
   8:src/../h/circular_buffer.hpp ****     template<typename T>
   9:src/../h/circular_buffer.hpp ****     class CircularBuffer {
  10:src/../h/circular_buffer.hpp ****     public:
  11:src/../h/circular_buffer.hpp **** 
  12:src/../h/circular_buffer.hpp ****         void init();
  13:src/../h/circular_buffer.hpp **** 
  14:src/../h/circular_buffer.hpp ****         void put(T);
  15:src/../h/circular_buffer.hpp **** 
  16:src/../h/circular_buffer.hpp ****         T get();
  17:src/../h/circular_buffer.hpp **** 
  18:src/../h/circular_buffer.hpp ****         T &peek();
  19:src/../h/circular_buffer.hpp **** 
  20:src/../h/circular_buffer.hpp ****         inline bool is_empty() const { return this->size == 0; }
  21:src/../h/circular_buffer.hpp **** 
  22:src/../h/circular_buffer.hpp ****         void destroy();
  23:src/../h/circular_buffer.hpp **** 
  24:src/../h/circular_buffer.hpp ****     private:
GAS LISTING /tmp/ccelktR0.s 			page 9


  25:src/../h/circular_buffer.hpp **** 
  26:src/../h/circular_buffer.hpp ****         void extend();
  27:src/../h/circular_buffer.hpp **** 
  28:src/../h/circular_buffer.hpp ****         static int constexpr CAPACITY = 16;
  29:src/../h/circular_buffer.hpp ****         T *queue;
  30:src/../h/circular_buffer.hpp ****         int head;
  31:src/../h/circular_buffer.hpp ****         int tail;
  32:src/../h/circular_buffer.hpp ****         int size;
  33:src/../h/circular_buffer.hpp ****         int capacity;
  34:src/../h/circular_buffer.hpp ****     };
  35:src/../h/circular_buffer.hpp **** }
  36:src/../h/circular_buffer.hpp **** 
  37:src/../h/circular_buffer.hpp **** template<typename T>
  38:src/../h/circular_buffer.hpp **** void stm::CircularBuffer<T>::init() {
 205              		.loc 3 38 6 is_stmt 1
 206              		.cfi_startproc
 207              	.LVL21:
 208 0000 130101FE 		addi	sp,sp,-32
 209              		.cfi_def_cfa_offset 32
 210 0004 233C1100 		sd	ra,24(sp)
 211 0008 23388100 		sd	s0,16(sp)
 212 000c 23349100 		sd	s1,8(sp)
 213              		.cfi_offset 1, -8
 214              		.cfi_offset 8, -16
 215              		.cfi_offset 9, -24
 216 0010 13040102 		addi	s0,sp,32
 217              		.cfi_def_cfa 8, 0
 218 0014 93040500 		mv	s1,a0
  39:src/../h/circular_buffer.hpp ****     this->head = 0;
 219              		.loc 3 39 5 is_stmt 0
 220 0018 23240500 		sw	zero,8(a0)
  40:src/../h/circular_buffer.hpp ****     this->tail = 0;
 221              		.loc 3 40 5
 222 001c 23260500 		sw	zero,12(a0)
  41:src/../h/circular_buffer.hpp ****     this->size = 0;
 223              		.loc 3 41 5
 224 0020 23280500 		sw	zero,16(a0)
  42:src/../h/circular_buffer.hpp ****     this->capacity = CAPACITY;
 225              		.loc 3 42 5
 226 0024 93070001 		li	a5,16
 227 0028 232AF500 		sw	a5,20(a0)
  43:src/../h/circular_buffer.hpp ****     this->queue = (T *) mem_alloc(sizeof(T) * CAPACITY);
 228              		.loc 3 43 34
 229 002c 13050008 		li	a0,128
 230              	.LVL22:
 231 0030 97000000 		call	_Z9mem_allocm@plt
 231      E7800000 
 232              	.LVL23:
 233              		.loc 3 43 5
 234 0038 23B0A400 		sd	a0,0(s1)
  44:src/../h/circular_buffer.hpp **** }
 235              		.loc 3 44 1
 236 003c 83308101 		ld	ra,24(sp)
 237              		.cfi_restore 1
 238 0040 03340101 		ld	s0,16(sp)
 239              		.cfi_restore 8
 240              		.cfi_def_cfa 2, 32
GAS LISTING /tmp/ccelktR0.s 			page 10


 241 0044 83348100 		ld	s1,8(sp)
 242              		.cfi_restore 9
 243              	.LVL24:
 244 0048 13010102 		addi	sp,sp,32
 245              		.cfi_def_cfa_offset 0
 246 004c 67800000 		jr	ra
 247              		.cfi_endproc
 248              	.LFE62:
 250              		.text
 251              		.align	2
 252              		.globl	_ZN3TCBC2EPFvPvES0_S0_7Context
 254              	_ZN3TCBC2EPFvPvES0_S0_7Context:
 255              	.LFB46:
  13:src/c_thread.cpp **** TCB::TCB(run_t start_routine, void *arg, void *stack, Context context) :
 256              		.loc 1 13 1 is_stmt 1
 257              		.cfi_startproc
 258              	.LVL25:
 259 011c 130101FE 		addi	sp,sp,-32
 260              		.cfi_def_cfa_offset 32
 261 0120 233C1100 		sd	ra,24(sp)
 262 0124 23388100 		sd	s0,16(sp)
 263 0128 23349100 		sd	s1,8(sp)
 264 012c 23302101 		sd	s2,0(sp)
 265              		.cfi_offset 1, -8
 266              		.cfi_offset 8, -16
 267              		.cfi_offset 9, -24
 268              		.cfi_offset 18, -32
 269 0130 13040102 		addi	s0,sp,32
 270              		.cfi_def_cfa 8, 0
 271 0134 93040500 		mv	s1,a0
 272              	.LBB47:
  14:src/c_thread.cpp ****         t_id(TCB::ID++), _run(start_routine), arg(arg),
 273              		.loc 1 14 21 is_stmt 0
 274 0138 17090000 		lla	s2,.LANCHOR0
 274      13090900 
 275 0140 83278900 		lw	a5,8(s2)
 276 0144 1B851700 		addiw	a0,a5,1
 277              	.LVL26:
 278 0148 2324A900 		sw	a0,8(s2)
  17:src/c_thread.cpp ****         time_slice(DEFAULT_TIME_SLICE), preempted(false), joiner() {
 279              		.loc 1 17 66
 280 014c 23A0F400 		sw	a5,0(s1)
 281 0150 23B4B400 		sd	a1,8(s1)
 282 0154 23B8C400 		sd	a2,16(s1)
 283 0158 23BCD400 		sd	a3,24(s1)
 284 015c 83370900 		ld	a5,0(s2)
 285 0160 23B0F402 		sd	a5,32(s1)
 286 0164 83350700 		ld	a1,0(a4)
 287              	.LVL27:
 288 0168 03368700 		ld	a2,8(a4)
 289              	.LVL28:
 290 016c 83360701 		ld	a3,16(a4)
 291              	.LVL29:
 292 0170 83378701 		ld	a5,24(a4)
 293 0174 23B4B402 		sd	a1,40(s1)
 294 0178 23B8C402 		sd	a2,48(s1)
 295 017c 23BCD402 		sd	a3,56(s1)
GAS LISTING /tmp/ccelktR0.s 			page 11


 296 0180 23B0F404 		sd	a5,64(s1)
 297 0184 23A40404 		sw	zero,72(s1)
 298 0188 93071000 		li	a5,1
 299 018c 23B8F404 		sd	a5,80(s1)
 300 0190 238C0404 		sb	zero,88(s1)
 301 0194 23B00406 		sd	zero,96(s1)
 302 0198 23A40406 		sw	zero,104(s1)
 303 019c 23A60406 		sw	zero,108(s1)
 304 01a0 23A80406 		sw	zero,112(s1)
 305 01a4 23AA0406 		sw	zero,116(s1)
  18:src/c_thread.cpp ****     this->joiner.init();
 306              		.loc 1 18 5 is_stmt 1
  18:src/c_thread.cpp ****     this->joiner.init();
 307              		.loc 1 18 22 is_stmt 0
 308 01a8 13850406 		addi	a0,s1,96
 309 01ac 97000000 		call	_ZN3stm14CircularBufferIP3TCBE4initEv
 309      E7800000 
 310              	.LVL30:
  19:src/c_thread.cpp ****     this->parent = TCB::running;
 311              		.loc 1 19 5 is_stmt 1
  19:src/c_thread.cpp ****     this->parent = TCB::running;
 312              		.loc 1 19 18 is_stmt 0
 313 01b4 83370900 		ld	a5,0(s2)
 314 01b8 23B0F402 		sd	a5,32(s1)
 315              	.LBE47:
  20:src/c_thread.cpp **** }
 316              		.loc 1 20 1
 317 01bc 83308101 		ld	ra,24(sp)
 318              		.cfi_restore 1
 319 01c0 03340101 		ld	s0,16(sp)
 320              		.cfi_restore 8
 321              		.cfi_def_cfa 2, 32
 322 01c4 83348100 		ld	s1,8(sp)
 323              		.cfi_restore 9
 324              	.LVL31:
 325 01c8 03390100 		ld	s2,0(sp)
 326              		.cfi_restore 18
 327 01cc 13010102 		addi	sp,sp,32
 328              		.cfi_def_cfa_offset 0
 329 01d0 67800000 		jr	ra
 330              		.cfi_endproc
 331              	.LFE46:
 333              		.globl	_ZN3TCBC1EPFvPvES0_S0_7Context
 334              		.set	_ZN3TCBC1EPFvPvES0_S0_7Context,_ZN3TCBC2EPFvPvES0_S0_7Context
 335              		.align	2
 336              		.globl	_ZN3TCB14_thread_createEPPS_PFvPvES2_S2_
 338              	_ZN3TCB14_thread_createEPPS_PFvPvES2_S2_:
 339              	.LFB51:
  30:src/c_thread.cpp **** int TCB::_thread_create(thread_t *handle, void(*start_routine)(void *), void *arg, void *stack) {
 340              		.loc 1 30 97 is_stmt 1
 341              		.cfi_startproc
 342              		.cfi_personality 0x9b,DW.ref.__gxx_personality_v0
 343              		.cfi_lsda 0x1b,.LLSDA51
 344              	.LVL32:
 345 01d4 130101F8 		addi	sp,sp,-128
 346              		.cfi_def_cfa_offset 128
 347 01d8 233C1106 		sd	ra,120(sp)
GAS LISTING /tmp/ccelktR0.s 			page 12


 348 01dc 23388106 		sd	s0,112(sp)
 349 01e0 23349106 		sd	s1,104(sp)
 350 01e4 23302107 		sd	s2,96(sp)
 351 01e8 233C3105 		sd	s3,88(sp)
 352 01ec 23384105 		sd	s4,80(sp)
 353 01f0 23345105 		sd	s5,72(sp)
 354              		.cfi_offset 1, -8
 355              		.cfi_offset 8, -16
 356              		.cfi_offset 9, -24
 357              		.cfi_offset 18, -32
 358              		.cfi_offset 19, -40
 359              		.cfi_offset 20, -48
 360              		.cfi_offset 21, -56
 361 01f4 13040108 		addi	s0,sp,128
 362              		.cfi_def_cfa 8, 0
 363 01f8 13090500 		mv	s2,a0
 364 01fc 93890500 		mv	s3,a1
 365 0200 930A0600 		mv	s5,a2
 366 0204 138A0600 		mv	s4,a3
  31:src/c_thread.cpp ****     *handle = new TCB(start_routine, arg, stack, {(uint64) thread_start, (uint64) stack + DEFAULT_S
 367              		.loc 1 31 5
  31:src/c_thread.cpp ****     *handle = new TCB(start_routine, arg, stack, {(uint64) thread_start, (uint64) stack + DEFAULT_S
 368              		.loc 1 31 13 is_stmt 0
 369 0208 233804FA 		sd	zero,-80(s0)
 370 020c 233C04FA 		sd	zero,-72(s0)
 371 0210 97070000 		lla	a5,_ZN3TCB12thread_startEv
 371      93870700 
 372 0218 2330F4FA 		sd	a5,-96(s0)
  31:src/c_thread.cpp ****     *handle = new TCB(start_routine, arg, stack, {(uint64) thread_start, (uint64) stack + DEFAULT_S
 373              		.loc 1 31 110
 374 021c B7470000 		li	a5,16384
 375 0220 9387F7FF 		addi	a5,a5,-1
 376 0224 B387F600 		add	a5,a3,a5
  31:src/c_thread.cpp ****     *handle = new TCB(start_routine, arg, stack, {(uint64) thread_start, (uint64) stack + DEFAULT_S
 377              		.loc 1 31 13
 378 0228 2334F4FA 		sd	a5,-88(s0)
  31:src/c_thread.cpp ****     *handle = new TCB(start_routine, arg, stack, {(uint64) thread_start, (uint64) stack + DEFAULT_S
 379              		.loc 1 31 114
 380 022c 13058007 		li	a0,120
 381              	.LVL33:
 382              	.LEHB0:
 383 0230 97000000 		call	_Znwm@plt
 383      E7800000 
 384              	.LVL34:
 385              	.LEHE0:
 386 0238 93040500 		mv	s1,a0
 387 023c 833704FA 		ld	a5,-96(s0)
 388 0240 2330F4F8 		sd	a5,-128(s0)
 389 0244 833784FA 		ld	a5,-88(s0)
 390 0248 2334F4F8 		sd	a5,-120(s0)
 391 024c 833704FB 		ld	a5,-80(s0)
 392 0250 2338F4F8 		sd	a5,-112(s0)
 393 0254 833784FB 		ld	a5,-72(s0)
 394 0258 233CF4F8 		sd	a5,-104(s0)
 395 025c 130704F8 		addi	a4,s0,-128
 396 0260 93060A00 		mv	a3,s4
 397 0264 13860A00 		mv	a2,s5
GAS LISTING /tmp/ccelktR0.s 			page 13


 398 0268 93850900 		mv	a1,s3
 399              	.LEHB1:
 400 026c 97000000 		call	_ZN3TCBC1EPFvPvES0_S0_7Context
 400      E7800000 
 401              	.LVL35:
 402              	.LEHE1:
  31:src/c_thread.cpp ****     *handle = new TCB(start_routine, arg, stack, {(uint64) thread_start, (uint64) stack + DEFAULT_S
 403              		.loc 1 31 13 discriminator 4
 404 0274 23309900 		sd	s1,0(s2)
  32:src/c_thread.cpp ****     if (start_routine) Scheduler::put(*handle);
 405              		.loc 1 32 5 is_stmt 1 discriminator 4
 406 0278 638E0902 		beqz	s3,.L16
  32:src/c_thread.cpp ****     if (start_routine) Scheduler::put(*handle);
 407              		.loc 1 32 24 discriminator 1
  32:src/c_thread.cpp ****     if (start_routine) Scheduler::put(*handle);
 408              		.loc 1 32 38 is_stmt 0 discriminator 1
 409 027c 13850400 		mv	a0,s1
 410              	.LEHB2:
 411 0280 97000000 		call	_ZN9Scheduler3putEP3TCB@plt
 411      E7800000 
 412              	.LVL36:
 413              	.L17:
  34:src/c_thread.cpp ****     return (*handle)->t_id;
 414              		.loc 1 34 5 is_stmt 1
  34:src/c_thread.cpp ****     return (*handle)->t_id;
 415              		.loc 1 34 13 is_stmt 0
 416 0288 83370900 		ld	a5,0(s2)
  34:src/c_thread.cpp ****     return (*handle)->t_id;
 417              		.loc 1 34 23
 418 028c 03A50700 		lw	a0,0(a5)
  35:src/c_thread.cpp **** }
 419              		.loc 1 35 1
 420 0290 83308107 		ld	ra,120(sp)
 421              		.cfi_remember_state
 422              		.cfi_restore 1
 423 0294 03340107 		ld	s0,112(sp)
 424              		.cfi_restore 8
 425              		.cfi_def_cfa 2, 128
 426 0298 83348106 		ld	s1,104(sp)
 427              		.cfi_restore 9
 428 029c 03390106 		ld	s2,96(sp)
 429              		.cfi_restore 18
 430              	.LVL37:
 431 02a0 83398105 		ld	s3,88(sp)
 432              		.cfi_restore 19
 433              	.LVL38:
 434 02a4 033A0105 		ld	s4,80(sp)
 435              		.cfi_restore 20
 436              	.LVL39:
 437 02a8 833A8104 		ld	s5,72(sp)
 438              		.cfi_restore 21
 439              	.LVL40:
 440 02ac 13010108 		addi	sp,sp,128
 441              		.cfi_def_cfa_offset 0
 442              	.LVL41:
 443 02b0 67800000 		jr	ra
 444              	.LVL42:
GAS LISTING /tmp/ccelktR0.s 			page 14


 445              	.L16:
 446              		.cfi_restore_state
  33:src/c_thread.cpp ****     else TCB::running = *handle;
 447              		.loc 1 33 10 is_stmt 1
  33:src/c_thread.cpp ****     else TCB::running = *handle;
 448              		.loc 1 33 23 is_stmt 0
 449 02b4 97070000 		sd	s1,.LANCHOR0,a5
 449      23B09700 
 450 02bc 6FF0DFFC 		j	.L17
 451              	.L19:
 452 02c0 13090500 		mv	s2,a0
 453              	.LVL43:
  31:src/c_thread.cpp ****     *handle = new TCB(start_routine, arg, stack, {(uint64) thread_start, (uint64) stack + DEFAULT_S
 454              		.loc 1 31 114
 455 02c4 13850400 		mv	a0,s1
 456 02c8 97000000 		call	_ZdlPv@plt
 456      E7800000 
 457              	.LVL44:
 458 02d0 13050900 		mv	a0,s2
 459 02d4 97000000 		call	_Unwind_Resume@plt
 459      E7800000 
 460              	.LVL45:
 461              	.LEHE2:
 462              		.cfi_endproc
 463              	.LFE51:
 464              		.globl	__gxx_personality_v0
 465              		.section	.gcc_except_table,"a",@progbits
 466              	.LLSDA51:
 467 0000 FF       		.byte	0xff
 468 0001 FF       		.byte	0xff
 469 0002 03       		.byte	0x3
 470 0003 27       		.byte	0x27
 471 0004 00000000 		.4byte	.LEHB0-.LFB51
 472 0008 00000000 		.4byte	.LEHE0-.LEHB0
 473 000c 00000000 		.4byte	0
 474 0010 00       		.byte	0
 475 0011 00000000 		.4byte	.LEHB1-.LFB51
 476 0015 00000000 		.4byte	.LEHE1-.LEHB1
 477 0019 00000000 		.4byte	.L19-.LFB51
 478 001d 00       		.byte	0
 479 001e 00000000 		.4byte	.LEHB2-.LFB51
 480 0022 00000000 		.4byte	.LEHE2-.LEHB2
 481 0026 00000000 		.4byte	0
 482 002a 00       		.byte	0
 483              		.text
 485              		.align	2
 486              		.globl	_ZN3TCBC2ERS_
 488              	_ZN3TCBC2ERS_:
 489              	.LFB49:
  22:src/c_thread.cpp **** TCB::TCB(TCB &parent) :
 490              		.loc 1 22 1 is_stmt 1
 491              		.cfi_startproc
 492              	.LVL46:
 493 02dc 130101FE 		addi	sp,sp,-32
 494              		.cfi_def_cfa_offset 32
 495 02e0 233C1100 		sd	ra,24(sp)
 496 02e4 23388100 		sd	s0,16(sp)
GAS LISTING /tmp/ccelktR0.s 			page 15


 497 02e8 23349100 		sd	s1,8(sp)
 498 02ec 23302101 		sd	s2,0(sp)
 499              		.cfi_offset 1, -8
 500              		.cfi_offset 8, -16
 501              		.cfi_offset 9, -24
 502              		.cfi_offset 18, -32
 503 02f0 13040102 		addi	s0,sp,32
 504              		.cfi_def_cfa 8, 0
 505 02f4 93040500 		mv	s1,a0
 506 02f8 13890500 		mv	s2,a1
 507              	.LBB48:
  23:src/c_thread.cpp ****         t_id(TCB::ID++), _run(parent._run), arg(parent.arg),
 508              		.loc 1 23 21 is_stmt 0
 509 02fc 17070000 		lla	a4,.LANCHOR0
 509      13070700 
 510 0304 83278700 		lw	a5,8(a4)
 511 0308 9B861700 		addiw	a3,a5,1
 512 030c 2324D700 		sw	a3,8(a4)
  26:src/c_thread.cpp ****         preempted(false), joiner() {
 513              		.loc 1 26 34
 514 0310 2320F500 		sw	a5,0(a0)
  23:src/c_thread.cpp ****         t_id(TCB::ID++), _run(parent._run), arg(parent.arg),
 515              		.loc 1 23 38
 516 0314 83B78500 		ld	a5,8(a1)
  26:src/c_thread.cpp ****         preempted(false), joiner() {
 517              		.loc 1 26 34
 518 0318 2334F500 		sd	a5,8(a0)
  23:src/c_thread.cpp ****         t_id(TCB::ID++), _run(parent._run), arg(parent.arg),
 519              		.loc 1 23 56
 520 031c 83B70501 		ld	a5,16(a1)
  26:src/c_thread.cpp ****         preempted(false), joiner() {
 521              		.loc 1 26 34
 522 0320 2338F500 		sd	a5,16(a0)
  24:src/c_thread.cpp ****         stack(Allocator::_mem_alloc(DEFAULT_STACK_SIZE)),
 523              		.loc 1 24 36
 524 0324 37450000 		li	a0,16384
 525              	.LVL47:
 526 0328 97000000 		call	_ZN9Allocator10_mem_allocEm@plt
 526      E7800000 
 527              	.LVL48:
  26:src/c_thread.cpp ****         preempted(false), joiner() {
 528              		.loc 1 26 34
 529 0330 23BCA400 		sd	a0,24(s1)
 530 0334 23B02403 		sd	s2,32(s1)
 531 0338 03368902 		ld	a2,40(s2)
 532 033c 83360903 		ld	a3,48(s2)
 533 0340 03378903 		ld	a4,56(s2)
 534 0344 83370904 		ld	a5,64(s2)
 535 0348 23B4C402 		sd	a2,40(s1)
 536 034c 23B8D402 		sd	a3,48(s1)
 537 0350 23BCE402 		sd	a4,56(s1)
 538 0354 23B0F404 		sd	a5,64(s1)
 539 0358 23A40404 		sw	zero,72(s1)
 540 035c 93071000 		li	a5,1
 541 0360 23B8F404 		sd	a5,80(s1)
 542 0364 238C0404 		sb	zero,88(s1)
 543 0368 23B00406 		sd	zero,96(s1)
GAS LISTING /tmp/ccelktR0.s 			page 16


 544 036c 23A40406 		sw	zero,104(s1)
 545 0370 23A60406 		sw	zero,108(s1)
 546 0374 23A80406 		sw	zero,112(s1)
 547 0378 23AA0406 		sw	zero,116(s1)
  27:src/c_thread.cpp ****     this->joiner.init();
 548              		.loc 1 27 5 is_stmt 1
  27:src/c_thread.cpp ****     this->joiner.init();
 549              		.loc 1 27 22 is_stmt 0
 550 037c 13850406 		addi	a0,s1,96
 551 0380 97000000 		call	_ZN3stm14CircularBufferIP3TCBE4initEv
 551      E7800000 
 552              	.LVL49:
 553              	.LBE48:
  28:src/c_thread.cpp **** }
 554              		.loc 1 28 1
 555 0388 83308101 		ld	ra,24(sp)
 556              		.cfi_restore 1
 557 038c 03340101 		ld	s0,16(sp)
 558              		.cfi_restore 8
 559              		.cfi_def_cfa 2, 32
 560 0390 83348100 		ld	s1,8(sp)
 561              		.cfi_restore 9
 562              	.LVL50:
 563 0394 03390100 		ld	s2,0(sp)
 564              		.cfi_restore 18
 565              	.LVL51:
 566 0398 13010102 		addi	sp,sp,32
 567              		.cfi_def_cfa_offset 0
 568 039c 67800000 		jr	ra
 569              		.cfi_endproc
 570              	.LFE49:
 572              		.globl	_ZN3TCBC1ERS_
 573              		.set	_ZN3TCBC1ERS_,_ZN3TCBC2ERS_
 574              		.align	2
 575              		.globl	_ZN3TCB5_forkEv
 577              	_ZN3TCB5_forkEv:
 578              	.LFB59:
 103:src/c_thread.cpp **** int TCB::_fork() {
 579              		.loc 1 103 18 is_stmt 1
 580              		.cfi_startproc
 581              		.cfi_personality 0x9b,DW.ref.__gxx_personality_v0
 582              		.cfi_lsda 0x1b,.LLSDA59
 583 03a0 130101FD 		addi	sp,sp,-48
 584              		.cfi_def_cfa_offset 48
 585 03a4 23341102 		sd	ra,40(sp)
 586 03a8 23308102 		sd	s0,32(sp)
 587 03ac 233C9100 		sd	s1,24(sp)
 588 03b0 23382101 		sd	s2,16(sp)
 589 03b4 23343101 		sd	s3,8(sp)
 590              		.cfi_offset 1, -8
 591              		.cfi_offset 8, -16
 592              		.cfi_offset 9, -24
 593              		.cfi_offset 18, -32
 594              		.cfi_offset 19, -40
 595 03b8 13040103 		addi	s0,sp,48
 596              		.cfi_def_cfa 8, 0
 104:src/c_thread.cpp ****     int id_parent = TCB::running->t_id;
GAS LISTING /tmp/ccelktR0.s 			page 17


 597              		.loc 1 104 5
 104:src/c_thread.cpp ****     int id_parent = TCB::running->t_id;
 598              		.loc 1 104 35 is_stmt 0
 599 03bc 17090000 		lla	s2,.LANCHOR0
 599      13090900 
 600 03c4 83370900 		ld	a5,0(s2)
 104:src/c_thread.cpp ****     int id_parent = TCB::running->t_id;
 601              		.loc 1 104 9
 602 03c8 83A90700 		lw	s3,0(a5)
 603              	.LVL52:
 105:src/c_thread.cpp ****     TCB *handle = new TCB(*TCB::running);
 604              		.loc 1 105 5 is_stmt 1
 105:src/c_thread.cpp ****     TCB *handle = new TCB(*TCB::running);
 605              		.loc 1 105 40 is_stmt 0
 606 03cc 13058007 		li	a0,120
 607              	.LEHB3:
 608 03d0 97000000 		call	_Znwm@plt
 608      E7800000 
 609              	.LVL53:
 610              	.LEHE3:
 611 03d8 93040500 		mv	s1,a0
 612 03dc 83350900 		ld	a1,0(s2)
 613              	.LEHB4:
 614 03e0 97000000 		call	_ZN3TCBC1ERS_
 614      E7800000 
 615              	.LVL54:
 616              	.LEHE4:
 106:src/c_thread.cpp ****     TCB::duplicate(TCB::running, handle);
 617              		.loc 1 106 5 is_stmt 1 discriminator 2
 106:src/c_thread.cpp ****     TCB::duplicate(TCB::running, handle);
 618              		.loc 1 106 19 is_stmt 0 discriminator 2
 619 03e8 93850400 		mv	a1,s1
 620 03ec 03350900 		ld	a0,0(s2)
 621              	.LEHB5:
 622 03f0 97000000 		call	_ZN3TCB9duplicateEPS_S0_
 622      E7800000 
 623              	.LVL55:
 107:src/c_thread.cpp ****     print(TCB::running->t_id);
 624              		.loc 1 107 5 is_stmt 1 discriminator 2
 107:src/c_thread.cpp ****     print(TCB::running->t_id);
 625              		.loc 1 107 10 is_stmt 0 discriminator 2
 626 03f8 83370900 		ld	a5,0(s2)
 627 03fc 03A50700 		lw	a0,0(a5)
 628 0400 97000000 		call	_Z5printi@plt
 628      E7800000 
 629              	.LVL56:
 108:src/c_thread.cpp ****     putc(' ');
 630              		.loc 1 108 5 is_stmt 1 discriminator 2
 108:src/c_thread.cpp ****     putc(' ');
 631              		.loc 1 108 9 is_stmt 0 discriminator 2
 632 0408 13050002 		li	a0,32
 633 040c 97000000 		call	_Z4putcc@plt
 633      E7800000 
 634              	.LVL57:
 109:src/c_thread.cpp ****     print(id_parent);
 635              		.loc 1 109 5 is_stmt 1 discriminator 2
 109:src/c_thread.cpp ****     print(id_parent);
GAS LISTING /tmp/ccelktR0.s 			page 18


 636              		.loc 1 109 10 is_stmt 0 discriminator 2
 637 0414 13850900 		mv	a0,s3
 638 0418 97000000 		call	_Z5printi@plt
 638      E7800000 
 639              	.LVL58:
 110:src/c_thread.cpp ****     putc(' ');
 640              		.loc 1 110 5 is_stmt 1 discriminator 2
 110:src/c_thread.cpp ****     putc(' ');
 641              		.loc 1 110 9 is_stmt 0 discriminator 2
 642 0420 13050002 		li	a0,32
 643 0424 97000000 		call	_Z4putcc@plt
 643      E7800000 
 644              	.LVL59:
 111:src/c_thread.cpp ****     print(handle->t_id);
 645              		.loc 1 111 5 is_stmt 1 discriminator 2
 111:src/c_thread.cpp ****     print(handle->t_id);
 646              		.loc 1 111 10 is_stmt 0 discriminator 2
 647 042c 03A50400 		lw	a0,0(s1)
 648 0430 97000000 		call	_Z5printi@plt
 648      E7800000 
 649              	.LVL60:
 112:src/c_thread.cpp ****     putc('\n');
 650              		.loc 1 112 5 is_stmt 1 discriminator 2
 112:src/c_thread.cpp ****     putc('\n');
 651              		.loc 1 112 9 is_stmt 0 discriminator 2
 652 0438 1305A000 		li	a0,10
 653 043c 97000000 		call	_Z4putcc@plt
 653      E7800000 
 654              	.LVL61:
 113:src/c_thread.cpp ****     if (TCB::running->t_id == id_parent) {
 655              		.loc 1 113 5 is_stmt 1 discriminator 2
 113:src/c_thread.cpp ****     if (TCB::running->t_id == id_parent) {
 656              		.loc 1 113 23 is_stmt 0 discriminator 2
 657 0444 83370900 		ld	a5,0(s2)
 658 0448 03A50700 		lw	a0,0(a5)
 113:src/c_thread.cpp ****     if (TCB::running->t_id == id_parent) {
 659              		.loc 1 113 5 discriminator 2
 660 044c 63063503 		beq	a0,s3,.L31
 117:src/c_thread.cpp ****         print(TCB::running->t_id);
 661              		.loc 1 117 9 is_stmt 1
 117:src/c_thread.cpp ****         print(TCB::running->t_id);
 662              		.loc 1 117 14 is_stmt 0
 663 0450 97000000 		call	_Z5printi@plt
 663      E7800000 
 664              	.LVL62:
 118:src/c_thread.cpp ****         return 0;
 665              		.loc 1 118 9 is_stmt 1
 118:src/c_thread.cpp ****         return 0;
 666              		.loc 1 118 16 is_stmt 0
 667 0458 13050000 		li	a0,0
 668              	.L29:
 120:src/c_thread.cpp **** }
 669              		.loc 1 120 1
 670 045c 83308102 		ld	ra,40(sp)
 671              		.cfi_remember_state
 672              		.cfi_restore 1
 673 0460 03340102 		ld	s0,32(sp)
GAS LISTING /tmp/ccelktR0.s 			page 19


 674              		.cfi_restore 8
 675              		.cfi_def_cfa 2, 48
 676 0464 83348101 		ld	s1,24(sp)
 677              		.cfi_restore 9
 678              	.LVL63:
 679 0468 03390101 		ld	s2,16(sp)
 680              		.cfi_restore 18
 681 046c 83398100 		ld	s3,8(sp)
 682              		.cfi_restore 19
 683              	.LVL64:
 684 0470 13010103 		addi	sp,sp,48
 685              		.cfi_def_cfa_offset 0
 686 0474 67800000 		jr	ra
 687              	.LVL65:
 688              	.L31:
 689              		.cfi_restore_state
 114:src/c_thread.cpp ****         Scheduler::put(handle);
 690              		.loc 1 114 9 is_stmt 1
 114:src/c_thread.cpp ****         Scheduler::put(handle);
 691              		.loc 1 114 23 is_stmt 0
 692 0478 13850400 		mv	a0,s1
 693 047c 97000000 		call	_ZN9Scheduler3putEP3TCB@plt
 693      E7800000 
 694              	.LVL66:
 115:src/c_thread.cpp ****         return handle->t_id;
 695              		.loc 1 115 9 is_stmt 1
 115:src/c_thread.cpp ****         return handle->t_id;
 696              		.loc 1 115 24 is_stmt 0
 697 0484 03A50400 		lw	a0,0(s1)
 698 0488 6FF05FFD 		j	.L29
 699              	.LVL67:
 700              	.L28:
 701 048c 13090500 		mv	s2,a0
 105:src/c_thread.cpp ****     TCB *handle = new TCB(*TCB::running);
 702              		.loc 1 105 40
 703 0490 13850400 		mv	a0,s1
 704 0494 97000000 		call	_ZdlPv@plt
 704      E7800000 
 705              	.LVL68:
 706 049c 13050900 		mv	a0,s2
 707 04a0 97000000 		call	_Unwind_Resume@plt
 707      E7800000 
 708              	.LVL69:
 709              	.LEHE5:
 710              		.cfi_endproc
 711              	.LFE59:
 712              		.section	.gcc_except_table
 713              	.LLSDA59:
 714 002b FF       		.byte	0xff
 715 002c FF       		.byte	0xff
 716 002d 03       		.byte	0x3
 717 002e 27       		.byte	0x27
 718 002f 00000000 		.4byte	.LEHB3-.LFB59
 719 0033 00000000 		.4byte	.LEHE3-.LEHB3
 720 0037 00000000 		.4byte	0
 721 003b 00       		.byte	0
 722 003c 00000000 		.4byte	.LEHB4-.LFB59
GAS LISTING /tmp/ccelktR0.s 			page 20


 723 0040 00000000 		.4byte	.LEHE4-.LEHB4
 724 0044 00000000 		.4byte	.L28-.LFB59
 725 0048 00       		.byte	0
 726 0049 00000000 		.4byte	.LEHB5-.LFB59
 727 004d 00000000 		.4byte	.LEHE5-.LEHB5
 728 0051 00000000 		.4byte	0
 729 0055 00       		.byte	0
 730              		.text
 732              		.section	.text._ZN3stm14CircularBufferIP3TCBE3getEv,"axG",@progbits,_ZN3stm14CircularBufferIP3TCBE
 733              		.align	2
 734              		.weak	_ZN3stm14CircularBufferIP3TCBE3getEv
 736              	_ZN3stm14CircularBufferIP3TCBE3getEv:
 737              	.LFB65:
  45:src/../h/circular_buffer.hpp **** 
  46:src/../h/circular_buffer.hpp **** template<typename T>
  47:src/../h/circular_buffer.hpp **** void stm::CircularBuffer<T>::put(T element) {
  48:src/../h/circular_buffer.hpp ****     if (this->size == this->capacity) {
  49:src/../h/circular_buffer.hpp ****         this->extend();
  50:src/../h/circular_buffer.hpp ****     }
  51:src/../h/circular_buffer.hpp ****     this->queue[this->tail] = element;
  52:src/../h/circular_buffer.hpp ****     this->tail = (this->tail + 1) % this->capacity;
  53:src/../h/circular_buffer.hpp ****     this->size++;
  54:src/../h/circular_buffer.hpp **** }
  55:src/../h/circular_buffer.hpp **** 
  56:src/../h/circular_buffer.hpp **** template<typename T>
  57:src/../h/circular_buffer.hpp **** T stm::CircularBuffer<T>::get() {
 738              		.loc 3 57 3 is_stmt 1
 739              		.cfi_startproc
 740              	.LVL70:
 741 0000 130101FF 		addi	sp,sp,-16
 742              		.cfi_def_cfa_offset 16
 743 0004 23348100 		sd	s0,8(sp)
 744              		.cfi_offset 8, -8
 745 0008 13040101 		addi	s0,sp,16
 746              		.cfi_def_cfa 8, 0
 747 000c 93070500 		mv	a5,a0
  58:src/../h/circular_buffer.hpp ****     T ret = this->queue[this->head];
 748              		.loc 3 58 19 is_stmt 0
 749 0010 83360500 		ld	a3,0(a0)
 750              		.loc 3 58 31
 751 0014 03278500 		lw	a4,8(a0)
 752              		.loc 3 58 24
 753 0018 13163700 		slli	a2,a4,3
 754 001c B386C600 		add	a3,a3,a2
 755              		.loc 3 58 7
 756 0020 03B50600 		ld	a0,0(a3)
 757              	.LVL71:
  59:src/../h/circular_buffer.hpp ****     this->head = (this->head + 1) % this->capacity;
 758              		.loc 3 59 30
 759 0024 1B071700 		addiw	a4,a4,1
 760              		.loc 3 59 43
 761 0028 83A64701 		lw	a3,20(a5)
 762              		.loc 3 59 35
 763 002c 3B67D702 		remw	a4,a4,a3
 764              		.loc 3 59 5
 765 0030 23A4E700 		sw	a4,8(a5)
  60:src/../h/circular_buffer.hpp ****     this->size--;
GAS LISTING /tmp/ccelktR0.s 			page 21


 766              		.loc 3 60 11
 767 0034 03A70701 		lw	a4,16(a5)
 768              		.loc 3 60 5
 769 0038 1B07F7FF 		addiw	a4,a4,-1
 770 003c 23A8E700 		sw	a4,16(a5)
  61:src/../h/circular_buffer.hpp ****     return ret;
  62:src/../h/circular_buffer.hpp **** }
 771              		.loc 3 62 1
 772 0040 03348100 		ld	s0,8(sp)
 773              		.cfi_restore 8
 774              		.cfi_def_cfa 2, 16
 775 0044 13010101 		addi	sp,sp,16
 776              		.cfi_def_cfa_offset 0
 777 0048 67800000 		jr	ra
 778              		.cfi_endproc
 779              	.LFE65:
 781              		.section	.text._ZN3stm14CircularBufferIP3TCBE7destroyEv,"axG",@progbits,_ZN3stm14CircularBufferIP3
 782              		.align	2
 783              		.weak	_ZN3stm14CircularBufferIP3TCBE7destroyEv
 785              	_ZN3stm14CircularBufferIP3TCBE7destroyEv:
 786              	.LFB66:
  63:src/../h/circular_buffer.hpp **** 
  64:src/../h/circular_buffer.hpp **** template<typename T>
  65:src/../h/circular_buffer.hpp **** T &stm::CircularBuffer<T>::peek() {
  66:src/../h/circular_buffer.hpp ****     return this->queue[this->head];
  67:src/../h/circular_buffer.hpp **** }
  68:src/../h/circular_buffer.hpp **** 
  69:src/../h/circular_buffer.hpp **** template<typename T>
  70:src/../h/circular_buffer.hpp **** void stm::CircularBuffer<T>::extend() {
  71:src/../h/circular_buffer.hpp ****     T *new_queue = (T *) mem_alloc(sizeof(T *) * this->capacity * 2);
  72:src/../h/circular_buffer.hpp ****     for (int i = 0, j = this->head; i < this->capacity; i++, j = (j + 1) % this->capacity)
  73:src/../h/circular_buffer.hpp ****         new_queue[i] = this->queue[j];
  74:src/../h/circular_buffer.hpp ****     mem_free(queue);
  75:src/../h/circular_buffer.hpp ****     this->queue = new_queue;
  76:src/../h/circular_buffer.hpp ****     this->head = 0;
  77:src/../h/circular_buffer.hpp ****     this->tail = this->capacity;
  78:src/../h/circular_buffer.hpp ****     this->capacity *= 2;
  79:src/../h/circular_buffer.hpp **** }
  80:src/../h/circular_buffer.hpp **** 
  81:src/../h/circular_buffer.hpp **** template<typename T>
  82:src/../h/circular_buffer.hpp **** void stm::CircularBuffer<T>::destroy() {
 787              		.loc 3 82 6 is_stmt 1
 788              		.cfi_startproc
 789              	.LVL72:
 790 0000 130101FF 		addi	sp,sp,-16
 791              		.cfi_def_cfa_offset 16
 792 0004 23341100 		sd	ra,8(sp)
 793 0008 23308100 		sd	s0,0(sp)
 794              		.cfi_offset 1, -8
 795              		.cfi_offset 8, -16
 796 000c 13040101 		addi	s0,sp,16
 797              		.cfi_def_cfa 8, 0
  83:src/../h/circular_buffer.hpp ****     mem_free(this->queue);
 798              		.loc 3 83 13 is_stmt 0
 799 0010 03350500 		ld	a0,0(a0)
 800              	.LVL73:
 801 0014 97000000 		call	_Z8mem_freePv@plt
GAS LISTING /tmp/ccelktR0.s 			page 22


 801      E7800000 
 802              	.LVL74:
  84:src/../h/circular_buffer.hpp **** }
 803              		.loc 3 84 1
 804 001c 83308100 		ld	ra,8(sp)
 805              		.cfi_restore 1
 806 0020 03340100 		ld	s0,0(sp)
 807              		.cfi_restore 8
 808              		.cfi_def_cfa 2, 16
 809 0024 13010101 		addi	sp,sp,16
 810              		.cfi_def_cfa_offset 0
 811 0028 67800000 		jr	ra
 812              		.cfi_endproc
 813              	.LFE66:
 815              		.text
 816              		.align	2
 817              		.globl	_ZN3TCB14destroy_threadEPS_
 819              	_ZN3TCB14destroy_threadEPS_:
 820              	.LFB54:
  61:src/c_thread.cpp **** TCB *TCB::destroy_thread(TCB *thread) {
 821              		.loc 1 61 39 is_stmt 1
 822              		.cfi_startproc
 823              	.LVL75:
 824 04a8 130101FE 		addi	sp,sp,-32
 825              		.cfi_def_cfa_offset 32
 826 04ac 233C1100 		sd	ra,24(sp)
 827 04b0 23388100 		sd	s0,16(sp)
 828 04b4 23349100 		sd	s1,8(sp)
 829              		.cfi_offset 1, -8
 830              		.cfi_offset 8, -16
 831              		.cfi_offset 9, -24
 832 04b8 13040102 		addi	s0,sp,32
 833              		.cfi_def_cfa 8, 0
 834 04bc 93040500 		mv	s1,a0
 835              	.LVL76:
 836              	.L38:
  62:src/c_thread.cpp ****     while (!thread->joiner.is_empty()) {
 837              		.loc 1 62 5
  62:src/c_thread.cpp ****     while (!thread->joiner.is_empty()) {
 838              		.loc 1 62 12
 839              	.LBB49:
 840              	.LBB50:
  20:src/../h/circular_buffer.hpp **** 
 841              		.loc 3 20 53 is_stmt 0
 842 04c0 83A70407 		lw	a5,112(s1)
 843              	.LVL77:
 844              	.LBE50:
 845              	.LBE49:
  62:src/c_thread.cpp ****     while (!thread->joiner.is_empty()) {
 846              		.loc 1 62 12
 847 04c4 63860702 		beqz	a5,.L37
 848              	.LBB51:
  63:src/c_thread.cpp ****         TCB *next = thread->joiner.get();
 849              		.loc 1 63 9 is_stmt 1
  63:src/c_thread.cpp ****         TCB *next = thread->joiner.get();
 850              		.loc 1 63 39 is_stmt 0
 851 04c8 13850406 		addi	a0,s1,96
GAS LISTING /tmp/ccelktR0.s 			page 23


 852 04cc 97000000 		call	_ZN3stm14CircularBufferIP3TCBE3getEv
 852      E7800000 
 853              	.LVL78:
  64:src/c_thread.cpp ****         if (next->is_joined()) {
 854              		.loc 1 64 9 is_stmt 1
 855              	.LBB52:
 856              	.LBB53:
  57:src/../h/c_thread.hpp **** 
 857              		.loc 2 57 30
  57:src/../h/c_thread.hpp **** 
 858              		.loc 2 57 43 is_stmt 0
 859 04d4 03278504 		lw	a4,72(a0)
 860              	.LVL79:
 861              	.LBE53:
 862              	.LBE52:
  64:src/c_thread.cpp ****         if (next->is_joined()) {
 863              		.loc 1 64 9
 864 04d8 93073000 		li	a5,3
 865 04dc E312F7FE 		bne	a4,a5,.L38
  65:src/c_thread.cpp ****             next->run();
 866              		.loc 1 65 13 is_stmt 1
 867              	.LVL80:
 868              	.LBB54:
 869              	.LBB55:
  61:src/../h/c_thread.hpp **** 
 870              		.loc 2 61 18
  61:src/../h/c_thread.hpp **** 
 871              		.loc 2 61 31 is_stmt 0
 872 04e0 23240504 		sw	zero,72(a0)
 873              	.LVL81:
 874              	.LBE55:
 875              	.LBE54:
  66:src/c_thread.cpp ****             Scheduler::put(next);
 876              		.loc 1 66 13 is_stmt 1
  66:src/c_thread.cpp ****             Scheduler::put(next);
 877              		.loc 1 66 27 is_stmt 0
 878 04e4 97000000 		call	_ZN9Scheduler3putEP3TCB@plt
 878      E7800000 
 879              	.LVL82:
 880 04ec 6FF05FFD 		j	.L38
 881              	.L37:
 882              	.LBE51:
  69:src/c_thread.cpp ****     thread->joiner.destroy();
 883              		.loc 1 69 5 is_stmt 1
  69:src/c_thread.cpp ****     thread->joiner.destroy();
 884              		.loc 1 69 27 is_stmt 0
 885 04f0 13850406 		addi	a0,s1,96
 886 04f4 97000000 		call	_ZN3stm14CircularBufferIP3TCBE7destroyEv
 886      E7800000 
 887              	.LVL83:
  70:src/c_thread.cpp ****     return thread;
 888              		.loc 1 70 5 is_stmt 1
  71:src/c_thread.cpp **** }
 889              		.loc 1 71 1 is_stmt 0
 890 04fc 13850400 		mv	a0,s1
 891 0500 83308101 		ld	ra,24(sp)
 892              		.cfi_restore 1
GAS LISTING /tmp/ccelktR0.s 			page 24


 893 0504 03340101 		ld	s0,16(sp)
 894              		.cfi_restore 8
 895              		.cfi_def_cfa 2, 32
 896 0508 83348100 		ld	s1,8(sp)
 897              		.cfi_restore 9
 898              	.LVL84:
 899 050c 13010102 		addi	sp,sp,32
 900              		.cfi_def_cfa_offset 0
 901 0510 67800000 		jr	ra
 902              		.cfi_endproc
 903              	.LFE54:
 905              		.align	2
 906              		.globl	_ZN3TCB5yieldEv
 908              	_ZN3TCB5yieldEv:
 909              	.LFB52:
  37:src/c_thread.cpp **** void TCB::yield() {
 910              		.loc 1 37 19 is_stmt 1
 911              		.cfi_startproc
 912 0514 130101FE 		addi	sp,sp,-32
 913              		.cfi_def_cfa_offset 32
 914 0518 233C1100 		sd	ra,24(sp)
 915 051c 23388100 		sd	s0,16(sp)
 916 0520 23349100 		sd	s1,8(sp)
 917              		.cfi_offset 1, -8
 918              		.cfi_offset 8, -16
 919              		.cfi_offset 9, -24
 920 0524 13040102 		addi	s0,sp,32
 921              		.cfi_def_cfa 8, 0
  38:src/c_thread.cpp ****     thread_t old = TCB::running;
 922              		.loc 1 38 5
  38:src/c_thread.cpp ****     thread_t old = TCB::running;
 923              		.loc 1 38 14 is_stmt 0
 924 0528 97040000 		ld	s1,.LANCHOR0
 924      83B40400 
 925              	.LVL85:
  39:src/c_thread.cpp ****     if (old->is_runnable() && old != handle_bleya) {
 926              		.loc 1 39 5 is_stmt 1
 927              	.LBB56:
 928              	.LBB57:
  51:src/../h/c_thread.hpp **** 
 929              		.loc 2 51 32
  51:src/../h/c_thread.hpp **** 
 930              		.loc 2 51 45 is_stmt 0
 931 0530 83A78404 		lw	a5,72(s1)
 932              	.LVL86:
 933              	.LBE57:
 934              	.LBE56:
  39:src/c_thread.cpp ****     if (old->is_runnable() && old != handle_bleya) {
 935              		.loc 1 39 28
 936 0534 63920702 		bnez	a5,.L42
  39:src/c_thread.cpp ****     if (old->is_runnable() && old != handle_bleya) {
 937              		.loc 1 39 35 discriminator 1
 938 0538 17070000 		la	a4,handle_bleya
 938      03370700 
 939 0540 03370700 		ld	a4,0(a4)
  39:src/c_thread.cpp ****     if (old->is_runnable() && old != handle_bleya) {
 940              		.loc 1 39 28 discriminator 1
GAS LISTING /tmp/ccelktR0.s 			page 25


 941 0544 630A9700 		beq	a4,s1,.L42
  40:src/c_thread.cpp ****         Scheduler::put(old);
 942              		.loc 1 40 9 is_stmt 1
  40:src/c_thread.cpp ****         Scheduler::put(old);
 943              		.loc 1 40 23 is_stmt 0
 944 0548 13850400 		mv	a0,s1
 945 054c 97000000 		call	_ZN9Scheduler3putEP3TCB@plt
 945      E7800000 
 946              	.LVL87:
 947 0554 6F00C000 		j	.L43
 948              	.L42:
  41:src/c_thread.cpp ****     } else if (old->is_finished()) {
 949              		.loc 1 41 12 is_stmt 1
 950              	.LVL88:
  59:src/../h/c_thread.hpp **** 
 951              		.loc 2 59 32
  41:src/c_thread.cpp ****     } else if (old->is_finished()) {
 952              		.loc 1 41 12 is_stmt 0
 953 0558 13074000 		li	a4,4
 954 055c 6386E704 		beq	a5,a4,.L49
 955              	.L43:
  44:src/c_thread.cpp ****     if (Scheduler::is_empty()) {
 956              		.loc 1 44 5 is_stmt 1
 957              	.LBB58:
 958              	.LBB59:
 959              		.file 4 "src/../h/scheduler.hpp"
   1:src/../h/scheduler.hpp **** #ifndef PROJECT_BASE_SCHEDULER_HPP
   2:src/../h/scheduler.hpp **** #define PROJECT_BASE_SCHEDULER_HPP
   3:src/../h/scheduler.hpp **** 
   4:src/../h/scheduler.hpp **** #include "circular_buffer.hpp"
   5:src/../h/scheduler.hpp **** #include "syscall_c.hpp"
   6:src/../h/scheduler.hpp **** 
   7:src/../h/scheduler.hpp **** class Scheduler final {
   8:src/../h/scheduler.hpp **** public:
   9:src/../h/scheduler.hpp **** 
  10:src/../h/scheduler.hpp ****     static void init() { high_priority.init(); mid_priority.init(); low_priority.init(); }
  11:src/../h/scheduler.hpp **** 
  12:src/../h/scheduler.hpp ****     static void put(TCB *thread);
  13:src/../h/scheduler.hpp **** 
  14:src/../h/scheduler.hpp ****     static TCB *get();
  15:src/../h/scheduler.hpp **** 
  16:src/../h/scheduler.hpp ****     static inline bool is_empty() {
  17:src/../h/scheduler.hpp ****         return high_priority.is_empty() && mid_priority.is_empty() && low_priority.is_empty();
 960              		.loc 4 17 9
 961              	.LVL89:
 962              	.LBB60:
 963              	.LBB61:
  20:src/../h/circular_buffer.hpp **** 
 964              		.loc 3 20 53 is_stmt 0
 965 0560 97070000 		la	a5,_ZN9Scheduler13high_priorityE
 965      83B70700 
 966 0568 83A70701 		lw	a5,16(a5)
 967              	.LVL90:
 968              	.LBE61:
 969              	.LBE60:
 970              		.loc 4 17 68
 971 056c 63940706 		bnez	a5,.L47
GAS LISTING /tmp/ccelktR0.s 			page 26


 972              	.LVL91:
 973              	.LBB62:
 974              	.LBB63:
  20:src/../h/circular_buffer.hpp **** 
 975              		.loc 3 20 53
 976 0570 97070000 		la	a5,_ZN9Scheduler12mid_priorityE
 976      83B70700 
 977 0578 83A70701 		lw	a5,16(a5)
 978              	.LVL92:
 979              	.LBE63:
 980              	.LBE62:
 981              		.loc 4 17 41
 982 057c 639C0704 		bnez	a5,.L47
 983              	.LVL93:
 984              	.LBB64:
 985              	.LBB65:
  20:src/../h/circular_buffer.hpp **** 
 986              		.loc 3 20 53
 987 0580 97070000 		la	a5,_ZN9Scheduler12low_priorityE
 987      83B70700 
 988 0588 83A70701 		lw	a5,16(a5)
 989              	.LVL94:
 990              	.LBE65:
 991              	.LBE64:
 992              		.loc 4 17 68
 993 058c 63940704 		bnez	a5,.L47
 994              	.LBE59:
 995              	.LBE58:
  45:src/c_thread.cpp ****         TCB::running = handle_bleya;
 996              		.loc 1 45 9 is_stmt 1
  45:src/c_thread.cpp ****         TCB::running = handle_bleya;
 997              		.loc 1 45 22 is_stmt 0
 998 0590 97070000 		la	a5,handle_bleya
 998      83B70700 
 999 0598 83B70700 		ld	a5,0(a5)
 1000 059c 17070000 		sd	a5,.LANCHOR0,a4
 1000      2330F700 
 1001 05a4 6F004005 		j	.L45
 1002              	.L49:
  42:src/c_thread.cpp ****         Allocator::_mem_free(old->stack);
 1003              		.loc 1 42 9 is_stmt 1
  42:src/c_thread.cpp ****         Allocator::_mem_free(old->stack);
 1004              		.loc 1 42 29 is_stmt 0
 1005 05a8 03B58401 		ld	a0,24(s1)
 1006 05ac 97000000 		call	_ZN9Allocator9_mem_freeEPKv@plt
 1006      E7800000 
 1007              	.LVL95:
 1008 05b4 6FF0DFFA 		j	.L43
 1009              	.L50:
  48:src/c_thread.cpp ****             Allocator::_mem_free(TCB::destroy_thread(Scheduler::get())->stack);
 1010              		.loc 1 48 13 is_stmt 1
  48:src/c_thread.cpp ****             Allocator::_mem_free(TCB::destroy_thread(Scheduler::get())->stack);
 1011              		.loc 1 48 53 is_stmt 0
 1012 05b8 97000000 		call	_ZN9Scheduler3getEv@plt
 1012      E7800000 
 1013              	.LVL96:
 1014 05c0 97000000 		call	_ZN3TCB14destroy_threadEPS_
GAS LISTING /tmp/ccelktR0.s 			page 27


 1014      E7800000 
 1015              	.LVL97:
  48:src/c_thread.cpp ****             Allocator::_mem_free(TCB::destroy_thread(Scheduler::get())->stack);
 1016              		.loc 1 48 33
 1017 05c8 03358501 		ld	a0,24(a0)
 1018 05cc 97000000 		call	_ZN9Allocator9_mem_freeEPKv@plt
 1018      E7800000 
 1019              	.LVL98:
 1020              	.L47:
  47:src/c_thread.cpp ****         while (Scheduler::peek()->is_finished()) {
 1021              		.loc 1 47 9 is_stmt 1
  47:src/c_thread.cpp ****         while (Scheduler::peek()->is_finished()) {
 1022              		.loc 1 47 46
 1023 05d4 97000000 		call	_ZN9Scheduler4peekEv@plt
 1023      E7800000 
 1024              	.LVL99:
 1025              	.LBB66:
 1026              	.LBB67:
  59:src/../h/c_thread.hpp **** 
 1027              		.loc 2 59 32
  59:src/../h/c_thread.hpp **** 
 1028              		.loc 2 59 45 is_stmt 0
 1029 05dc 03278504 		lw	a4,72(a0)
 1030              	.LVL100:
 1031              	.LBE67:
 1032              	.LBE66:
  47:src/c_thread.cpp ****         while (Scheduler::peek()->is_finished()) {
 1033              		.loc 1 47 46
 1034 05e0 93074000 		li	a5,4
 1035 05e4 E30AF7FC 		beq	a4,a5,.L50
  50:src/c_thread.cpp ****         TCB::running = Scheduler::get();
 1036              		.loc 1 50 9 is_stmt 1
  50:src/c_thread.cpp ****         TCB::running = Scheduler::get();
 1037              		.loc 1 50 38 is_stmt 0
 1038 05e8 97000000 		call	_ZN9Scheduler3getEv@plt
 1038      E7800000 
 1039              	.LVL101:
  50:src/c_thread.cpp ****         TCB::running = Scheduler::get();
 1040              		.loc 1 50 22
 1041 05f0 97070000 		sd	a0,.LANCHOR0,a5
 1041      23B0A700 
 1042              	.L45:
  52:src/c_thread.cpp ****     TCB::context_switch(&old->context, &TCB::running->context);
 1043              		.loc 1 52 5 is_stmt 1
  52:src/c_thread.cpp ****     TCB::context_switch(&old->context, &TCB::running->context);
 1044              		.loc 1 52 24 is_stmt 0
 1045 05f8 97050000 		ld	a1,.LANCHOR0
 1045      83B50500 
 1046 0600 93858502 		addi	a1,a1,40
 1047 0604 13858402 		addi	a0,s1,40
 1048 0608 97000000 		call	_ZN3TCB14context_switchEP7ContextS1_@plt
 1048      E7800000 
 1049              	.LVL102:
  53:src/c_thread.cpp **** }
 1050              		.loc 1 53 1
 1051 0610 83308101 		ld	ra,24(sp)
 1052              		.cfi_restore 1
GAS LISTING /tmp/ccelktR0.s 			page 28


 1053 0614 03340101 		ld	s0,16(sp)
 1054              		.cfi_restore 8
 1055              		.cfi_def_cfa 2, 32
 1056 0618 83348100 		ld	s1,8(sp)
 1057              		.cfi_restore 9
 1058              	.LVL103:
 1059 061c 13010102 		addi	sp,sp,32
 1060              		.cfi_def_cfa_offset 0
 1061 0620 67800000 		jr	ra
 1062              		.cfi_endproc
 1063              	.LFE52:
 1065              		.align	2
 1066              		.globl	_ZN3TCB16_thread_dispatchEv
 1068              	_ZN3TCB16_thread_dispatchEv:
 1069              	.LFB53:
  55:src/c_thread.cpp **** void TCB::_thread_dispatch() {
 1070              		.loc 1 55 30 is_stmt 1
 1071              		.cfi_startproc
 1072 0624 130101FF 		addi	sp,sp,-16
 1073              		.cfi_def_cfa_offset 16
 1074 0628 23341100 		sd	ra,8(sp)
 1075 062c 23308100 		sd	s0,0(sp)
 1076              		.cfi_offset 1, -8
 1077              		.cfi_offset 8, -16
 1078 0630 13040101 		addi	s0,sp,16
 1079              		.cfi_def_cfa 8, 0
  56:src/c_thread.cpp ****     Riscv::push();
 1080              		.loc 1 56 5
  56:src/c_thread.cpp ****     Riscv::push();
 1081              		.loc 1 56 16 is_stmt 0
 1082 0634 97000000 		call	_ZN5Riscv4pushEv@plt
 1082      E7800000 
 1083              	.LVL104:
  57:src/c_thread.cpp ****     TCB::yield();
 1084              		.loc 1 57 5 is_stmt 1
  57:src/c_thread.cpp ****     TCB::yield();
 1085              		.loc 1 57 15 is_stmt 0
 1086 063c 97000000 		call	_ZN3TCB5yieldEv
 1086      E7800000 
 1087              	.LVL105:
  58:src/c_thread.cpp ****     Riscv::pop();
 1088              		.loc 1 58 5 is_stmt 1
  58:src/c_thread.cpp ****     Riscv::pop();
 1089              		.loc 1 58 15 is_stmt 0
 1090 0644 97000000 		call	_ZN5Riscv3popEv@plt
 1090      E7800000 
 1091              	.LVL106:
  59:src/c_thread.cpp **** }
 1092              		.loc 1 59 1
 1093 064c 83308100 		ld	ra,8(sp)
 1094              		.cfi_restore 1
 1095 0650 03340100 		ld	s0,0(sp)
 1096              		.cfi_restore 8
 1097              		.cfi_def_cfa 2, 16
 1098 0654 13010101 		addi	sp,sp,16
 1099              		.cfi_def_cfa_offset 0
 1100 0658 67800000 		jr	ra
GAS LISTING /tmp/ccelktR0.s 			page 29


 1101              		.cfi_endproc
 1102              	.LFE53:
 1104              		.align	2
 1105              		.globl	_ZN3TCB12_thread_exitEv
 1107              	_ZN3TCB12_thread_exitEv:
 1108              	.LFB55:
  73:src/c_thread.cpp **** void TCB::_thread_exit() {
 1109              		.loc 1 73 26 is_stmt 1
 1110              		.cfi_startproc
 1111 065c 130101FF 		addi	sp,sp,-16
 1112              		.cfi_def_cfa_offset 16
 1113 0660 23341100 		sd	ra,8(sp)
 1114 0664 23308100 		sd	s0,0(sp)
 1115              		.cfi_offset 1, -8
 1116              		.cfi_offset 8, -16
 1117 0668 13040101 		addi	s0,sp,16
 1118              		.cfi_def_cfa 8, 0
  74:src/c_thread.cpp ****     TCB::running->finish();
 1119              		.loc 1 74 5
  74:src/c_thread.cpp ****     TCB::running->finish();
 1120              		.loc 1 74 25 is_stmt 0
 1121 066c 17050000 		ld	a0,.LANCHOR0
 1121      03350500 
 1122              	.LVL107:
 1123              	.LBB68:
 1124              	.LBB69:
 1125              		.loc 2 69 21 is_stmt 1
 1126              		.loc 2 69 34 is_stmt 0
 1127 0674 93074000 		li	a5,4
 1128 0678 2324F504 		sw	a5,72(a0)
 1129              	.LVL108:
 1130              	.LBE69:
 1131              	.LBE68:
  75:src/c_thread.cpp ****     TCB::destroy_thread(TCB::running);
 1132              		.loc 1 75 5 is_stmt 1
  75:src/c_thread.cpp ****     TCB::destroy_thread(TCB::running);
 1133              		.loc 1 75 24 is_stmt 0
 1134 067c 97000000 		call	_ZN3TCB14destroy_threadEPS_
 1134      E7800000 
 1135              	.LVL109:
  76:src/c_thread.cpp ****     TCB::_thread_dispatch();
 1136              		.loc 1 76 5 is_stmt 1
  76:src/c_thread.cpp ****     TCB::_thread_dispatch();
 1137              		.loc 1 76 26 is_stmt 0
 1138 0684 97000000 		call	_ZN3TCB16_thread_dispatchEv
 1138      E7800000 
 1139              	.LVL110:
  77:src/c_thread.cpp **** }
 1140              		.loc 1 77 1
 1141 068c 83308100 		ld	ra,8(sp)
 1142              		.cfi_restore 1
 1143 0690 03340100 		ld	s0,0(sp)
 1144              		.cfi_restore 8
 1145              		.cfi_def_cfa 2, 16
 1146 0694 13010101 		addi	sp,sp,16
 1147              		.cfi_def_cfa_offset 0
 1148 0698 67800000 		jr	ra
GAS LISTING /tmp/ccelktR0.s 			page 30


 1149              		.cfi_endproc
 1150              	.LFE55:
 1152              		.section	.text._ZN3stm14CircularBufferIP3TCBE6extendEv,"axG",@progbits,_ZN3stm14CircularBufferIP3T
 1153              		.align	2
 1154              		.weak	_ZN3stm14CircularBufferIP3TCBE6extendEv
 1156              	_ZN3stm14CircularBufferIP3TCBE6extendEv:
 1157              	.LFB68:
  70:src/../h/circular_buffer.hpp ****     T *new_queue = (T *) mem_alloc(sizeof(T *) * this->capacity * 2);
 1158              		.loc 3 70 6 is_stmt 1
 1159              		.cfi_startproc
 1160              	.LVL111:
 1161 0000 130101FE 		addi	sp,sp,-32
 1162              		.cfi_def_cfa_offset 32
 1163 0004 233C1100 		sd	ra,24(sp)
 1164 0008 23388100 		sd	s0,16(sp)
 1165 000c 23349100 		sd	s1,8(sp)
 1166 0010 23302101 		sd	s2,0(sp)
 1167              		.cfi_offset 1, -8
 1168              		.cfi_offset 8, -16
 1169              		.cfi_offset 9, -24
 1170              		.cfi_offset 18, -32
 1171 0014 13040102 		addi	s0,sp,32
 1172              		.cfi_def_cfa 8, 0
 1173 0018 93040500 		mv	s1,a0
  71:src/../h/circular_buffer.hpp ****     for (int i = 0, j = this->head; i < this->capacity; i++, j = (j + 1) % this->capacity)
 1174              		.loc 3 71 56 is_stmt 0
 1175 001c 03254501 		lw	a0,20(a0)
 1176              	.LVL112:
  71:src/../h/circular_buffer.hpp ****     for (int i = 0, j = this->head; i < this->capacity; i++, j = (j + 1) % this->capacity)
 1177              		.loc 3 71 35
 1178 0020 13154500 		slli	a0,a0,4
 1179 0024 97000000 		call	_Z9mem_allocm@plt
 1179      E7800000 
 1180              	.LVL113:
 1181 002c 13090500 		mv	s2,a0
 1182              	.LVL114:
 1183              	.LBB70:
  72:src/../h/circular_buffer.hpp ****         new_queue[i] = this->queue[j];
 1184              		.loc 3 72 21
 1185 0030 83A78400 		lw	a5,8(s1)
 1186              	.LVL115:
  72:src/../h/circular_buffer.hpp ****         new_queue[i] = this->queue[j];
 1187              		.loc 3 72 14
 1188 0034 13070000 		li	a4,0
 1189              	.LVL116:
 1190              	.L57:
  72:src/../h/circular_buffer.hpp ****         new_queue[i] = this->queue[j];
 1191              		.loc 3 72 39 is_stmt 1 discriminator 3
  72:src/../h/circular_buffer.hpp ****         new_queue[i] = this->queue[j];
 1192              		.loc 3 72 47 is_stmt 0 discriminator 3
 1193 0038 83A64401 		lw	a3,20(s1)
  72:src/../h/circular_buffer.hpp ****         new_queue[i] = this->queue[j];
 1194              		.loc 3 72 39 discriminator 3
 1195 003c 635AD702 		ble	a3,a4,.L56
  73:src/../h/circular_buffer.hpp ****     mem_free(queue);
 1196              		.loc 3 73 30 discriminator 2
 1197 0040 03B60400 		ld	a2,0(s1)
GAS LISTING /tmp/ccelktR0.s 			page 31


  73:src/../h/circular_buffer.hpp ****     mem_free(queue);
 1198              		.loc 3 73 18 discriminator 2
 1199 0044 93163700 		slli	a3,a4,3
 1200 0048 B306D900 		add	a3,s2,a3
  73:src/../h/circular_buffer.hpp ****     mem_free(queue);
 1201              		.loc 3 73 35 discriminator 2
 1202 004c 93953700 		slli	a1,a5,3
 1203 0050 3306B600 		add	a2,a2,a1
 1204 0054 03360600 		ld	a2,0(a2)
  73:src/../h/circular_buffer.hpp ****     mem_free(queue);
 1205              		.loc 3 73 9 discriminator 2
 1206 0058 23B0C600 		sd	a2,0(a3)
  72:src/../h/circular_buffer.hpp ****         new_queue[i] = this->queue[j];
 1207              		.loc 3 72 5 is_stmt 1 discriminator 2
 1208 005c 1B071700 		addiw	a4,a4,1
 1209              	.LVL117:
  72:src/../h/circular_buffer.hpp ****         new_queue[i] = this->queue[j];
 1210              		.loc 3 72 69 is_stmt 0 discriminator 2
 1211 0060 9B871700 		addiw	a5,a5,1
 1212              	.LVL118:
  72:src/../h/circular_buffer.hpp ****         new_queue[i] = this->queue[j];
 1213              		.loc 3 72 82 discriminator 2
 1214 0064 83A64401 		lw	a3,20(s1)
  72:src/../h/circular_buffer.hpp ****         new_queue[i] = this->queue[j];
 1215              		.loc 3 72 5 discriminator 2
 1216 0068 BBE7D702 		remw	a5,a5,a3
 1217              	.LVL119:
 1218 006c 6FF0DFFC 		j	.L57
 1219              	.LVL120:
 1220              	.L56:
 1221              	.LBE70:
  74:src/../h/circular_buffer.hpp ****     this->queue = new_queue;
 1222              		.loc 3 74 13
 1223 0070 03B50400 		ld	a0,0(s1)
 1224              	.LVL121:
 1225 0074 97000000 		call	_Z8mem_freePv@plt
 1225      E7800000 
 1226              	.LVL122:
  75:src/../h/circular_buffer.hpp ****     this->head = 0;
 1227              		.loc 3 75 5
 1228 007c 23B02401 		sd	s2,0(s1)
  76:src/../h/circular_buffer.hpp ****     this->tail = this->capacity;
 1229              		.loc 3 76 5
 1230 0080 23A40400 		sw	zero,8(s1)
  77:src/../h/circular_buffer.hpp ****     this->capacity *= 2;
 1231              		.loc 3 77 24
 1232 0084 83A74401 		lw	a5,20(s1)
  77:src/../h/circular_buffer.hpp ****     this->capacity *= 2;
 1233              		.loc 3 77 5
 1234 0088 23A6F400 		sw	a5,12(s1)
  78:src/../h/circular_buffer.hpp **** }
 1235              		.loc 3 78 20
 1236 008c 9B971700 		slliw	a5,a5,1
  78:src/../h/circular_buffer.hpp **** }
 1237              		.loc 3 78 5
 1238 0090 23AAF400 		sw	a5,20(s1)
  79:src/../h/circular_buffer.hpp **** 
GAS LISTING /tmp/ccelktR0.s 			page 32


 1239              		.loc 3 79 1
 1240 0094 83308101 		ld	ra,24(sp)
 1241              		.cfi_restore 1
 1242 0098 03340101 		ld	s0,16(sp)
 1243              		.cfi_restore 8
 1244              		.cfi_def_cfa 2, 32
 1245 009c 83348100 		ld	s1,8(sp)
 1246              		.cfi_restore 9
 1247              	.LVL123:
 1248 00a0 03390100 		ld	s2,0(sp)
 1249              		.cfi_restore 18
 1250              	.LVL124:
 1251 00a4 13010102 		addi	sp,sp,32
 1252              		.cfi_def_cfa_offset 0
 1253 00a8 67800000 		jr	ra
 1254              		.cfi_endproc
 1255              	.LFE68:
 1257              		.section	.text._ZN3stm14CircularBufferIP3TCBE3putES2_,"axG",@progbits,_ZN3stm14CircularBufferIP3TC
 1258              		.align	2
 1259              		.weak	_ZN3stm14CircularBufferIP3TCBE3putES2_
 1261              	_ZN3stm14CircularBufferIP3TCBE3putES2_:
 1262              	.LFB67:
  47:src/../h/circular_buffer.hpp ****     if (this->size == this->capacity) {
 1263              		.loc 3 47 6 is_stmt 1
 1264              		.cfi_startproc
 1265              	.LVL125:
 1266 0000 130101FE 		addi	sp,sp,-32
 1267              		.cfi_def_cfa_offset 32
 1268 0004 233C1100 		sd	ra,24(sp)
 1269 0008 23388100 		sd	s0,16(sp)
 1270 000c 23349100 		sd	s1,8(sp)
 1271 0010 23302101 		sd	s2,0(sp)
 1272              		.cfi_offset 1, -8
 1273              		.cfi_offset 8, -16
 1274              		.cfi_offset 9, -24
 1275              		.cfi_offset 18, -32
 1276 0014 13040102 		addi	s0,sp,32
 1277              		.cfi_def_cfa 8, 0
 1278 0018 93040500 		mv	s1,a0
 1279 001c 13890500 		mv	s2,a1
  48:src/../h/circular_buffer.hpp ****         this->extend();
 1280              		.loc 3 48 15 is_stmt 0
 1281 0020 03270501 		lw	a4,16(a0)
  48:src/../h/circular_buffer.hpp ****         this->extend();
 1282              		.loc 3 48 29
 1283 0024 83274501 		lw	a5,20(a0)
  48:src/../h/circular_buffer.hpp ****         this->extend();
 1284              		.loc 3 48 5
 1285 0028 6308F704 		beq	a4,a5,.L62
 1286              	.LVL126:
 1287              	.L60:
  51:src/../h/circular_buffer.hpp ****     this->tail = (this->tail + 1) % this->capacity;
 1288              		.loc 3 51 11
 1289 002c 83B70400 		ld	a5,0(s1)
  51:src/../h/circular_buffer.hpp ****     this->tail = (this->tail + 1) % this->capacity;
 1290              		.loc 3 51 23
 1291 0030 03A7C400 		lw	a4,12(s1)
GAS LISTING /tmp/ccelktR0.s 			page 33


  51:src/../h/circular_buffer.hpp ****     this->tail = (this->tail + 1) % this->capacity;
 1292              		.loc 3 51 16
 1293 0034 13173700 		slli	a4,a4,3
 1294 0038 B387E700 		add	a5,a5,a4
  51:src/../h/circular_buffer.hpp ****     this->tail = (this->tail + 1) % this->capacity;
 1295              		.loc 3 51 5
 1296 003c 23B02701 		sd	s2,0(a5)
  52:src/../h/circular_buffer.hpp ****     this->size++;
 1297              		.loc 3 52 25
 1298 0040 83A7C400 		lw	a5,12(s1)
  52:src/../h/circular_buffer.hpp ****     this->size++;
 1299              		.loc 3 52 30
 1300 0044 9B871700 		addiw	a5,a5,1
  52:src/../h/circular_buffer.hpp ****     this->size++;
 1301              		.loc 3 52 43
 1302 0048 03A74401 		lw	a4,20(s1)
  52:src/../h/circular_buffer.hpp ****     this->size++;
 1303              		.loc 3 52 35
 1304 004c BBE7E702 		remw	a5,a5,a4
  52:src/../h/circular_buffer.hpp ****     this->size++;
 1305              		.loc 3 52 5
 1306 0050 23A6F400 		sw	a5,12(s1)
  53:src/../h/circular_buffer.hpp **** }
 1307              		.loc 3 53 11
 1308 0054 83A70401 		lw	a5,16(s1)
  53:src/../h/circular_buffer.hpp **** }
 1309              		.loc 3 53 5
 1310 0058 9B871700 		addiw	a5,a5,1
 1311 005c 23A8F400 		sw	a5,16(s1)
  54:src/../h/circular_buffer.hpp **** 
 1312              		.loc 3 54 1
 1313 0060 83308101 		ld	ra,24(sp)
 1314              		.cfi_remember_state
 1315              		.cfi_restore 1
 1316 0064 03340101 		ld	s0,16(sp)
 1317              		.cfi_restore 8
 1318              		.cfi_def_cfa 2, 32
 1319 0068 83348100 		ld	s1,8(sp)
 1320              		.cfi_restore 9
 1321              	.LVL127:
 1322 006c 03390100 		ld	s2,0(sp)
 1323              		.cfi_restore 18
 1324              	.LVL128:
 1325 0070 13010102 		addi	sp,sp,32
 1326              		.cfi_def_cfa_offset 0
 1327 0074 67800000 		jr	ra
 1328              	.LVL129:
 1329              	.L62:
 1330              		.cfi_restore_state
  49:src/../h/circular_buffer.hpp ****     }
 1331              		.loc 3 49 9
 1332 0078 97000000 		call	_ZN3stm14CircularBufferIP3TCBE6extendEv
 1332      E7800000 
 1333              	.LVL130:
 1334 0080 6FF0DFFA 		j	.L60
 1335              		.cfi_endproc
 1336              	.LFE67:
GAS LISTING /tmp/ccelktR0.s 			page 34


 1338              		.text
 1339              		.align	2
 1340              		.globl	_ZN3TCB12_thread_joinEPS_
 1342              	_ZN3TCB12_thread_joinEPS_:
 1343              	.LFB56:
  79:src/c_thread.cpp **** void TCB::_thread_join(thread_t handle) {
 1344              		.loc 1 79 41 is_stmt 1
 1345              		.cfi_startproc
 1346              	.LVL131:
  80:src/c_thread.cpp ****     if (handle->is_finished())
 1347              		.loc 1 80 5
 1348              	.LBB71:
 1349              	.LBB72:
  59:src/../h/c_thread.hpp **** 
 1350              		.loc 2 59 32
  59:src/../h/c_thread.hpp **** 
 1351              		.loc 2 59 45 is_stmt 0
 1352 069c 03278504 		lw	a4,72(a0)
 1353              	.LVL132:
 1354              	.LBE72:
 1355              	.LBE71:
  80:src/c_thread.cpp ****     if (handle->is_finished())
 1356              		.loc 1 80 5
 1357 06a0 93074000 		li	a5,4
 1358 06a4 6304F704 		beq	a4,a5,.L66
  79:src/c_thread.cpp **** void TCB::_thread_join(thread_t handle) {
 1359              		.loc 1 79 41
 1360 06a8 130101FF 		addi	sp,sp,-16
 1361              		.cfi_def_cfa_offset 16
 1362 06ac 23341100 		sd	ra,8(sp)
 1363 06b0 23308100 		sd	s0,0(sp)
 1364              		.cfi_offset 1, -8
 1365              		.cfi_offset 8, -16
 1366 06b4 13040101 		addi	s0,sp,16
 1367              		.cfi_def_cfa 8, 0
  82:src/c_thread.cpp ****     TCB::running->enjoin();
 1368              		.loc 1 82 5 is_stmt 1
  82:src/c_thread.cpp ****     TCB::running->enjoin();
 1369              		.loc 1 82 25 is_stmt 0
 1370 06b8 97050000 		ld	a1,.LANCHOR0
 1370      83B50500 
 1371              	.LVL133:
 1372              	.LBB73:
 1373              	.LBB74:
  67:src/../h/c_thread.hpp **** 
 1374              		.loc 2 67 21 is_stmt 1
  67:src/../h/c_thread.hpp **** 
 1375              		.loc 2 67 34 is_stmt 0
 1376 06c0 93073000 		li	a5,3
 1377 06c4 23A4F504 		sw	a5,72(a1)
 1378              	.LVL134:
 1379              	.LBE74:
 1380              	.LBE73:
  83:src/c_thread.cpp ****     handle->joiner.put(TCB::running);
 1381              		.loc 1 83 5 is_stmt 1
  83:src/c_thread.cpp ****     handle->joiner.put(TCB::running);
 1382              		.loc 1 83 23 is_stmt 0
GAS LISTING /tmp/ccelktR0.s 			page 35


 1383 06c8 13050506 		addi	a0,a0,96
 1384              	.LVL135:
 1385 06cc 97000000 		call	_ZN3stm14CircularBufferIP3TCBE3putES2_
 1385      E7800000 
 1386              	.LVL136:
  84:src/c_thread.cpp ****     TCB::_thread_dispatch();
 1387              		.loc 1 84 5 is_stmt 1
  84:src/c_thread.cpp ****     TCB::_thread_dispatch();
 1388              		.loc 1 84 26 is_stmt 0
 1389 06d4 97000000 		call	_ZN3TCB16_thread_dispatchEv
 1389      E7800000 
 1390              	.LVL137:
  85:src/c_thread.cpp **** }
 1391              		.loc 1 85 1
 1392 06dc 83308100 		ld	ra,8(sp)
 1393              		.cfi_restore 1
 1394 06e0 03340100 		ld	s0,0(sp)
 1395              		.cfi_restore 8
 1396              		.cfi_def_cfa 2, 16
 1397 06e4 13010101 		addi	sp,sp,16
 1398              		.cfi_def_cfa_offset 0
 1399 06e8 67800000 		jr	ra
 1400              	.LVL138:
 1401              	.L66:
 1402 06ec 67800000 		ret
 1403              		.cfi_endproc
 1404              	.LFE56:
 1406              		.align	2
 1407              		.globl	_ZN3TCB17_thread_join_timeEPS_m
 1409              	_ZN3TCB17_thread_join_timeEPS_m:
 1410              	.LFB57:
  87:src/c_thread.cpp **** void TCB::_thread_join_time(thread_t handle, time_t time) {
 1411              		.loc 1 87 59 is_stmt 1
 1412              		.cfi_startproc
 1413              	.LVL139:
  88:src/c_thread.cpp ****     if (handle->is_finished())
 1414              		.loc 1 88 5
 1415              	.LBB75:
 1416              	.LBB76:
  59:src/../h/c_thread.hpp **** 
 1417              		.loc 2 59 32
  59:src/../h/c_thread.hpp **** 
 1418              		.loc 2 59 45 is_stmt 0
 1419 06f0 03278504 		lw	a4,72(a0)
 1420              	.LVL140:
 1421              	.LBE76:
 1422              	.LBE75:
  88:src/c_thread.cpp ****     if (handle->is_finished())
 1423              		.loc 1 88 5
 1424 06f4 93074000 		li	a5,4
 1425 06f8 6308F706 		beq	a4,a5,.L72
  87:src/c_thread.cpp **** void TCB::_thread_join_time(thread_t handle, time_t time) {
 1426              		.loc 1 87 59
 1427 06fc 130101FE 		addi	sp,sp,-32
 1428              		.cfi_def_cfa_offset 32
 1429 0700 233C1100 		sd	ra,24(sp)
 1430 0704 23388100 		sd	s0,16(sp)
GAS LISTING /tmp/ccelktR0.s 			page 36


 1431 0708 23349100 		sd	s1,8(sp)
 1432 070c 23302101 		sd	s2,0(sp)
 1433              		.cfi_offset 1, -8
 1434              		.cfi_offset 8, -16
 1435              		.cfi_offset 9, -24
 1436              		.cfi_offset 18, -32
 1437 0710 13040102 		addi	s0,sp,32
 1438              		.cfi_def_cfa 8, 0
 1439 0714 93840500 		mv	s1,a1
  90:src/c_thread.cpp ****     TCB::running->enjoin();
 1440              		.loc 1 90 5 is_stmt 1
  90:src/c_thread.cpp ****     TCB::running->enjoin();
 1441              		.loc 1 90 25 is_stmt 0
 1442 0718 17090000 		lla	s2,.LANCHOR0
 1442      13090900 
 1443 0720 83350900 		ld	a1,0(s2)
 1444              	.LVL141:
 1445              	.LBB77:
 1446              	.LBB78:
  67:src/../h/c_thread.hpp **** 
 1447              		.loc 2 67 21 is_stmt 1
  67:src/../h/c_thread.hpp **** 
 1448              		.loc 2 67 34 is_stmt 0
 1449 0724 93073000 		li	a5,3
 1450 0728 23A4F504 		sw	a5,72(a1)
 1451              	.LVL142:
 1452              	.LBE78:
 1453              	.LBE77:
  91:src/c_thread.cpp ****     handle->joiner.put(TCB::running);
 1454              		.loc 1 91 5 is_stmt 1
  91:src/c_thread.cpp ****     handle->joiner.put(TCB::running);
 1455              		.loc 1 91 23 is_stmt 0
 1456 072c 13050506 		addi	a0,a0,96
 1457              	.LVL143:
 1458 0730 97000000 		call	_ZN3stm14CircularBufferIP3TCBE3putES2_
 1458      E7800000 
 1459              	.LVL144:
  92:src/c_thread.cpp ****     Cradle::insert(TCB::running, time);
 1460              		.loc 1 92 5 is_stmt 1
  92:src/c_thread.cpp ****     Cradle::insert(TCB::running, time);
 1461              		.loc 1 92 19 is_stmt 0
 1462 0738 93850400 		mv	a1,s1
 1463 073c 03350900 		ld	a0,0(s2)
 1464 0740 97000000 		call	_ZN6Cradle6insertEP3TCBm@plt
 1464      E7800000 
 1465              	.LVL145:
  93:src/c_thread.cpp ****     TCB::_thread_dispatch();
 1466              		.loc 1 93 5 is_stmt 1
  93:src/c_thread.cpp ****     TCB::_thread_dispatch();
 1467              		.loc 1 93 26 is_stmt 0
 1468 0748 97000000 		call	_ZN3TCB16_thread_dispatchEv
 1468      E7800000 
 1469              	.LVL146:
  94:src/c_thread.cpp **** }
 1470              		.loc 1 94 1
 1471 0750 83308101 		ld	ra,24(sp)
 1472              		.cfi_restore 1
GAS LISTING /tmp/ccelktR0.s 			page 37


 1473 0754 03340101 		ld	s0,16(sp)
 1474              		.cfi_restore 8
 1475              		.cfi_def_cfa 2, 32
 1476 0758 83348100 		ld	s1,8(sp)
 1477              		.cfi_restore 9
 1478              	.LVL147:
 1479 075c 03390100 		ld	s2,0(sp)
 1480              		.cfi_restore 18
 1481 0760 13010102 		addi	sp,sp,32
 1482              		.cfi_def_cfa_offset 0
 1483 0764 67800000 		jr	ra
 1484              	.LVL148:
 1485              	.L72:
 1486 0768 67800000 		ret
 1487              		.cfi_endproc
 1488              	.LFE57:
 1490              		.globl	_ZN3TCB13timer_counterE
 1491              		.globl	_ZN3TCB7runningE
 1492              		.globl	_ZN3TCB2IDE
 1493              		.bss
 1494              		.align	3
 1495              		.set	.LANCHOR0,. + 0
 1498              	_ZN3TCB7runningE:
 1499 0000 00000000 		.zero	8
 1499      00000000 
 1502              	_ZN3TCB2IDE:
 1503 0008 00000000 		.zero	4
 1504 000c 00000000 		.zero	4
 1507              	_ZN3TCB13timer_counterE:
 1508 0010 00000000 		.zero	8
 1508      00000000 
 1509              		.text
 1510              	.Letext0:
 1511              		.file 5 "src/../h/../lib/hw.h"
 1512              		.file 6 "src/../h/syscall_c.hpp"
 1513              		.file 7 "src/../h/c_memory.hpp"
 1514              		.file 8 "src/../h/riscv.hpp"
 1515              		.file 9 "src/../h/c_sleep.hpp"
 1516              		.file 10 "src/../h/c_console.hpp"
 6658              		.align	3
 6661              	DW.ref.__gxx_personality_v0:
 6662 0000 00000000 		.dword	__gxx_personality_v0
 6662      00000000 
 6663              		.ident	"GCC: (Ubuntu 9.4.0-1ubuntu1~20.04) 9.4.0"
 6664              		.section	.note.GNU-stack,"",@progbits
GAS LISTING /tmp/ccelktR0.s 			page 38


DEFINED SYMBOLS
                            *ABS*:0000000000000000 c_thread.cpp
     /tmp/ccelktR0.s:9      .text:0000000000000000 _ZN3TCB12thread_startEv
     /tmp/ccelktR0.s:13     .text:0000000000000000 .L0 
     /tmp/ccelktR0.s:14     .text:0000000000000000 .L0 
     /tmp/ccelktR0.s:15     .text:0000000000000004 .L0 
     /tmp/ccelktR0.s:18     .text:000000000000000c .L0 
     /tmp/ccelktR0.s:19     .text:000000000000000c .L0 
     /tmp/ccelktR0.s:21     .text:0000000000000010 .L0 
     /tmp/ccelktR0.s:23     .text:0000000000000010 .L0 
     /tmp/ccelktR0.s:24     .text:0000000000000010 .L0 
     /tmp/ccelktR0.s:27     .text:0000000000000018 .L0 
     /tmp/ccelktR0.s:28     .text:0000000000000018 .L0 
     /tmp/ccelktR0.s:31     .text:0000000000000024 .L0 
     /tmp/ccelktR0.s:35     .text:000000000000002c .L0 
     /tmp/ccelktR0.s:36     .text:000000000000002c .L0 
     /tmp/ccelktR0.s:39     .text:0000000000000034 .L0 
     /tmp/ccelktR0.s:40     .text:0000000000000038 .L0 
     /tmp/ccelktR0.s:42     .text:000000000000003c .L0 
     /tmp/ccelktR0.s:43     .text:000000000000003c .L0 
     /tmp/ccelktR0.s:45     .text:0000000000000040 .L0 
     /tmp/ccelktR0.s:47     .text:0000000000000044 .L0 
     /tmp/ccelktR0.s:53     .text:0000000000000044 _ZN3TCB9duplicateEPS_S0_
     /tmp/ccelktR0.s:56     .text:0000000000000044 .L0 
     /tmp/ccelktR0.s:58     .text:0000000000000044 .L0 
     /tmp/ccelktR0.s:59     .text:0000000000000048 .L0 
     /tmp/ccelktR0.s:64     .text:0000000000000058 .L0 
     /tmp/ccelktR0.s:65     .text:0000000000000058 .L0 
     /tmp/ccelktR0.s:66     .text:0000000000000058 .L0 
     /tmp/ccelktR0.s:67     .text:0000000000000058 .L0 
     /tmp/ccelktR0.s:69     .text:000000000000005c .L0 
     /tmp/ccelktR0.s:73     .text:0000000000000064 .L0 
     /tmp/ccelktR0.s:74     .text:0000000000000064 .L0 
     /tmp/ccelktR0.s:77     .text:000000000000006c .L0 
     /tmp/ccelktR0.s:78     .text:000000000000006c .L0 
     /tmp/ccelktR0.s:84     .text:0000000000000080 .L0 
     /tmp/ccelktR0.s:85     .text:0000000000000080 .L0 
     /tmp/ccelktR0.s:94     .text:00000000000000a0 .L0 
     /tmp/ccelktR0.s:95     .text:00000000000000a0 .L0 
     /tmp/ccelktR0.s:98     .text:00000000000000a8 .L0 
     /tmp/ccelktR0.s:99     .text:00000000000000ac .L0 
     /tmp/ccelktR0.s:101    .text:00000000000000b0 .L0 
     /tmp/ccelktR0.s:102    .text:00000000000000b0 .L0 
     /tmp/ccelktR0.s:104    .text:00000000000000b4 .L0 
     /tmp/ccelktR0.s:107    .text:00000000000000b8 .L0 
     /tmp/ccelktR0.s:110    .text:00000000000000bc .L0 
     /tmp/ccelktR0.s:112    .text:00000000000000c0 .L0 
     /tmp/ccelktR0.s:118    .text:00000000000000c0 _ZN3TCB5_killEPS_
     /tmp/ccelktR0.s:121    .text:00000000000000c0 .L0 
     /tmp/ccelktR0.s:123    .text:00000000000000c0 .L0 
     /tmp/ccelktR0.s:124    .text:00000000000000c4 .L0 
     /tmp/ccelktR0.s:126    .text:00000000000000c8 .L0 
     /tmp/ccelktR0.s:128    .text:00000000000000cc .L0 
     /tmp/ccelktR0.s:130    .text:00000000000000cc .L0 
     /tmp/ccelktR0.s:136    .text:00000000000000d0 .L0 
     /tmp/ccelktR0.s:137    .text:00000000000000d0 .L0 
     /tmp/ccelktR0.s:138    .text:00000000000000d0 .L0 
GAS LISTING /tmp/ccelktR0.s 			page 39


     /tmp/ccelktR0.s:143    .text:00000000000000d4 .L0 
     /tmp/ccelktR0.s:146    .text:00000000000000dc .L0 
     /tmp/ccelktR0.s:147    .text:00000000000000dc .L0 
     /tmp/ccelktR0.s:149    .text:00000000000000e0 .L0 
     /tmp/ccelktR0.s:151    .text:00000000000000e8 .L0 
     /tmp/ccelktR0.s:156    .text:00000000000000ec .L0 
     /tmp/ccelktR0.s:157    .text:00000000000000ec .L0 
     /tmp/ccelktR0.s:158    .text:00000000000000ec .L0 
     /tmp/ccelktR0.s:164    .text:00000000000000f4 .L0 
     /tmp/ccelktR0.s:165    .text:00000000000000f4 .L0 
     /tmp/ccelktR0.s:169    .text:00000000000000f8 .L0 
     /tmp/ccelktR0.s:170    .text:00000000000000fc .L0 
     /tmp/ccelktR0.s:171    .text:00000000000000fc .L0 
     /tmp/ccelktR0.s:172    .text:00000000000000fc .L0 
     /tmp/ccelktR0.s:174    .text:0000000000000100 .L0 
     /tmp/ccelktR0.s:178    .text:0000000000000104 .L0 
     /tmp/ccelktR0.s:180    .text:0000000000000104 .L0 
     /tmp/ccelktR0.s:186    .text:000000000000010c .L0 
     /tmp/ccelktR0.s:192    .text:0000000000000114 .L0 
     /tmp/ccelktR0.s:195    .text:000000000000011c .L0 
     /tmp/ccelktR0.s:202    .text._ZN3stm14CircularBufferIP3TCBE4initEv:0000000000000000 _ZN3stm14CircularBufferIP3TCBE4initEv
     /tmp/ccelktR0.s:206    .text._ZN3stm14CircularBufferIP3TCBE4initEv:0000000000000000 .L0 
     /tmp/ccelktR0.s:208    .text._ZN3stm14CircularBufferIP3TCBE4initEv:0000000000000000 .L0 
     /tmp/ccelktR0.s:209    .text._ZN3stm14CircularBufferIP3TCBE4initEv:0000000000000004 .L0 
     /tmp/ccelktR0.s:213    .text._ZN3stm14CircularBufferIP3TCBE4initEv:0000000000000010 .L0 
     /tmp/ccelktR0.s:214    .text._ZN3stm14CircularBufferIP3TCBE4initEv:0000000000000010 .L0 
     /tmp/ccelktR0.s:215    .text._ZN3stm14CircularBufferIP3TCBE4initEv:0000000000000010 .L0 
     /tmp/ccelktR0.s:217    .text._ZN3stm14CircularBufferIP3TCBE4initEv:0000000000000014 .L0 
     /tmp/ccelktR0.s:220    .text._ZN3stm14CircularBufferIP3TCBE4initEv:0000000000000018 .L0 
     /tmp/ccelktR0.s:222    .text._ZN3stm14CircularBufferIP3TCBE4initEv:000000000000001c .L0 
     /tmp/ccelktR0.s:224    .text._ZN3stm14CircularBufferIP3TCBE4initEv:0000000000000020 .L0 
     /tmp/ccelktR0.s:226    .text._ZN3stm14CircularBufferIP3TCBE4initEv:0000000000000024 .L0 
     /tmp/ccelktR0.s:229    .text._ZN3stm14CircularBufferIP3TCBE4initEv:000000000000002c .L0 
     /tmp/ccelktR0.s:234    .text._ZN3stm14CircularBufferIP3TCBE4initEv:0000000000000038 .L0 
     /tmp/ccelktR0.s:236    .text._ZN3stm14CircularBufferIP3TCBE4initEv:000000000000003c .L0 
     /tmp/ccelktR0.s:237    .text._ZN3stm14CircularBufferIP3TCBE4initEv:0000000000000040 .L0 
     /tmp/ccelktR0.s:239    .text._ZN3stm14CircularBufferIP3TCBE4initEv:0000000000000044 .L0 
     /tmp/ccelktR0.s:240    .text._ZN3stm14CircularBufferIP3TCBE4initEv:0000000000000044 .L0 
     /tmp/ccelktR0.s:242    .text._ZN3stm14CircularBufferIP3TCBE4initEv:0000000000000048 .L0 
     /tmp/ccelktR0.s:245    .text._ZN3stm14CircularBufferIP3TCBE4initEv:000000000000004c .L0 
     /tmp/ccelktR0.s:247    .text._ZN3stm14CircularBufferIP3TCBE4initEv:0000000000000050 .L0 
     /tmp/ccelktR0.s:254    .text:000000000000011c _ZN3TCBC2EPFvPvES0_S0_7Context
     /tmp/ccelktR0.s:257    .text:000000000000011c .L0 
     /tmp/ccelktR0.s:259    .text:000000000000011c .L0 
     /tmp/ccelktR0.s:260    .text:0000000000000120 .L0 
     /tmp/ccelktR0.s:265    .text:0000000000000130 .L0 
     /tmp/ccelktR0.s:266    .text:0000000000000130 .L0 
     /tmp/ccelktR0.s:267    .text:0000000000000130 .L0 
     /tmp/ccelktR0.s:268    .text:0000000000000130 .L0 
     /tmp/ccelktR0.s:270    .text:0000000000000134 .L0 
     /tmp/ccelktR0.s:274    .text:0000000000000138 .L0 
     /tmp/ccelktR0.s:280    .text:000000000000014c .L0 
     /tmp/ccelktR0.s:307    .text:00000000000001a8 .L0 
     /tmp/ccelktR0.s:308    .text:00000000000001a8 .L0 
     /tmp/ccelktR0.s:312    .text:00000000000001b4 .L0 
     /tmp/ccelktR0.s:313    .text:00000000000001b4 .L0 
     /tmp/ccelktR0.s:317    .text:00000000000001bc .L0 
GAS LISTING /tmp/ccelktR0.s 			page 40


     /tmp/ccelktR0.s:318    .text:00000000000001c0 .L0 
     /tmp/ccelktR0.s:320    .text:00000000000001c4 .L0 
     /tmp/ccelktR0.s:321    .text:00000000000001c4 .L0 
     /tmp/ccelktR0.s:323    .text:00000000000001c8 .L0 
     /tmp/ccelktR0.s:326    .text:00000000000001cc .L0 
     /tmp/ccelktR0.s:328    .text:00000000000001d0 .L0 
     /tmp/ccelktR0.s:330    .text:00000000000001d4 .L0 
     /tmp/ccelktR0.s:254    .text:000000000000011c _ZN3TCBC1EPFvPvES0_S0_7Context
     /tmp/ccelktR0.s:338    .text:00000000000001d4 _ZN3TCB14_thread_createEPPS_PFvPvES2_S2_
     /tmp/ccelktR0.s:341    .text:00000000000001d4 .L0 
     /tmp/ccelktR0.s:6661   .data.rel.local.DW.ref.__gxx_personality_v0:0000000000000000 DW.ref.__gxx_personality_v0
     /tmp/ccelktR0.s:345    .text:00000000000001d4 .L0 
     /tmp/ccelktR0.s:346    .text:00000000000001d8 .L0 
     /tmp/ccelktR0.s:354    .text:00000000000001f4 .L0 
     /tmp/ccelktR0.s:355    .text:00000000000001f4 .L0 
     /tmp/ccelktR0.s:356    .text:00000000000001f4 .L0 
     /tmp/ccelktR0.s:357    .text:00000000000001f4 .L0 
     /tmp/ccelktR0.s:358    .text:00000000000001f4 .L0 
     /tmp/ccelktR0.s:359    .text:00000000000001f4 .L0 
     /tmp/ccelktR0.s:360    .text:00000000000001f4 .L0 
     /tmp/ccelktR0.s:362    .text:00000000000001f8 .L0 
     /tmp/ccelktR0.s:368    .text:0000000000000208 .L0 
     /tmp/ccelktR0.s:369    .text:0000000000000208 .L0 
     /tmp/ccelktR0.s:374    .text:000000000000021c .L0 
     /tmp/ccelktR0.s:378    .text:0000000000000228 .L0 
     /tmp/ccelktR0.s:380    .text:000000000000022c .L0 
     /tmp/ccelktR0.s:404    .text:0000000000000274 .L0 
     /tmp/ccelktR0.s:406    .text:0000000000000278 .L0 
     /tmp/ccelktR0.s:408    .text:000000000000027c .L0 
     /tmp/ccelktR0.s:409    .text:000000000000027c .L0 
     /tmp/ccelktR0.s:415    .text:0000000000000288 .L0 
     /tmp/ccelktR0.s:416    .text:0000000000000288 .L0 
     /tmp/ccelktR0.s:418    .text:000000000000028c .L0 
     /tmp/ccelktR0.s:420    .text:0000000000000290 .L0 
     /tmp/ccelktR0.s:421    .text:0000000000000294 .L0 
     /tmp/ccelktR0.s:422    .text:0000000000000294 .L0 
     /tmp/ccelktR0.s:424    .text:0000000000000298 .L0 
     /tmp/ccelktR0.s:425    .text:0000000000000298 .L0 
     /tmp/ccelktR0.s:427    .text:000000000000029c .L0 
     /tmp/ccelktR0.s:429    .text:00000000000002a0 .L0 
     /tmp/ccelktR0.s:432    .text:00000000000002a4 .L0 
     /tmp/ccelktR0.s:435    .text:00000000000002a8 .L0 
     /tmp/ccelktR0.s:438    .text:00000000000002ac .L0 
     /tmp/ccelktR0.s:441    .text:00000000000002b0 .L0 
     /tmp/ccelktR0.s:446    .text:00000000000002b4 .L0 
     /tmp/ccelktR0.s:448    .text:00000000000002b4 .L0 
     /tmp/ccelktR0.s:449    .text:00000000000002b4 .L0 
     /tmp/ccelktR0.s:455    .text:00000000000002c4 .L0 
     /tmp/ccelktR0.s:462    .text:00000000000002dc .L0 
     /tmp/ccelktR0.s:488    .text:00000000000002dc _ZN3TCBC2ERS_
     /tmp/ccelktR0.s:491    .text:00000000000002dc .L0 
     /tmp/ccelktR0.s:493    .text:00000000000002dc .L0 
     /tmp/ccelktR0.s:494    .text:00000000000002e0 .L0 
     /tmp/ccelktR0.s:499    .text:00000000000002f0 .L0 
     /tmp/ccelktR0.s:500    .text:00000000000002f0 .L0 
     /tmp/ccelktR0.s:501    .text:00000000000002f0 .L0 
     /tmp/ccelktR0.s:502    .text:00000000000002f0 .L0 
GAS LISTING /tmp/ccelktR0.s 			page 41


     /tmp/ccelktR0.s:504    .text:00000000000002f4 .L0 
     /tmp/ccelktR0.s:509    .text:00000000000002fc .L0 
     /tmp/ccelktR0.s:514    .text:0000000000000310 .L0 
     /tmp/ccelktR0.s:516    .text:0000000000000314 .L0 
     /tmp/ccelktR0.s:518    .text:0000000000000318 .L0 
     /tmp/ccelktR0.s:520    .text:000000000000031c .L0 
     /tmp/ccelktR0.s:522    .text:0000000000000320 .L0 
     /tmp/ccelktR0.s:524    .text:0000000000000324 .L0 
     /tmp/ccelktR0.s:529    .text:0000000000000330 .L0 
     /tmp/ccelktR0.s:549    .text:000000000000037c .L0 
     /tmp/ccelktR0.s:550    .text:000000000000037c .L0 
     /tmp/ccelktR0.s:555    .text:0000000000000388 .L0 
     /tmp/ccelktR0.s:556    .text:000000000000038c .L0 
     /tmp/ccelktR0.s:558    .text:0000000000000390 .L0 
     /tmp/ccelktR0.s:559    .text:0000000000000390 .L0 
     /tmp/ccelktR0.s:561    .text:0000000000000394 .L0 
     /tmp/ccelktR0.s:564    .text:0000000000000398 .L0 
     /tmp/ccelktR0.s:567    .text:000000000000039c .L0 
     /tmp/ccelktR0.s:569    .text:00000000000003a0 .L0 
     /tmp/ccelktR0.s:488    .text:00000000000002dc _ZN3TCBC1ERS_
     /tmp/ccelktR0.s:577    .text:00000000000003a0 _ZN3TCB5_forkEv
     /tmp/ccelktR0.s:580    .text:00000000000003a0 .L0 
     /tmp/ccelktR0.s:583    .text:00000000000003a0 .L0 
     /tmp/ccelktR0.s:584    .text:00000000000003a4 .L0 
     /tmp/ccelktR0.s:590    .text:00000000000003b8 .L0 
     /tmp/ccelktR0.s:591    .text:00000000000003b8 .L0 
     /tmp/ccelktR0.s:592    .text:00000000000003b8 .L0 
     /tmp/ccelktR0.s:593    .text:00000000000003b8 .L0 
     /tmp/ccelktR0.s:594    .text:00000000000003b8 .L0 
     /tmp/ccelktR0.s:596    .text:00000000000003bc .L0 
     /tmp/ccelktR0.s:598    .text:00000000000003bc .L0 
     /tmp/ccelktR0.s:599    .text:00000000000003bc .L0 
     /tmp/ccelktR0.s:602    .text:00000000000003c8 .L0 
     /tmp/ccelktR0.s:605    .text:00000000000003cc .L0 
     /tmp/ccelktR0.s:606    .text:00000000000003cc .L0 
     /tmp/ccelktR0.s:618    .text:00000000000003e8 .L0 
     /tmp/ccelktR0.s:619    .text:00000000000003e8 .L0 
     /tmp/ccelktR0.s:625    .text:00000000000003f8 .L0 
     /tmp/ccelktR0.s:626    .text:00000000000003f8 .L0 
     /tmp/ccelktR0.s:631    .text:0000000000000408 .L0 
     /tmp/ccelktR0.s:632    .text:0000000000000408 .L0 
     /tmp/ccelktR0.s:636    .text:0000000000000414 .L0 
     /tmp/ccelktR0.s:637    .text:0000000000000414 .L0 
     /tmp/ccelktR0.s:641    .text:0000000000000420 .L0 
     /tmp/ccelktR0.s:642    .text:0000000000000420 .L0 
     /tmp/ccelktR0.s:646    .text:000000000000042c .L0 
     /tmp/ccelktR0.s:647    .text:000000000000042c .L0 
     /tmp/ccelktR0.s:651    .text:0000000000000438 .L0 
     /tmp/ccelktR0.s:652    .text:0000000000000438 .L0 
     /tmp/ccelktR0.s:656    .text:0000000000000444 .L0 
     /tmp/ccelktR0.s:657    .text:0000000000000444 .L0 
     /tmp/ccelktR0.s:660    .text:000000000000044c .L0 
     /tmp/ccelktR0.s:662    .text:0000000000000450 .L0 
     /tmp/ccelktR0.s:663    .text:0000000000000450 .L0 
     /tmp/ccelktR0.s:666    .text:0000000000000458 .L0 
     /tmp/ccelktR0.s:667    .text:0000000000000458 .L0 
     /tmp/ccelktR0.s:670    .text:000000000000045c .L0 
GAS LISTING /tmp/ccelktR0.s 			page 42


     /tmp/ccelktR0.s:671    .text:0000000000000460 .L0 
     /tmp/ccelktR0.s:672    .text:0000000000000460 .L0 
     /tmp/ccelktR0.s:674    .text:0000000000000464 .L0 
     /tmp/ccelktR0.s:675    .text:0000000000000464 .L0 
     /tmp/ccelktR0.s:677    .text:0000000000000468 .L0 
     /tmp/ccelktR0.s:680    .text:000000000000046c .L0 
     /tmp/ccelktR0.s:682    .text:0000000000000470 .L0 
     /tmp/ccelktR0.s:685    .text:0000000000000474 .L0 
     /tmp/ccelktR0.s:689    .text:0000000000000478 .L0 
     /tmp/ccelktR0.s:691    .text:0000000000000478 .L0 
     /tmp/ccelktR0.s:692    .text:0000000000000478 .L0 
     /tmp/ccelktR0.s:696    .text:0000000000000484 .L0 
     /tmp/ccelktR0.s:697    .text:0000000000000484 .L0 
     /tmp/ccelktR0.s:703    .text:0000000000000490 .L0 
     /tmp/ccelktR0.s:710    .text:00000000000004a8 .L0 
     /tmp/ccelktR0.s:736    .text._ZN3stm14CircularBufferIP3TCBE3getEv:0000000000000000 _ZN3stm14CircularBufferIP3TCBE3getEv
     /tmp/ccelktR0.s:739    .text._ZN3stm14CircularBufferIP3TCBE3getEv:0000000000000000 .L0 
     /tmp/ccelktR0.s:741    .text._ZN3stm14CircularBufferIP3TCBE3getEv:0000000000000000 .L0 
     /tmp/ccelktR0.s:742    .text._ZN3stm14CircularBufferIP3TCBE3getEv:0000000000000004 .L0 
     /tmp/ccelktR0.s:744    .text._ZN3stm14CircularBufferIP3TCBE3getEv:0000000000000008 .L0 
     /tmp/ccelktR0.s:746    .text._ZN3stm14CircularBufferIP3TCBE3getEv:000000000000000c .L0 
     /tmp/ccelktR0.s:749    .text._ZN3stm14CircularBufferIP3TCBE3getEv:0000000000000010 .L0 
     /tmp/ccelktR0.s:751    .text._ZN3stm14CircularBufferIP3TCBE3getEv:0000000000000014 .L0 
     /tmp/ccelktR0.s:753    .text._ZN3stm14CircularBufferIP3TCBE3getEv:0000000000000018 .L0 
     /tmp/ccelktR0.s:756    .text._ZN3stm14CircularBufferIP3TCBE3getEv:0000000000000020 .L0 
     /tmp/ccelktR0.s:759    .text._ZN3stm14CircularBufferIP3TCBE3getEv:0000000000000024 .L0 
     /tmp/ccelktR0.s:761    .text._ZN3stm14CircularBufferIP3TCBE3getEv:0000000000000028 .L0 
     /tmp/ccelktR0.s:763    .text._ZN3stm14CircularBufferIP3TCBE3getEv:000000000000002c .L0 
     /tmp/ccelktR0.s:765    .text._ZN3stm14CircularBufferIP3TCBE3getEv:0000000000000030 .L0 
     /tmp/ccelktR0.s:767    .text._ZN3stm14CircularBufferIP3TCBE3getEv:0000000000000034 .L0 
     /tmp/ccelktR0.s:769    .text._ZN3stm14CircularBufferIP3TCBE3getEv:0000000000000038 .L0 
     /tmp/ccelktR0.s:772    .text._ZN3stm14CircularBufferIP3TCBE3getEv:0000000000000040 .L0 
     /tmp/ccelktR0.s:773    .text._ZN3stm14CircularBufferIP3TCBE3getEv:0000000000000044 .L0 
     /tmp/ccelktR0.s:774    .text._ZN3stm14CircularBufferIP3TCBE3getEv:0000000000000044 .L0 
     /tmp/ccelktR0.s:776    .text._ZN3stm14CircularBufferIP3TCBE3getEv:0000000000000048 .L0 
     /tmp/ccelktR0.s:778    .text._ZN3stm14CircularBufferIP3TCBE3getEv:000000000000004c .L0 
     /tmp/ccelktR0.s:785    .text._ZN3stm14CircularBufferIP3TCBE7destroyEv:0000000000000000 _ZN3stm14CircularBufferIP3TCBE7destroyEv
     /tmp/ccelktR0.s:788    .text._ZN3stm14CircularBufferIP3TCBE7destroyEv:0000000000000000 .L0 
     /tmp/ccelktR0.s:790    .text._ZN3stm14CircularBufferIP3TCBE7destroyEv:0000000000000000 .L0 
     /tmp/ccelktR0.s:791    .text._ZN3stm14CircularBufferIP3TCBE7destroyEv:0000000000000004 .L0 
     /tmp/ccelktR0.s:794    .text._ZN3stm14CircularBufferIP3TCBE7destroyEv:000000000000000c .L0 
     /tmp/ccelktR0.s:795    .text._ZN3stm14CircularBufferIP3TCBE7destroyEv:000000000000000c .L0 
     /tmp/ccelktR0.s:797    .text._ZN3stm14CircularBufferIP3TCBE7destroyEv:0000000000000010 .L0 
     /tmp/ccelktR0.s:799    .text._ZN3stm14CircularBufferIP3TCBE7destroyEv:0000000000000010 .L0 
     /tmp/ccelktR0.s:804    .text._ZN3stm14CircularBufferIP3TCBE7destroyEv:000000000000001c .L0 
     /tmp/ccelktR0.s:805    .text._ZN3stm14CircularBufferIP3TCBE7destroyEv:0000000000000020 .L0 
     /tmp/ccelktR0.s:807    .text._ZN3stm14CircularBufferIP3TCBE7destroyEv:0000000000000024 .L0 
     /tmp/ccelktR0.s:808    .text._ZN3stm14CircularBufferIP3TCBE7destroyEv:0000000000000024 .L0 
     /tmp/ccelktR0.s:810    .text._ZN3stm14CircularBufferIP3TCBE7destroyEv:0000000000000028 .L0 
     /tmp/ccelktR0.s:812    .text._ZN3stm14CircularBufferIP3TCBE7destroyEv:000000000000002c .L0 
     /tmp/ccelktR0.s:819    .text:00000000000004a8 _ZN3TCB14destroy_threadEPS_
     /tmp/ccelktR0.s:822    .text:00000000000004a8 .L0 
     /tmp/ccelktR0.s:824    .text:00000000000004a8 .L0 
     /tmp/ccelktR0.s:825    .text:00000000000004ac .L0 
     /tmp/ccelktR0.s:829    .text:00000000000004b8 .L0 
     /tmp/ccelktR0.s:830    .text:00000000000004b8 .L0 
     /tmp/ccelktR0.s:831    .text:00000000000004b8 .L0 
GAS LISTING /tmp/ccelktR0.s 			page 43


     /tmp/ccelktR0.s:833    .text:00000000000004bc .L0 
     /tmp/ccelktR0.s:838    .text:00000000000004c0 .L0 
     /tmp/ccelktR0.s:841    .text:00000000000004c0 .L0 
     /tmp/ccelktR0.s:842    .text:00000000000004c0 .L0 
     /tmp/ccelktR0.s:847    .text:00000000000004c4 .L0 
     /tmp/ccelktR0.s:850    .text:00000000000004c8 .L0 
     /tmp/ccelktR0.s:851    .text:00000000000004c8 .L0 
     /tmp/ccelktR0.s:857    .text:00000000000004d4 .L0 
     /tmp/ccelktR0.s:858    .text:00000000000004d4 .L0 
     /tmp/ccelktR0.s:859    .text:00000000000004d4 .L0 
     /tmp/ccelktR0.s:864    .text:00000000000004d8 .L0 
     /tmp/ccelktR0.s:870    .text:00000000000004e0 .L0 
     /tmp/ccelktR0.s:871    .text:00000000000004e0 .L0 
     /tmp/ccelktR0.s:872    .text:00000000000004e0 .L0 
     /tmp/ccelktR0.s:877    .text:00000000000004e4 .L0 
     /tmp/ccelktR0.s:878    .text:00000000000004e4 .L0 
     /tmp/ccelktR0.s:884    .text:00000000000004f0 .L0 
     /tmp/ccelktR0.s:885    .text:00000000000004f0 .L0 
     /tmp/ccelktR0.s:889    .text:00000000000004fc .L0 
     /tmp/ccelktR0.s:890    .text:00000000000004fc .L0 
     /tmp/ccelktR0.s:892    .text:0000000000000504 .L0 
     /tmp/ccelktR0.s:894    .text:0000000000000508 .L0 
     /tmp/ccelktR0.s:895    .text:0000000000000508 .L0 
     /tmp/ccelktR0.s:897    .text:000000000000050c .L0 
     /tmp/ccelktR0.s:900    .text:0000000000000510 .L0 
     /tmp/ccelktR0.s:902    .text:0000000000000514 .L0 
     /tmp/ccelktR0.s:908    .text:0000000000000514 _ZN3TCB5yieldEv
     /tmp/ccelktR0.s:911    .text:0000000000000514 .L0 
     /tmp/ccelktR0.s:912    .text:0000000000000514 .L0 
     /tmp/ccelktR0.s:913    .text:0000000000000518 .L0 
     /tmp/ccelktR0.s:917    .text:0000000000000524 .L0 
     /tmp/ccelktR0.s:918    .text:0000000000000524 .L0 
     /tmp/ccelktR0.s:919    .text:0000000000000524 .L0 
     /tmp/ccelktR0.s:921    .text:0000000000000528 .L0 
     /tmp/ccelktR0.s:923    .text:0000000000000528 .L0 
     /tmp/ccelktR0.s:924    .text:0000000000000528 .L0 
     /tmp/ccelktR0.s:929    .text:0000000000000530 .L0 
     /tmp/ccelktR0.s:930    .text:0000000000000530 .L0 
     /tmp/ccelktR0.s:931    .text:0000000000000530 .L0 
     /tmp/ccelktR0.s:936    .text:0000000000000534 .L0 
     /tmp/ccelktR0.s:938    .text:0000000000000538 .L0 
     /tmp/ccelktR0.s:941    .text:0000000000000544 .L0 
     /tmp/ccelktR0.s:943    .text:0000000000000548 .L0 
     /tmp/ccelktR0.s:944    .text:0000000000000548 .L0 
     /tmp/ccelktR0.s:951    .text:0000000000000558 .L0 
     /tmp/ccelktR0.s:952    .text:0000000000000558 .L0 
     /tmp/ccelktR0.s:953    .text:0000000000000558 .L0 
     /tmp/ccelktR0.s:960    .text:0000000000000560 .L0 
     /tmp/ccelktR0.s:964    .text:0000000000000560 .L0 
     /tmp/ccelktR0.s:965    .text:0000000000000560 .L0 
     /tmp/ccelktR0.s:971    .text:000000000000056c .L0 
     /tmp/ccelktR0.s:976    .text:0000000000000570 .L0 
     /tmp/ccelktR0.s:982    .text:000000000000057c .L0 
     /tmp/ccelktR0.s:987    .text:0000000000000580 .L0 
     /tmp/ccelktR0.s:993    .text:000000000000058c .L0 
     /tmp/ccelktR0.s:997    .text:0000000000000590 .L0 
     /tmp/ccelktR0.s:998    .text:0000000000000590 .L0 
GAS LISTING /tmp/ccelktR0.s 			page 44


     /tmp/ccelktR0.s:1004   .text:00000000000005a8 .L0 
     /tmp/ccelktR0.s:1005   .text:00000000000005a8 .L0 
     /tmp/ccelktR0.s:1011   .text:00000000000005b8 .L0 
     /tmp/ccelktR0.s:1012   .text:00000000000005b8 .L0 
     /tmp/ccelktR0.s:1017   .text:00000000000005c8 .L0 
     /tmp/ccelktR0.s:1022   .text:00000000000005d4 .L0 
     /tmp/ccelktR0.s:1023   .text:00000000000005d4 .L0 
     /tmp/ccelktR0.s:1028   .text:00000000000005dc .L0 
     /tmp/ccelktR0.s:1029   .text:00000000000005dc .L0 
     /tmp/ccelktR0.s:1034   .text:00000000000005e0 .L0 
     /tmp/ccelktR0.s:1037   .text:00000000000005e8 .L0 
     /tmp/ccelktR0.s:1038   .text:00000000000005e8 .L0 
     /tmp/ccelktR0.s:1041   .text:00000000000005f0 .L0 
     /tmp/ccelktR0.s:1044   .text:00000000000005f8 .L0 
     /tmp/ccelktR0.s:1045   .text:00000000000005f8 .L0 
     /tmp/ccelktR0.s:1051   .text:0000000000000610 .L0 
     /tmp/ccelktR0.s:1052   .text:0000000000000614 .L0 
     /tmp/ccelktR0.s:1054   .text:0000000000000618 .L0 
     /tmp/ccelktR0.s:1055   .text:0000000000000618 .L0 
     /tmp/ccelktR0.s:1057   .text:000000000000061c .L0 
     /tmp/ccelktR0.s:1060   .text:0000000000000620 .L0 
     /tmp/ccelktR0.s:1062   .text:0000000000000624 .L0 
     /tmp/ccelktR0.s:1068   .text:0000000000000624 _ZN3TCB16_thread_dispatchEv
     /tmp/ccelktR0.s:1071   .text:0000000000000624 .L0 
     /tmp/ccelktR0.s:1072   .text:0000000000000624 .L0 
     /tmp/ccelktR0.s:1073   .text:0000000000000628 .L0 
     /tmp/ccelktR0.s:1076   .text:0000000000000630 .L0 
     /tmp/ccelktR0.s:1077   .text:0000000000000630 .L0 
     /tmp/ccelktR0.s:1079   .text:0000000000000634 .L0 
     /tmp/ccelktR0.s:1081   .text:0000000000000634 .L0 
     /tmp/ccelktR0.s:1082   .text:0000000000000634 .L0 
     /tmp/ccelktR0.s:1085   .text:000000000000063c .L0 
     /tmp/ccelktR0.s:1086   .text:000000000000063c .L0 
     /tmp/ccelktR0.s:1089   .text:0000000000000644 .L0 
     /tmp/ccelktR0.s:1090   .text:0000000000000644 .L0 
     /tmp/ccelktR0.s:1093   .text:000000000000064c .L0 
     /tmp/ccelktR0.s:1094   .text:0000000000000650 .L0 
     /tmp/ccelktR0.s:1096   .text:0000000000000654 .L0 
     /tmp/ccelktR0.s:1097   .text:0000000000000654 .L0 
     /tmp/ccelktR0.s:1099   .text:0000000000000658 .L0 
     /tmp/ccelktR0.s:1101   .text:000000000000065c .L0 
     /tmp/ccelktR0.s:1107   .text:000000000000065c _ZN3TCB12_thread_exitEv
     /tmp/ccelktR0.s:1110   .text:000000000000065c .L0 
     /tmp/ccelktR0.s:1111   .text:000000000000065c .L0 
     /tmp/ccelktR0.s:1112   .text:0000000000000660 .L0 
     /tmp/ccelktR0.s:1115   .text:0000000000000668 .L0 
     /tmp/ccelktR0.s:1116   .text:0000000000000668 .L0 
     /tmp/ccelktR0.s:1118   .text:000000000000066c .L0 
     /tmp/ccelktR0.s:1120   .text:000000000000066c .L0 
     /tmp/ccelktR0.s:1121   .text:000000000000066c .L0 
     /tmp/ccelktR0.s:1126   .text:0000000000000674 .L0 
     /tmp/ccelktR0.s:1127   .text:0000000000000674 .L0 
     /tmp/ccelktR0.s:1133   .text:000000000000067c .L0 
     /tmp/ccelktR0.s:1134   .text:000000000000067c .L0 
     /tmp/ccelktR0.s:1137   .text:0000000000000684 .L0 
     /tmp/ccelktR0.s:1138   .text:0000000000000684 .L0 
     /tmp/ccelktR0.s:1141   .text:000000000000068c .L0 
GAS LISTING /tmp/ccelktR0.s 			page 45


     /tmp/ccelktR0.s:1142   .text:0000000000000690 .L0 
     /tmp/ccelktR0.s:1144   .text:0000000000000694 .L0 
     /tmp/ccelktR0.s:1145   .text:0000000000000694 .L0 
     /tmp/ccelktR0.s:1147   .text:0000000000000698 .L0 
     /tmp/ccelktR0.s:1149   .text:000000000000069c .L0 
     /tmp/ccelktR0.s:1156   .text._ZN3stm14CircularBufferIP3TCBE6extendEv:0000000000000000 _ZN3stm14CircularBufferIP3TCBE6extendEv
     /tmp/ccelktR0.s:1159   .text._ZN3stm14CircularBufferIP3TCBE6extendEv:0000000000000000 .L0 
     /tmp/ccelktR0.s:1161   .text._ZN3stm14CircularBufferIP3TCBE6extendEv:0000000000000000 .L0 
     /tmp/ccelktR0.s:1162   .text._ZN3stm14CircularBufferIP3TCBE6extendEv:0000000000000004 .L0 
     /tmp/ccelktR0.s:1167   .text._ZN3stm14CircularBufferIP3TCBE6extendEv:0000000000000014 .L0 
     /tmp/ccelktR0.s:1168   .text._ZN3stm14CircularBufferIP3TCBE6extendEv:0000000000000014 .L0 
     /tmp/ccelktR0.s:1169   .text._ZN3stm14CircularBufferIP3TCBE6extendEv:0000000000000014 .L0 
     /tmp/ccelktR0.s:1170   .text._ZN3stm14CircularBufferIP3TCBE6extendEv:0000000000000014 .L0 
     /tmp/ccelktR0.s:1172   .text._ZN3stm14CircularBufferIP3TCBE6extendEv:0000000000000018 .L0 
     /tmp/ccelktR0.s:1175   .text._ZN3stm14CircularBufferIP3TCBE6extendEv:000000000000001c .L0 
     /tmp/ccelktR0.s:1178   .text._ZN3stm14CircularBufferIP3TCBE6extendEv:0000000000000020 .L0 
     /tmp/ccelktR0.s:1185   .text._ZN3stm14CircularBufferIP3TCBE6extendEv:0000000000000030 .L0 
     /tmp/ccelktR0.s:1188   .text._ZN3stm14CircularBufferIP3TCBE6extendEv:0000000000000034 .L0 
     /tmp/ccelktR0.s:1192   .text._ZN3stm14CircularBufferIP3TCBE6extendEv:0000000000000038 .L0 
     /tmp/ccelktR0.s:1193   .text._ZN3stm14CircularBufferIP3TCBE6extendEv:0000000000000038 .L0 
     /tmp/ccelktR0.s:1195   .text._ZN3stm14CircularBufferIP3TCBE6extendEv:000000000000003c .L0 
     /tmp/ccelktR0.s:1197   .text._ZN3stm14CircularBufferIP3TCBE6extendEv:0000000000000040 .L0 
     /tmp/ccelktR0.s:1199   .text._ZN3stm14CircularBufferIP3TCBE6extendEv:0000000000000044 .L0 
     /tmp/ccelktR0.s:1202   .text._ZN3stm14CircularBufferIP3TCBE6extendEv:000000000000004c .L0 
     /tmp/ccelktR0.s:1206   .text._ZN3stm14CircularBufferIP3TCBE6extendEv:0000000000000058 .L0 
     /tmp/ccelktR0.s:1208   .text._ZN3stm14CircularBufferIP3TCBE6extendEv:000000000000005c .L0 
     /tmp/ccelktR0.s:1211   .text._ZN3stm14CircularBufferIP3TCBE6extendEv:0000000000000060 .L0 
     /tmp/ccelktR0.s:1214   .text._ZN3stm14CircularBufferIP3TCBE6extendEv:0000000000000064 .L0 
     /tmp/ccelktR0.s:1216   .text._ZN3stm14CircularBufferIP3TCBE6extendEv:0000000000000068 .L0 
     /tmp/ccelktR0.s:1223   .text._ZN3stm14CircularBufferIP3TCBE6extendEv:0000000000000070 .L0 
     /tmp/ccelktR0.s:1228   .text._ZN3stm14CircularBufferIP3TCBE6extendEv:000000000000007c .L0 
     /tmp/ccelktR0.s:1230   .text._ZN3stm14CircularBufferIP3TCBE6extendEv:0000000000000080 .L0 
     /tmp/ccelktR0.s:1232   .text._ZN3stm14CircularBufferIP3TCBE6extendEv:0000000000000084 .L0 
     /tmp/ccelktR0.s:1234   .text._ZN3stm14CircularBufferIP3TCBE6extendEv:0000000000000088 .L0 
     /tmp/ccelktR0.s:1236   .text._ZN3stm14CircularBufferIP3TCBE6extendEv:000000000000008c .L0 
     /tmp/ccelktR0.s:1238   .text._ZN3stm14CircularBufferIP3TCBE6extendEv:0000000000000090 .L0 
     /tmp/ccelktR0.s:1240   .text._ZN3stm14CircularBufferIP3TCBE6extendEv:0000000000000094 .L0 
     /tmp/ccelktR0.s:1241   .text._ZN3stm14CircularBufferIP3TCBE6extendEv:0000000000000098 .L0 
     /tmp/ccelktR0.s:1243   .text._ZN3stm14CircularBufferIP3TCBE6extendEv:000000000000009c .L0 
     /tmp/ccelktR0.s:1244   .text._ZN3stm14CircularBufferIP3TCBE6extendEv:000000000000009c .L0 
     /tmp/ccelktR0.s:1246   .text._ZN3stm14CircularBufferIP3TCBE6extendEv:00000000000000a0 .L0 
     /tmp/ccelktR0.s:1249   .text._ZN3stm14CircularBufferIP3TCBE6extendEv:00000000000000a4 .L0 
     /tmp/ccelktR0.s:1252   .text._ZN3stm14CircularBufferIP3TCBE6extendEv:00000000000000a8 .L0 
     /tmp/ccelktR0.s:1254   .text._ZN3stm14CircularBufferIP3TCBE6extendEv:00000000000000ac .L0 
     /tmp/ccelktR0.s:1261   .text._ZN3stm14CircularBufferIP3TCBE3putES2_:0000000000000000 _ZN3stm14CircularBufferIP3TCBE3putES2_
     /tmp/ccelktR0.s:1264   .text._ZN3stm14CircularBufferIP3TCBE3putES2_:0000000000000000 .L0 
     /tmp/ccelktR0.s:1266   .text._ZN3stm14CircularBufferIP3TCBE3putES2_:0000000000000000 .L0 
     /tmp/ccelktR0.s:1267   .text._ZN3stm14CircularBufferIP3TCBE3putES2_:0000000000000004 .L0 
     /tmp/ccelktR0.s:1272   .text._ZN3stm14CircularBufferIP3TCBE3putES2_:0000000000000014 .L0 
     /tmp/ccelktR0.s:1273   .text._ZN3stm14CircularBufferIP3TCBE3putES2_:0000000000000014 .L0 
     /tmp/ccelktR0.s:1274   .text._ZN3stm14CircularBufferIP3TCBE3putES2_:0000000000000014 .L0 
     /tmp/ccelktR0.s:1275   .text._ZN3stm14CircularBufferIP3TCBE3putES2_:0000000000000014 .L0 
     /tmp/ccelktR0.s:1277   .text._ZN3stm14CircularBufferIP3TCBE3putES2_:0000000000000018 .L0 
     /tmp/ccelktR0.s:1281   .text._ZN3stm14CircularBufferIP3TCBE3putES2_:0000000000000020 .L0 
     /tmp/ccelktR0.s:1283   .text._ZN3stm14CircularBufferIP3TCBE3putES2_:0000000000000024 .L0 
     /tmp/ccelktR0.s:1285   .text._ZN3stm14CircularBufferIP3TCBE3putES2_:0000000000000028 .L0 
     /tmp/ccelktR0.s:1289   .text._ZN3stm14CircularBufferIP3TCBE3putES2_:000000000000002c .L0 
GAS LISTING /tmp/ccelktR0.s 			page 46


     /tmp/ccelktR0.s:1291   .text._ZN3stm14CircularBufferIP3TCBE3putES2_:0000000000000030 .L0 
     /tmp/ccelktR0.s:1293   .text._ZN3stm14CircularBufferIP3TCBE3putES2_:0000000000000034 .L0 
     /tmp/ccelktR0.s:1296   .text._ZN3stm14CircularBufferIP3TCBE3putES2_:000000000000003c .L0 
     /tmp/ccelktR0.s:1298   .text._ZN3stm14CircularBufferIP3TCBE3putES2_:0000000000000040 .L0 
     /tmp/ccelktR0.s:1300   .text._ZN3stm14CircularBufferIP3TCBE3putES2_:0000000000000044 .L0 
     /tmp/ccelktR0.s:1302   .text._ZN3stm14CircularBufferIP3TCBE3putES2_:0000000000000048 .L0 
     /tmp/ccelktR0.s:1304   .text._ZN3stm14CircularBufferIP3TCBE3putES2_:000000000000004c .L0 
     /tmp/ccelktR0.s:1306   .text._ZN3stm14CircularBufferIP3TCBE3putES2_:0000000000000050 .L0 
     /tmp/ccelktR0.s:1308   .text._ZN3stm14CircularBufferIP3TCBE3putES2_:0000000000000054 .L0 
     /tmp/ccelktR0.s:1310   .text._ZN3stm14CircularBufferIP3TCBE3putES2_:0000000000000058 .L0 
     /tmp/ccelktR0.s:1313   .text._ZN3stm14CircularBufferIP3TCBE3putES2_:0000000000000060 .L0 
     /tmp/ccelktR0.s:1314   .text._ZN3stm14CircularBufferIP3TCBE3putES2_:0000000000000064 .L0 
     /tmp/ccelktR0.s:1315   .text._ZN3stm14CircularBufferIP3TCBE3putES2_:0000000000000064 .L0 
     /tmp/ccelktR0.s:1317   .text._ZN3stm14CircularBufferIP3TCBE3putES2_:0000000000000068 .L0 
     /tmp/ccelktR0.s:1318   .text._ZN3stm14CircularBufferIP3TCBE3putES2_:0000000000000068 .L0 
     /tmp/ccelktR0.s:1320   .text._ZN3stm14CircularBufferIP3TCBE3putES2_:000000000000006c .L0 
     /tmp/ccelktR0.s:1323   .text._ZN3stm14CircularBufferIP3TCBE3putES2_:0000000000000070 .L0 
     /tmp/ccelktR0.s:1326   .text._ZN3stm14CircularBufferIP3TCBE3putES2_:0000000000000074 .L0 
     /tmp/ccelktR0.s:1330   .text._ZN3stm14CircularBufferIP3TCBE3putES2_:0000000000000078 .L0 
     /tmp/ccelktR0.s:1332   .text._ZN3stm14CircularBufferIP3TCBE3putES2_:0000000000000078 .L0 
     /tmp/ccelktR0.s:1335   .text._ZN3stm14CircularBufferIP3TCBE3putES2_:0000000000000084 .L0 
     /tmp/ccelktR0.s:1342   .text:000000000000069c _ZN3TCB12_thread_joinEPS_
     /tmp/ccelktR0.s:1345   .text:000000000000069c .L0 
     /tmp/ccelktR0.s:1347   .text:000000000000069c .L0 
     /tmp/ccelktR0.s:1350   .text:000000000000069c .L0 
     /tmp/ccelktR0.s:1351   .text:000000000000069c .L0 
     /tmp/ccelktR0.s:1352   .text:000000000000069c .L0 
     /tmp/ccelktR0.s:1357   .text:00000000000006a0 .L0 
     /tmp/ccelktR0.s:1360   .text:00000000000006a8 .L0 
     /tmp/ccelktR0.s:1361   .text:00000000000006ac .L0 
     /tmp/ccelktR0.s:1364   .text:00000000000006b4 .L0 
     /tmp/ccelktR0.s:1365   .text:00000000000006b4 .L0 
     /tmp/ccelktR0.s:1367   .text:00000000000006b8 .L0 
     /tmp/ccelktR0.s:1369   .text:00000000000006b8 .L0 
     /tmp/ccelktR0.s:1370   .text:00000000000006b8 .L0 
     /tmp/ccelktR0.s:1375   .text:00000000000006c0 .L0 
     /tmp/ccelktR0.s:1376   .text:00000000000006c0 .L0 
     /tmp/ccelktR0.s:1382   .text:00000000000006c8 .L0 
     /tmp/ccelktR0.s:1383   .text:00000000000006c8 .L0 
     /tmp/ccelktR0.s:1388   .text:00000000000006d4 .L0 
     /tmp/ccelktR0.s:1389   .text:00000000000006d4 .L0 
     /tmp/ccelktR0.s:1392   .text:00000000000006dc .L0 
     /tmp/ccelktR0.s:1393   .text:00000000000006e0 .L0 
     /tmp/ccelktR0.s:1395   .text:00000000000006e4 .L0 
     /tmp/ccelktR0.s:1396   .text:00000000000006e4 .L0 
     /tmp/ccelktR0.s:1398   .text:00000000000006e8 .L0 
     /tmp/ccelktR0.s:1403   .text:00000000000006f0 .L0 
     /tmp/ccelktR0.s:1409   .text:00000000000006f0 _ZN3TCB17_thread_join_timeEPS_m
     /tmp/ccelktR0.s:1412   .text:00000000000006f0 .L0 
     /tmp/ccelktR0.s:1414   .text:00000000000006f0 .L0 
     /tmp/ccelktR0.s:1417   .text:00000000000006f0 .L0 
     /tmp/ccelktR0.s:1418   .text:00000000000006f0 .L0 
     /tmp/ccelktR0.s:1419   .text:00000000000006f0 .L0 
     /tmp/ccelktR0.s:1424   .text:00000000000006f4 .L0 
     /tmp/ccelktR0.s:1427   .text:00000000000006fc .L0 
     /tmp/ccelktR0.s:1428   .text:0000000000000700 .L0 
     /tmp/ccelktR0.s:1433   .text:0000000000000710 .L0 
GAS LISTING /tmp/ccelktR0.s 			page 47


     /tmp/ccelktR0.s:1434   .text:0000000000000710 .L0 
     /tmp/ccelktR0.s:1435   .text:0000000000000710 .L0 
     /tmp/ccelktR0.s:1436   .text:0000000000000710 .L0 
     /tmp/ccelktR0.s:1438   .text:0000000000000714 .L0 
     /tmp/ccelktR0.s:1441   .text:0000000000000718 .L0 
     /tmp/ccelktR0.s:1442   .text:0000000000000718 .L0 
     /tmp/ccelktR0.s:1448   .text:0000000000000724 .L0 
     /tmp/ccelktR0.s:1449   .text:0000000000000724 .L0 
     /tmp/ccelktR0.s:1455   .text:000000000000072c .L0 
     /tmp/ccelktR0.s:1456   .text:000000000000072c .L0 
     /tmp/ccelktR0.s:1461   .text:0000000000000738 .L0 
     /tmp/ccelktR0.s:1462   .text:0000000000000738 .L0 
     /tmp/ccelktR0.s:1467   .text:0000000000000748 .L0 
     /tmp/ccelktR0.s:1468   .text:0000000000000748 .L0 
     /tmp/ccelktR0.s:1471   .text:0000000000000750 .L0 
     /tmp/ccelktR0.s:1472   .text:0000000000000754 .L0 
     /tmp/ccelktR0.s:1474   .text:0000000000000758 .L0 
     /tmp/ccelktR0.s:1475   .text:0000000000000758 .L0 
     /tmp/ccelktR0.s:1477   .text:000000000000075c .L0 
     /tmp/ccelktR0.s:1480   .text:0000000000000760 .L0 
     /tmp/ccelktR0.s:1482   .text:0000000000000764 .L0 
     /tmp/ccelktR0.s:1487   .text:000000000000076c .L0 
     /tmp/ccelktR0.s:1507   .bss:0000000000000010 _ZN3TCB13timer_counterE
     /tmp/ccelktR0.s:1498   .bss:0000000000000000 _ZN3TCB7runningE
     /tmp/ccelktR0.s:1502   .bss:0000000000000008 _ZN3TCB2IDE
     /tmp/ccelktR0.s:1495   .bss:0000000000000000 .LANCHOR0
     /tmp/ccelktR0.s:1517   .text:000000000000076c .L0 
     /tmp/ccelktR0.s:250    .text._ZN3stm14CircularBufferIP3TCBE4initEv:0000000000000050 .L0 
     /tmp/ccelktR0.s:781    .text._ZN3stm14CircularBufferIP3TCBE3getEv:000000000000004c .L0 
     /tmp/ccelktR0.s:815    .text._ZN3stm14CircularBufferIP3TCBE7destroyEv:000000000000002c .L0 
     /tmp/ccelktR0.s:1257   .text._ZN3stm14CircularBufferIP3TCBE6extendEv:00000000000000ac .L0 
     /tmp/ccelktR0.s:1338   .text._ZN3stm14CircularBufferIP3TCBE3putES2_:0000000000000084 .L0 
     /tmp/ccelktR0.s:28     .text:0000000000000018 .L0 
     /tmp/ccelktR0.s:149    .text:00000000000000e0 .L0 
     /tmp/ccelktR0.s:274    .text:0000000000000138 .L0 
     /tmp/ccelktR0.s:371    .text:0000000000000210 .L0 
     /tmp/ccelktR0.s:449    .text:00000000000002b4 .L0 
     /tmp/ccelktR0.s:509    .text:00000000000002fc .L0 
     /tmp/ccelktR0.s:599    .text:00000000000003bc .L0 
     /tmp/ccelktR0.s:924    .text:0000000000000528 .L0 
     /tmp/ccelktR0.s:938    .text:0000000000000538 .L0 
     /tmp/ccelktR0.s:965    .text:0000000000000560 .L0 
     /tmp/ccelktR0.s:976    .text:0000000000000570 .L0 
     /tmp/ccelktR0.s:987    .text:0000000000000580 .L0 
     /tmp/ccelktR0.s:998    .text:0000000000000590 .L0 
     /tmp/ccelktR0.s:1000   .text:000000000000059c .L0 
     /tmp/ccelktR0.s:1041   .text:00000000000005f0 .L0 
     /tmp/ccelktR0.s:1045   .text:00000000000005f8 .L0 
     /tmp/ccelktR0.s:1121   .text:000000000000066c .L0 
     /tmp/ccelktR0.s:1370   .text:00000000000006b8 .L0 
     /tmp/ccelktR0.s:1442   .text:0000000000000718 .L0 
     /tmp/ccelktR0.s:177    .text:0000000000000104 .L7
     /tmp/ccelktR0.s:184    .text:000000000000010c .L8
     /tmp/ccelktR0.s:190    .text:0000000000000114 .L9
     /tmp/ccelktR0.s:167    .text:00000000000000f8 .L6
     /tmp/ccelktR0.s:445    .text:00000000000002b4 .L16
     /tmp/ccelktR0.s:413    .text:0000000000000288 .L17
GAS LISTING /tmp/ccelktR0.s 			page 48


     /tmp/ccelktR0.s:688    .text:0000000000000478 .L31
     /tmp/ccelktR0.s:668    .text:000000000000045c .L29
     /tmp/ccelktR0.s:881    .text:00000000000004f0 .L37
     /tmp/ccelktR0.s:836    .text:00000000000004c0 .L38
     /tmp/ccelktR0.s:948    .text:0000000000000558 .L42
     /tmp/ccelktR0.s:955    .text:0000000000000560 .L43
     /tmp/ccelktR0.s:1002   .text:00000000000005a8 .L49
     /tmp/ccelktR0.s:1020   .text:00000000000005d4 .L47
     /tmp/ccelktR0.s:1042   .text:00000000000005f8 .L45
     /tmp/ccelktR0.s:1009   .text:00000000000005b8 .L50
     /tmp/ccelktR0.s:1401   .text:00000000000006ec .L66
     /tmp/ccelktR0.s:1485   .text:0000000000000768 .L72
     /tmp/ccelktR0.s:382    .text:0000000000000230 .LEHB0
     /tmp/ccelktR0.s:339    .text:00000000000001d4 .LFB51
     /tmp/ccelktR0.s:385    .text:0000000000000238 .LEHE0
     /tmp/ccelktR0.s:399    .text:000000000000026c .LEHB1
     /tmp/ccelktR0.s:402    .text:0000000000000274 .LEHE1
     /tmp/ccelktR0.s:451    .text:00000000000002c0 .L19
     /tmp/ccelktR0.s:410    .text:0000000000000280 .LEHB2
     /tmp/ccelktR0.s:461    .text:00000000000002dc .LEHE2
     /tmp/ccelktR0.s:607    .text:00000000000003d0 .LEHB3
     /tmp/ccelktR0.s:578    .text:00000000000003a0 .LFB59
     /tmp/ccelktR0.s:610    .text:00000000000003d8 .LEHE3
     /tmp/ccelktR0.s:613    .text:00000000000003e0 .LEHB4
     /tmp/ccelktR0.s:616    .text:00000000000003e8 .LEHE4
     /tmp/ccelktR0.s:700    .text:000000000000048c .L28
     /tmp/ccelktR0.s:621    .text:00000000000003f0 .LEHB5
     /tmp/ccelktR0.s:709    .text:00000000000004a8 .LEHE5
     /tmp/ccelktR0.s:1220   .text._ZN3stm14CircularBufferIP3TCBE6extendEv:0000000000000070 .L56
     /tmp/ccelktR0.s:1190   .text._ZN3stm14CircularBufferIP3TCBE6extendEv:0000000000000038 .L57
     /tmp/ccelktR0.s:1329   .text._ZN3stm14CircularBufferIP3TCBE3putES2_:0000000000000078 .L62
     /tmp/ccelktR0.s:1287   .text._ZN3stm14CircularBufferIP3TCBE3putES2_:000000000000002c .L60
     /tmp/ccelktR0.s:4186   .debug_abbrev:0000000000000000 .Ldebug_abbrev0
     /tmp/ccelktR0.s:6533   .debug_str:0000000000000b68 .LASF246
     /tmp/ccelktR0.s:6369   .debug_str:0000000000000706 .LASF247
     /tmp/ccelktR0.s:6277   .debug_str:00000000000003ef .LASF248
     /tmp/ccelktR0.s:6129   .debug_ranges:0000000000000000 .Ldebug_ranges0
     /tmp/ccelktR0.s:6145   .debug_line:0000000000000000 .Ldebug_line0
     /tmp/ccelktR0.s:6311   .debug_str:000000000000052f .LASF0
     /tmp/ccelktR0.s:6351   .debug_str:0000000000000671 .LASF1
     /tmp/ccelktR0.s:6477   .debug_str:00000000000009fc .LASF2
     /tmp/ccelktR0.s:6485   .debug_str:0000000000000a41 .LASF4
     /tmp/ccelktR0.s:6331   .debug_str:00000000000005e2 .LASF3
     /tmp/ccelktR0.s:6165   .debug_str:000000000000008f .LASF5
     /tmp/ccelktR0.s:6441   .debug_str:0000000000000912 .LASF6
     /tmp/ccelktR0.s:6425   .debug_str:000000000000088e .LASF7
     /tmp/ccelktR0.s:6341   .debug_str:0000000000000638 .LASF8
     /tmp/ccelktR0.s:6275   .debug_str:00000000000003df .LASF9
     /tmp/ccelktR0.s:6281   .debug_str:0000000000000425 .LASF10
     /tmp/ccelktR0.s:6209   .debug_str:00000000000001bd .LASF11
     /tmp/ccelktR0.s:6267   .debug_str:00000000000003b3 .LASF12
     /tmp/ccelktR0.s:6223   .debug_str:000000000000024f .LASF13
     /tmp/ccelktR0.s:6207   .debug_str:00000000000001ad .LASF14
     /tmp/ccelktR0.s:6515   .debug_str:0000000000000b12 .LASF15
     /tmp/ccelktR0.s:6249   .debug_str:000000000000032e .LASF16
     /tmp/ccelktR0.s:6501   .debug_str:0000000000000aa7 .LASF17
     /tmp/ccelktR0.s:6595   .debug_str:0000000000000e50 .LASF18
GAS LISTING /tmp/ccelktR0.s 			page 49


     /tmp/ccelktR0.s:6357   .debug_str:000000000000069e .LASF27
     /tmp/ccelktR0.s:6159   .debug_str:0000000000000048 .LASF29
     /tmp/ccelktR0.s:6529   .debug_str:0000000000000b53 .LASF19
     /tmp/ccelktR0.s:6371   .debug_str:0000000000000717 .LASF21
     /tmp/ccelktR0.s:6497   .debug_str:0000000000000a8d .LASF20
     /tmp/ccelktR0.s:6539   .debug_str:0000000000000c43 .LASF22
     /tmp/ccelktR0.s:6569   .debug_str:0000000000000d5d .LASF23
     /tmp/ccelktR0.s:6283   .debug_str:0000000000000433 .LASF25
     /tmp/ccelktR0.s:6467   .debug_str:00000000000009bf .LASF24
     /tmp/ccelktR0.s:6435   .debug_str:00000000000008dc .LASF26
     /tmp/ccelktR0.s:6189   .debug_str:000000000000014d .LASF92
     /tmp/ccelktR0.s:6403   .debug_str:0000000000000806 .LASF94
     /tmp/ccelktR0.s:6553   .debug_str:0000000000000ce6 .LASF28
     /tmp/ccelktR0.s:6593   .debug_str:0000000000000e3e .LASF30
     /tmp/ccelktR0.s:6427   .debug_str:00000000000008a1 .LASF31
     /tmp/ccelktR0.s:6643   .debug_str:0000000000000fc3 .LASF32
     /tmp/ccelktR0.s:6367   .debug_str:00000000000006f7 .LASF33
     /tmp/ccelktR0.s:6229   .debug_str:000000000000026d .LASF34
     /tmp/ccelktR0.s:6355   .debug_str:0000000000000698 .LASF35
     /tmp/ccelktR0.s:6541   .debug_str:0000000000000c5f .LASF36
     /tmp/ccelktR0.s:6375   .debug_str:0000000000000736 .LASF37
     /tmp/ccelktR0.s:6549   .debug_str:0000000000000ca4 .LASF38
     /tmp/ccelktR0.s:6601   .debug_str:0000000000000e6c .LASF39
     /tmp/ccelktR0.s:6237   .debug_str:00000000000002c6 .LASF40
     /tmp/ccelktR0.s:6379   .debug_str:000000000000074a .LASF41
     /tmp/ccelktR0.s:6519   .debug_str:0000000000000b27 .LASF42
     /tmp/ccelktR0.s:6555   .debug_str:0000000000000cec .LASF43
     /tmp/ccelktR0.s:6585   .debug_str:0000000000000de9 .LASF45
     /tmp/ccelktR0.s:6619   .debug_str:0000000000000ee3 .LASF44
     /tmp/ccelktR0.s:6183   .debug_str:0000000000000103 .LASF46
     /tmp/ccelktR0.s:6437   .debug_str:00000000000008fc .LASF47
     /tmp/ccelktR0.s:6233   .debug_str:000000000000029c .LASF48
     /tmp/ccelktR0.s:6231   .debug_str:0000000000000292 .LASF49
     /tmp/ccelktR0.s:6631   .debug_str:0000000000000f52 .LASF50
     /tmp/ccelktR0.s:6421   .debug_str:000000000000086d .LASF51
     /tmp/ccelktR0.s:6395   .debug_str:00000000000007c6 .LASF52
     /tmp/ccelktR0.s:6205   .debug_str:000000000000019f .LASF53
     /tmp/ccelktR0.s:6309   .debug_str:0000000000000529 .LASF54
     /tmp/ccelktR0.s:6167   .debug_str:0000000000000096 .LASF55
     /tmp/ccelktR0.s:6179   .debug_str:00000000000000f1 .LASF56
     /tmp/ccelktR0.s:6491   .debug_str:0000000000000a62 .LASF57
     /tmp/ccelktR0.s:6411   .debug_str:0000000000000834 .LASF58
     /tmp/ccelktR0.s:6203   .debug_str:000000000000018e .LASF59
     /tmp/ccelktR0.s:6373   .debug_str:000000000000072f .LASF60
     /tmp/ccelktR0.s:6265   .debug_str:00000000000003a2 .LASF61
     /tmp/ccelktR0.s:6511   .debug_str:0000000000000af0 .LASF62
     /tmp/ccelktR0.s:6319   .debug_str:000000000000056d .LASF63
     /tmp/ccelktR0.s:6175   .debug_str:00000000000000da .LASF64
     /tmp/ccelktR0.s:6247   .debug_str:0000000000000315 .LASF65
     /tmp/ccelktR0.s:6287   .debug_str:000000000000045b .LASF66
     /tmp/ccelktR0.s:6185   .debug_str:000000000000011a .LASF67
     /tmp/ccelktR0.s:6543   .debug_str:0000000000000c6f .LASF68
     /tmp/ccelktR0.s:6323   .debug_str:0000000000000591 .LASF69
     /tmp/ccelktR0.s:6333   .debug_str:00000000000005f4 .LASF70
     /tmp/ccelktR0.s:6617   .debug_str:0000000000000ec9 .LASF71
     /tmp/ccelktR0.s:6269   .debug_str:00000000000003c2 .LASF72
     /tmp/ccelktR0.s:6531   .debug_str:0000000000000b60 .LASF73
GAS LISTING /tmp/ccelktR0.s 			page 50


     /tmp/ccelktR0.s:6571   .debug_str:0000000000000d6a .LASF74
     /tmp/ccelktR0.s:6297   .debug_str:000000000000049f .LASF75
     /tmp/ccelktR0.s:6637   .debug_str:0000000000000f9a .LASF76
     /tmp/ccelktR0.s:6239   .debug_str:00000000000002df .LASF77
     /tmp/ccelktR0.s:6557   .debug_str:0000000000000cf8 .LASF78
     /tmp/ccelktR0.s:6591   .debug_str:0000000000000e37 .LASF79
     /tmp/ccelktR0.s:6463   .debug_str:00000000000009ab .LASF80
     /tmp/ccelktR0.s:6559   .debug_str:0000000000000d00 .LASF81
     /tmp/ccelktR0.s:6359   .debug_str:00000000000006ad .LASF82
     /tmp/ccelktR0.s:6193   .debug_str:0000000000000164 .LASF83
     /tmp/ccelktR0.s:6201   .debug_str:0000000000000182 .LASF183
     /tmp/ccelktR0.s:6211   .debug_str:00000000000001cc .LASF84
     /tmp/ccelktR0.s:6349   .debug_str:000000000000066c .LASF85
     /tmp/ccelktR0.s:6147   .debug_str:0000000000000000 .LASF86
     /tmp/ccelktR0.s:6327   .debug_str:00000000000005b8 .LASF87
     /tmp/ccelktR0.s:6321   .debug_str:0000000000000587 .LASF88
     /tmp/ccelktR0.s:6245   .debug_str:00000000000002f9 .LASF89
     /tmp/ccelktR0.s:6495   .debug_str:0000000000000a84 .LASF90
     /tmp/ccelktR0.s:6565   .debug_str:0000000000000d1c .LASF91
     /tmp/ccelktR0.s:6583   .debug_str:0000000000000ddf .LASF93
     /tmp/ccelktR0.s:6217   .debug_str:000000000000020f .LASF95
     /tmp/ccelktR0.s:6391   .debug_str:00000000000007af .LASF96
     /tmp/ccelktR0.s:6651   .debug_str:000000000000100b .LASF97
     /tmp/ccelktR0.s:6499   .debug_str:0000000000000a9e .LASF98
     /tmp/ccelktR0.s:6483   .debug_str:0000000000000a28 .LASF99
     /tmp/ccelktR0.s:6177   .debug_str:00000000000000e8 .LASF100
     /tmp/ccelktR0.s:6575   .debug_str:0000000000000d78 .LASF101
     /tmp/ccelktR0.s:6649   .debug_str:0000000000001005 .LASF196
     /tmp/ccelktR0.s:6361   .debug_str:00000000000006b4 .LASF198
     /tmp/ccelktR0.s:6363   .debug_str:00000000000006de .LASF124
     /tmp/ccelktR0.s:6381   .debug_str:0000000000000769 .LASF111
     /tmp/ccelktR0.s:6461   .debug_str:00000000000009a6 .LASF102
     /tmp/ccelktR0.s:6273   .debug_str:00000000000003d5 .LASF103
     /tmp/ccelktR0.s:6451   .debug_str:0000000000000954 .LASF104
     /tmp/ccelktR0.s:6509   .debug_str:0000000000000adb .LASF105
     /tmp/ccelktR0.s:6301   .debug_str:00000000000004cd .LASF249
     /tmp/ccelktR0.s:6633   .debug_str:0000000000000f67 .LASF250
     /tmp/ccelktR0.s:6465   .debug_str:00000000000009b6 .LASF106
     /tmp/ccelktR0.s:6399   .debug_str:00000000000007e8 .LASF107
     /tmp/ccelktR0.s:6347   .debug_str:0000000000000667 .LASF108
     /tmp/ccelktR0.s:6447   .debug_str:0000000000000938 .LASF109
     /tmp/ccelktR0.s:6625   .debug_str:0000000000000f0b .LASF110
     /tmp/ccelktR0.s:6579   .debug_str:0000000000000dbd .LASF112
     /tmp/ccelktR0.s:6365   .debug_str:00000000000006ea .LASF113
     /tmp/ccelktR0.s:6169   .debug_str:00000000000000a6 .LASF114
     /tmp/ccelktR0.s:6153   .debug_str:000000000000001c .LASF115
     /tmp/ccelktR0.s:6629   .debug_str:0000000000000f2c .LASF116
     /tmp/ccelktR0.s:6335   .debug_str:0000000000000603 .LASF117
     /tmp/ccelktR0.s:6303   .debug_str:00000000000004e5 .LASF251
     /tmp/ccelktR0.s:6551   .debug_str:0000000000000cc0 .LASF118
     /tmp/ccelktR0.s:6215   .debug_str:00000000000001e4 .LASF119
     /tmp/ccelktR0.s:6563   .debug_str:0000000000000d14 .LASF120
     /tmp/ccelktR0.s:6299   .debug_str:00000000000004a4 .LASF121
     /tmp/ccelktR0.s:6221   .debug_str:0000000000000248 .LASF122
     /tmp/ccelktR0.s:6567   .debug_str:0000000000000d35 .LASF123
     /tmp/ccelktR0.s:6289   .debug_str:000000000000046b .LASF125
     /tmp/ccelktR0.s:6261   .debug_str:0000000000000396 .LASF126
GAS LISTING /tmp/ccelktR0.s 			page 51


     /tmp/ccelktR0.s:6507   .debug_str:0000000000000ad6 .LASF127
     /tmp/ccelktR0.s:6401   .debug_str:0000000000000801 .LASF128
     /tmp/ccelktR0.s:6151   .debug_str:0000000000000013 .LASF129
     /tmp/ccelktR0.s:6257   .debug_str:000000000000037a .LASF130
     /tmp/ccelktR0.s:6431   .debug_str:00000000000008b3 .LASF131
     /tmp/ccelktR0.s:6315   .debug_str:0000000000000541 .LASF132
     /tmp/ccelktR0.s:6535   .debug_str:0000000000000c2c .LASF133
     /tmp/ccelktR0.s:6589   .debug_str:0000000000000e1a .LASF134
     /tmp/ccelktR0.s:6417   .debug_str:0000000000000857 .LASF135
     /tmp/ccelktR0.s:6547   .debug_str:0000000000000c88 .LASF136
     /tmp/ccelktR0.s:6613   .debug_str:0000000000000eb1 .LASF137
     /tmp/ccelktR0.s:6647   .debug_str:0000000000000fe8 .LASF138
     /tmp/ccelktR0.s:6295   .debug_str:0000000000000494 .LASF139
     /tmp/ccelktR0.s:6307   .debug_str:0000000000000511 .LASF140
     /tmp/ccelktR0.s:6493   .debug_str:0000000000000a72 .LASF141
     /tmp/ccelktR0.s:6459   .debug_str:0000000000000987 .LASF142
     /tmp/ccelktR0.s:6313   .debug_str:000000000000053c .LASF143
     /tmp/ccelktR0.s:6163   .debug_str:000000000000007e .LASF144
     /tmp/ccelktR0.s:6469   .debug_str:00000000000009d1 .LASF252
     /tmp/ccelktR0.s:6573   .debug_str:0000000000000d6f .LASF145
     /tmp/ccelktR0.s:6255   .debug_str:0000000000000365 .LASF146
     /tmp/ccelktR0.s:6473   .debug_str:00000000000009e8 .LASF147
     /tmp/ccelktR0.s:6173   .debug_str:00000000000000c5 .LASF148
     /tmp/ccelktR0.s:6449   .debug_str:000000000000094d .LASF149
     /tmp/ccelktR0.s:6453   .debug_str:0000000000000959 .LASF150
     /tmp/ccelktR0.s:6407   .debug_str:0000000000000822 .LASF151
     /tmp/ccelktR0.s:6345   .debug_str:0000000000000654 .LASF152
     /tmp/ccelktR0.s:6615   .debug_str:0000000000000ec1 .LASF153
     /tmp/ccelktR0.s:6513   .debug_str:0000000000000afe .LASF154
     /tmp/ccelktR0.s:6339   .debug_str:0000000000000630 .LASF155
     /tmp/ccelktR0.s:6415   .debug_str:0000000000000843 .LASF156
     /tmp/ccelktR0.s:6389   .debug_str:00000000000007a7 .LASF157
     /tmp/ccelktR0.s:6455   .debug_str:000000000000096c .LASF158
     /tmp/ccelktR0.s:6505   .debug_str:0000000000000ace .LASF159
     /tmp/ccelktR0.s:6581   .debug_str:0000000000000dcb .LASF160
     /tmp/ccelktR0.s:6623   .debug_str:0000000000000f04 .LASF161
     /tmp/ccelktR0.s:6487   .debug_str:0000000000000a48 .LASF162
     /tmp/ccelktR0.s:6489   .debug_str:0000000000000a5b .LASF163
     /tmp/ccelktR0.s:6213   .debug_str:00000000000001d1 .LASF164
     /tmp/ccelktR0.s:6243   .debug_str:00000000000002f3 .LASF165
     /tmp/ccelktR0.s:6171   .debug_str:00000000000000b3 .LASF166
     /tmp/ccelktR0.s:6317   .debug_str:0000000000000567 .LASF167
     /tmp/ccelktR0.s:6235   .debug_str:00000000000002b4 .LASF168
     /tmp/ccelktR0.s:6639   .debug_str:0000000000000fa0 .LASF169
     /tmp/ccelktR0.s:6481   .debug_str:0000000000000a10 .LASF170
     /tmp/ccelktR0.s:6475   .debug_str:00000000000009f1 .LASF171
     /tmp/ccelktR0.s:6641   .debug_str:0000000000000fab .LASF172
     /tmp/ccelktR0.s:6605   .debug_str:0000000000000e7b .LASF173
     /tmp/ccelktR0.s:6621   .debug_str:0000000000000eee .LASF174
     /tmp/ccelktR0.s:6597   .debug_str:0000000000000e59 .LASF175
     /tmp/ccelktR0.s:6385   .debug_str:000000000000078a .LASF176
     /tmp/ccelktR0.s:6409   .debug_str:0000000000000829 .LASF177
     /tmp/ccelktR0.s:6187   .debug_str:0000000000000135 .LASF178
     /tmp/ccelktR0.s:6653   .debug_str:0000000000001024 .LASF179
     /tmp/ccelktR0.s:6329   .debug_str:00000000000005d4 .LASF180
     /tmp/ccelktR0.s:6525   .debug_str:0000000000000b47 .LASF181
     /tmp/ccelktR0.s:6337   .debug_str:000000000000062a .LASF182
GAS LISTING /tmp/ccelktR0.s 			page 52


     /tmp/ccelktR0.s:6521   .debug_str:0000000000000b35 .LASF184
     /tmp/ccelktR0.s:6609   .debug_str:0000000000000ea2 .LASF185
     /tmp/ccelktR0.s:6603   .debug_str:0000000000000e76 .LASF186
     /tmp/ccelktR0.s:6527   .debug_str:0000000000000b4c .LASF253
     /tmp/ccelktR0.s:6343   .debug_str:000000000000064b .LASF187
     /tmp/ccelktR0.s:6149   .debug_str:000000000000000b .LASF188
     /tmp/ccelktR0.s:6225   .debug_str:000000000000025f .LASF189
     /tmp/ccelktR0.s:6537   .debug_str:0000000000000c3c .LASF190
     /tmp/ccelktR0.s:6197   .debug_str:0000000000000173 .LASF191
     /tmp/ccelktR0.s:6611   .debug_str:0000000000000eaa .LASF192
     /tmp/ccelktR0.s:6195   .debug_str:000000000000016e .LASF193
     /tmp/ccelktR0.s:6645   .debug_str:0000000000000fdb .LASF194
     /tmp/ccelktR0.s:6353   .debug_str:0000000000000684 .LASF195
     /tmp/ccelktR0.s:6157   .debug_str:0000000000000038 .LASF197
     /tmp/ccelktR0.s:6423   .debug_str:0000000000000879 .LASF199
     /tmp/ccelktR0.s:6607   .debug_str:0000000000000e85 .LASF200
     /tmp/ccelktR0.s:6387   .debug_str:00000000000007a0 .LASF201
     /tmp/ccelktR0.s:6397   .debug_str:00000000000007de .LASF202
     /tmp/ccelktR0.s:6305   .debug_str:000000000000050a .LASF203
     /tmp/ccelktR0.s:6587   .debug_str:0000000000000e01 .LASF204
     /tmp/ccelktR0.s:6155   .debug_str:0000000000000031 .LASF205
     /tmp/ccelktR0.s:6433   .debug_str:00000000000008c8 .LASF206
     /tmp/ccelktR0.s:6457   .debug_str:0000000000000980 .LASF207
     /tmp/ccelktR0.s:6383   .debug_str:0000000000000776 .LASF208
     /tmp/ccelktR0.s:6227   .debug_str:0000000000000268 .LASF209
     /tmp/ccelktR0.s:6291   .debug_str:0000000000000474 .LASF210
     /tmp/ccelktR0.s:6259   .debug_str:0000000000000380 .LASF211
     /tmp/ccelktR0.s:6181   .debug_str:00000000000000f7 .LASF212
     /tmp/ccelktR0.s:6251   .debug_str:0000000000000344 .LASF213
     /tmp/ccelktR0.s:6241   .debug_str:00000000000002e6 .LASF214
     /tmp/ccelktR0.s:6219   .debug_str:0000000000000229 .LASF215
     /tmp/ccelktR0.s:6405   .debug_str:0000000000000816 .LASF216
     /tmp/ccelktR0.s:6191   .debug_str:0000000000000153 .LASF217
     /tmp/ccelktR0.s:6577   .debug_str:0000000000000da5 .LASF218
     /tmp/ccelktR0.s:6161   .debug_str:0000000000000071 .LASF219
     /tmp/ccelktR0.s:1157   .text._ZN3stm14CircularBufferIP3TCBE6extendEv:0000000000000000 .LFB68
     /tmp/ccelktR0.s:1255   .text._ZN3stm14CircularBufferIP3TCBE6extendEv:00000000000000ac .LFE68
     /tmp/ccelktR0.s:6271   .debug_str:00000000000003d0 .LASF221
     /tmp/ccelktR0.s:5438   .debug_loc:0000000000000000 .LLST29
     /tmp/ccelktR0.s:6561   .debug_str:0000000000000d0a .LASF220
     /tmp/ccelktR0.s:5456   .debug_loc:000000000000004c .LLST30
     /tmp/ccelktR0.s:1183   .text._ZN3stm14CircularBufferIP3TCBE6extendEv:0000000000000030 .LBB70
     /tmp/ccelktR0.s:1221   .text._ZN3stm14CircularBufferIP3TCBE6extendEv:0000000000000070 .LBE70
     /tmp/ccelktR0.s:5473   .debug_loc:0000000000000097 .LLST31
     /tmp/ccelktR0.s:5489   .debug_loc:00000000000000e1 .LLST32
     /tmp/ccelktR0.s:1180   .text._ZN3stm14CircularBufferIP3TCBE6extendEv:000000000000002c .LVL113
     /tmp/ccelktR0.s:1226   .text._ZN3stm14CircularBufferIP3TCBE6extendEv:000000000000007c .LVL122
     /tmp/ccelktR0.s:1262   .text._ZN3stm14CircularBufferIP3TCBE3putES2_:0000000000000000 .LFB67
     /tmp/ccelktR0.s:1336   .text._ZN3stm14CircularBufferIP3TCBE3putES2_:0000000000000084 .LFE67
     /tmp/ccelktR0.s:5506   .debug_loc:000000000000012c .LLST33
     /tmp/ccelktR0.s:6413   .debug_str:000000000000083b .LASF222
     /tmp/ccelktR0.s:5528   .debug_loc:000000000000018b .LLST34
     /tmp/ccelktR0.s:1333   .text._ZN3stm14CircularBufferIP3TCBE3putES2_:0000000000000080 .LVL130
     /tmp/ccelktR0.s:786    .text._ZN3stm14CircularBufferIP3TCBE7destroyEv:0000000000000000 .LFB66
     /tmp/ccelktR0.s:813    .text._ZN3stm14CircularBufferIP3TCBE7destroyEv:000000000000002c .LFE66
     /tmp/ccelktR0.s:5554   .debug_loc:00000000000001fd .LLST19
     /tmp/ccelktR0.s:802    .text._ZN3stm14CircularBufferIP3TCBE7destroyEv:000000000000001c .LVL74
GAS LISTING /tmp/ccelktR0.s 			page 53


     /tmp/ccelktR0.s:737    .text._ZN3stm14CircularBufferIP3TCBE3getEv:0000000000000000 .LFB65
     /tmp/ccelktR0.s:779    .text._ZN3stm14CircularBufferIP3TCBE3getEv:000000000000004c .LFE65
     /tmp/ccelktR0.s:5568   .debug_loc:0000000000000236 .LLST18
     /tmp/ccelktR0.s:203    .text._ZN3stm14CircularBufferIP3TCBE4initEv:0000000000000000 .LFB62
     /tmp/ccelktR0.s:248    .text._ZN3stm14CircularBufferIP3TCBE4initEv:0000000000000050 .LFE62
     /tmp/ccelktR0.s:5579   .debug_loc:000000000000026c .LLST5
     /tmp/ccelktR0.s:232    .text._ZN3stm14CircularBufferIP3TCBE4initEv:0000000000000038 .LVL23
     /tmp/ccelktR0.s:10     .text:0000000000000000 .LFB61
     /tmp/ccelktR0.s:48     .text:0000000000000044 .LFE61
     /tmp/ccelktR0.s:25     .text:0000000000000018 .LVL0
     /tmp/ccelktR0.s:37     .text:0000000000000034 .LVL2
     /tmp/ccelktR0.s:119    .text:00000000000000c0 .LFB60
     /tmp/ccelktR0.s:196    .text:000000000000011c .LFE60
     /tmp/ccelktR0.s:6471   .debug_str:00000000000009e1 .LASF223
     /tmp/ccelktR0.s:5597   .debug_loc:00000000000002b8 .LLST2
     /tmp/ccelktR0.s:133    .text:00000000000000d0 .LBB43
     /tmp/ccelktR0.s:141    .text:00000000000000d4 .LBE43
     /tmp/ccelktR0.s:5644   .debug_loc:000000000000036c .LLST3
     /tmp/ccelktR0.s:154    .text:00000000000000ec .LBB45
     /tmp/ccelktR0.s:162    .text:00000000000000f4 .LBE45
     /tmp/ccelktR0.s:5651   .debug_loc:000000000000038f .LLST4
     /tmp/ccelktR0.s:711    .text:00000000000004a8 .LFE59
     /tmp/ccelktR0.s:6523   .debug_str:0000000000000b3d .LASF224
     /tmp/ccelktR0.s:5658   .debug_loc:00000000000003b2 .LLST16
     /tmp/ccelktR0.s:5669   .debug_loc:00000000000003e8 .LLST17
     /tmp/ccelktR0.s:609    .text:00000000000003d8 .LVL53
     /tmp/ccelktR0.s:615    .text:00000000000003e8 .LVL54
     /tmp/ccelktR0.s:623    .text:00000000000003f8 .LVL55
     /tmp/ccelktR0.s:629    .text:0000000000000408 .LVL56
     /tmp/ccelktR0.s:634    .text:0000000000000414 .LVL57
     /tmp/ccelktR0.s:639    .text:0000000000000420 .LVL58
     /tmp/ccelktR0.s:644    .text:000000000000042c .LVL59
     /tmp/ccelktR0.s:649    .text:0000000000000438 .LVL60
     /tmp/ccelktR0.s:654    .text:0000000000000444 .LVL61
     /tmp/ccelktR0.s:664    .text:0000000000000458 .LVL62
     /tmp/ccelktR0.s:694    .text:0000000000000484 .LVL66
     /tmp/ccelktR0.s:705    .text:000000000000049c .LVL68
     /tmp/ccelktR0.s:708    .text:00000000000004a8 .LVL69
     /tmp/ccelktR0.s:54     .text:0000000000000044 .LFB58
     /tmp/ccelktR0.s:113    .text:00000000000000c0 .LFE58
     /tmp/ccelktR0.s:5680   .debug_loc:000000000000041e .LLST0
     /tmp/ccelktR0.s:6479   .debug_str:0000000000000a0a .LASF225
     /tmp/ccelktR0.s:5698   .debug_loc:000000000000046a .LLST1
     /tmp/ccelktR0.s:75     .text:000000000000006c .LVL4
     /tmp/ccelktR0.s:82     .text:0000000000000080 .LVL5
     /tmp/ccelktR0.s:96     .text:00000000000000a8 .LVL6
     /tmp/ccelktR0.s:1410   .text:00000000000006f0 .LFB57
     /tmp/ccelktR0.s:1488   .text:000000000000076c .LFE57
     /tmp/ccelktR0.s:5716   .debug_loc:00000000000004b6 .LLST38
     /tmp/ccelktR0.s:6429   .debug_str:00000000000008ae .LASF226
     /tmp/ccelktR0.s:5740   .debug_loc:0000000000000518 .LLST39
     /tmp/ccelktR0.s:1415   .text:00000000000006f0 .LBB75
     /tmp/ccelktR0.s:1422   .text:00000000000006f4 .LBE75
     /tmp/ccelktR0.s:5762   .debug_loc:0000000000000577 .LLST40
     /tmp/ccelktR0.s:1445   .text:0000000000000724 .LBB77
     /tmp/ccelktR0.s:1453   .text:000000000000072c .LBE77
     /tmp/ccelktR0.s:5769   .debug_loc:000000000000059a .LLST41
GAS LISTING /tmp/ccelktR0.s 			page 54


     /tmp/ccelktR0.s:1459   .text:0000000000000738 .LVL144
     /tmp/ccelktR0.s:1465   .text:0000000000000748 .LVL145
     /tmp/ccelktR0.s:1469   .text:0000000000000750 .LVL146
     /tmp/ccelktR0.s:1343   .text:000000000000069c .LFB56
     /tmp/ccelktR0.s:1404   .text:00000000000006f0 .LFE56
     /tmp/ccelktR0.s:5776   .debug_loc:00000000000005bd .LLST35
     /tmp/ccelktR0.s:1348   .text:000000000000069c .LBB71
     /tmp/ccelktR0.s:1355   .text:00000000000006a0 .LBE71
     /tmp/ccelktR0.s:5800   .debug_loc:000000000000061f .LLST36
     /tmp/ccelktR0.s:1372   .text:00000000000006c0 .LBB73
     /tmp/ccelktR0.s:1380   .text:00000000000006c8 .LBE73
     /tmp/ccelktR0.s:5807   .debug_loc:0000000000000642 .LLST37
     /tmp/ccelktR0.s:1386   .text:00000000000006d4 .LVL136
     /tmp/ccelktR0.s:1390   .text:00000000000006dc .LVL137
     /tmp/ccelktR0.s:1108   .text:000000000000065c .LFB55
     /tmp/ccelktR0.s:1150   .text:000000000000069c .LFE55
     /tmp/ccelktR0.s:1123   .text:0000000000000674 .LBB68
     /tmp/ccelktR0.s:1131   .text:000000000000067c .LBE68
     /tmp/ccelktR0.s:5814   .debug_loc:0000000000000665 .LLST28
     /tmp/ccelktR0.s:1135   .text:0000000000000684 .LVL109
     /tmp/ccelktR0.s:1139   .text:000000000000068c .LVL110
     /tmp/ccelktR0.s:820    .text:00000000000004a8 .LFB54
     /tmp/ccelktR0.s:903    .text:0000000000000514 .LFE54
     /tmp/ccelktR0.s:5821   .debug_loc:0000000000000688 .LLST20
     /tmp/ccelktR0.s:848    .text:00000000000004c8 .LBB51
     /tmp/ccelktR0.s:882    .text:00000000000004f0 .LBE51
     /tmp/ccelktR0.s:5836   .debug_loc:00000000000006d1 .LLST22
     /tmp/ccelktR0.s:855    .text:00000000000004d4 .LBB52
     /tmp/ccelktR0.s:862    .text:00000000000004d8 .LBE52
     /tmp/ccelktR0.s:5843   .debug_loc:00000000000006f4 .LLST23
     /tmp/ccelktR0.s:868    .text:00000000000004e0 .LBB54
     /tmp/ccelktR0.s:875    .text:00000000000004e4 .LBE54
     /tmp/ccelktR0.s:5850   .debug_loc:0000000000000717 .LLST24
     /tmp/ccelktR0.s:853    .text:00000000000004d4 .LVL78
     /tmp/ccelktR0.s:879    .text:00000000000004ec .LVL82
     /tmp/ccelktR0.s:839    .text:00000000000004c0 .LBB49
     /tmp/ccelktR0.s:845    .text:00000000000004c4 .LBE49
     /tmp/ccelktR0.s:5857   .debug_loc:000000000000073a .LLST21
     /tmp/ccelktR0.s:887    .text:00000000000004fc .LVL83
     /tmp/ccelktR0.s:1069   .text:0000000000000624 .LFB53
     /tmp/ccelktR0.s:1102   .text:000000000000065c .LFE53
     /tmp/ccelktR0.s:1083   .text:000000000000063c .LVL104
     /tmp/ccelktR0.s:1087   .text:0000000000000644 .LVL105
     /tmp/ccelktR0.s:1091   .text:000000000000064c .LVL106
     /tmp/ccelktR0.s:909    .text:0000000000000514 .LFB52
     /tmp/ccelktR0.s:1063   .text:0000000000000624 .LFE52
     /tmp/ccelktR0.s:5866   .debug_loc:0000000000000760 .LLST25
     /tmp/ccelktR0.s:927    .text:0000000000000530 .LBB56
     /tmp/ccelktR0.s:934    .text:0000000000000534 .LBE56
     /tmp/ccelktR0.s:5873   .debug_loc:0000000000000783 .LLST26
     /tmp/ccelktR0.s:957    .text:0000000000000560 .LBB58
     /tmp/ccelktR0.s:995    .text:0000000000000590 .LBE58
     /tmp/ccelktR0.s:962    .text:0000000000000560 .LBB60
     /tmp/ccelktR0.s:969    .text:000000000000056c .LBE60
     /tmp/ccelktR0.s:973    .text:0000000000000570 .LBB62
     /tmp/ccelktR0.s:980    .text:000000000000057c .LBE62
     /tmp/ccelktR0.s:984    .text:0000000000000580 .LBB64
GAS LISTING /tmp/ccelktR0.s 			page 55


     /tmp/ccelktR0.s:991    .text:000000000000058c .LBE64
     /tmp/ccelktR0.s:1025   .text:00000000000005dc .LBB66
     /tmp/ccelktR0.s:1032   .text:00000000000005e0 .LBE66
     /tmp/ccelktR0.s:5880   .debug_loc:00000000000007a6 .LLST27
     /tmp/ccelktR0.s:946    .text:0000000000000554 .LVL87
     /tmp/ccelktR0.s:1007   .text:00000000000005b4 .LVL95
     /tmp/ccelktR0.s:1013   .text:00000000000005c0 .LVL96
     /tmp/ccelktR0.s:1015   .text:00000000000005c8 .LVL97
     /tmp/ccelktR0.s:1019   .text:00000000000005d4 .LVL98
     /tmp/ccelktR0.s:1024   .text:00000000000005dc .LVL99
     /tmp/ccelktR0.s:1039   .text:00000000000005f0 .LVL101
     /tmp/ccelktR0.s:1049   .text:0000000000000610 .LVL102
     /tmp/ccelktR0.s:463    .text:00000000000002dc .LFE51
     /tmp/ccelktR0.s:5887   .debug_loc:00000000000007c9 .LLST10
     /tmp/ccelktR0.s:6445   .debug_str:000000000000092a .LASF227
     /tmp/ccelktR0.s:5916   .debug_loc:000000000000083e .LLST11
     /tmp/ccelktR0.s:5938   .debug_loc:000000000000089d .LLST12
     /tmp/ccelktR0.s:5960   .debug_loc:00000000000008fc .LLST13
     /tmp/ccelktR0.s:384    .text:0000000000000238 .LVL34
     /tmp/ccelktR0.s:401    .text:0000000000000274 .LVL35
     /tmp/ccelktR0.s:412    .text:0000000000000288 .LVL36
     /tmp/ccelktR0.s:457    .text:00000000000002d0 .LVL44
     /tmp/ccelktR0.s:460    .text:00000000000002dc .LVL45
     /tmp/ccelktR0.s:6393   .debug_str:00000000000007b8 .LASF228
     /tmp/ccelktR0.s:489    .text:00000000000002dc .LFB49
     /tmp/ccelktR0.s:570    .text:00000000000003a0 .LFE49
     /tmp/ccelktR0.s:5995   .debug_loc:000000000000097a .LLST14
     /tmp/ccelktR0.s:6013   .debug_loc:00000000000009c6 .LLST15
     /tmp/ccelktR0.s:527    .text:0000000000000330 .LVL48
     /tmp/ccelktR0.s:552    .text:0000000000000388 .LVL49
     /tmp/ccelktR0.s:6635   .debug_str:0000000000000f7b .LASF229
     /tmp/ccelktR0.s:255    .text:000000000000011c .LFB46
     /tmp/ccelktR0.s:331    .text:00000000000001d4 .LFE46
     /tmp/ccelktR0.s:6031   .debug_loc:0000000000000a12 .LLST6
     /tmp/ccelktR0.s:6049   .debug_loc:0000000000000a5e .LLST7
     /tmp/ccelktR0.s:6068   .debug_loc:0000000000000aab .LLST8
     /tmp/ccelktR0.s:6087   .debug_loc:0000000000000af8 .LLST9
     /tmp/ccelktR0.s:310    .text:00000000000001b4 .LVL30
     /tmp/ccelktR0.s:6293   .debug_str:0000000000000486 .LASF230
     /tmp/ccelktR0.s:6545   .debug_str:0000000000000c7e .LASF232
     /tmp/ccelktR0.s:6285   .debug_str:000000000000044d .LASF231
     /tmp/ccelktR0.s:6599   .debug_str:0000000000000e63 .LASF233
     /tmp/ccelktR0.s:6503   .debug_str:0000000000000abd .LASF234
     /tmp/ccelktR0.s:6325   .debug_str:00000000000005ac .LASF235
     /tmp/ccelktR0.s:6263   .debug_str:000000000000039c .LASF240
     /tmp/ccelktR0.s:6439   .debug_str:0000000000000908 .LASF236
     /tmp/ccelktR0.s:6199   .debug_str:000000000000017c .LASF237
     /tmp/ccelktR0.s:6517   .debug_str:0000000000000b1e .LASF238
     /tmp/ccelktR0.s:6377   .debug_str:0000000000000745 .LASF239
     /tmp/ccelktR0.s:6419   .debug_str:0000000000000866 .LASF241
     /tmp/ccelktR0.s:6627   .debug_str:0000000000000f1d .LASF242
     /tmp/ccelktR0.s:6279   .debug_str:000000000000040d .LASF243
     /tmp/ccelktR0.s:6443   .debug_str:0000000000000919 .LASF244
     /tmp/ccelktR0.s:6253   .debug_str:000000000000035e .LASF245
     /tmp/ccelktR0.s:1160   .text._ZN3stm14CircularBufferIP3TCBE6extendEv:0000000000000000 .LVL111
     /tmp/ccelktR0.s:1176   .text._ZN3stm14CircularBufferIP3TCBE6extendEv:0000000000000020 .LVL112
     /tmp/ccelktR0.s:1247   .text._ZN3stm14CircularBufferIP3TCBE6extendEv:00000000000000a0 .LVL123
GAS LISTING /tmp/ccelktR0.s 			page 56


     /tmp/ccelktR0.s:1182   .text._ZN3stm14CircularBufferIP3TCBE6extendEv:0000000000000030 .LVL114
     /tmp/ccelktR0.s:1224   .text._ZN3stm14CircularBufferIP3TCBE6extendEv:0000000000000074 .LVL121
     /tmp/ccelktR0.s:1250   .text._ZN3stm14CircularBufferIP3TCBE6extendEv:00000000000000a4 .LVL124
     /tmp/ccelktR0.s:1189   .text._ZN3stm14CircularBufferIP3TCBE6extendEv:0000000000000038 .LVL116
     /tmp/ccelktR0.s:1209   .text._ZN3stm14CircularBufferIP3TCBE6extendEv:0000000000000060 .LVL117
     /tmp/ccelktR0.s:1219   .text._ZN3stm14CircularBufferIP3TCBE6extendEv:0000000000000070 .LVL120
     /tmp/ccelktR0.s:1186   .text._ZN3stm14CircularBufferIP3TCBE6extendEv:0000000000000034 .LVL115
     /tmp/ccelktR0.s:1212   .text._ZN3stm14CircularBufferIP3TCBE6extendEv:0000000000000064 .LVL118
     /tmp/ccelktR0.s:1217   .text._ZN3stm14CircularBufferIP3TCBE6extendEv:000000000000006c .LVL119
     /tmp/ccelktR0.s:1265   .text._ZN3stm14CircularBufferIP3TCBE3putES2_:0000000000000000 .LVL125
     /tmp/ccelktR0.s:1286   .text._ZN3stm14CircularBufferIP3TCBE3putES2_:000000000000002c .LVL126
     /tmp/ccelktR0.s:1321   .text._ZN3stm14CircularBufferIP3TCBE3putES2_:000000000000006c .LVL127
     /tmp/ccelktR0.s:1328   .text._ZN3stm14CircularBufferIP3TCBE3putES2_:0000000000000078 .LVL129
     /tmp/ccelktR0.s:1324   .text._ZN3stm14CircularBufferIP3TCBE3putES2_:0000000000000070 .LVL128
     /tmp/ccelktR0.s:789    .text._ZN3stm14CircularBufferIP3TCBE7destroyEv:0000000000000000 .LVL72
     /tmp/ccelktR0.s:800    .text._ZN3stm14CircularBufferIP3TCBE7destroyEv:0000000000000014 .LVL73
     /tmp/ccelktR0.s:740    .text._ZN3stm14CircularBufferIP3TCBE3getEv:0000000000000000 .LVL70
     /tmp/ccelktR0.s:757    .text._ZN3stm14CircularBufferIP3TCBE3getEv:0000000000000024 .LVL71
     /tmp/ccelktR0.s:207    .text._ZN3stm14CircularBufferIP3TCBE4initEv:0000000000000000 .LVL21
     /tmp/ccelktR0.s:230    .text._ZN3stm14CircularBufferIP3TCBE4initEv:0000000000000030 .LVL22
     /tmp/ccelktR0.s:243    .text._ZN3stm14CircularBufferIP3TCBE4initEv:0000000000000048 .LVL24
     /tmp/ccelktR0.s:122    .text:00000000000000c0 .LVL9
     /tmp/ccelktR0.s:166    .text:00000000000000f8 .LVL14
     /tmp/ccelktR0.s:176    .text:0000000000000104 .LVL15
     /tmp/ccelktR0.s:181    .text:0000000000000108 .LVL16
     /tmp/ccelktR0.s:183    .text:000000000000010c .LVL17
     /tmp/ccelktR0.s:187    .text:0000000000000110 .LVL18
     /tmp/ccelktR0.s:189    .text:0000000000000114 .LVL19
     /tmp/ccelktR0.s:193    .text:0000000000000118 .LVL20
     /tmp/ccelktR0.s:132    .text:00000000000000d0 .LVL10
     /tmp/ccelktR0.s:139    .text:00000000000000d4 .LVL11
     /tmp/ccelktR0.s:153    .text:00000000000000ec .LVL12
     /tmp/ccelktR0.s:160    .text:00000000000000f4 .LVL13
     /tmp/ccelktR0.s:603    .text:00000000000003cc .LVL52
     /tmp/ccelktR0.s:683    .text:0000000000000470 .LVL64
     /tmp/ccelktR0.s:687    .text:0000000000000478 .LVL65
     /tmp/ccelktR0.s:678    .text:0000000000000468 .LVL63
     /tmp/ccelktR0.s:699    .text:000000000000048c .LVL67
     /tmp/ccelktR0.s:57     .text:0000000000000044 .LVL3
     /tmp/ccelktR0.s:108    .text:00000000000000b8 .LVL8
     /tmp/ccelktR0.s:105    .text:00000000000000b4 .LVL7
     /tmp/ccelktR0.s:1413   .text:00000000000006f0 .LVL139
     /tmp/ccelktR0.s:1457   .text:0000000000000730 .LVL143
     /tmp/ccelktR0.s:1484   .text:0000000000000768 .LVL148
     /tmp/ccelktR0.s:1444   .text:0000000000000724 .LVL141
     /tmp/ccelktR0.s:1478   .text:000000000000075c .LVL147
     /tmp/ccelktR0.s:1420   .text:00000000000006f4 .LVL140
     /tmp/ccelktR0.s:1451   .text:000000000000072c .LVL142
     /tmp/ccelktR0.s:1346   .text:000000000000069c .LVL131
     /tmp/ccelktR0.s:1384   .text:00000000000006cc .LVL135
     /tmp/ccelktR0.s:1400   .text:00000000000006ec .LVL138
     /tmp/ccelktR0.s:1353   .text:00000000000006a0 .LVL132
     /tmp/ccelktR0.s:1371   .text:00000000000006c0 .LVL133
     /tmp/ccelktR0.s:1378   .text:00000000000006c8 .LVL134
     /tmp/ccelktR0.s:1122   .text:0000000000000674 .LVL107
     /tmp/ccelktR0.s:1129   .text:000000000000067c .LVL108
     /tmp/ccelktR0.s:823    .text:00000000000004a8 .LVL75
GAS LISTING /tmp/ccelktR0.s 			page 57


     /tmp/ccelktR0.s:835    .text:00000000000004c0 .LVL76
     /tmp/ccelktR0.s:898    .text:000000000000050c .LVL84
     /tmp/ccelktR0.s:860    .text:00000000000004d8 .LVL79
     /tmp/ccelktR0.s:867    .text:00000000000004e0 .LVL80
     /tmp/ccelktR0.s:873    .text:00000000000004e4 .LVL81
     /tmp/ccelktR0.s:843    .text:00000000000004c4 .LVL77
     /tmp/ccelktR0.s:925    .text:0000000000000530 .LVL85
     /tmp/ccelktR0.s:1058   .text:000000000000061c .LVL103
     /tmp/ccelktR0.s:932    .text:0000000000000534 .LVL86
     /tmp/ccelktR0.s:1030   .text:00000000000005e0 .LVL100
     /tmp/ccelktR0.s:344    .text:00000000000001d4 .LVL32
     /tmp/ccelktR0.s:381    .text:0000000000000230 .LVL33
     /tmp/ccelktR0.s:430    .text:00000000000002a0 .LVL37
     /tmp/ccelktR0.s:444    .text:00000000000002b4 .LVL42
     /tmp/ccelktR0.s:453    .text:00000000000002c4 .LVL43
     /tmp/ccelktR0.s:433    .text:00000000000002a4 .LVL38
     /tmp/ccelktR0.s:439    .text:00000000000002ac .LVL40
     /tmp/ccelktR0.s:436    .text:00000000000002a8 .LVL39
     /tmp/ccelktR0.s:442    .text:00000000000002b0 .LVL41
     /tmp/ccelktR0.s:492    .text:00000000000002dc .LVL46
     /tmp/ccelktR0.s:525    .text:0000000000000328 .LVL47
     /tmp/ccelktR0.s:562    .text:0000000000000394 .LVL50
     /tmp/ccelktR0.s:565    .text:0000000000000398 .LVL51
     /tmp/ccelktR0.s:258    .text:000000000000011c .LVL25
     /tmp/ccelktR0.s:277    .text:0000000000000148 .LVL26
     /tmp/ccelktR0.s:324    .text:00000000000001c8 .LVL31
     /tmp/ccelktR0.s:287    .text:0000000000000168 .LVL27
     /tmp/ccelktR0.s:289    .text:000000000000016c .LVL28
     /tmp/ccelktR0.s:291    .text:0000000000000170 .LVL29
     /tmp/ccelktR0.s:1518   .debug_info:0000000000000000 .Ldebug_info0
     /tmp/ccelktR0.s:5      .text:0000000000000000 .Ltext0
     /tmp/ccelktR0.s:1510   .text:000000000000076c .Letext0
     /tmp/ccelktR0.s:466    .gcc_except_table:0000000000000000 .LLSDA51
     /tmp/ccelktR0.s:713    .gcc_except_table:000000000000002b .LLSDA59

UNDEFINED SYMBOLS
_ZN5Riscv10popSppSpieEv
_Z11thread_exitv
_ZN5Riscv4pushEv
_Z6memcpyPKvS0_i
_ZN5Riscv3popEv
_Z9mem_allocm
_Znwm
_ZN9Scheduler3putEP3TCB
_ZdlPv
_Unwind_Resume
__gxx_personality_v0
_ZN9Allocator10_mem_allocEm
_Z5printi
_Z4putcc
_Z8mem_freePv
handle_bleya
_ZN9Scheduler13high_priorityE
_ZN9Scheduler12mid_priorityE
_ZN9Scheduler12low_priorityE
_ZN9Allocator9_mem_freeEPKv
_ZN9Scheduler3getEv
GAS LISTING /tmp/ccelktR0.s 			page 58


_ZN9Scheduler4peekEv
_ZN3TCB14context_switchEP7ContextS1_
_ZN6Cradle6insertEP3TCBm
