GAS LISTING /tmp/ccCqHX1D.s 			page 1


   1              		.file	"cpp_semaphores.cpp"
   2              		.option pic
   3              		.option norelax
   4              		.text
   5              	.Ltext0:
   6              		.section	.text._ZN5MutexD2Ev,"axG",@progbits,_ZN5MutexD5Ev,comdat
   7              		.align	2
   8              		.weak	_ZN5MutexD2Ev
  10              	_ZN5MutexD2Ev:
  11              	.LFB33:
  12              		.file 1 "src/../h/syscall_cpp.hpp"
   1:src/../h/syscall_cpp.hpp **** #ifndef _syscall_cpp
   2:src/../h/syscall_cpp.hpp **** #define _syscall_cpp
   3:src/../h/syscall_cpp.hpp **** 
   4:src/../h/syscall_cpp.hpp **** #include "../lib/hw.h"
   5:src/../h/syscall_cpp.hpp **** #include "syscall_c.hpp"
   6:src/../h/syscall_cpp.hpp **** 
   7:src/../h/syscall_cpp.hpp **** void *operator new(size_t);
   8:src/../h/syscall_cpp.hpp **** 
   9:src/../h/syscall_cpp.hpp **** void operator delete(void *);
  10:src/../h/syscall_cpp.hpp **** 
  11:src/../h/syscall_cpp.hpp **** 
  12:src/../h/syscall_cpp.hpp **** class Thread {
  13:src/../h/syscall_cpp.hpp **** public:
  14:src/../h/syscall_cpp.hpp ****     Thread(void (*body)(void *), void *arg);
  15:src/../h/syscall_cpp.hpp **** 
  16:src/../h/syscall_cpp.hpp ****     virtual ~Thread();
  17:src/../h/syscall_cpp.hpp **** 
  18:src/../h/syscall_cpp.hpp ****     int start();
  19:src/../h/syscall_cpp.hpp **** 
  20:src/../h/syscall_cpp.hpp ****     void join();
  21:src/../h/syscall_cpp.hpp **** 
  22:src/../h/syscall_cpp.hpp ****     void join(time_t);
  23:src/../h/syscall_cpp.hpp **** 
  24:src/../h/syscall_cpp.hpp ****     static int kill(Thread *);
  25:src/../h/syscall_cpp.hpp **** 
  26:src/../h/syscall_cpp.hpp ****     static void dispatch();
  27:src/../h/syscall_cpp.hpp **** 
  28:src/../h/syscall_cpp.hpp ****     static int sleep(time_t);
  29:src/../h/syscall_cpp.hpp **** 
  30:src/../h/syscall_cpp.hpp ****     static void threadStart(void *);
  31:src/../h/syscall_cpp.hpp **** 
  32:src/../h/syscall_cpp.hpp **** protected:
  33:src/../h/syscall_cpp.hpp ****     Thread();
  34:src/../h/syscall_cpp.hpp **** 
  35:src/../h/syscall_cpp.hpp ****     virtual void run() {}
  36:src/../h/syscall_cpp.hpp **** 
  37:src/../h/syscall_cpp.hpp **** private:
  38:src/../h/syscall_cpp.hpp ****     thread_t myHandle;
  39:src/../h/syscall_cpp.hpp **** 
  40:src/../h/syscall_cpp.hpp ****     void (*body)(void *);
  41:src/../h/syscall_cpp.hpp **** 
  42:src/../h/syscall_cpp.hpp ****     void *arg;
  43:src/../h/syscall_cpp.hpp **** };
  44:src/../h/syscall_cpp.hpp **** 
  45:src/../h/syscall_cpp.hpp **** 
  46:src/../h/syscall_cpp.hpp **** class Semaphore {
GAS LISTING /tmp/ccCqHX1D.s 			page 2


  47:src/../h/syscall_cpp.hpp **** public:
  48:src/../h/syscall_cpp.hpp **** 
  49:src/../h/syscall_cpp.hpp ****     explicit Semaphore(unsigned init);
  50:src/../h/syscall_cpp.hpp **** 
  51:src/../h/syscall_cpp.hpp ****     virtual ~Semaphore();
  52:src/../h/syscall_cpp.hpp **** 
  53:src/../h/syscall_cpp.hpp ****     virtual int wait();
  54:src/../h/syscall_cpp.hpp **** 
  55:src/../h/syscall_cpp.hpp ****     virtual int signal();
  56:src/../h/syscall_cpp.hpp **** 
  57:src/../h/syscall_cpp.hpp ****     static int signal_and_wait(Semaphore &sem1, Semaphore &sem2);
  58:src/../h/syscall_cpp.hpp **** 
  59:src/../h/syscall_cpp.hpp **** protected:
  60:src/../h/syscall_cpp.hpp ****     sem_t myHandle;
  61:src/../h/syscall_cpp.hpp **** 
  62:src/../h/syscall_cpp.hpp **** };
  63:src/../h/syscall_cpp.hpp **** 
  64:src/../h/syscall_cpp.hpp **** class Mutex : public Semaphore {
  13              		.loc 1 64 7
  14              		.cfi_startproc
  15              	.LVL0:
  16 0000 130101FF 		addi	sp,sp,-16
  17              		.cfi_def_cfa_offset 16
  18 0004 23341100 		sd	ra,8(sp)
  19 0008 23308100 		sd	s0,0(sp)
  20              		.cfi_offset 1, -8
  21              		.cfi_offset 8, -16
  22 000c 13040101 		addi	s0,sp,16
  23              		.cfi_def_cfa 8, 0
  24              	.LBB16:
  25              		.loc 1 64 7 is_stmt 0
  26 0010 97070000 		lla	a5,_ZTV5Mutex+16
  26      93870700 
  27 0018 2330F500 		sd	a5,0(a0)
  28 001c 97000000 		call	_ZN9SemaphoreD2Ev@plt
  28      E7800000 
  29              	.LVL1:
  30              	.LBE16:
  31 0024 83308100 		ld	ra,8(sp)
  32              		.cfi_restore 1
  33 0028 03340100 		ld	s0,0(sp)
  34              		.cfi_restore 8
  35              		.cfi_def_cfa 2, 16
  36 002c 13010101 		addi	sp,sp,16
  37              		.cfi_def_cfa_offset 0
  38 0030 67800000 		jr	ra
  39              		.cfi_endproc
  40              	.LFE33:
  42              		.weak	_ZN5MutexD1Ev
  43              		.set	_ZN5MutexD1Ev,_ZN5MutexD2Ev
  44              		.section	.text._ZN5MutexD0Ev,"axG",@progbits,_ZN5MutexD5Ev,comdat
  45              		.align	2
  46              		.weak	_ZN5MutexD0Ev
  48              	_ZN5MutexD0Ev:
  49              	.LFB35:
  50              		.loc 1 64 7 is_stmt 1
  51              		.cfi_startproc
GAS LISTING /tmp/ccCqHX1D.s 			page 3


  52              	.LVL2:
  53 0000 130101FE 		addi	sp,sp,-32
  54              		.cfi_def_cfa_offset 32
  55 0004 233C1100 		sd	ra,24(sp)
  56 0008 23388100 		sd	s0,16(sp)
  57 000c 23349100 		sd	s1,8(sp)
  58              		.cfi_offset 1, -8
  59              		.cfi_offset 8, -16
  60              		.cfi_offset 9, -24
  61 0010 13040102 		addi	s0,sp,32
  62              		.cfi_def_cfa 8, 0
  63 0014 93040500 		mv	s1,a0
  64              	.LVL3:
  65              	.LBB17:
  66              	.LBB18:
  67              		.loc 1 64 7 is_stmt 0
  68 0018 97070000 		lla	a5,_ZTV5Mutex+16
  68      93870700 
  69 0020 2330F500 		sd	a5,0(a0)
  70 0024 97000000 		call	_ZN9SemaphoreD2Ev@plt
  70      E7800000 
  71              	.LVL4:
  72              	.LBE18:
  73              	.LBE17:
  74 002c 13850400 		mv	a0,s1
  75 0030 97000000 		call	_ZdlPv@plt
  75      E7800000 
  76              	.LVL5:
  77 0038 83308101 		ld	ra,24(sp)
  78              		.cfi_restore 1
  79 003c 03340101 		ld	s0,16(sp)
  80              		.cfi_restore 8
  81              		.cfi_def_cfa 2, 32
  82 0040 83348100 		ld	s1,8(sp)
  83              		.cfi_restore 9
  84              	.LVL6:
  85 0044 13010102 		addi	sp,sp,32
  86              		.cfi_def_cfa_offset 0
  87 0048 67800000 		jr	ra
  88              		.cfi_endproc
  89              	.LFE35:
  91              		.text
  92              		.align	2
  93              		.globl	_ZN10OwnedMutexD2Ev
  95              	_ZN10OwnedMutexD2Ev:
  96              	.LFB39:
  97              		.file 2 "src/cpp_semaphores.cpp"
   1:src/cpp_semaphores.cpp **** #include "../h/cpp_semaphores.hpp"
   2:src/cpp_semaphores.cpp **** #include "../h/c_thread.hpp"
   3:src/cpp_semaphores.cpp **** 
   4:src/cpp_semaphores.cpp **** 
   5:src/cpp_semaphores.cpp **** OwnedMutex::OwnedMutex() : owner(nullptr), nesting_count(0) {
   6:src/cpp_semaphores.cpp ****     sem_open(&this->myHandle, 1);
   7:src/cpp_semaphores.cpp **** }
   8:src/cpp_semaphores.cpp **** 
   9:src/cpp_semaphores.cpp **** OwnedMutex::~OwnedMutex() {
  98              		.loc 2 9 1 is_stmt 1
GAS LISTING /tmp/ccCqHX1D.s 			page 4


  99              		.cfi_startproc
 100              		.cfi_personality 0x9b,DW.ref.__gxx_personality_v0
 101              		.cfi_lsda 0x1b,.LLSDA39
 102              	.LVL7:
 103 0000 130101FE 		addi	sp,sp,-32
 104              		.cfi_def_cfa_offset 32
 105 0004 233C1100 		sd	ra,24(sp)
 106 0008 23388100 		sd	s0,16(sp)
 107 000c 23349100 		sd	s1,8(sp)
 108              		.cfi_offset 1, -8
 109              		.cfi_offset 8, -16
 110              		.cfi_offset 9, -24
 111 0010 13040102 		addi	s0,sp,32
 112              		.cfi_def_cfa 8, 0
 113 0014 93040500 		mv	s1,a0
 114              	.LBB19:
 115              		.loc 2 9 25 is_stmt 0
 116 0018 97070000 		lla	a5,_ZTV10OwnedMutex+16
 116      93870700 
 117 0020 2330F500 		sd	a5,0(a0)
  10:src/cpp_semaphores.cpp ****     sem_close(this->myHandle);
 118              		.loc 2 10 5 is_stmt 1
 119              		.loc 2 10 14 is_stmt 0
 120 0024 03358500 		ld	a0,8(a0)
 121              	.LVL8:
 122 0028 97000000 		call	_Z9sem_closeP3Sem@plt
 122      E7800000 
 123              	.LVL9:
 124              	.LBB20:
 125              	.LBB21:
 126              		.loc 1 64 7
 127 0030 97070000 		lla	a5,_ZTV5Mutex+16
 127      93870700 
 128 0038 23B0F400 		sd	a5,0(s1)
 129 003c 13850400 		mv	a0,s1
 130 0040 97000000 		call	_ZN9SemaphoreD2Ev@plt
 130      E7800000 
 131              	.LVL10:
 132              	.LBE21:
 133              	.LBE20:
 134              	.LBE19:
  11:src/cpp_semaphores.cpp **** }
 135              		.loc 2 11 1
 136 0048 83308101 		ld	ra,24(sp)
 137              		.cfi_restore 1
 138 004c 03340101 		ld	s0,16(sp)
 139              		.cfi_restore 8
 140              		.cfi_def_cfa 2, 32
 141 0050 83348100 		ld	s1,8(sp)
 142              		.cfi_restore 9
 143              	.LVL11:
 144 0054 13010102 		addi	sp,sp,32
 145              		.cfi_def_cfa_offset 0
 146 0058 67800000 		jr	ra
 147              		.cfi_endproc
 148              	.LFE39:
 149              		.globl	__gxx_personality_v0
GAS LISTING /tmp/ccCqHX1D.s 			page 5


 150              		.section	.gcc_except_table,"a",@progbits
 151              	.LLSDA39:
 152 0000 FF       		.byte	0xff
 153 0001 FF       		.byte	0xff
 154 0002 03       		.byte	0x3
 155 0003 00       		.byte	0
 156              		.text
 158              		.globl	_ZN10OwnedMutexD1Ev
 159              		.set	_ZN10OwnedMutexD1Ev,_ZN10OwnedMutexD2Ev
 160              		.align	2
 161              		.globl	_ZN10OwnedMutexD0Ev
 163              	_ZN10OwnedMutexD0Ev:
 164              	.LFB41:
   9:src/cpp_semaphores.cpp ****     sem_close(this->myHandle);
 165              		.loc 2 9 1 is_stmt 1
 166              		.cfi_startproc
 167              	.LVL12:
 168 005c 130101FE 		addi	sp,sp,-32
 169              		.cfi_def_cfa_offset 32
 170 0060 233C1100 		sd	ra,24(sp)
 171 0064 23388100 		sd	s0,16(sp)
 172 0068 23349100 		sd	s1,8(sp)
 173              		.cfi_offset 1, -8
 174              		.cfi_offset 8, -16
 175              		.cfi_offset 9, -24
 176 006c 13040102 		addi	s0,sp,32
 177              		.cfi_def_cfa 8, 0
 178 0070 93040500 		mv	s1,a0
 179              		.loc 2 11 1 is_stmt 0
 180 0074 97000000 		call	_ZN10OwnedMutexD1Ev
 180      E7800000 
 181              	.LVL13:
 182 007c 13850400 		mv	a0,s1
 183 0080 97000000 		call	_ZdlPv@plt
 183      E7800000 
 184              	.LVL14:
 185 0088 83308101 		ld	ra,24(sp)
 186              		.cfi_restore 1
 187 008c 03340101 		ld	s0,16(sp)
 188              		.cfi_restore 8
 189              		.cfi_def_cfa 2, 32
 190 0090 83348100 		ld	s1,8(sp)
 191              		.cfi_restore 9
 192              	.LVL15:
 193 0094 13010102 		addi	sp,sp,32
 194              		.cfi_def_cfa_offset 0
 195 0098 67800000 		jr	ra
 196              		.cfi_endproc
 197              	.LFE41:
 199              		.align	2
 200              		.globl	_ZN10OwnedMutex4waitEv
 202              	_ZN10OwnedMutex4waitEv:
 203              	.LFB42:
  12:src/cpp_semaphores.cpp **** 
  13:src/cpp_semaphores.cpp **** int OwnedMutex::wait() {
 204              		.loc 2 13 24 is_stmt 1
 205              		.cfi_startproc
GAS LISTING /tmp/ccCqHX1D.s 			page 6


 206              	.LVL16:
  14:src/cpp_semaphores.cpp ****     if (this->owner == TCB::running) {
 207              		.loc 2 14 5
 208              		.loc 2 14 15 is_stmt 0
 209 009c 83370501 		ld	a5,16(a0)
 210              		.loc 2 14 21
 211 00a0 17070000 		la	a4,_ZN3TCB7runningE
 211      03370700 
 212 00a8 03370700 		ld	a4,0(a4)
 213              		.loc 2 14 5
 214 00ac 638CE702 		beq	a5,a4,.L16
  13:src/cpp_semaphores.cpp ****     if (this->owner == TCB::running) {
 215              		.loc 2 13 24
 216 00b0 130101FF 		addi	sp,sp,-16
 217              		.cfi_def_cfa_offset 16
 218 00b4 23341100 		sd	ra,8(sp)
 219 00b8 23308100 		sd	s0,0(sp)
 220              		.cfi_offset 1, -8
 221              		.cfi_offset 8, -16
 222 00bc 13040101 		addi	s0,sp,16
 223              		.cfi_def_cfa 8, 0
  15:src/cpp_semaphores.cpp ****         this->nesting_count++;
  16:src/cpp_semaphores.cpp ****         return 0;
  17:src/cpp_semaphores.cpp ****     }
  18:src/cpp_semaphores.cpp ****     if (this->owner == nullptr) {
 224              		.loc 2 18 5 is_stmt 1
 225 00c0 638C0702 		beqz	a5,.L17
 226              	.L12:
  19:src/cpp_semaphores.cpp ****         this->owner = TCB::running;
  20:src/cpp_semaphores.cpp ****         this->nesting_count = 1;
  21:src/cpp_semaphores.cpp ****     }
  22:src/cpp_semaphores.cpp ****     sem_wait(this->myHandle);
 227              		.loc 2 22 5
 228              		.loc 2 22 13 is_stmt 0
 229 00c4 03358500 		ld	a0,8(a0)
 230              	.LVL17:
 231 00c8 97000000 		call	_Z8sem_waitP3Sem@plt
 231      E7800000 
 232              	.LVL18:
  23:src/cpp_semaphores.cpp ****     return 0;
 233              		.loc 2 23 5 is_stmt 1
  24:src/cpp_semaphores.cpp **** }
 234              		.loc 2 24 1 is_stmt 0
 235 00d0 13050000 		li	a0,0
 236 00d4 83308100 		ld	ra,8(sp)
 237              		.cfi_restore 1
 238 00d8 03340100 		ld	s0,0(sp)
 239              		.cfi_restore 8
 240              		.cfi_def_cfa 2, 16
 241 00dc 13010101 		addi	sp,sp,16
 242              		.cfi_def_cfa_offset 0
 243 00e0 67800000 		jr	ra
 244              	.LVL19:
 245              	.L16:
  15:src/cpp_semaphores.cpp ****         return 0;
 246              		.loc 2 15 9 is_stmt 1
  15:src/cpp_semaphores.cpp ****         return 0;
GAS LISTING /tmp/ccCqHX1D.s 			page 7


 247              		.loc 2 15 15 is_stmt 0
 248 00e4 83278501 		lw	a5,24(a0)
  15:src/cpp_semaphores.cpp ****         return 0;
 249              		.loc 2 15 28
 250 00e8 9B871700 		addiw	a5,a5,1
 251 00ec 232CF500 		sw	a5,24(a0)
  16:src/cpp_semaphores.cpp ****     }
 252              		.loc 2 16 9 is_stmt 1
 253              		.loc 2 24 1 is_stmt 0
 254 00f0 13050000 		li	a0,0
 255              	.LVL20:
 256 00f4 67800000 		ret
 257              	.LVL21:
 258              	.L17:
 259              		.cfi_def_cfa_register 8
 260              		.cfi_offset 1, -8
 261              		.cfi_offset 8, -16
  19:src/cpp_semaphores.cpp ****         this->nesting_count = 1;
 262              		.loc 2 19 9 is_stmt 1
  19:src/cpp_semaphores.cpp ****         this->nesting_count = 1;
 263              		.loc 2 19 21 is_stmt 0
 264 00f8 2338E500 		sd	a4,16(a0)
  20:src/cpp_semaphores.cpp ****     }
 265              		.loc 2 20 9 is_stmt 1
  20:src/cpp_semaphores.cpp ****     }
 266              		.loc 2 20 29 is_stmt 0
 267 00fc 93071000 		li	a5,1
 268 0100 232CF500 		sw	a5,24(a0)
 269 0104 6FF01FFC 		j	.L12
 270              		.cfi_endproc
 271              	.LFE42:
 273              		.align	2
 274              		.globl	_ZN10OwnedMutex6signalEv
 276              	_ZN10OwnedMutex6signalEv:
 277              	.LFB43:
  25:src/cpp_semaphores.cpp **** 
  26:src/cpp_semaphores.cpp **** int OwnedMutex::signal() {
 278              		.loc 2 26 26 is_stmt 1
 279              		.cfi_startproc
 280              	.LVL22:
  27:src/cpp_semaphores.cpp ****     if (this->owner != TCB::running) return -1;
 281              		.loc 2 27 5
 282              		.loc 2 27 15 is_stmt 0
 283 0108 03370501 		ld	a4,16(a0)
 284              		.loc 2 27 21
 285 010c 97070000 		la	a5,_ZN3TCB7runningE
 285      83B70700 
 286 0114 83B70700 		ld	a5,0(a5)
 287              		.loc 2 27 5
 288 0118 631AF704 		bne	a4,a5,.L20
  28:src/cpp_semaphores.cpp ****     this->nesting_count --;
 289              		.loc 2 28 5 is_stmt 1
 290              		.loc 2 28 11 is_stmt 0
 291 011c 83278501 		lw	a5,24(a0)
 292              		.loc 2 28 25
 293 0120 9B87F7FF 		addiw	a5,a5,-1
 294 0124 1B870700 		sext.w	a4,a5
GAS LISTING /tmp/ccCqHX1D.s 			page 8


 295 0128 232CF500 		sw	a5,24(a0)
  29:src/cpp_semaphores.cpp ****     if (this->nesting_count == 0) {
 296              		.loc 2 29 5 is_stmt 1
 297 012c 63060700 		beqz	a4,.L26
  30:src/cpp_semaphores.cpp ****         this->owner = nullptr;
  31:src/cpp_semaphores.cpp ****         sem_signal(this->myHandle);
  32:src/cpp_semaphores.cpp ****     }
  33:src/cpp_semaphores.cpp ****     return 0;
 298              		.loc 2 33 12 is_stmt 0
 299 0130 13050000 		li	a0,0
 300              	.LVL23:
  34:src/cpp_semaphores.cpp **** }
 301              		.loc 2 34 1
 302 0134 67800000 		ret
 303              	.LVL24:
 304              	.L26:
  26:src/cpp_semaphores.cpp ****     if (this->owner != TCB::running) return -1;
 305              		.loc 2 26 26
 306 0138 130101FF 		addi	sp,sp,-16
 307              		.cfi_def_cfa_offset 16
 308 013c 23341100 		sd	ra,8(sp)
 309 0140 23308100 		sd	s0,0(sp)
 310              		.cfi_offset 1, -8
 311              		.cfi_offset 8, -16
 312 0144 13040101 		addi	s0,sp,16
 313              		.cfi_def_cfa 8, 0
  30:src/cpp_semaphores.cpp ****         this->owner = nullptr;
 314              		.loc 2 30 9 is_stmt 1
  30:src/cpp_semaphores.cpp ****         this->owner = nullptr;
 315              		.loc 2 30 21 is_stmt 0
 316 0148 23380500 		sd	zero,16(a0)
  31:src/cpp_semaphores.cpp ****     }
 317              		.loc 2 31 9 is_stmt 1
  31:src/cpp_semaphores.cpp ****     }
 318              		.loc 2 31 19 is_stmt 0
 319 014c 03358500 		ld	a0,8(a0)
 320              	.LVL25:
 321 0150 97000000 		call	_Z10sem_signalP3Sem@plt
 321      E7800000 
 322              	.LVL26:
  33:src/cpp_semaphores.cpp **** }
 323              		.loc 2 33 12
 324 0158 13050000 		li	a0,0
 325              		.loc 2 34 1
 326 015c 83308100 		ld	ra,8(sp)
 327              		.cfi_restore 1
 328 0160 03340100 		ld	s0,0(sp)
 329              		.cfi_restore 8
 330              		.cfi_def_cfa 2, 16
 331 0164 13010101 		addi	sp,sp,16
 332              		.cfi_def_cfa_offset 0
 333 0168 67800000 		jr	ra
 334              	.LVL27:
 335              	.L20:
  27:src/cpp_semaphores.cpp ****     this->nesting_count --;
 336              		.loc 2 27 46
 337 016c 1305F0FF 		li	a0,-1
GAS LISTING /tmp/ccCqHX1D.s 			page 9


 338              	.LVL28:
 339 0170 67800000 		ret
 340              		.cfi_endproc
 341              	.LFE43:
 343              		.align	2
 344              		.globl	_ZN10OwnedMutexC2Ev
 346              	_ZN10OwnedMutexC2Ev:
 347              	.LFB36:
   5:src/cpp_semaphores.cpp ****     sem_open(&this->myHandle, 1);
 348              		.loc 2 5 1 is_stmt 1
 349              		.cfi_startproc
 350              		.cfi_personality 0x9b,DW.ref.__gxx_personality_v0
 351              		.cfi_lsda 0x1b,.LLSDA36
 352              	.LVL29:
 353 0174 130101FE 		addi	sp,sp,-32
 354              		.cfi_def_cfa_offset 32
 355 0178 233C1100 		sd	ra,24(sp)
 356 017c 23388100 		sd	s0,16(sp)
 357 0180 23349100 		sd	s1,8(sp)
 358 0184 23302101 		sd	s2,0(sp)
 359              		.cfi_offset 1, -8
 360              		.cfi_offset 8, -16
 361              		.cfi_offset 9, -24
 362              		.cfi_offset 18, -32
 363 0188 13040102 		addi	s0,sp,32
 364              		.cfi_def_cfa 8, 0
 365 018c 93040500 		mv	s1,a0
 366              	.LVL30:
 367              	.LBB22:
 368              	.LBB23:
 369              	.LBB24:
  65:src/../h/syscall_cpp.hpp **** public:
  66:src/../h/syscall_cpp.hpp ****     Mutex() : Semaphore(1) {}
 370              		.loc 1 66 26 is_stmt 0
 371 0190 93051000 		li	a1,1
 372              	.LEHB0:
 373 0194 97000000 		call	_ZN9SemaphoreC2Ej@plt
 373      E7800000 
 374              	.LVL31:
 375              	.LEHE0:
 376              	.LBE24:
 377              	.LBE23:
   5:src/cpp_semaphores.cpp ****     sem_open(&this->myHandle, 1);
 378              		.loc 2 5 59
 379 019c 97070000 		lla	a5,_ZTV10OwnedMutex+16
 379      93870700 
 380 01a4 23B0F400 		sd	a5,0(s1)
 381 01a8 23B80400 		sd	zero,16(s1)
 382 01ac 23AC0400 		sw	zero,24(s1)
   6:src/cpp_semaphores.cpp **** }
 383              		.loc 2 6 5 is_stmt 1
   6:src/cpp_semaphores.cpp **** }
 384              		.loc 2 6 13 is_stmt 0
 385 01b0 93051000 		li	a1,1
 386 01b4 13858400 		addi	a0,s1,8
 387              	.LEHB1:
 388 01b8 97000000 		call	_Z8sem_openPP3Semj@plt
GAS LISTING /tmp/ccCqHX1D.s 			page 10


 388      E7800000 
 389              	.LVL32:
 390              	.LEHE1:
 391 01c0 6F00C002 		j	.L32
 392              	.L29:
 393 01c4 13090500 		mv	s2,a0
 394              	.LVL33:
 395              	.LBB25:
 396              	.LBB26:
  64:src/../h/syscall_cpp.hpp **** public:
 397              		.loc 1 64 7
 398 01c8 97070000 		lla	a5,_ZTV5Mutex+16
 398      93870700 
 399 01d0 23B0F400 		sd	a5,0(s1)
 400 01d4 13850400 		mv	a0,s1
 401 01d8 97000000 		call	_ZN9SemaphoreD2Ev@plt
 401      E7800000 
 402              	.LVL34:
 403 01e0 13050900 		mv	a0,s2
 404              	.LEHB2:
 405 01e4 97000000 		call	_Unwind_Resume@plt
 405      E7800000 
 406              	.LVL35:
 407              	.LEHE2:
 408              	.L32:
 409              	.LBE26:
 410              	.LBE25:
 411              	.LBE22:
   7:src/cpp_semaphores.cpp **** 
 412              		.loc 2 7 1
 413 01ec 83308101 		ld	ra,24(sp)
 414              		.cfi_restore 1
 415 01f0 03340101 		ld	s0,16(sp)
 416              		.cfi_restore 8
 417              		.cfi_def_cfa 2, 32
 418 01f4 83348100 		ld	s1,8(sp)
 419              		.cfi_restore 9
 420              	.LVL36:
 421 01f8 03390100 		ld	s2,0(sp)
 422              		.cfi_restore 18
 423 01fc 13010102 		addi	sp,sp,32
 424              		.cfi_def_cfa_offset 0
 425 0200 67800000 		jr	ra
 426              		.cfi_endproc
 427              	.LFE36:
 428              		.section	.gcc_except_table
 429              	.LLSDA36:
 430 0004 FF       		.byte	0xff
 431 0005 FF       		.byte	0xff
 432 0006 03       		.byte	0x3
 433 0007 27       		.byte	0x27
 434 0008 00000000 		.4byte	.LEHB0-.LFB36
 435 000c 00000000 		.4byte	.LEHE0-.LEHB0
 436 0010 00000000 		.4byte	0
 437 0014 00       		.byte	0
 438 0015 00000000 		.4byte	.LEHB1-.LFB36
 439 0019 00000000 		.4byte	.LEHE1-.LEHB1
GAS LISTING /tmp/ccCqHX1D.s 			page 11


 440 001d 00000000 		.4byte	.L29-.LFB36
 441 0021 00       		.byte	0
 442 0022 00000000 		.4byte	.LEHB2-.LFB36
 443 0026 00000000 		.4byte	.LEHE2-.LEHB2
 444 002a 00000000 		.4byte	0
 445 002e 00       		.byte	0
 446              		.text
 448              		.globl	_ZN10OwnedMutexC1Ev
 449              		.set	_ZN10OwnedMutexC1Ev,_ZN10OwnedMutexC2Ev
 450              		.weak	_ZTV5Mutex
 451              		.section	.data.rel.ro._ZTV5Mutex,"awG",@progbits,_ZTV5Mutex,comdat
 452              		.align	3
 455              	_ZTV5Mutex:
 456 0000 00000000 		.dword	0
 456      00000000 
 457 0008 00000000 		.dword	0
 457      00000000 
 458 0010 00000000 		.dword	_ZN5MutexD1Ev
 458      00000000 
 459 0018 00000000 		.dword	_ZN5MutexD0Ev
 459      00000000 
 460 0020 00000000 		.dword	_ZN9Semaphore4waitEv
 460      00000000 
 461 0028 00000000 		.dword	_ZN9Semaphore6signalEv
 461      00000000 
 462              		.weak	_ZTV10OwnedMutex
 463              		.section	.data.rel.ro.local._ZTV10OwnedMutex,"awG",@progbits,_ZTV10OwnedMutex,comdat
 464              		.align	3
 467              	_ZTV10OwnedMutex:
 468 0000 00000000 		.dword	0
 468      00000000 
 469 0008 00000000 		.dword	0
 469      00000000 
 470 0010 00000000 		.dword	_ZN10OwnedMutexD1Ev
 470      00000000 
 471 0018 00000000 		.dword	_ZN10OwnedMutexD0Ev
 471      00000000 
 472 0020 00000000 		.dword	_ZN10OwnedMutex4waitEv
 472      00000000 
 473 0028 00000000 		.dword	_ZN10OwnedMutex6signalEv
 473      00000000 
 474              		.text
 475              	.Letext0:
 476              		.file 3 "src/../h/../lib/hw.h"
 477              		.file 4 "src/../h/syscall_c.hpp"
 478              		.file 5 "src/../h/c_thread.hpp"
 479              		.file 6 "src/../h/circular_buffer.hpp"
 480              		.file 7 "src/../h/cpp_semaphores.hpp"
 3506              		.align	3
 3509              	DW.ref.__gxx_personality_v0:
 3510 0000 00000000 		.dword	__gxx_personality_v0
 3510      00000000 
 3511              		.ident	"GCC: (Ubuntu 9.4.0-1ubuntu1~20.04) 9.4.0"
 3512              		.section	.note.GNU-stack,"",@progbits
GAS LISTING /tmp/ccCqHX1D.s 			page 12


DEFINED SYMBOLS
                            *ABS*:0000000000000000 cpp_semaphores.cpp
     /tmp/ccCqHX1D.s:10     .text._ZN5MutexD2Ev:0000000000000000 _ZN5MutexD2Ev
     /tmp/ccCqHX1D.s:14     .text._ZN5MutexD2Ev:0000000000000000 .L0 
     /tmp/ccCqHX1D.s:16     .text._ZN5MutexD2Ev:0000000000000000 .L0 
     /tmp/ccCqHX1D.s:17     .text._ZN5MutexD2Ev:0000000000000004 .L0 
     /tmp/ccCqHX1D.s:20     .text._ZN5MutexD2Ev:000000000000000c .L0 
     /tmp/ccCqHX1D.s:21     .text._ZN5MutexD2Ev:000000000000000c .L0 
     /tmp/ccCqHX1D.s:23     .text._ZN5MutexD2Ev:0000000000000010 .L0 
     /tmp/ccCqHX1D.s:455    .data.rel.ro._ZTV5Mutex:0000000000000000 _ZTV5Mutex
     /tmp/ccCqHX1D.s:26     .text._ZN5MutexD2Ev:0000000000000010 .L0 
     /tmp/ccCqHX1D.s:32     .text._ZN5MutexD2Ev:0000000000000028 .L0 
     /tmp/ccCqHX1D.s:34     .text._ZN5MutexD2Ev:000000000000002c .L0 
     /tmp/ccCqHX1D.s:35     .text._ZN5MutexD2Ev:000000000000002c .L0 
     /tmp/ccCqHX1D.s:37     .text._ZN5MutexD2Ev:0000000000000030 .L0 
     /tmp/ccCqHX1D.s:39     .text._ZN5MutexD2Ev:0000000000000034 .L0 
     /tmp/ccCqHX1D.s:10     .text._ZN5MutexD2Ev:0000000000000000 _ZN5MutexD1Ev
     /tmp/ccCqHX1D.s:48     .text._ZN5MutexD0Ev:0000000000000000 _ZN5MutexD0Ev
     /tmp/ccCqHX1D.s:51     .text._ZN5MutexD0Ev:0000000000000000 .L0 
     /tmp/ccCqHX1D.s:53     .text._ZN5MutexD0Ev:0000000000000000 .L0 
     /tmp/ccCqHX1D.s:54     .text._ZN5MutexD0Ev:0000000000000004 .L0 
     /tmp/ccCqHX1D.s:58     .text._ZN5MutexD0Ev:0000000000000010 .L0 
     /tmp/ccCqHX1D.s:59     .text._ZN5MutexD0Ev:0000000000000010 .L0 
     /tmp/ccCqHX1D.s:60     .text._ZN5MutexD0Ev:0000000000000010 .L0 
     /tmp/ccCqHX1D.s:62     .text._ZN5MutexD0Ev:0000000000000014 .L0 
     /tmp/ccCqHX1D.s:68     .text._ZN5MutexD0Ev:0000000000000018 .L0 
     /tmp/ccCqHX1D.s:78     .text._ZN5MutexD0Ev:000000000000003c .L0 
     /tmp/ccCqHX1D.s:80     .text._ZN5MutexD0Ev:0000000000000040 .L0 
     /tmp/ccCqHX1D.s:81     .text._ZN5MutexD0Ev:0000000000000040 .L0 
     /tmp/ccCqHX1D.s:83     .text._ZN5MutexD0Ev:0000000000000044 .L0 
     /tmp/ccCqHX1D.s:86     .text._ZN5MutexD0Ev:0000000000000048 .L0 
     /tmp/ccCqHX1D.s:88     .text._ZN5MutexD0Ev:000000000000004c .L0 
     /tmp/ccCqHX1D.s:95     .text:0000000000000000 _ZN10OwnedMutexD2Ev
     /tmp/ccCqHX1D.s:99     .text:0000000000000000 .L0 
     /tmp/ccCqHX1D.s:3509   .data.rel.local.DW.ref.__gxx_personality_v0:0000000000000000 DW.ref.__gxx_personality_v0
     /tmp/ccCqHX1D.s:103    .text:0000000000000000 .L0 
     /tmp/ccCqHX1D.s:104    .text:0000000000000004 .L0 
     /tmp/ccCqHX1D.s:108    .text:0000000000000010 .L0 
     /tmp/ccCqHX1D.s:109    .text:0000000000000010 .L0 
     /tmp/ccCqHX1D.s:110    .text:0000000000000010 .L0 
     /tmp/ccCqHX1D.s:112    .text:0000000000000014 .L0 
     /tmp/ccCqHX1D.s:467    .data.rel.ro.local._ZTV10OwnedMutex:0000000000000000 _ZTV10OwnedMutex
     /tmp/ccCqHX1D.s:116    .text:0000000000000018 .L0 
     /tmp/ccCqHX1D.s:119    .text:0000000000000024 .L0 
     /tmp/ccCqHX1D.s:120    .text:0000000000000024 .L0 
     /tmp/ccCqHX1D.s:127    .text:0000000000000030 .L0 
     /tmp/ccCqHX1D.s:136    .text:0000000000000048 .L0 
     /tmp/ccCqHX1D.s:137    .text:000000000000004c .L0 
     /tmp/ccCqHX1D.s:139    .text:0000000000000050 .L0 
     /tmp/ccCqHX1D.s:140    .text:0000000000000050 .L0 
     /tmp/ccCqHX1D.s:142    .text:0000000000000054 .L0 
     /tmp/ccCqHX1D.s:145    .text:0000000000000058 .L0 
     /tmp/ccCqHX1D.s:147    .text:000000000000005c .L0 
     /tmp/ccCqHX1D.s:95     .text:0000000000000000 _ZN10OwnedMutexD1Ev
     /tmp/ccCqHX1D.s:163    .text:000000000000005c _ZN10OwnedMutexD0Ev
     /tmp/ccCqHX1D.s:166    .text:000000000000005c .L0 
     /tmp/ccCqHX1D.s:168    .text:000000000000005c .L0 
GAS LISTING /tmp/ccCqHX1D.s 			page 13


     /tmp/ccCqHX1D.s:169    .text:0000000000000060 .L0 
     /tmp/ccCqHX1D.s:173    .text:000000000000006c .L0 
     /tmp/ccCqHX1D.s:174    .text:000000000000006c .L0 
     /tmp/ccCqHX1D.s:175    .text:000000000000006c .L0 
     /tmp/ccCqHX1D.s:177    .text:0000000000000070 .L0 
     /tmp/ccCqHX1D.s:180    .text:0000000000000074 .L0 
     /tmp/ccCqHX1D.s:186    .text:000000000000008c .L0 
     /tmp/ccCqHX1D.s:188    .text:0000000000000090 .L0 
     /tmp/ccCqHX1D.s:189    .text:0000000000000090 .L0 
     /tmp/ccCqHX1D.s:191    .text:0000000000000094 .L0 
     /tmp/ccCqHX1D.s:194    .text:0000000000000098 .L0 
     /tmp/ccCqHX1D.s:196    .text:000000000000009c .L0 
     /tmp/ccCqHX1D.s:202    .text:000000000000009c _ZN10OwnedMutex4waitEv
     /tmp/ccCqHX1D.s:205    .text:000000000000009c .L0 
     /tmp/ccCqHX1D.s:207    .text:000000000000009c .L0 
     /tmp/ccCqHX1D.s:208    .text:000000000000009c .L0 
     /tmp/ccCqHX1D.s:209    .text:000000000000009c .L0 
     /tmp/ccCqHX1D.s:211    .text:00000000000000a0 .L0 
     /tmp/ccCqHX1D.s:214    .text:00000000000000ac .L0 
     /tmp/ccCqHX1D.s:216    .text:00000000000000b0 .L0 
     /tmp/ccCqHX1D.s:217    .text:00000000000000b4 .L0 
     /tmp/ccCqHX1D.s:220    .text:00000000000000bc .L0 
     /tmp/ccCqHX1D.s:221    .text:00000000000000bc .L0 
     /tmp/ccCqHX1D.s:223    .text:00000000000000c0 .L0 
     /tmp/ccCqHX1D.s:225    .text:00000000000000c0 .L0 
     /tmp/ccCqHX1D.s:228    .text:00000000000000c4 .L0 
     /tmp/ccCqHX1D.s:229    .text:00000000000000c4 .L0 
     /tmp/ccCqHX1D.s:234    .text:00000000000000d0 .L0 
     /tmp/ccCqHX1D.s:235    .text:00000000000000d0 .L0 
     /tmp/ccCqHX1D.s:237    .text:00000000000000d8 .L0 
     /tmp/ccCqHX1D.s:239    .text:00000000000000dc .L0 
     /tmp/ccCqHX1D.s:240    .text:00000000000000dc .L0 
     /tmp/ccCqHX1D.s:242    .text:00000000000000e0 .L0 
     /tmp/ccCqHX1D.s:247    .text:00000000000000e4 .L0 
     /tmp/ccCqHX1D.s:248    .text:00000000000000e4 .L0 
     /tmp/ccCqHX1D.s:250    .text:00000000000000e8 .L0 
     /tmp/ccCqHX1D.s:253    .text:00000000000000f0 .L0 
     /tmp/ccCqHX1D.s:254    .text:00000000000000f0 .L0 
     /tmp/ccCqHX1D.s:259    .text:00000000000000f8 .L0 
     /tmp/ccCqHX1D.s:260    .text:00000000000000f8 .L0 
     /tmp/ccCqHX1D.s:261    .text:00000000000000f8 .L0 
     /tmp/ccCqHX1D.s:263    .text:00000000000000f8 .L0 
     /tmp/ccCqHX1D.s:264    .text:00000000000000f8 .L0 
     /tmp/ccCqHX1D.s:266    .text:00000000000000fc .L0 
     /tmp/ccCqHX1D.s:267    .text:00000000000000fc .L0 
     /tmp/ccCqHX1D.s:270    .text:0000000000000108 .L0 
     /tmp/ccCqHX1D.s:276    .text:0000000000000108 _ZN10OwnedMutex6signalEv
     /tmp/ccCqHX1D.s:279    .text:0000000000000108 .L0 
     /tmp/ccCqHX1D.s:281    .text:0000000000000108 .L0 
     /tmp/ccCqHX1D.s:282    .text:0000000000000108 .L0 
     /tmp/ccCqHX1D.s:283    .text:0000000000000108 .L0 
     /tmp/ccCqHX1D.s:285    .text:000000000000010c .L0 
     /tmp/ccCqHX1D.s:288    .text:0000000000000118 .L0 
     /tmp/ccCqHX1D.s:290    .text:000000000000011c .L0 
     /tmp/ccCqHX1D.s:291    .text:000000000000011c .L0 
     /tmp/ccCqHX1D.s:293    .text:0000000000000120 .L0 
     /tmp/ccCqHX1D.s:297    .text:000000000000012c .L0 
GAS LISTING /tmp/ccCqHX1D.s 			page 14


     /tmp/ccCqHX1D.s:299    .text:0000000000000130 .L0 
     /tmp/ccCqHX1D.s:302    .text:0000000000000134 .L0 
     /tmp/ccCqHX1D.s:306    .text:0000000000000138 .L0 
     /tmp/ccCqHX1D.s:307    .text:000000000000013c .L0 
     /tmp/ccCqHX1D.s:310    .text:0000000000000144 .L0 
     /tmp/ccCqHX1D.s:311    .text:0000000000000144 .L0 
     /tmp/ccCqHX1D.s:313    .text:0000000000000148 .L0 
     /tmp/ccCqHX1D.s:315    .text:0000000000000148 .L0 
     /tmp/ccCqHX1D.s:316    .text:0000000000000148 .L0 
     /tmp/ccCqHX1D.s:318    .text:000000000000014c .L0 
     /tmp/ccCqHX1D.s:319    .text:000000000000014c .L0 
     /tmp/ccCqHX1D.s:324    .text:0000000000000158 .L0 
     /tmp/ccCqHX1D.s:326    .text:000000000000015c .L0 
     /tmp/ccCqHX1D.s:327    .text:0000000000000160 .L0 
     /tmp/ccCqHX1D.s:329    .text:0000000000000164 .L0 
     /tmp/ccCqHX1D.s:330    .text:0000000000000164 .L0 
     /tmp/ccCqHX1D.s:332    .text:0000000000000168 .L0 
     /tmp/ccCqHX1D.s:337    .text:000000000000016c .L0 
     /tmp/ccCqHX1D.s:340    .text:0000000000000174 .L0 
     /tmp/ccCqHX1D.s:346    .text:0000000000000174 _ZN10OwnedMutexC2Ev
     /tmp/ccCqHX1D.s:349    .text:0000000000000174 .L0 
     /tmp/ccCqHX1D.s:353    .text:0000000000000174 .L0 
     /tmp/ccCqHX1D.s:354    .text:0000000000000178 .L0 
     /tmp/ccCqHX1D.s:359    .text:0000000000000188 .L0 
     /tmp/ccCqHX1D.s:360    .text:0000000000000188 .L0 
     /tmp/ccCqHX1D.s:361    .text:0000000000000188 .L0 
     /tmp/ccCqHX1D.s:362    .text:0000000000000188 .L0 
     /tmp/ccCqHX1D.s:364    .text:000000000000018c .L0 
     /tmp/ccCqHX1D.s:371    .text:0000000000000190 .L0 
     /tmp/ccCqHX1D.s:379    .text:000000000000019c .L0 
     /tmp/ccCqHX1D.s:384    .text:00000000000001b0 .L0 
     /tmp/ccCqHX1D.s:385    .text:00000000000001b0 .L0 
     /tmp/ccCqHX1D.s:398    .text:00000000000001c8 .L0 
     /tmp/ccCqHX1D.s:413    .text:00000000000001ec .L0 
     /tmp/ccCqHX1D.s:414    .text:00000000000001f0 .L0 
     /tmp/ccCqHX1D.s:416    .text:00000000000001f4 .L0 
     /tmp/ccCqHX1D.s:417    .text:00000000000001f4 .L0 
     /tmp/ccCqHX1D.s:419    .text:00000000000001f8 .L0 
     /tmp/ccCqHX1D.s:422    .text:00000000000001fc .L0 
     /tmp/ccCqHX1D.s:424    .text:0000000000000200 .L0 
     /tmp/ccCqHX1D.s:426    .text:0000000000000204 .L0 
     /tmp/ccCqHX1D.s:346    .text:0000000000000174 _ZN10OwnedMutexC1Ev
     /tmp/ccCqHX1D.s:44     .text._ZN5MutexD2Ev:0000000000000034 .L0 
     /tmp/ccCqHX1D.s:91     .text._ZN5MutexD0Ev:000000000000004c .L0 
     /tmp/ccCqHX1D.s:481    .text:0000000000000204 .L0 
     /tmp/ccCqHX1D.s:116    .text:0000000000000018 .L0 
     /tmp/ccCqHX1D.s:127    .text:0000000000000030 .L0 
     /tmp/ccCqHX1D.s:211    .text:00000000000000a0 .L0 
     /tmp/ccCqHX1D.s:285    .text:000000000000010c .L0 
     /tmp/ccCqHX1D.s:379    .text:000000000000019c .L0 
     /tmp/ccCqHX1D.s:398    .text:00000000000001c8 .L0 
     /tmp/ccCqHX1D.s:245    .text:00000000000000e4 .L16
     /tmp/ccCqHX1D.s:258    .text:00000000000000f8 .L17
     /tmp/ccCqHX1D.s:226    .text:00000000000000c4 .L12
     /tmp/ccCqHX1D.s:335    .text:000000000000016c .L20
     /tmp/ccCqHX1D.s:304    .text:0000000000000138 .L26
     /tmp/ccCqHX1D.s:408    .text:00000000000001ec .L32
GAS LISTING /tmp/ccCqHX1D.s 			page 15


     /tmp/ccCqHX1D.s:26     .text._ZN5MutexD2Ev:0000000000000010 .L0 
     /tmp/ccCqHX1D.s:68     .text._ZN5MutexD0Ev:0000000000000018 .L0 
     /tmp/ccCqHX1D.s:372    .text:0000000000000194 .LEHB0
     /tmp/ccCqHX1D.s:347    .text:0000000000000174 .LFB36
     /tmp/ccCqHX1D.s:375    .text:000000000000019c .LEHE0
     /tmp/ccCqHX1D.s:387    .text:00000000000001b8 .LEHB1
     /tmp/ccCqHX1D.s:390    .text:00000000000001c0 .LEHE1
     /tmp/ccCqHX1D.s:392    .text:00000000000001c4 .L29
     /tmp/ccCqHX1D.s:404    .text:00000000000001e4 .LEHB2
     /tmp/ccCqHX1D.s:407    .text:00000000000001ec .LEHE2
     /tmp/ccCqHX1D.s:1920   .debug_abbrev:0000000000000000 .Ldebug_abbrev0
     /tmp/ccCqHX1D.s:3431   .debug_str:0000000000000790 .LASF148
     /tmp/ccCqHX1D.s:3193   .debug_str:0000000000000080 .LASF149
     /tmp/ccCqHX1D.s:3267   .debug_str:00000000000002e5 .LASF150
     /tmp/ccCqHX1D.s:3165   .debug_ranges:0000000000000000 .Ldebug_ranges0
     /tmp/ccCqHX1D.s:3175   .debug_line:0000000000000000 .Ldebug_line0
     /tmp/ccCqHX1D.s:3291   .debug_str:000000000000039c .LASF0
     /tmp/ccCqHX1D.s:3315   .debug_str:0000000000000451 .LASF1
     /tmp/ccCqHX1D.s:3385   .debug_str:000000000000062f .LASF2
     /tmp/ccCqHX1D.s:3391   .debug_str:0000000000000661 .LASF4
     /tmp/ccCqHX1D.s:3299   .debug_str:00000000000003e9 .LASF3
     /tmp/ccCqHX1D.s:3189   .debug_str:0000000000000069 .LASF5
     /tmp/ccCqHX1D.s:3371   .debug_str:00000000000005dd .LASF6
     /tmp/ccCqHX1D.s:3365   .debug_str:00000000000005b1 .LASF7
     /tmp/ccCqHX1D.s:3305   .debug_str:0000000000000410 .LASF8
     /tmp/ccCqHX1D.s:3263   .debug_str:00000000000002c7 .LASF9
     /tmp/ccCqHX1D.s:3273   .debug_str:0000000000000327 .LASF10
     /tmp/ccCqHX1D.s:3217   .debug_str:0000000000000134 .LASF11
     /tmp/ccCqHX1D.s:3253   .debug_str:0000000000000273 .LASF12
     /tmp/ccCqHX1D.s:3229   .debug_str:0000000000000197 .LASF13
     /tmp/ccCqHX1D.s:3215   .debug_str:0000000000000124 .LASF14
     /tmp/ccCqHX1D.s:3413   .debug_str:0000000000000734 .LASF15
     /tmp/ccCqHX1D.s:3243   .debug_str:0000000000000222 .LASF16
     /tmp/ccCqHX1D.s:3401   .debug_str:00000000000006c4 .LASF17
     /tmp/ccCqHX1D.s:3471   .debug_str:0000000000000979 .LASF18
     /tmp/ccCqHX1D.s:3319   .debug_str:000000000000046a .LASF26
     /tmp/ccCqHX1D.s:3185   .debug_str:0000000000000036 .LASF28
     /tmp/ccCqHX1D.s:3427   .debug_str:000000000000077b .LASF19
     /tmp/ccCqHX1D.s:3329   .debug_str:00000000000004a3 .LASF21
     /tmp/ccCqHX1D.s:3397   .debug_str:00000000000006a0 .LASF20
     /tmp/ccCqHX1D.s:3435   .debug_str:000000000000085b .LASF22
     /tmp/ccCqHX1D.s:3455   .debug_str:0000000000000902 .LASF23
     /tmp/ccCqHX1D.s:3275   .debug_str:0000000000000335 .LASF24
     /tmp/ccCqHX1D.s:3309   .debug_str:000000000000042c .LASF25
     /tmp/ccCqHX1D.s:3205   .debug_str:00000000000000e6 .LASF151
     /tmp/ccCqHX1D.s:3349   .debug_str:0000000000000554 .LASF152
     /tmp/ccCqHX1D.s:3443   .debug_str:00000000000008b2 .LASF27
     /tmp/ccCqHX1D.s:3469   .debug_str:0000000000000967 .LASF29
     /tmp/ccCqHX1D.s:3367   .debug_str:00000000000005c4 .LASF30
     /tmp/ccCqHX1D.s:3495   .debug_str:0000000000000a36 .LASF31
     /tmp/ccCqHX1D.s:3325   .debug_str:000000000000048a .LASF32
     /tmp/ccCqHX1D.s:3231   .debug_str:00000000000001a7 .LASF33
     /tmp/ccCqHX1D.s:3317   .debug_str:0000000000000464 .LASF34
     /tmp/ccCqHX1D.s:3437   .debug_str:0000000000000877 .LASF35
     /tmp/ccCqHX1D.s:3335   .debug_str:00000000000004d3 .LASF36
     /tmp/ccCqHX1D.s:3441   .debug_str:0000000000000896 .LASF37
     /tmp/ccCqHX1D.s:3473   .debug_str:0000000000000982 .LASF38
GAS LISTING /tmp/ccCqHX1D.s 			page 16


     /tmp/ccCqHX1D.s:3235   .debug_str:00000000000001e4 .LASF39
     /tmp/ccCqHX1D.s:3497   .debug_str:0000000000000a4e .LASF40
     /tmp/ccCqHX1D.s:3269   .debug_str:0000000000000303 .LASF41
     /tmp/ccCqHX1D.s:3183   .debug_str:0000000000000026 .LASF42
     /tmp/ccCqHX1D.s:3357   .debug_str:000000000000057f .LASF43
     /tmp/ccCqHX1D.s:3209   .debug_str:00000000000000f5 .LASF44
     /tmp/ccCqHX1D.s:3261   .debug_str:00000000000002bb .LASF45
     /tmp/ccCqHX1D.s:3399   .debug_str:00000000000006b1 .LASF46
     /tmp/ccCqHX1D.s:3387   .debug_str:000000000000063d .LASF47
     /tmp/ccCqHX1D.s:3337   .debug_str:00000000000004e2 .LASF48
     /tmp/ccCqHX1D.s:3415   .debug_str:0000000000000740 .LASF49
     /tmp/ccCqHX1D.s:3445   .debug_str:00000000000008b8 .LASF50
     /tmp/ccCqHX1D.s:3465   .debug_str:0000000000000948 .LASF52
     /tmp/ccCqHX1D.s:3479   .debug_str:00000000000009ae .LASF51
     /tmp/ccCqHX1D.s:3201   .debug_str:00000000000000b4 .LASF53
     /tmp/ccCqHX1D.s:3369   .debug_str:00000000000005d1 .LASF54
     /tmp/ccCqHX1D.s:3233   .debug_str:00000000000001cc .LASF55
     /tmp/ccCqHX1D.s:3327   .debug_str:0000000000000499 .LASF56
     /tmp/ccCqHX1D.s:3487   .debug_str:00000000000009dd .LASF57
     /tmp/ccCqHX1D.s:3363   .debug_str:00000000000005a5 .LASF58
     /tmp/ccCqHX1D.s:3343   .debug_str:0000000000000523 .LASF59
     /tmp/ccCqHX1D.s:3213   .debug_str:0000000000000116 .LASF60
     /tmp/ccCqHX1D.s:3289   .debug_str:0000000000000396 .LASF61
     /tmp/ccCqHX1D.s:3191   .debug_str:0000000000000070 .LASF62
     /tmp/ccCqHX1D.s:3199   .debug_str:00000000000000ae .LASF63
     /tmp/ccCqHX1D.s:3393   .debug_str:0000000000000668 .LASF64
     /tmp/ccCqHX1D.s:3353   .debug_str:0000000000000572 .LASF65
     /tmp/ccCqHX1D.s:3211   .debug_str:0000000000000105 .LASF66
     /tmp/ccCqHX1D.s:3331   .debug_str:00000000000004bb .LASF67
     /tmp/ccCqHX1D.s:3251   .debug_str:0000000000000262 .LASF68
     /tmp/ccCqHX1D.s:3411   .debug_str:0000000000000726 .LASF69
     /tmp/ccCqHX1D.s:3295   .debug_str:00000000000003b4 .LASF70
     /tmp/ccCqHX1D.s:3195   .debug_str:0000000000000097 .LASF71
     /tmp/ccCqHX1D.s:3241   .debug_str:0000000000000209 .LASF72
     /tmp/ccCqHX1D.s:3277   .debug_str:000000000000034f .LASF73
     /tmp/ccCqHX1D.s:3203   .debug_str:00000000000000cb .LASF74
     /tmp/ccCqHX1D.s:3439   .debug_str:0000000000000887 .LASF75
     /tmp/ccCqHX1D.s:3297   .debug_str:00000000000003ce .LASF76
     /tmp/ccCqHX1D.s:3301   .debug_str:00000000000003fb .LASF77
     /tmp/ccCqHX1D.s:3477   .debug_str:0000000000000994 .LASF78
     /tmp/ccCqHX1D.s:3257   .debug_str:00000000000002a8 .LASF79
     /tmp/ccCqHX1D.s:3429   .debug_str:0000000000000788 .LASF80
     /tmp/ccCqHX1D.s:3457   .debug_str:000000000000090f .LASF81
     /tmp/ccCqHX1D.s:3285   .debug_str:000000000000038a .LASF82
     /tmp/ccCqHX1D.s:3489   .debug_str:00000000000009f2 .LASF83
     /tmp/ccCqHX1D.s:3239   .debug_str:0000000000000202 .LASF84
     /tmp/ccCqHX1D.s:3447   .debug_str:00000000000008c4 .LASF85
     /tmp/ccCqHX1D.s:3467   .debug_str:0000000000000960 .LASF86
     /tmp/ccCqHX1D.s:3381   .debug_str:000000000000061b .LASF87
     /tmp/ccCqHX1D.s:3449   .debug_str:00000000000008cc .LASF88
     /tmp/ccCqHX1D.s:3323   .debug_str:0000000000000483 .LASF89
     /tmp/ccCqHX1D.s:3423   .debug_str:0000000000000763 .LASF90
     /tmp/ccCqHX1D.s:3379   .debug_str:0000000000000616 .LASF91
     /tmp/ccCqHX1D.s:3303   .debug_str:000000000000040a .LASF92
     /tmp/ccCqHX1D.s:3421   .debug_str:000000000000075b .LASF153
     /tmp/ccCqHX1D.s:3475   .debug_str:000000000000098c .LASF93
     /tmp/ccCqHX1D.s:3463   .debug_str:0000000000000943 .LASF94
GAS LISTING /tmp/ccCqHX1D.s 			page 17


     /tmp/ccCqHX1D.s:3485   .debug_str:00000000000009d6 .LASF154
     /tmp/ccCqHX1D.s:3307   .debug_str:0000000000000423 .LASF95
     /tmp/ccCqHX1D.s:3177   .debug_str:0000000000000000 .LASF96
     /tmp/ccCqHX1D.s:3221   .debug_str:0000000000000154 .LASF97
     /tmp/ccCqHX1D.s:3433   .debug_str:0000000000000854 .LASF98
     /tmp/ccCqHX1D.s:3207   .debug_str:00000000000000ec .LASF99
     /tmp/ccCqHX1D.s:3181   .debug_str:0000000000000011 .LASF100
     /tmp/ccCqHX1D.s:3373   .debug_str:00000000000005e4 .LASF101
     /tmp/ccCqHX1D.s:3459   .debug_str:0000000000000914 .LASF102
     /tmp/ccCqHX1D.s:3255   .debug_str:0000000000000282 .LASF103
     /tmp/ccCqHX1D.s:3453   .debug_str:00000000000008de .LASF155
     /tmp/ccCqHX1D.s:3311   .debug_str:0000000000000447 .LASF104
     /tmp/ccCqHX1D.s:3405   .debug_str:00000000000006e8 .LASF105
     /tmp/ccCqHX1D.s:3383   .debug_str:0000000000000626 .LASF106
     /tmp/ccCqHX1D.s:3491   .debug_str:00000000000009f8 .LASF107
     /tmp/ccCqHX1D.s:3451   .debug_str:00000000000008d6 .LASF108
     /tmp/ccCqHX1D.s:3395   .debug_str:0000000000000678 .LASF109
     /tmp/ccCqHX1D.s:3227   .debug_str:0000000000000190 .LASF110
     /tmp/ccCqHX1D.s:3225   .debug_str:0000000000000169 .LASF111
     /tmp/ccCqHX1D.s:3279   .debug_str:000000000000035f .LASF112
     /tmp/ccCqHX1D.s:3249   .debug_str:000000000000025c .LASF113
     /tmp/ccCqHX1D.s:3407   .debug_str:000000000000070d .LASF114
     /tmp/ccCqHX1D.s:3347   .debug_str:000000000000054f .LASF115
     /tmp/ccCqHX1D.s:3313   .debug_str:000000000000044c .LASF116
     /tmp/ccCqHX1D.s:3179   .debug_str:0000000000000008 .LASF117
     /tmp/ccCqHX1D.s:3293   .debug_str:00000000000003a9 .LASF118
     /tmp/ccCqHX1D.s:3281   .debug_str:0000000000000368 .LASF127
     /tmp/ccCqHX1D.s:3375   .debug_str:00000000000005e9 .LASF119
     /tmp/ccCqHX1D.s:3223   .debug_str:000000000000015d .LASF156
     /tmp/ccCqHX1D.s:3345   .debug_str:000000000000053b .LASF157
     /tmp/ccCqHX1D.s:3237   .debug_str:00000000000001fd .LASF120
     /tmp/ccCqHX1D.s:3389   .debug_str:000000000000064a .LASF122
     /tmp/ccCqHX1D.s:3419   .debug_str:0000000000000754 .LASF121
     /tmp/ccCqHX1D.s:3377   .debug_str:00000000000005fd .LASF123
     /tmp/ccCqHX1D.s:3417   .debug_str:000000000000074e .LASF124
     /tmp/ccCqHX1D.s:3481   .debug_str:00000000000009b9 .LASF125
     /tmp/ccCqHX1D.s:3355   .debug_str:0000000000000579 .LASF126
     /tmp/ccCqHX1D.s:3247   .debug_str:000000000000024c .LASF128
     /tmp/ccCqHX1D.s:3219   .debug_str:0000000000000143 .LASF129
     /tmp/ccCqHX1D.s:3351   .debug_str:0000000000000564 .LASF130
     /tmp/ccCqHX1D.s:3287   .debug_str:000000000000038f .LASF131
     /tmp/ccCqHX1D.s:3499   .debug_str:0000000000000a5b .LASF158
     /tmp/ccCqHX1D.s:3461   .debug_str:0000000000000939 .LASF159
     /tmp/ccCqHX1D.s:277    .text:0000000000000108 .LFB43
     /tmp/ccCqHX1D.s:341    .text:0000000000000174 .LFE43
     /tmp/ccCqHX1D.s:3259   .debug_str:00000000000002b6 .LASF132
     /tmp/ccCqHX1D.s:2961   .debug_loc:0000000000000000 .LLST7
     /tmp/ccCqHX1D.s:322    .text:0000000000000158 .LVL26
     /tmp/ccCqHX1D.s:203    .text:000000000000009c .LFB42
     /tmp/ccCqHX1D.s:271    .text:0000000000000108 .LFE42
     /tmp/ccCqHX1D.s:2997   .debug_loc:000000000000008b .LLST6
     /tmp/ccCqHX1D.s:232    .text:00000000000000d0 .LVL18
     /tmp/ccCqHX1D.s:3187   .debug_str:000000000000005f .LASF133
     /tmp/ccCqHX1D.s:3245   .debug_str:0000000000000238 .LASF134
     /tmp/ccCqHX1D.s:164    .text:000000000000005c .LFB41
     /tmp/ccCqHX1D.s:197    .text:000000000000009c .LFE41
     /tmp/ccCqHX1D.s:3026   .debug_loc:0000000000000100 .LLST5
GAS LISTING /tmp/ccCqHX1D.s 			page 18


     /tmp/ccCqHX1D.s:181    .text:000000000000007c .LVL13
     /tmp/ccCqHX1D.s:184    .text:0000000000000088 .LVL14
     /tmp/ccCqHX1D.s:3341   .debug_str:000000000000050f .LASF135
     /tmp/ccCqHX1D.s:96     .text:0000000000000000 .LFB39
     /tmp/ccCqHX1D.s:148    .text:000000000000005c .LFE39
     /tmp/ccCqHX1D.s:3044   .debug_loc:000000000000014c .LLST3
     /tmp/ccCqHX1D.s:124    .text:0000000000000030 .LBB20
     /tmp/ccCqHX1D.s:133    .text:0000000000000048 .LBE20
     /tmp/ccCqHX1D.s:3062   .debug_loc:0000000000000198 .LLST4
     /tmp/ccCqHX1D.s:131    .text:0000000000000048 .LVL10
     /tmp/ccCqHX1D.s:123    .text:0000000000000030 .LVL9
     /tmp/ccCqHX1D.s:3493   .debug_str:0000000000000a22 .LASF136
     /tmp/ccCqHX1D.s:427    .text:0000000000000204 .LFE36
     /tmp/ccCqHX1D.s:3069   .debug_loc:00000000000001bb .LLST8
     /tmp/ccCqHX1D.s:368    .text:0000000000000190 .LBB23
     /tmp/ccCqHX1D.s:377    .text:000000000000019c .LBE23
     /tmp/ccCqHX1D.s:3087   .debug_loc:0000000000000207 .LLST9
     /tmp/ccCqHX1D.s:374    .text:000000000000019c .LVL31
     /tmp/ccCqHX1D.s:395    .text:00000000000001c8 .LBB25
     /tmp/ccCqHX1D.s:410    .text:00000000000001ec .LBE25
     /tmp/ccCqHX1D.s:3098   .debug_loc:000000000000023d .LLST10
     /tmp/ccCqHX1D.s:402    .text:00000000000001e0 .LVL34
     /tmp/ccCqHX1D.s:389    .text:00000000000001c0 .LVL32
     /tmp/ccCqHX1D.s:406    .text:00000000000001ec .LVL35
     /tmp/ccCqHX1D.s:3403   .debug_str:00000000000006da .LASF137
     /tmp/ccCqHX1D.s:49     .text._ZN5MutexD0Ev:0000000000000000 .LFB35
     /tmp/ccCqHX1D.s:89     .text._ZN5MutexD0Ev:000000000000004c .LFE35
     /tmp/ccCqHX1D.s:3105   .debug_loc:0000000000000260 .LLST1
     /tmp/ccCqHX1D.s:65     .text._ZN5MutexD0Ev:0000000000000018 .LBB17
     /tmp/ccCqHX1D.s:73     .text._ZN5MutexD0Ev:000000000000002c .LBE17
     /tmp/ccCqHX1D.s:3123   .debug_loc:00000000000002ac .LLST2
     /tmp/ccCqHX1D.s:71     .text._ZN5MutexD0Ev:000000000000002c .LVL4
     /tmp/ccCqHX1D.s:76     .text._ZN5MutexD0Ev:0000000000000038 .LVL5
     /tmp/ccCqHX1D.s:3265   .debug_str:00000000000002d7 .LASF138
     /tmp/ccCqHX1D.s:11     .text._ZN5MutexD2Ev:0000000000000000 .LFB33
     /tmp/ccCqHX1D.s:40     .text._ZN5MutexD2Ev:0000000000000034 .LFE33
     /tmp/ccCqHX1D.s:3134   .debug_loc:00000000000002e2 .LLST0
     /tmp/ccCqHX1D.s:29     .text._ZN5MutexD2Ev:0000000000000024 .LVL1
     /tmp/ccCqHX1D.s:3339   .debug_str:0000000000000501 .LASF160
     /tmp/ccCqHX1D.s:3409   .debug_str:0000000000000712 .LASF139
     /tmp/ccCqHX1D.s:3283   .debug_str:000000000000037f .LASF141
     /tmp/ccCqHX1D.s:3333   .debug_str:00000000000004c2 .LASF140
     /tmp/ccCqHX1D.s:3501   .debug_str:0000000000000a69 .LASF142
     /tmp/ccCqHX1D.s:3361   .debug_str:000000000000059e .LASF143
     /tmp/ccCqHX1D.s:3359   .debug_str:000000000000058c .LASF144
     /tmp/ccCqHX1D.s:3321   .debug_str:0000000000000479 .LASF145
     /tmp/ccCqHX1D.s:3425   .debug_str:0000000000000768 .LASF146
     /tmp/ccCqHX1D.s:3197   .debug_str:00000000000000a5 .LASF147
     /tmp/ccCqHX1D.s:3483   .debug_str:00000000000009c7 .LASF161
     /tmp/ccCqHX1D.s:3271   .debug_str:000000000000030f .LASF162
     /tmp/ccCqHX1D.s:280    .text:0000000000000108 .LVL22
     /tmp/ccCqHX1D.s:300    .text:0000000000000134 .LVL23
     /tmp/ccCqHX1D.s:303    .text:0000000000000138 .LVL24
     /tmp/ccCqHX1D.s:320    .text:0000000000000150 .LVL25
     /tmp/ccCqHX1D.s:334    .text:000000000000016c .LVL27
     /tmp/ccCqHX1D.s:338    .text:0000000000000170 .LVL28
     /tmp/ccCqHX1D.s:206    .text:000000000000009c .LVL16
GAS LISTING /tmp/ccCqHX1D.s 			page 19


     /tmp/ccCqHX1D.s:230    .text:00000000000000c8 .LVL17
     /tmp/ccCqHX1D.s:244    .text:00000000000000e4 .LVL19
     /tmp/ccCqHX1D.s:255    .text:00000000000000f4 .LVL20
     /tmp/ccCqHX1D.s:257    .text:00000000000000f8 .LVL21
     /tmp/ccCqHX1D.s:167    .text:000000000000005c .LVL12
     /tmp/ccCqHX1D.s:192    .text:0000000000000094 .LVL15
     /tmp/ccCqHX1D.s:102    .text:0000000000000000 .LVL7
     /tmp/ccCqHX1D.s:121    .text:0000000000000028 .LVL8
     /tmp/ccCqHX1D.s:143    .text:0000000000000054 .LVL11
     /tmp/ccCqHX1D.s:352    .text:0000000000000174 .LVL29
     /tmp/ccCqHX1D.s:420    .text:00000000000001f8 .LVL36
     /tmp/ccCqHX1D.s:366    .text:0000000000000190 .LVL30
     /tmp/ccCqHX1D.s:394    .text:00000000000001c8 .LVL33
     /tmp/ccCqHX1D.s:52     .text._ZN5MutexD0Ev:0000000000000000 .LVL2
     /tmp/ccCqHX1D.s:84     .text._ZN5MutexD0Ev:0000000000000044 .LVL6
     /tmp/ccCqHX1D.s:64     .text._ZN5MutexD0Ev:0000000000000018 .LVL3
     /tmp/ccCqHX1D.s:15     .text._ZN5MutexD2Ev:0000000000000000 .LVL0
     /tmp/ccCqHX1D.s:482    .debug_info:0000000000000000 .Ldebug_info0
     /tmp/ccCqHX1D.s:5      .text:0000000000000000 .Ltext0
     /tmp/ccCqHX1D.s:475    .text:0000000000000204 .Letext0
     /tmp/ccCqHX1D.s:151    .gcc_except_table:0000000000000000 .LLSDA39
     /tmp/ccCqHX1D.s:429    .gcc_except_table:0000000000000004 .LLSDA36
                           .group:0000000000000000 _ZN5MutexD5Ev

UNDEFINED SYMBOLS
_ZN9SemaphoreD2Ev
_ZdlPv
_Z9sem_closeP3Sem
__gxx_personality_v0
_ZN3TCB7runningE
_Z8sem_waitP3Sem
_Z10sem_signalP3Sem
_ZN9SemaphoreC2Ej
_Z8sem_openPP3Semj
_Unwind_Resume
_ZN9Semaphore4waitEv
_ZN9Semaphore6signalEv
