GAS LISTING /tmp/ccslaVF1.s 			page 1


   1              		.file	"iostream.cpp"
   2              		.option pic
   3              		.option norelax
   4              		.text
   5              	.Ltext0:
   6              		.align	2
   7              		.globl	_ZNK3stm7istreamlsEc
   9              	_ZNK3stm7istreamlsEc:
  10              	.LFB42:
  11              		.file 1 "src/iostream.cpp"
   1:src/iostream.cpp **** #include "../h/iostream.hpp"
   2:src/iostream.cpp **** #include "../h/c_console.hpp"
   3:src/iostream.cpp **** #include "../h/string.hpp"
   4:src/iostream.cpp **** 
   5:src/iostream.cpp **** const stm::istream stm::cout;
   6:src/iostream.cpp **** const stm::endline stm::endl;
   7:src/iostream.cpp **** 
   8:src/iostream.cpp **** const stm::istream &stm::istream::operator<<(const char c) const {
  12              		.loc 1 8 66
  13              		.cfi_startproc
  14              	.LVL0:
  15 0000 130101FE 		addi	sp,sp,-32
  16              		.cfi_def_cfa_offset 32
  17 0004 233C1100 		sd	ra,24(sp)
  18 0008 23388100 		sd	s0,16(sp)
  19 000c 23349100 		sd	s1,8(sp)
  20              		.cfi_offset 1, -8
  21              		.cfi_offset 8, -16
  22              		.cfi_offset 9, -24
  23 0010 13040102 		addi	s0,sp,32
  24              		.cfi_def_cfa 8, 0
  25 0014 93040500 		mv	s1,a0
   9:src/iostream.cpp ****     putc(c);
  26              		.loc 1 9 5
  27              		.loc 1 9 9 is_stmt 0
  28 0018 13850500 		mv	a0,a1
  29              	.LVL1:
  30 001c 97000000 		call	_Z4putcc@plt
  30      E7800000 
  31              	.LVL2:
  10:src/iostream.cpp ****     return *this;
  32              		.loc 1 10 5 is_stmt 1
  11:src/iostream.cpp **** }
  33              		.loc 1 11 1 is_stmt 0
  34 0024 13850400 		mv	a0,s1
  35 0028 83308101 		ld	ra,24(sp)
  36              		.cfi_restore 1
  37 002c 03340101 		ld	s0,16(sp)
  38              		.cfi_restore 8
  39              		.cfi_def_cfa 2, 32
  40 0030 83348100 		ld	s1,8(sp)
  41              		.cfi_restore 9
  42              	.LVL3:
  43 0034 13010102 		addi	sp,sp,32
  44              		.cfi_def_cfa_offset 0
  45 0038 67800000 		jr	ra
  46              		.cfi_endproc
GAS LISTING /tmp/ccslaVF1.s 			page 2


  47              	.LFE42:
  49              		.align	2
  50              		.globl	_ZNK3stm7istreamlsEPKc
  52              	_ZNK3stm7istreamlsEPKc:
  53              	.LFB43:
  12:src/iostream.cpp **** 
  13:src/iostream.cpp **** const stm::istream &stm::istream::operator<<(const char *string) const {
  54              		.loc 1 13 72 is_stmt 1
  55              		.cfi_startproc
  56              	.LVL4:
  57 003c 130101FE 		addi	sp,sp,-32
  58              		.cfi_def_cfa_offset 32
  59 0040 233C1100 		sd	ra,24(sp)
  60 0044 23388100 		sd	s0,16(sp)
  61 0048 23349100 		sd	s1,8(sp)
  62              		.cfi_offset 1, -8
  63              		.cfi_offset 8, -16
  64              		.cfi_offset 9, -24
  65 004c 13040102 		addi	s0,sp,32
  66              		.cfi_def_cfa 8, 0
  67 0050 93040500 		mv	s1,a0
  14:src/iostream.cpp ****     print(string);
  68              		.loc 1 14 5
  69              		.loc 1 14 10 is_stmt 0
  70 0054 13850500 		mv	a0,a1
  71              	.LVL5:
  72 0058 97000000 		call	_Z5printPKc@plt
  72      E7800000 
  73              	.LVL6:
  15:src/iostream.cpp ****     return *this;
  74              		.loc 1 15 5 is_stmt 1
  16:src/iostream.cpp **** }
  75              		.loc 1 16 1 is_stmt 0
  76 0060 13850400 		mv	a0,s1
  77 0064 83308101 		ld	ra,24(sp)
  78              		.cfi_restore 1
  79 0068 03340101 		ld	s0,16(sp)
  80              		.cfi_restore 8
  81              		.cfi_def_cfa 2, 32
  82 006c 83348100 		ld	s1,8(sp)
  83              		.cfi_restore 9
  84              	.LVL7:
  85 0070 13010102 		addi	sp,sp,32
  86              		.cfi_def_cfa_offset 0
  87 0074 67800000 		jr	ra
  88              		.cfi_endproc
  89              	.LFE43:
  91              		.align	2
  92              		.globl	_ZNK3stm7istreamlsERKNS_6StringE
  94              	_ZNK3stm7istreamlsERKNS_6StringE:
  95              	.LFB44:
  17:src/iostream.cpp **** 
  18:src/iostream.cpp **** const stm::istream &stm::istream::operator<<(const stm::String &string) const {
  96              		.loc 1 18 79 is_stmt 1
  97              		.cfi_startproc
  98              	.LVL8:
  99 0078 130101FE 		addi	sp,sp,-32
GAS LISTING /tmp/ccslaVF1.s 			page 3


 100              		.cfi_def_cfa_offset 32
 101 007c 233C1100 		sd	ra,24(sp)
 102 0080 23388100 		sd	s0,16(sp)
 103 0084 23349100 		sd	s1,8(sp)
 104              		.cfi_offset 1, -8
 105              		.cfi_offset 8, -16
 106              		.cfi_offset 9, -24
 107 0088 13040102 		addi	s0,sp,32
 108              		.cfi_def_cfa 8, 0
 109 008c 93040500 		mv	s1,a0
  19:src/iostream.cpp ****     print(string.actual_string);
 110              		.loc 1 19 5
 111              		.loc 1 19 10 is_stmt 0
 112 0090 03B58500 		ld	a0,8(a1)
 113              	.LVL9:
 114 0094 97000000 		call	_Z5printPKc@plt
 114      E7800000 
 115              	.LVL10:
  20:src/iostream.cpp ****     return *this;
 116              		.loc 1 20 5 is_stmt 1
  21:src/iostream.cpp **** }
 117              		.loc 1 21 1 is_stmt 0
 118 009c 13850400 		mv	a0,s1
 119 00a0 83308101 		ld	ra,24(sp)
 120              		.cfi_restore 1
 121 00a4 03340101 		ld	s0,16(sp)
 122              		.cfi_restore 8
 123              		.cfi_def_cfa 2, 32
 124 00a8 83348100 		ld	s1,8(sp)
 125              		.cfi_restore 9
 126              	.LVL11:
 127 00ac 13010102 		addi	sp,sp,32
 128              		.cfi_def_cfa_offset 0
 129 00b0 67800000 		jr	ra
 130              		.cfi_endproc
 131              	.LFE44:
 133              		.align	2
 134              		.globl	_ZNK3stm7istreamlsEx
 136              	_ZNK3stm7istreamlsEx:
 137              	.LFB45:
  22:src/iostream.cpp **** 
  23:src/iostream.cpp **** const stm::istream &stm::istream::operator<<(long long number) const {
 138              		.loc 1 23 70 is_stmt 1
 139              		.cfi_startproc
 140              	.LVL12:
 141 00b4 130101FE 		addi	sp,sp,-32
 142              		.cfi_def_cfa_offset 32
 143 00b8 233C1100 		sd	ra,24(sp)
 144 00bc 23388100 		sd	s0,16(sp)
 145 00c0 23349100 		sd	s1,8(sp)
 146              		.cfi_offset 1, -8
 147              		.cfi_offset 8, -16
 148              		.cfi_offset 9, -24
 149 00c4 13040102 		addi	s0,sp,32
 150              		.cfi_def_cfa 8, 0
 151 00c8 93040500 		mv	s1,a0
  24:src/iostream.cpp ****     print(number);
GAS LISTING /tmp/ccslaVF1.s 			page 4


 152              		.loc 1 24 5
 153              		.loc 1 24 10 is_stmt 0
 154 00cc 13850500 		mv	a0,a1
 155              	.LVL13:
 156 00d0 97000000 		call	_Z5printx@plt
 156      E7800000 
 157              	.LVL14:
  25:src/iostream.cpp ****     return *this;
 158              		.loc 1 25 5 is_stmt 1
  26:src/iostream.cpp **** }
 159              		.loc 1 26 1 is_stmt 0
 160 00d8 13850400 		mv	a0,s1
 161 00dc 83308101 		ld	ra,24(sp)
 162              		.cfi_restore 1
 163 00e0 03340101 		ld	s0,16(sp)
 164              		.cfi_restore 8
 165              		.cfi_def_cfa 2, 32
 166 00e4 83348100 		ld	s1,8(sp)
 167              		.cfi_restore 9
 168              	.LVL15:
 169 00e8 13010102 		addi	sp,sp,32
 170              		.cfi_def_cfa_offset 0
 171 00ec 67800000 		jr	ra
 172              		.cfi_endproc
 173              	.LFE45:
 175              		.align	2
 176              		.globl	_ZNK3stm7istreamlsEi
 178              	_ZNK3stm7istreamlsEi:
 179              	.LFB46:
  27:src/iostream.cpp **** 
  28:src/iostream.cpp **** const stm::istream &stm::istream::operator<<(int number) const {
 180              		.loc 1 28 64 is_stmt 1
 181              		.cfi_startproc
 182              	.LVL16:
 183 00f0 130101FE 		addi	sp,sp,-32
 184              		.cfi_def_cfa_offset 32
 185 00f4 233C1100 		sd	ra,24(sp)
 186 00f8 23388100 		sd	s0,16(sp)
 187 00fc 23349100 		sd	s1,8(sp)
 188              		.cfi_offset 1, -8
 189              		.cfi_offset 8, -16
 190              		.cfi_offset 9, -24
 191 0100 13040102 		addi	s0,sp,32
 192              		.cfi_def_cfa 8, 0
 193 0104 93040500 		mv	s1,a0
  29:src/iostream.cpp ****     print(number);
 194              		.loc 1 29 5
 195              		.loc 1 29 10 is_stmt 0
 196 0108 13850500 		mv	a0,a1
 197              	.LVL17:
 198 010c 97000000 		call	_Z5printi@plt
 198      E7800000 
 199              	.LVL18:
  30:src/iostream.cpp ****     return *this;
 200              		.loc 1 30 5 is_stmt 1
  31:src/iostream.cpp **** }
 201              		.loc 1 31 1 is_stmt 0
GAS LISTING /tmp/ccslaVF1.s 			page 5


 202 0114 13850400 		mv	a0,s1
 203 0118 83308101 		ld	ra,24(sp)
 204              		.cfi_restore 1
 205 011c 03340101 		ld	s0,16(sp)
 206              		.cfi_restore 8
 207              		.cfi_def_cfa 2, 32
 208 0120 83348100 		ld	s1,8(sp)
 209              		.cfi_restore 9
 210              	.LVL19:
 211 0124 13010102 		addi	sp,sp,32
 212              		.cfi_def_cfa_offset 0
 213 0128 67800000 		jr	ra
 214              		.cfi_endproc
 215              	.LFE46:
 217              		.align	2
 218              		.globl	_ZNK3stm7istreamlsEm
 220              	_ZNK3stm7istreamlsEm:
 221              	.LFB47:
  32:src/iostream.cpp **** 
  33:src/iostream.cpp **** const stm::istream &stm::istream::operator<<(uint64 number) const {
 222              		.loc 1 33 67 is_stmt 1
 223              		.cfi_startproc
 224              	.LVL20:
 225 012c 130101FE 		addi	sp,sp,-32
 226              		.cfi_def_cfa_offset 32
 227 0130 233C1100 		sd	ra,24(sp)
 228 0134 23388100 		sd	s0,16(sp)
 229 0138 23349100 		sd	s1,8(sp)
 230              		.cfi_offset 1, -8
 231              		.cfi_offset 8, -16
 232              		.cfi_offset 9, -24
 233 013c 13040102 		addi	s0,sp,32
 234              		.cfi_def_cfa 8, 0
 235 0140 93040500 		mv	s1,a0
  34:src/iostream.cpp ****     print(number);
 236              		.loc 1 34 5
 237              		.loc 1 34 10 is_stmt 0
 238 0144 13850500 		mv	a0,a1
 239              	.LVL21:
 240 0148 97000000 		call	_Z5printm@plt
 240      E7800000 
 241              	.LVL22:
  35:src/iostream.cpp ****     return *this;
 242              		.loc 1 35 5 is_stmt 1
  36:src/iostream.cpp **** }
 243              		.loc 1 36 1 is_stmt 0
 244 0150 13850400 		mv	a0,s1
 245 0154 83308101 		ld	ra,24(sp)
 246              		.cfi_restore 1
 247 0158 03340101 		ld	s0,16(sp)
 248              		.cfi_restore 8
 249              		.cfi_def_cfa 2, 32
 250 015c 83348100 		ld	s1,8(sp)
 251              		.cfi_restore 9
 252              	.LVL23:
 253 0160 13010102 		addi	sp,sp,32
 254              		.cfi_def_cfa_offset 0
GAS LISTING /tmp/ccslaVF1.s 			page 6


 255 0164 67800000 		jr	ra
 256              		.cfi_endproc
 257              	.LFE47:
 259              		.align	2
 260              		.globl	_ZNK3stm7istreamlsEPv
 262              	_ZNK3stm7istreamlsEPv:
 263              	.LFB48:
  37:src/iostream.cpp **** 
  38:src/iostream.cpp **** const stm::istream &stm::istream::operator<<(void *pointer) const {
 264              		.loc 1 38 67 is_stmt 1
 265              		.cfi_startproc
 266              	.LVL24:
 267 0168 130101FE 		addi	sp,sp,-32
 268              		.cfi_def_cfa_offset 32
 269 016c 233C1100 		sd	ra,24(sp)
 270 0170 23388100 		sd	s0,16(sp)
 271 0174 23349100 		sd	s1,8(sp)
 272              		.cfi_offset 1, -8
 273              		.cfi_offset 8, -16
 274              		.cfi_offset 9, -24
 275 0178 13040102 		addi	s0,sp,32
 276              		.cfi_def_cfa 8, 0
 277 017c 93040500 		mv	s1,a0
  39:src/iostream.cpp ****     print_h((uint64) pointer);
 278              		.loc 1 39 5
 279              		.loc 1 39 12 is_stmt 0
 280 0180 13850500 		mv	a0,a1
 281              	.LVL25:
 282 0184 97000000 		call	_Z7print_hm@plt
 282      E7800000 
 283              	.LVL26:
  40:src/iostream.cpp ****     return *this;
 284              		.loc 1 40 5 is_stmt 1
  41:src/iostream.cpp **** }
 285              		.loc 1 41 1 is_stmt 0
 286 018c 13850400 		mv	a0,s1
 287 0190 83308101 		ld	ra,24(sp)
 288              		.cfi_restore 1
 289 0194 03340101 		ld	s0,16(sp)
 290              		.cfi_restore 8
 291              		.cfi_def_cfa 2, 32
 292 0198 83348100 		ld	s1,8(sp)
 293              		.cfi_restore 9
 294              	.LVL27:
 295 019c 13010102 		addi	sp,sp,32
 296              		.cfi_def_cfa_offset 0
 297 01a0 67800000 		jr	ra
 298              		.cfi_endproc
 299              	.LFE48:
 301              		.section	.rodata.str1.8,"aMS",@progbits,1
 302              		.align	3
 303              	.LC0:
 304 0000 66616C73 		.string	"false"
 304      6500
 305 0006 0000     		.align	3
 306              	.LC1:
 307 0008 74727565 		.string	"true"
GAS LISTING /tmp/ccslaVF1.s 			page 7


 307      00
 308              		.text
 309              		.align	2
 310              		.globl	_ZNK3stm7istreamlsEb
 312              	_ZNK3stm7istreamlsEb:
 313              	.LFB49:
  42:src/iostream.cpp **** 
  43:src/iostream.cpp **** const stm::istream &stm::istream::operator<<(bool truth) const {
 314              		.loc 1 43 64 is_stmt 1
 315              		.cfi_startproc
 316              	.LVL28:
 317 01a4 130101FE 		addi	sp,sp,-32
 318              		.cfi_def_cfa_offset 32
 319 01a8 233C1100 		sd	ra,24(sp)
 320 01ac 23388100 		sd	s0,16(sp)
 321 01b0 23349100 		sd	s1,8(sp)
 322              		.cfi_offset 1, -8
 323              		.cfi_offset 8, -16
 324              		.cfi_offset 9, -24
 325 01b4 13040102 		addi	s0,sp,32
 326              		.cfi_def_cfa 8, 0
 327 01b8 93040500 		mv	s1,a0
  44:src/iostream.cpp ****     print(truth ? "true" : "false");
 328              		.loc 1 44 5
 329              		.loc 1 44 10 is_stmt 0
 330 01bc 63860502 		beqz	a1,.L17
 331 01c0 17050000 		lla	a0,.LC1
 331      13050500 
 332              	.LVL29:
 333              	.L16:
 334              		.loc 1 44 10 discriminator 4
 335 01c8 97000000 		call	_Z5printPKc@plt
 335      E7800000 
 336              	.LVL30:
  45:src/iostream.cpp ****     return *this;
 337              		.loc 1 45 5 is_stmt 1 discriminator 4
  46:src/iostream.cpp **** }
 338              		.loc 1 46 1 is_stmt 0 discriminator 4
 339 01d0 13850400 		mv	a0,s1
 340 01d4 83308101 		ld	ra,24(sp)
 341              		.cfi_remember_state
 342              		.cfi_restore 1
 343 01d8 03340101 		ld	s0,16(sp)
 344              		.cfi_restore 8
 345              		.cfi_def_cfa 2, 32
 346 01dc 83348100 		ld	s1,8(sp)
 347              		.cfi_restore 9
 348              	.LVL31:
 349 01e0 13010102 		addi	sp,sp,32
 350              		.cfi_def_cfa_offset 0
 351 01e4 67800000 		jr	ra
 352              	.LVL32:
 353              	.L17:
 354              		.cfi_restore_state
  44:src/iostream.cpp ****     print(truth ? "true" : "false");
 355              		.loc 1 44 10
 356 01e8 17050000 		lla	a0,.LC0
GAS LISTING /tmp/ccslaVF1.s 			page 8


 356      13050500 
 357 01f0 6FF09FFD 		j	.L16
 358              		.cfi_endproc
 359              	.LFE49:
 361              		.align	2
 362              		.globl	_ZNK3stm7istreamlsERKNS_7endlineE
 364              	_ZNK3stm7istreamlsERKNS_7endlineE:
 365              	.LFB50:
  47:src/iostream.cpp **** 
  48:src/iostream.cpp **** const stm::istream &stm::istream::operator<<(const stm::endline &) const {
 366              		.loc 1 48 74 is_stmt 1
 367              		.cfi_startproc
 368              	.LVL33:
 369 01f4 130101FE 		addi	sp,sp,-32
 370              		.cfi_def_cfa_offset 32
 371 01f8 233C1100 		sd	ra,24(sp)
 372 01fc 23388100 		sd	s0,16(sp)
 373 0200 23349100 		sd	s1,8(sp)
 374              		.cfi_offset 1, -8
 375              		.cfi_offset 8, -16
 376              		.cfi_offset 9, -24
 377 0204 13040102 		addi	s0,sp,32
 378              		.cfi_def_cfa 8, 0
 379 0208 93040500 		mv	s1,a0
  49:src/iostream.cpp ****     putc('\n');
 380              		.loc 1 49 5
 381              		.loc 1 49 9 is_stmt 0
 382 020c 1305A000 		li	a0,10
 383              	.LVL34:
 384 0210 97000000 		call	_Z4putcc@plt
 384      E7800000 
 385              	.LVL35:
  50:src/iostream.cpp ****     return *this;
 386              		.loc 1 50 5 is_stmt 1
  51:src/iostream.cpp **** }
 387              		.loc 1 51 1 is_stmt 0
 388 0218 13850400 		mv	a0,s1
 389 021c 83308101 		ld	ra,24(sp)
 390              		.cfi_restore 1
 391 0220 03340101 		ld	s0,16(sp)
 392              		.cfi_restore 8
 393              		.cfi_def_cfa 2, 32
 394 0224 83348100 		ld	s1,8(sp)
 395              		.cfi_restore 9
 396              	.LVL36:
 397 0228 13010102 		addi	sp,sp,32
 398              		.cfi_def_cfa_offset 0
 399 022c 67800000 		jr	ra
 400              		.cfi_endproc
 401              	.LFE50:
 403              		.globl	_ZN3stm4endlE
 404              		.globl	_ZN3stm4coutE
 405              		.section	.rodata
 406              		.align	3
 409              	_ZN3stm4endlE:
 410 0000 00       		.zero	1
 411 0001 00000000 		.zero	7
GAS LISTING /tmp/ccslaVF1.s 			page 9


 411      000000
 414              	_ZN3stm4coutE:
 415 0008 00       		.zero	1
 416              		.text
 417              	.Letext0:
 418              		.file 2 "src/../h/../lib/hw.h"
 419              		.file 3 "src/../h/iostream.hpp"
 420              		.file 4 "src/../h/string.hpp"
 421              		.file 5 "src/../h/syscall_c.hpp"
 422              		.file 6 "src/../h/c_console.hpp"
GAS LISTING /tmp/ccslaVF1.s 			page 10


DEFINED SYMBOLS
                            *ABS*:0000000000000000 iostream.cpp
     /tmp/ccslaVF1.s:9      .text:0000000000000000 _ZNK3stm7istreamlsEc
     /tmp/ccslaVF1.s:13     .text:0000000000000000 .L0 
     /tmp/ccslaVF1.s:15     .text:0000000000000000 .L0 
     /tmp/ccslaVF1.s:16     .text:0000000000000004 .L0 
     /tmp/ccslaVF1.s:20     .text:0000000000000010 .L0 
     /tmp/ccslaVF1.s:21     .text:0000000000000010 .L0 
     /tmp/ccslaVF1.s:22     .text:0000000000000010 .L0 
     /tmp/ccslaVF1.s:24     .text:0000000000000014 .L0 
     /tmp/ccslaVF1.s:27     .text:0000000000000018 .L0 
     /tmp/ccslaVF1.s:28     .text:0000000000000018 .L0 
     /tmp/ccslaVF1.s:33     .text:0000000000000024 .L0 
     /tmp/ccslaVF1.s:34     .text:0000000000000024 .L0 
     /tmp/ccslaVF1.s:36     .text:000000000000002c .L0 
     /tmp/ccslaVF1.s:38     .text:0000000000000030 .L0 
     /tmp/ccslaVF1.s:39     .text:0000000000000030 .L0 
     /tmp/ccslaVF1.s:41     .text:0000000000000034 .L0 
     /tmp/ccslaVF1.s:44     .text:0000000000000038 .L0 
     /tmp/ccslaVF1.s:46     .text:000000000000003c .L0 
     /tmp/ccslaVF1.s:52     .text:000000000000003c _ZNK3stm7istreamlsEPKc
     /tmp/ccslaVF1.s:55     .text:000000000000003c .L0 
     /tmp/ccslaVF1.s:57     .text:000000000000003c .L0 
     /tmp/ccslaVF1.s:58     .text:0000000000000040 .L0 
     /tmp/ccslaVF1.s:62     .text:000000000000004c .L0 
     /tmp/ccslaVF1.s:63     .text:000000000000004c .L0 
     /tmp/ccslaVF1.s:64     .text:000000000000004c .L0 
     /tmp/ccslaVF1.s:66     .text:0000000000000050 .L0 
     /tmp/ccslaVF1.s:69     .text:0000000000000054 .L0 
     /tmp/ccslaVF1.s:70     .text:0000000000000054 .L0 
     /tmp/ccslaVF1.s:75     .text:0000000000000060 .L0 
     /tmp/ccslaVF1.s:76     .text:0000000000000060 .L0 
     /tmp/ccslaVF1.s:78     .text:0000000000000068 .L0 
     /tmp/ccslaVF1.s:80     .text:000000000000006c .L0 
     /tmp/ccslaVF1.s:81     .text:000000000000006c .L0 
     /tmp/ccslaVF1.s:83     .text:0000000000000070 .L0 
     /tmp/ccslaVF1.s:86     .text:0000000000000074 .L0 
     /tmp/ccslaVF1.s:88     .text:0000000000000078 .L0 
     /tmp/ccslaVF1.s:94     .text:0000000000000078 _ZNK3stm7istreamlsERKNS_6StringE
     /tmp/ccslaVF1.s:97     .text:0000000000000078 .L0 
     /tmp/ccslaVF1.s:99     .text:0000000000000078 .L0 
     /tmp/ccslaVF1.s:100    .text:000000000000007c .L0 
     /tmp/ccslaVF1.s:104    .text:0000000000000088 .L0 
     /tmp/ccslaVF1.s:105    .text:0000000000000088 .L0 
     /tmp/ccslaVF1.s:106    .text:0000000000000088 .L0 
     /tmp/ccslaVF1.s:108    .text:000000000000008c .L0 
     /tmp/ccslaVF1.s:111    .text:0000000000000090 .L0 
     /tmp/ccslaVF1.s:112    .text:0000000000000090 .L0 
     /tmp/ccslaVF1.s:117    .text:000000000000009c .L0 
     /tmp/ccslaVF1.s:118    .text:000000000000009c .L0 
     /tmp/ccslaVF1.s:120    .text:00000000000000a4 .L0 
     /tmp/ccslaVF1.s:122    .text:00000000000000a8 .L0 
     /tmp/ccslaVF1.s:123    .text:00000000000000a8 .L0 
     /tmp/ccslaVF1.s:125    .text:00000000000000ac .L0 
     /tmp/ccslaVF1.s:128    .text:00000000000000b0 .L0 
     /tmp/ccslaVF1.s:130    .text:00000000000000b4 .L0 
     /tmp/ccslaVF1.s:136    .text:00000000000000b4 _ZNK3stm7istreamlsEx
GAS LISTING /tmp/ccslaVF1.s 			page 11


     /tmp/ccslaVF1.s:139    .text:00000000000000b4 .L0 
     /tmp/ccslaVF1.s:141    .text:00000000000000b4 .L0 
     /tmp/ccslaVF1.s:142    .text:00000000000000b8 .L0 
     /tmp/ccslaVF1.s:146    .text:00000000000000c4 .L0 
     /tmp/ccslaVF1.s:147    .text:00000000000000c4 .L0 
     /tmp/ccslaVF1.s:148    .text:00000000000000c4 .L0 
     /tmp/ccslaVF1.s:150    .text:00000000000000c8 .L0 
     /tmp/ccslaVF1.s:153    .text:00000000000000cc .L0 
     /tmp/ccslaVF1.s:154    .text:00000000000000cc .L0 
     /tmp/ccslaVF1.s:159    .text:00000000000000d8 .L0 
     /tmp/ccslaVF1.s:160    .text:00000000000000d8 .L0 
     /tmp/ccslaVF1.s:162    .text:00000000000000e0 .L0 
     /tmp/ccslaVF1.s:164    .text:00000000000000e4 .L0 
     /tmp/ccslaVF1.s:165    .text:00000000000000e4 .L0 
     /tmp/ccslaVF1.s:167    .text:00000000000000e8 .L0 
     /tmp/ccslaVF1.s:170    .text:00000000000000ec .L0 
     /tmp/ccslaVF1.s:172    .text:00000000000000f0 .L0 
     /tmp/ccslaVF1.s:178    .text:00000000000000f0 _ZNK3stm7istreamlsEi
     /tmp/ccslaVF1.s:181    .text:00000000000000f0 .L0 
     /tmp/ccslaVF1.s:183    .text:00000000000000f0 .L0 
     /tmp/ccslaVF1.s:184    .text:00000000000000f4 .L0 
     /tmp/ccslaVF1.s:188    .text:0000000000000100 .L0 
     /tmp/ccslaVF1.s:189    .text:0000000000000100 .L0 
     /tmp/ccslaVF1.s:190    .text:0000000000000100 .L0 
     /tmp/ccslaVF1.s:192    .text:0000000000000104 .L0 
     /tmp/ccslaVF1.s:195    .text:0000000000000108 .L0 
     /tmp/ccslaVF1.s:196    .text:0000000000000108 .L0 
     /tmp/ccslaVF1.s:201    .text:0000000000000114 .L0 
     /tmp/ccslaVF1.s:202    .text:0000000000000114 .L0 
     /tmp/ccslaVF1.s:204    .text:000000000000011c .L0 
     /tmp/ccslaVF1.s:206    .text:0000000000000120 .L0 
     /tmp/ccslaVF1.s:207    .text:0000000000000120 .L0 
     /tmp/ccslaVF1.s:209    .text:0000000000000124 .L0 
     /tmp/ccslaVF1.s:212    .text:0000000000000128 .L0 
     /tmp/ccslaVF1.s:214    .text:000000000000012c .L0 
     /tmp/ccslaVF1.s:220    .text:000000000000012c _ZNK3stm7istreamlsEm
     /tmp/ccslaVF1.s:223    .text:000000000000012c .L0 
     /tmp/ccslaVF1.s:225    .text:000000000000012c .L0 
     /tmp/ccslaVF1.s:226    .text:0000000000000130 .L0 
     /tmp/ccslaVF1.s:230    .text:000000000000013c .L0 
     /tmp/ccslaVF1.s:231    .text:000000000000013c .L0 
     /tmp/ccslaVF1.s:232    .text:000000000000013c .L0 
     /tmp/ccslaVF1.s:234    .text:0000000000000140 .L0 
     /tmp/ccslaVF1.s:237    .text:0000000000000144 .L0 
     /tmp/ccslaVF1.s:238    .text:0000000000000144 .L0 
     /tmp/ccslaVF1.s:243    .text:0000000000000150 .L0 
     /tmp/ccslaVF1.s:244    .text:0000000000000150 .L0 
     /tmp/ccslaVF1.s:246    .text:0000000000000158 .L0 
     /tmp/ccslaVF1.s:248    .text:000000000000015c .L0 
     /tmp/ccslaVF1.s:249    .text:000000000000015c .L0 
     /tmp/ccslaVF1.s:251    .text:0000000000000160 .L0 
     /tmp/ccslaVF1.s:254    .text:0000000000000164 .L0 
     /tmp/ccslaVF1.s:256    .text:0000000000000168 .L0 
     /tmp/ccslaVF1.s:262    .text:0000000000000168 _ZNK3stm7istreamlsEPv
     /tmp/ccslaVF1.s:265    .text:0000000000000168 .L0 
     /tmp/ccslaVF1.s:267    .text:0000000000000168 .L0 
     /tmp/ccslaVF1.s:268    .text:000000000000016c .L0 
GAS LISTING /tmp/ccslaVF1.s 			page 12


     /tmp/ccslaVF1.s:272    .text:0000000000000178 .L0 
     /tmp/ccslaVF1.s:273    .text:0000000000000178 .L0 
     /tmp/ccslaVF1.s:274    .text:0000000000000178 .L0 
     /tmp/ccslaVF1.s:276    .text:000000000000017c .L0 
     /tmp/ccslaVF1.s:279    .text:0000000000000180 .L0 
     /tmp/ccslaVF1.s:280    .text:0000000000000180 .L0 
     /tmp/ccslaVF1.s:285    .text:000000000000018c .L0 
     /tmp/ccslaVF1.s:286    .text:000000000000018c .L0 
     /tmp/ccslaVF1.s:288    .text:0000000000000194 .L0 
     /tmp/ccslaVF1.s:290    .text:0000000000000198 .L0 
     /tmp/ccslaVF1.s:291    .text:0000000000000198 .L0 
     /tmp/ccslaVF1.s:293    .text:000000000000019c .L0 
     /tmp/ccslaVF1.s:296    .text:00000000000001a0 .L0 
     /tmp/ccslaVF1.s:298    .text:00000000000001a4 .L0 
     /tmp/ccslaVF1.s:312    .text:00000000000001a4 _ZNK3stm7istreamlsEb
     /tmp/ccslaVF1.s:315    .text:00000000000001a4 .L0 
     /tmp/ccslaVF1.s:317    .text:00000000000001a4 .L0 
     /tmp/ccslaVF1.s:318    .text:00000000000001a8 .L0 
     /tmp/ccslaVF1.s:322    .text:00000000000001b4 .L0 
     /tmp/ccslaVF1.s:323    .text:00000000000001b4 .L0 
     /tmp/ccslaVF1.s:324    .text:00000000000001b4 .L0 
     /tmp/ccslaVF1.s:326    .text:00000000000001b8 .L0 
     /tmp/ccslaVF1.s:329    .text:00000000000001bc .L0 
     /tmp/ccslaVF1.s:330    .text:00000000000001bc .L0 
     /tmp/ccslaVF1.s:335    .text:00000000000001c8 .L0 
     /tmp/ccslaVF1.s:338    .text:00000000000001d0 .L0 
     /tmp/ccslaVF1.s:339    .text:00000000000001d0 .L0 
     /tmp/ccslaVF1.s:341    .text:00000000000001d8 .L0 
     /tmp/ccslaVF1.s:342    .text:00000000000001d8 .L0 
     /tmp/ccslaVF1.s:344    .text:00000000000001dc .L0 
     /tmp/ccslaVF1.s:345    .text:00000000000001dc .L0 
     /tmp/ccslaVF1.s:347    .text:00000000000001e0 .L0 
     /tmp/ccslaVF1.s:350    .text:00000000000001e4 .L0 
     /tmp/ccslaVF1.s:354    .text:00000000000001e8 .L0 
     /tmp/ccslaVF1.s:356    .text:00000000000001e8 .L0 
     /tmp/ccslaVF1.s:358    .text:00000000000001f4 .L0 
     /tmp/ccslaVF1.s:364    .text:00000000000001f4 _ZNK3stm7istreamlsERKNS_7endlineE
     /tmp/ccslaVF1.s:367    .text:00000000000001f4 .L0 
     /tmp/ccslaVF1.s:369    .text:00000000000001f4 .L0 
     /tmp/ccslaVF1.s:370    .text:00000000000001f8 .L0 
     /tmp/ccslaVF1.s:374    .text:0000000000000204 .L0 
     /tmp/ccslaVF1.s:375    .text:0000000000000204 .L0 
     /tmp/ccslaVF1.s:376    .text:0000000000000204 .L0 
     /tmp/ccslaVF1.s:378    .text:0000000000000208 .L0 
     /tmp/ccslaVF1.s:381    .text:000000000000020c .L0 
     /tmp/ccslaVF1.s:382    .text:000000000000020c .L0 
     /tmp/ccslaVF1.s:387    .text:0000000000000218 .L0 
     /tmp/ccslaVF1.s:388    .text:0000000000000218 .L0 
     /tmp/ccslaVF1.s:390    .text:0000000000000220 .L0 
     /tmp/ccslaVF1.s:392    .text:0000000000000224 .L0 
     /tmp/ccslaVF1.s:393    .text:0000000000000224 .L0 
     /tmp/ccslaVF1.s:395    .text:0000000000000228 .L0 
     /tmp/ccslaVF1.s:398    .text:000000000000022c .L0 
     /tmp/ccslaVF1.s:400    .text:0000000000000230 .L0 
     /tmp/ccslaVF1.s:409    .rodata:0000000000000000 _ZN3stm4endlE
     /tmp/ccslaVF1.s:414    .rodata:0000000000000008 _ZN3stm4coutE
     /tmp/ccslaVF1.s:423    .text:0000000000000230 .L0 
GAS LISTING /tmp/ccslaVF1.s 			page 13


     /tmp/ccslaVF1.s:306    .rodata.str1.8:0000000000000008 .LC1
     /tmp/ccslaVF1.s:331    .text:00000000000001c0 .L0 
     /tmp/ccslaVF1.s:303    .rodata.str1.8:0000000000000000 .LC0
     /tmp/ccslaVF1.s:356    .text:00000000000001e8 .L0 
     /tmp/ccslaVF1.s:353    .text:00000000000001e8 .L17
     /tmp/ccslaVF1.s:333    .text:00000000000001c8 .L16
     /tmp/ccslaVF1.s:1405   .debug_abbrev:0000000000000000 .Ldebug_abbrev0
     /tmp/ccslaVF1.s:2427   .debug_str:0000000000000431 .LASF80
     /tmp/ccslaVF1.s:2323   .debug_str:000000000000012f .LASF81
     /tmp/ccslaVF1.s:2339   .debug_str:00000000000001ab .LASF82
     /tmp/ccslaVF1.s:5      .text:0000000000000000 .Ltext0
     /tmp/ccslaVF1.s:417    .text:0000000000000230 .Letext0
     /tmp/ccslaVF1.s:2283   .debug_line:0000000000000000 .Ldebug_line0
     /tmp/ccslaVF1.s:2349   .debug_str:0000000000000216 .LASF0
     /tmp/ccslaVF1.s:2375   .debug_str:00000000000002f0 .LASF1
     /tmp/ccslaVF1.s:2407   .debug_str:00000000000003bc .LASF2
     /tmp/ccslaVF1.s:2411   .debug_str:00000000000003d4 .LASF4
     /tmp/ccslaVF1.s:2355   .debug_str:000000000000023d .LASF3
     /tmp/ccslaVF1.s:2289   .debug_str:0000000000000026 .LASF5
     /tmp/ccslaVF1.s:2397   .debug_str:0000000000000374 .LASF6
     /tmp/ccslaVF1.s:2367   .debug_str:00000000000002be .LASF7
     /tmp/ccslaVF1.s:2337   .debug_str:000000000000019b .LASF8
     /tmp/ccslaVF1.s:2341   .debug_str:00000000000001c9 .LASF9
     /tmp/ccslaVF1.s:2311   .debug_str:00000000000000e4 .LASF10
     /tmp/ccslaVF1.s:2331   .debug_str:000000000000017f .LASF11
     /tmp/ccslaVF1.s:2325   .debug_str:0000000000000140 .LASF12
     /tmp/ccslaVF1.s:2309   .debug_str:00000000000000d4 .LASF13
     /tmp/ccslaVF1.s:2415   .debug_str:00000000000003f1 .LASF14
     /tmp/ccslaVF1.s:2327   .debug_str:0000000000000150 .LASF15
     /tmp/ccslaVF1.s:2413   .debug_str:00000000000003db .LASF16
     /tmp/ccslaVF1.s:2335   .debug_str:0000000000000193 .LASF83
     /tmp/ccslaVF1.s:2447   .debug_str:0000000000000595 .LASF26
     /tmp/ccslaVF1.s:2423   .debug_str:0000000000000412 .LASF17
     /tmp/ccslaVF1.s:2359   .debug_str:0000000000000264 .LASF18
     /tmp/ccslaVF1.s:2361   .debug_str:0000000000000279 .LASF19
     /tmp/ccslaVF1.s:2295   .debug_str:0000000000000047 .LASF20
     /tmp/ccslaVF1.s:2377   .debug_str:0000000000000303 .LASF21
     /tmp/ccslaVF1.s:2365   .debug_str:00000000000002a9 .LASF22
     /tmp/ccslaVF1.s:2371   .debug_str:00000000000002d6 .LASF23
     /tmp/ccslaVF1.s:2305   .debug_str:00000000000000ae .LASF24
     /tmp/ccslaVF1.s:2357   .debug_str:000000000000024f .LASF25
     /tmp/ccslaVF1.s:2343   .debug_str:00000000000001d7 .LASF28
     /tmp/ccslaVF1.s:2313   .debug_str:00000000000000f3 .LASF27
     /tmp/ccslaVF1.s:2345   .debug_str:00000000000001f9 .LASF29
     /tmp/ccslaVF1.s:2285   .debug_str:0000000000000000 .LASF30
     /tmp/ccslaVF1.s:2297   .debug_str:0000000000000068 .LASF31
     /tmp/ccslaVF1.s:2287   .debug_str:0000000000000013 .LASF32
     /tmp/ccslaVF1.s:2291   .debug_str:000000000000002d .LASF33
     /tmp/ccslaVF1.s:2319   .debug_str:000000000000010a .LASF34
     /tmp/ccslaVF1.s:2393   .debug_str:000000000000034b .LASF35
     /tmp/ccslaVF1.s:2409   .debug_str:00000000000003ca .LASF36
     /tmp/ccslaVF1.s:2403   .debug_str:000000000000039b .LASF37
     /tmp/ccslaVF1.s:2301   .debug_str:0000000000000092 .LASF38
     /tmp/ccslaVF1.s:2419   .debug_str:0000000000000406 .LASF39
     /tmp/ccslaVF1.s:2431   .debug_str:00000000000004fd .LASF40
     /tmp/ccslaVF1.s:2439   .debug_str:000000000000055c .LASF41
     /tmp/ccslaVF1.s:2395   .debug_str:0000000000000361 .LASF42
GAS LISTING /tmp/ccslaVF1.s 			page 14


     /tmp/ccslaVF1.s:2425   .debug_str:000000000000041d .LASF43
     /tmp/ccslaVF1.s:2391   .debug_str:0000000000000340 .LASF44
     /tmp/ccslaVF1.s:2299   .debug_str:000000000000007b .LASF45
     /tmp/ccslaVF1.s:2347   .debug_str:000000000000020e .LASF46
     /tmp/ccslaVF1.s:2441   .debug_str:0000000000000567 .LASF47
     /tmp/ccslaVF1.s:2389   .debug_str:000000000000033b .LASF48
     /tmp/ccslaVF1.s:2437   .debug_str:0000000000000542 .LASF50
     /tmp/ccslaVF1.s:2317   .debug_str:0000000000000105 .LASF49
     /tmp/ccslaVF1.s:2329   .debug_str:0000000000000166 .LASF51
     /tmp/ccslaVF1.s:2429   .debug_str:00000000000004f5 .LASF52
     /tmp/ccslaVF1.s:2363   .debug_str:0000000000000290 .LASF53
     /tmp/ccslaVF1.s:2307   .debug_str:00000000000000c4 .LASF54
     /tmp/ccslaVF1.s:2433   .debug_str:0000000000000516 .LASF55
     /tmp/ccslaVF1.s:2315   .debug_str:00000000000000fa .LASF84
     /tmp/ccslaVF1.s:2373   .debug_str:00000000000002eb .LASF56
     /tmp/ccslaVF1.s:2451   .debug_str:00000000000005a5 .LASF57
     /tmp/ccslaVF1.s:2443   .debug_str:000000000000057a .LASF58
     /tmp/ccslaVF1.s:2369   .debug_str:00000000000002d1 .LASF59
     /tmp/ccslaVF1.s:2445   .debug_str:0000000000000587 .LASF61
     /tmp/ccslaVF1.s:2435   .debug_str:000000000000053d .LASF60
     /tmp/ccslaVF1.s:2353   .debug_str:000000000000022f .LASF62
     /tmp/ccslaVF1.s:2421   .debug_str:000000000000040d .LASF63
     /tmp/ccslaVF1.s:2321   .debug_str:0000000000000121 .LASF64
     /tmp/ccslaVF1.s:2385   .debug_str:0000000000000331 .LASF65
     /tmp/ccslaVF1.s:365    .text:00000000000001f4 .LFB50
     /tmp/ccslaVF1.s:401    .text:0000000000000230 .LFE50
     /tmp/ccslaVF1.s:2333   .debug_str:000000000000018e .LASF66
     /tmp/ccslaVF1.s:2015   .debug_loc:0000000000000000 .LLST16
     /tmp/ccslaVF1.s:385    .text:0000000000000218 .LVL35
     /tmp/ccslaVF1.s:313    .text:00000000000001a4 .LFB49
     /tmp/ccslaVF1.s:359    .text:00000000000001f4 .LFE49
     /tmp/ccslaVF1.s:2030   .debug_loc:0000000000000049 .LLST14
     /tmp/ccslaVF1.s:2381   .debug_str:000000000000031f .LASF67
     /tmp/ccslaVF1.s:2049   .debug_loc:00000000000000a5 .LLST15
     /tmp/ccslaVF1.s:336    .text:00000000000001d0 .LVL30
     /tmp/ccslaVF1.s:263    .text:0000000000000168 .LFB48
     /tmp/ccslaVF1.s:299    .text:00000000000001a4 .LFE48
     /tmp/ccslaVF1.s:2067   .debug_loc:00000000000000f1 .LLST12
     /tmp/ccslaVF1.s:2453   .debug_str:00000000000005b3 .LASF68
     /tmp/ccslaVF1.s:2082   .debug_loc:000000000000013a .LLST13
     /tmp/ccslaVF1.s:283    .text:000000000000018c .LVL26
     /tmp/ccslaVF1.s:221    .text:000000000000012c .LFB47
     /tmp/ccslaVF1.s:257    .text:0000000000000168 .LFE47
     /tmp/ccslaVF1.s:2096   .debug_loc:0000000000000173 .LLST10
     /tmp/ccslaVF1.s:2379   .debug_str:0000000000000318 .LASF69
     /tmp/ccslaVF1.s:2111   .debug_loc:00000000000001bc .LLST11
     /tmp/ccslaVF1.s:241    .text:0000000000000150 .LVL22
     /tmp/ccslaVF1.s:179    .text:00000000000000f0 .LFB46
     /tmp/ccslaVF1.s:215    .text:000000000000012c .LFE46
     /tmp/ccslaVF1.s:2125   .debug_loc:00000000000001f5 .LLST8
     /tmp/ccslaVF1.s:2140   .debug_loc:000000000000023e .LLST9
     /tmp/ccslaVF1.s:199    .text:0000000000000114 .LVL18
     /tmp/ccslaVF1.s:137    .text:00000000000000b4 .LFB45
     /tmp/ccslaVF1.s:173    .text:00000000000000f0 .LFE45
     /tmp/ccslaVF1.s:2154   .debug_loc:0000000000000277 .LLST6
     /tmp/ccslaVF1.s:2169   .debug_loc:00000000000002c0 .LLST7
     /tmp/ccslaVF1.s:157    .text:00000000000000d8 .LVL14
GAS LISTING /tmp/ccslaVF1.s 			page 15


     /tmp/ccslaVF1.s:95     .text:0000000000000078 .LFB44
     /tmp/ccslaVF1.s:131    .text:00000000000000b4 .LFE44
     /tmp/ccslaVF1.s:2183   .debug_loc:00000000000002f9 .LLST4
     /tmp/ccslaVF1.s:2293   .debug_str:0000000000000040 .LASF70
     /tmp/ccslaVF1.s:2198   .debug_loc:0000000000000342 .LLST5
     /tmp/ccslaVF1.s:115    .text:000000000000009c .LVL10
     /tmp/ccslaVF1.s:53     .text:000000000000003c .LFB43
     /tmp/ccslaVF1.s:89     .text:0000000000000078 .LFE43
     /tmp/ccslaVF1.s:2212   .debug_loc:000000000000037b .LLST2
     /tmp/ccslaVF1.s:2227   .debug_loc:00000000000003c4 .LLST3
     /tmp/ccslaVF1.s:73     .text:0000000000000060 .LVL6
     /tmp/ccslaVF1.s:10     .text:0000000000000000 .LFB42
     /tmp/ccslaVF1.s:47     .text:000000000000003c .LFE42
     /tmp/ccslaVF1.s:2241   .debug_loc:00000000000003fd .LLST0
     /tmp/ccslaVF1.s:2256   .debug_loc:0000000000000446 .LLST1
     /tmp/ccslaVF1.s:31     .text:0000000000000024 .LVL2
     /tmp/ccslaVF1.s:2417   .debug_str:00000000000003fd .LASF71
     /tmp/ccslaVF1.s:2387   .debug_str:0000000000000336 .LASF73
     /tmp/ccslaVF1.s:2351   .debug_str:0000000000000223 .LASF72
     /tmp/ccslaVF1.s:2303   .debug_str:00000000000000a8 .LASF74
     /tmp/ccslaVF1.s:2383   .debug_str:0000000000000325 .LASF75
     /tmp/ccslaVF1.s:2449   .debug_str:000000000000059d .LASF76
     /tmp/ccslaVF1.s:2401   .debug_str:0000000000000391 .LASF77
     /tmp/ccslaVF1.s:2399   .debug_str:0000000000000387 .LASF78
     /tmp/ccslaVF1.s:2405   .debug_str:00000000000003b2 .LASF79
     /tmp/ccslaVF1.s:368    .text:00000000000001f4 .LVL33
     /tmp/ccslaVF1.s:383    .text:0000000000000210 .LVL34
     /tmp/ccslaVF1.s:396    .text:0000000000000228 .LVL36
     /tmp/ccslaVF1.s:316    .text:00000000000001a4 .LVL28
     /tmp/ccslaVF1.s:332    .text:00000000000001c8 .LVL29
     /tmp/ccslaVF1.s:348    .text:00000000000001e0 .LVL31
     /tmp/ccslaVF1.s:352    .text:00000000000001e8 .LVL32
     /tmp/ccslaVF1.s:266    .text:0000000000000168 .LVL24
     /tmp/ccslaVF1.s:281    .text:0000000000000184 .LVL25
     /tmp/ccslaVF1.s:294    .text:000000000000019c .LVL27
     /tmp/ccslaVF1.s:224    .text:000000000000012c .LVL20
     /tmp/ccslaVF1.s:239    .text:0000000000000148 .LVL21
     /tmp/ccslaVF1.s:252    .text:0000000000000160 .LVL23
     /tmp/ccslaVF1.s:182    .text:00000000000000f0 .LVL16
     /tmp/ccslaVF1.s:197    .text:000000000000010c .LVL17
     /tmp/ccslaVF1.s:210    .text:0000000000000124 .LVL19
     /tmp/ccslaVF1.s:140    .text:00000000000000b4 .LVL12
     /tmp/ccslaVF1.s:155    .text:00000000000000d0 .LVL13
     /tmp/ccslaVF1.s:168    .text:00000000000000e8 .LVL15
     /tmp/ccslaVF1.s:98     .text:0000000000000078 .LVL8
     /tmp/ccslaVF1.s:113    .text:0000000000000094 .LVL9
     /tmp/ccslaVF1.s:126    .text:00000000000000ac .LVL11
     /tmp/ccslaVF1.s:56     .text:000000000000003c .LVL4
     /tmp/ccslaVF1.s:71     .text:0000000000000058 .LVL5
     /tmp/ccslaVF1.s:84     .text:0000000000000070 .LVL7
     /tmp/ccslaVF1.s:14     .text:0000000000000000 .LVL0
     /tmp/ccslaVF1.s:29     .text:000000000000001c .LVL1
     /tmp/ccslaVF1.s:42     .text:0000000000000034 .LVL3
     /tmp/ccslaVF1.s:424    .debug_info:0000000000000000 .Ldebug_info0

UNDEFINED SYMBOLS
_Z4putcc
GAS LISTING /tmp/ccslaVF1.s 			page 16


_Z5printPKc
_Z5printx
_Z5printi
_Z5printm
_Z7print_hm
