GAS LISTING /tmp/ccRDBEAC.s 			page 1


   1              		.file	"main.cpp"
   2              		.option pic
   3              		.option norelax
   4              		.text
   5              	.Ltext0:
   6              		.align	2
   7              		.globl	_Z9bleya_nitPv
   9              	_Z9bleya_nitPv:
  10              	.LFB47:
  11              		.file 1 "src/main.cpp"
   1:src/main.cpp  **** #include "../h/c_console.hpp"
   2:src/main.cpp  **** #include "../h/c_thread.hpp"
   3:src/main.cpp  **** #include "../h/cpp_semaphores.hpp"
   4:src/main.cpp  **** #include "../h/scheduler.hpp"
   5:src/main.cpp  **** #include "../h/iostream.hpp"
   6:src/main.cpp  **** 
   7:src/main.cpp  **** [[noreturn]]
   8:src/main.cpp  **** void bleya_nit(void *) {
  12              		.loc 1 8 24
  13              		.cfi_startproc
  14 0000 130101FF 		addi	sp,sp,-16
  15              		.cfi_def_cfa_offset 16
  16 0004 23341100 		sd	ra,8(sp)
  17 0008 23308100 		sd	s0,0(sp)
  18              		.cfi_offset 1, -8
  19              		.cfi_offset 8, -16
  20 000c 13040101 		addi	s0,sp,16
  21              		.cfi_def_cfa 8, 0
  22              	.L2:
   9:src/main.cpp  ****     while (true) {
  23              		.loc 1 9 5 discriminator 1
  10:src/main.cpp  ****         thread_dispatch();
  24              		.loc 1 10 9 discriminator 1
  25              		.loc 1 10 24 is_stmt 0 discriminator 1
  26 0010 97000000 		call	_Z15thread_dispatchv@plt
  26      E7800000 
  27              	.LVL0:
   9:src/main.cpp  ****     while (true) {
  28              		.loc 1 9 5 is_stmt 1 discriminator 1
  29 0018 6FF09FFF 		j	.L2
  30              		.cfi_endproc
  31              	.LFE47:
  33              		.align	2
  34              		.globl	_Z11userWrapperPv
  36              	_Z11userWrapperPv:
  37              	.LFB49:
  11:src/main.cpp  ****     }
  12:src/main.cpp  **** }
  13:src/main.cpp  **** 
  14:src/main.cpp  **** thread_t handle_bleya = nullptr;
  15:src/main.cpp  **** OwnedMutex *printer;
  16:src/main.cpp  **** 
  17:src/main.cpp  **** int userMain();
  18:src/main.cpp  **** 
  19:src/main.cpp  **** inline void init() {
  20:src/main.cpp  ****     __asm__ volatile("mv t0, %0": : "r" (&supervisorTrap));
  21:src/main.cpp  ****     __asm__ volatile("addi t0, t0, 1");
GAS LISTING /tmp/ccRDBEAC.s 			page 2


  22:src/main.cpp  ****     __asm__ volatile("csrw stvec, t0");
  23:src/main.cpp  ****     Allocator::mem_init();
  24:src/main.cpp  ****     IO::init();
  25:src/main.cpp  ****     Scheduler::init();
  26:src/main.cpp  ****     printer = new OwnedMutex();
  27:src/main.cpp  ****     thread_t handle_main;
  28:src/main.cpp  ****     thread_create(&handle_main, nullptr, nullptr);
  29:src/main.cpp  ****     TCB::running = handle_main;
  30:src/main.cpp  ****     thread_create(&handle_bleya, &bleya_nit, nullptr);
  31:src/main.cpp  **** }
  32:src/main.cpp  **** 
  33:src/main.cpp  **** void userWrapper(void *ret) {
  38              		.loc 1 33 29
  39              		.cfi_startproc
  40              	.LVL1:
  41 001c 130101FE 		addi	sp,sp,-32
  42              		.cfi_def_cfa_offset 32
  43 0020 233C1100 		sd	ra,24(sp)
  44 0024 23388100 		sd	s0,16(sp)
  45 0028 23349100 		sd	s1,8(sp)
  46              		.cfi_offset 1, -8
  47              		.cfi_offset 8, -16
  48              		.cfi_offset 9, -24
  49 002c 13040102 		addi	s0,sp,32
  50              		.cfi_def_cfa 8, 0
  51 0030 93040500 		mv	s1,a0
  34:src/main.cpp  ****     *((int *) ret) = userMain();
  52              		.loc 1 34 5
  53              		.loc 1 34 30 is_stmt 0
  54 0034 97000000 		call	_Z8userMainv@plt
  54      E7800000 
  55              	.LVL2:
  56              		.loc 1 34 20
  57 003c 23A0A400 		sw	a0,0(s1)
  35:src/main.cpp  **** }
  58              		.loc 1 35 1
  59 0040 83308101 		ld	ra,24(sp)
  60              		.cfi_restore 1
  61 0044 03340101 		ld	s0,16(sp)
  62              		.cfi_restore 8
  63              		.cfi_def_cfa 2, 32
  64 0048 83348100 		ld	s1,8(sp)
  65              		.cfi_restore 9
  66              	.LVL3:
  67 004c 13010102 		addi	sp,sp,32
  68              		.cfi_def_cfa_offset 0
  69 0050 67800000 		jr	ra
  70              		.cfi_endproc
  71              	.LFE49:
  73              		.align	2
  74              		.globl	_Z4callv
  76              	_Z4callv:
  77              	.LFB50:
  36:src/main.cpp  **** 
  37:src/main.cpp  **** int call() {
  78              		.loc 1 37 12 is_stmt 1
  79              		.cfi_startproc
GAS LISTING /tmp/ccRDBEAC.s 			page 3


  80 0054 130101FE 		addi	sp,sp,-32
  81              		.cfi_def_cfa_offset 32
  82 0058 233C1100 		sd	ra,24(sp)
  83 005c 23388100 		sd	s0,16(sp)
  84              		.cfi_offset 1, -8
  85              		.cfi_offset 8, -16
  86 0060 13040102 		addi	s0,sp,32
  87              		.cfi_def_cfa 8, 0
  38:src/main.cpp  ****     thread_t userHandle;
  88              		.loc 1 38 5
  39:src/main.cpp  ****     int ret;
  89              		.loc 1 39 5
  40:src/main.cpp  ****     thread_create(&userHandle, userWrapper, &ret);
  90              		.loc 1 40 5
  91              		.loc 1 40 18 is_stmt 0
  92 0064 130644FE 		addi	a2,s0,-28
  93 0068 97050000 		lla	a1,_Z11userWrapperPv
  93      93850500 
  94 0070 130584FE 		addi	a0,s0,-24
  95 0074 97000000 		call	_Z13thread_createPP3TCBPFvPvES2_@plt
  95      E7800000 
  96              	.LVL4:
  41:src/main.cpp  ****     thread_join(userHandle);
  97              		.loc 1 41 5 is_stmt 1
  98              		.loc 1 41 16 is_stmt 0
  99 007c 033584FE 		ld	a0,-24(s0)
 100 0080 97000000 		call	_Z11thread_joinP3TCB@plt
 100      E7800000 
 101              	.LVL5:
  42:src/main.cpp  ****     return ret;
 102              		.loc 1 42 5 is_stmt 1
  43:src/main.cpp  **** }
 103              		.loc 1 43 1 is_stmt 0
 104 0088 032544FE 		lw	a0,-28(s0)
 105 008c 83308101 		ld	ra,24(sp)
 106              		.cfi_restore 1
 107 0090 03340101 		ld	s0,16(sp)
 108              		.cfi_restore 8
 109              		.cfi_def_cfa 2, 32
 110 0094 13010102 		addi	sp,sp,32
 111              		.cfi_def_cfa_offset 0
 112 0098 67800000 		jr	ra
 113              		.cfi_endproc
 114              	.LFE50:
 116              		.section	.rodata.str1.8,"aMS",@progbits,1
 117              		.align	3
 118              	.LC0:
 119 0000 0A0A5072 		.string	"\n\nProcess finished with exit code "
 119      6F636573 
 119      73206669 
 119      6E697368 
 119      65642077 
 120 0023 00000000 		.align	3
 120      00
 121              	.LC1:
 122 0028 0A0A00   		.string	"\n\n"
 123              		.text
GAS LISTING /tmp/ccRDBEAC.s 			page 4


 124              		.align	2
 125              		.globl	_Z3endi
 127              	_Z3endi:
 128              	.LFB51:
  44:src/main.cpp  **** 
  45:src/main.cpp  **** int end(int ret) {
 129              		.loc 1 45 18 is_stmt 1
 130              		.cfi_startproc
 131              	.LVL6:
 132 009c 130101FE 		addi	sp,sp,-32
 133              		.cfi_def_cfa_offset 32
 134 00a0 233C1100 		sd	ra,24(sp)
 135 00a4 23388100 		sd	s0,16(sp)
 136 00a8 23349100 		sd	s1,8(sp)
 137              		.cfi_offset 1, -8
 138              		.cfi_offset 8, -16
 139              		.cfi_offset 9, -24
 140 00ac 13040102 		addi	s0,sp,32
 141              		.cfi_def_cfa 8, 0
 142 00b0 93040500 		mv	s1,a0
  46:src/main.cpp  ****     Riscv::ms_sstatus(Riscv::SSTATUS_SIE);
 143              		.loc 1 46 5
 144              	.LVL7:
 145              	.LBB10:
 146              	.LBB11:
 147              		.file 2 "src/../h/riscv.hpp"
   1:src/../h/riscv.hpp **** #ifndef PROJECT_BASE_RISCV_HPP
   2:src/../h/riscv.hpp **** #define PROJECT_BASE_RISCV_HPP
   3:src/../h/riscv.hpp **** 
   4:src/../h/riscv.hpp **** #include "../lib/hw.h"
   5:src/../h/riscv.hpp **** 
   6:src/../h/riscv.hpp **** extern "C" void supervisorTrap();
   7:src/../h/riscv.hpp **** 
   8:src/../h/riscv.hpp **** class Riscv {
   9:src/../h/riscv.hpp **** public:
  10:src/../h/riscv.hpp **** 
  11:src/../h/riscv.hpp ****     __attribute__((unused)) static void handleSupervisorTrap();
  12:src/../h/riscv.hpp **** 
  13:src/../h/riscv.hpp ****     static void handleTimerTrap();
  14:src/../h/riscv.hpp **** 
  15:src/../h/riscv.hpp ****     static void handleReadTrap();
  16:src/../h/riscv.hpp **** 
  17:src/../h/riscv.hpp ****     static void handleWriteTrap();
  18:src/../h/riscv.hpp **** 
  19:src/../h/riscv.hpp ****     static void popSppSpie();
  20:src/../h/riscv.hpp **** 
  21:src/../h/riscv.hpp ****     static void handleConsoleTrap();
  22:src/../h/riscv.hpp **** 
  23:src/../h/riscv.hpp ****     static void push();
  24:src/../h/riscv.hpp **** 
  25:src/../h/riscv.hpp ****     static void pop();
  26:src/../h/riscv.hpp **** 
  27:src/../h/riscv.hpp ****     // read register scause
  28:src/../h/riscv.hpp ****     static uint64 r_scause();
  29:src/../h/riscv.hpp **** 
  30:src/../h/riscv.hpp ****     // write register scause
  31:src/../h/riscv.hpp ****     static void w_scause(uint64 scause);
GAS LISTING /tmp/ccRDBEAC.s 			page 5


  32:src/../h/riscv.hpp **** 
  33:src/../h/riscv.hpp ****     // read register sepc
  34:src/../h/riscv.hpp ****     static uint64 r_sepc();
  35:src/../h/riscv.hpp **** 
  36:src/../h/riscv.hpp ****     // write register sepc
  37:src/../h/riscv.hpp ****     static void w_sepc(uint64 sepc);
  38:src/../h/riscv.hpp **** 
  39:src/../h/riscv.hpp ****     // read register stvec
  40:src/../h/riscv.hpp ****     static uint64 r_stvec();
  41:src/../h/riscv.hpp **** 
  42:src/../h/riscv.hpp ****     // write register stvec
  43:src/../h/riscv.hpp ****     static void w_stvec(uint64 stvec);
  44:src/../h/riscv.hpp **** 
  45:src/../h/riscv.hpp ****     // read register stval
  46:src/../h/riscv.hpp ****     static uint64 r_stval();
  47:src/../h/riscv.hpp **** 
  48:src/../h/riscv.hpp ****     // write register stval
  49:src/../h/riscv.hpp ****     static void w_stval(uint64 stval);
  50:src/../h/riscv.hpp **** 
  51:src/../h/riscv.hpp ****     enum BitMaskSip {
  52:src/../h/riscv.hpp ****         SIP_SSIE = (1 << 1),
  53:src/../h/riscv.hpp ****         SIP_STIE = (1 << 5),
  54:src/../h/riscv.hpp ****         SIP_SEIE = (1 << 9),
  55:src/../h/riscv.hpp ****     };
  56:src/../h/riscv.hpp **** 
  57:src/../h/riscv.hpp ****     // mask set register sip
  58:src/../h/riscv.hpp ****     static void ms_sip(uint64 mask);
  59:src/../h/riscv.hpp **** 
  60:src/../h/riscv.hpp ****     // mask clear register sip
  61:src/../h/riscv.hpp ****     static void mc_sip(uint64 mask);
  62:src/../h/riscv.hpp **** 
  63:src/../h/riscv.hpp ****     // read register sip
  64:src/../h/riscv.hpp ****     static uint64 r_sip();
  65:src/../h/riscv.hpp **** 
  66:src/../h/riscv.hpp ****     // write register sip
  67:src/../h/riscv.hpp ****     static void w_sip(uint64 sip);
  68:src/../h/riscv.hpp **** 
  69:src/../h/riscv.hpp ****     enum BitMaskSstatus {
  70:src/../h/riscv.hpp ****         SSTATUS_SIE = (1 << 1),
  71:src/../h/riscv.hpp ****         SSTATUS_SPIE = (1 << 5),
  72:src/../h/riscv.hpp ****         SSTATUS_SPP = (1 << 8),
  73:src/../h/riscv.hpp ****     };
  74:src/../h/riscv.hpp **** 
  75:src/../h/riscv.hpp ****     // mask set register sstatus
  76:src/../h/riscv.hpp ****     static void ms_sstatus(uint64 mask);
  77:src/../h/riscv.hpp **** 
  78:src/../h/riscv.hpp ****     // mask clear register sstatus
  79:src/../h/riscv.hpp ****     static void mc_sstatus(uint64 mask);
  80:src/../h/riscv.hpp **** 
  81:src/../h/riscv.hpp ****     // read register sstatus
  82:src/../h/riscv.hpp ****     static uint64 r_sstatus();
  83:src/../h/riscv.hpp **** 
  84:src/../h/riscv.hpp ****     // write register sstatus
  85:src/../h/riscv.hpp ****     static void w_sstatus(uint64 sstatus);
  86:src/../h/riscv.hpp **** 
  87:src/../h/riscv.hpp ****     static uint64 r_sscratch();
  88:src/../h/riscv.hpp **** 
GAS LISTING /tmp/ccRDBEAC.s 			page 6


  89:src/../h/riscv.hpp **** private:
  90:src/../h/riscv.hpp **** 
  91:src/../h/riscv.hpp **** };
  92:src/../h/riscv.hpp **** 
  93:src/../h/riscv.hpp **** inline uint64 Riscv::r_sscratch() {
  94:src/../h/riscv.hpp ****     uint64 volatile sscratch;
  95:src/../h/riscv.hpp ****     __asm__ volatile ("csrr %[scause], scause" : [scause] "=r"(sscratch));
  96:src/../h/riscv.hpp ****     return sscratch;
  97:src/../h/riscv.hpp **** }
  98:src/../h/riscv.hpp **** 
  99:src/../h/riscv.hpp **** inline uint64 Riscv::r_scause() {
 100:src/../h/riscv.hpp ****     uint64 volatile scause;
 101:src/../h/riscv.hpp ****     __asm__ volatile ("csrr %[scause], scause" : [scause] "=r"(scause));
 102:src/../h/riscv.hpp ****     return scause;
 103:src/../h/riscv.hpp **** }
 104:src/../h/riscv.hpp **** 
 105:src/../h/riscv.hpp **** inline void Riscv::w_scause(uint64 scause) {
 106:src/../h/riscv.hpp ****     __asm__ volatile ("csrw scause, %[scause]" : : [scause] "r"(scause));
 107:src/../h/riscv.hpp **** }
 108:src/../h/riscv.hpp **** 
 109:src/../h/riscv.hpp **** inline uint64 Riscv::r_sepc() {
 110:src/../h/riscv.hpp ****     uint64 volatile sepc;
 111:src/../h/riscv.hpp ****     __asm__ volatile ("csrr %[sepc], sepc" : [sepc] "=r"(sepc));
 112:src/../h/riscv.hpp ****     return sepc;
 113:src/../h/riscv.hpp **** }
 114:src/../h/riscv.hpp **** 
 115:src/../h/riscv.hpp **** inline void Riscv::w_sepc(uint64 sepc) {
 116:src/../h/riscv.hpp ****     __asm__ volatile ("csrw sepc, %[sepc]" : : [sepc] "r"(sepc));
 117:src/../h/riscv.hpp **** }
 118:src/../h/riscv.hpp **** 
 119:src/../h/riscv.hpp **** inline uint64 Riscv::r_stvec() {
 120:src/../h/riscv.hpp ****     uint64 volatile stvec;
 121:src/../h/riscv.hpp ****     __asm__ volatile ("csrr %[stvec], stvec" : [stvec] "=r"(stvec));
 122:src/../h/riscv.hpp ****     return stvec;
 123:src/../h/riscv.hpp **** }
 124:src/../h/riscv.hpp **** 
 125:src/../h/riscv.hpp **** inline void Riscv::w_stvec(uint64 stvec) {
 126:src/../h/riscv.hpp ****     __asm__ volatile ("csrw stvec, %[stvec]" : : [stvec] "r"(stvec));
 127:src/../h/riscv.hpp **** }
 128:src/../h/riscv.hpp **** 
 129:src/../h/riscv.hpp **** inline uint64 Riscv::r_stval() {
 130:src/../h/riscv.hpp ****     uint64 volatile stval;
 131:src/../h/riscv.hpp ****     __asm__ volatile ("csrr %[stval], stval" : [stval] "=r"(stval));
 132:src/../h/riscv.hpp ****     return stval;
 133:src/../h/riscv.hpp **** }
 134:src/../h/riscv.hpp **** 
 135:src/../h/riscv.hpp **** inline void Riscv::w_stval(uint64 stval) {
 136:src/../h/riscv.hpp ****     __asm__ volatile ("csrw stval, %[stval]" : : [stval] "r"(stval));
 137:src/../h/riscv.hpp **** }
 138:src/../h/riscv.hpp **** 
 139:src/../h/riscv.hpp **** inline void Riscv::ms_sip(uint64 mask) {
 140:src/../h/riscv.hpp ****     __asm__ volatile ("csrs sip, %[mask]" : : [mask] "r"(mask));
 141:src/../h/riscv.hpp **** }
 142:src/../h/riscv.hpp **** 
 143:src/../h/riscv.hpp **** inline void Riscv::mc_sip(uint64 mask) {
 144:src/../h/riscv.hpp ****     __asm__ volatile ("csrc sip, %[mask]" : : [mask] "r"(mask));
 145:src/../h/riscv.hpp **** }
GAS LISTING /tmp/ccRDBEAC.s 			page 7


 146:src/../h/riscv.hpp **** 
 147:src/../h/riscv.hpp **** inline uint64 Riscv::r_sip() {
 148:src/../h/riscv.hpp ****     uint64 volatile sip;
 149:src/../h/riscv.hpp ****     __asm__ volatile ("csrr %[sip], sip" : [sip] "=r"(sip));
 150:src/../h/riscv.hpp ****     return sip;
 151:src/../h/riscv.hpp **** }
 152:src/../h/riscv.hpp **** 
 153:src/../h/riscv.hpp **** inline void Riscv::w_sip(uint64 sip) {
 154:src/../h/riscv.hpp ****     __asm__ volatile ("csrw sip, %[sip]" : : [sip] "r"(sip));
 155:src/../h/riscv.hpp **** }
 156:src/../h/riscv.hpp **** 
 157:src/../h/riscv.hpp **** inline void Riscv::ms_sstatus(uint64 mask) {
 158:src/../h/riscv.hpp ****     __asm__ volatile ("csrs sstatus, %[mask]" : : [mask] "r"(mask));
 148              		.loc 2 158 5
 149              		.loc 2 158 68 is_stmt 0
 150 00b4 93072000 		li	a5,2
 151              	#APP
 152              	# 158 "src/../h/riscv.hpp" 1
 159              	}
 153              		csrs sstatus, a5
 154              	# 0 "" 2
 155              	.LVL8:
 156              	#NO_APP
 157              	.LBE11:
 158              	.LBE10:
  47:src/main.cpp  ****     print("\n\nProcess finished with exit code ");
 159              		.loc 1 47 5 is_stmt 1
 160              		.loc 1 47 10 is_stmt 0
 161 00bc 17050000 		lla	a0,.LC0
 161      13050500 
 162              	.LVL9:
 163 00c4 97000000 		call	_Z5printPKc@plt
 163      E7800000 
 164              	.LVL10:
  48:src/main.cpp  ****     print(ret);
 165              		.loc 1 48 5 is_stmt 1
 166              		.loc 1 48 10 is_stmt 0
 167 00cc 13850400 		mv	a0,s1
 168 00d0 97000000 		call	_Z5printi@plt
 168      E7800000 
 169              	.LVL11:
  49:src/main.cpp  ****     print("\n\n");
 170              		.loc 1 49 5 is_stmt 1
 171              		.loc 1 49 10 is_stmt 0
 172 00d8 17050000 		lla	a0,.LC1
 172      13050500 
 173 00e0 97000000 		call	_Z5printPKc@plt
 173      E7800000 
 174              	.LVL12:
 175              	.L9:
  50:src/main.cpp  ****     while (!IO::Output.is_empty());
 176              		.loc 1 50 5 is_stmt 1
 177              		.loc 1 50 12
 178              		.file 3 "src/../h/c_console.hpp"
   1:src/../h/c_console.hpp **** #ifndef PROJECT_BASE_C_CONSOLE_HPP
   2:src/../h/c_console.hpp **** #define PROJECT_BASE_C_CONSOLE_HPP
   3:src/../h/c_console.hpp **** 
GAS LISTING /tmp/ccRDBEAC.s 			page 8


   4:src/../h/c_console.hpp **** #include "circular_buffer.hpp"
   5:src/../h/c_console.hpp **** #include "riscv.hpp"
   6:src/../h/c_console.hpp **** 
   7:src/../h/c_console.hpp **** class Sem;
   8:src/../h/c_console.hpp **** 
   9:src/../h/c_console.hpp **** class IOBuffer final {
  10:src/../h/c_console.hpp **** public:
  11:src/../h/c_console.hpp ****     void init();
  12:src/../h/c_console.hpp **** 
  13:src/../h/c_console.hpp ****     void put(char c);
  14:src/../h/c_console.hpp **** 
  15:src/../h/c_console.hpp ****     char get();
  16:src/../h/c_console.hpp **** 
  17:src/../h/c_console.hpp ****     bool is_empty() const { return this->buffer.is_empty(); }
 179              		.loc 3 17 29
 180              	.LBB12:
 181              	.LBB13:
 182              	.LBB14:
 183              		.file 4 "src/../h/circular_buffer.hpp"
   1:src/../h/circular_buffer.hpp **** #ifndef PROJECT_BASE_CIRCULAR_BUFFER_HPP
   2:src/../h/circular_buffer.hpp **** #define PROJECT_BASE_CIRCULAR_BUFFER_HPP
   3:src/../h/circular_buffer.hpp **** 
   4:src/../h/circular_buffer.hpp **** #include "syscall_c.hpp"
   5:src/../h/circular_buffer.hpp **** #include "c_memory.hpp"
   6:src/../h/circular_buffer.hpp **** 
   7:src/../h/circular_buffer.hpp **** namespace stm {
   8:src/../h/circular_buffer.hpp ****     template<typename T>
   9:src/../h/circular_buffer.hpp ****     class CircularBuffer {
  10:src/../h/circular_buffer.hpp ****     public:
  11:src/../h/circular_buffer.hpp **** 
  12:src/../h/circular_buffer.hpp ****         void init();
  13:src/../h/circular_buffer.hpp **** 
  14:src/../h/circular_buffer.hpp ****         void put(T);
  15:src/../h/circular_buffer.hpp **** 
  16:src/../h/circular_buffer.hpp ****         T get();
  17:src/../h/circular_buffer.hpp **** 
  18:src/../h/circular_buffer.hpp ****         T &peek();
  19:src/../h/circular_buffer.hpp **** 
  20:src/../h/circular_buffer.hpp ****         inline bool is_empty() const { return this->size == 0; }
 184              		.loc 4 20 53 is_stmt 0
 185 00e8 97070000 		la	a5,_ZN2IO6OutputE
 185      83B70700 
 186 00f0 83A70701 		lw	a5,16(a5)
 187              	.LVL13:
 188              	.LBE14:
 189              	.LBE13:
 190              	.LBE12:
 191              		.loc 1 50 12
 192 00f4 E39A07FE 		bnez	a5,.L9
  51:src/main.cpp  ****     time_sleep(10);
 193              		.loc 1 51 5 is_stmt 1
 194              		.loc 1 51 15 is_stmt 0
 195 00f8 1305A000 		li	a0,10
 196 00fc 97000000 		call	_Z10time_sleepm@plt
 196      E7800000 
 197              	.LVL14:
  52:src/main.cpp  ****     return 0;
GAS LISTING /tmp/ccRDBEAC.s 			page 9


 198              		.loc 1 52 5 is_stmt 1
  53:src/main.cpp  **** }
 199              		.loc 1 53 1 is_stmt 0
 200 0104 13050000 		li	a0,0
 201 0108 83308101 		ld	ra,24(sp)
 202              		.cfi_restore 1
 203 010c 03340101 		ld	s0,16(sp)
 204              		.cfi_restore 8
 205              		.cfi_def_cfa 2, 32
 206 0110 83348100 		ld	s1,8(sp)
 207              		.cfi_restore 9
 208 0114 13010102 		addi	sp,sp,32
 209              		.cfi_def_cfa_offset 0
 210 0118 67800000 		jr	ra
 211              		.cfi_endproc
 212              	.LFE51:
 214              		.section	.text._ZN3stm14CircularBufferIP3TCBE4initEv,"axG",@progbits,_ZN3stm14CircularBufferIP3TCB
 215              		.align	2
 216              		.weak	_ZN3stm14CircularBufferIP3TCBE4initEv
 218              	_ZN3stm14CircularBufferIP3TCBE4initEv:
 219              	.LFB54:
  21:src/../h/circular_buffer.hpp **** 
  22:src/../h/circular_buffer.hpp ****         void destroy();
  23:src/../h/circular_buffer.hpp **** 
  24:src/../h/circular_buffer.hpp ****     private:
  25:src/../h/circular_buffer.hpp **** 
  26:src/../h/circular_buffer.hpp ****         void extend();
  27:src/../h/circular_buffer.hpp **** 
  28:src/../h/circular_buffer.hpp ****         static int constexpr CAPACITY = 16;
  29:src/../h/circular_buffer.hpp ****         T *queue;
  30:src/../h/circular_buffer.hpp ****         int head;
  31:src/../h/circular_buffer.hpp ****         int tail;
  32:src/../h/circular_buffer.hpp ****         int size;
  33:src/../h/circular_buffer.hpp ****         int capacity;
  34:src/../h/circular_buffer.hpp ****     };
  35:src/../h/circular_buffer.hpp **** }
  36:src/../h/circular_buffer.hpp **** 
  37:src/../h/circular_buffer.hpp **** template<typename T>
  38:src/../h/circular_buffer.hpp **** void stm::CircularBuffer<T>::init() {
 220              		.loc 4 38 6 is_stmt 1
 221              		.cfi_startproc
 222              	.LVL15:
 223 0000 130101FE 		addi	sp,sp,-32
 224              		.cfi_def_cfa_offset 32
 225 0004 233C1100 		sd	ra,24(sp)
 226 0008 23388100 		sd	s0,16(sp)
 227 000c 23349100 		sd	s1,8(sp)
 228              		.cfi_offset 1, -8
 229              		.cfi_offset 8, -16
 230              		.cfi_offset 9, -24
 231 0010 13040102 		addi	s0,sp,32
 232              		.cfi_def_cfa 8, 0
 233 0014 93040500 		mv	s1,a0
  39:src/../h/circular_buffer.hpp ****     this->head = 0;
 234              		.loc 4 39 5 is_stmt 0
 235 0018 23240500 		sw	zero,8(a0)
  40:src/../h/circular_buffer.hpp ****     this->tail = 0;
GAS LISTING /tmp/ccRDBEAC.s 			page 10


 236              		.loc 4 40 5
 237 001c 23260500 		sw	zero,12(a0)
  41:src/../h/circular_buffer.hpp ****     this->size = 0;
 238              		.loc 4 41 5
 239 0020 23280500 		sw	zero,16(a0)
  42:src/../h/circular_buffer.hpp ****     this->capacity = CAPACITY;
 240              		.loc 4 42 5
 241 0024 93070001 		li	a5,16
 242 0028 232AF500 		sw	a5,20(a0)
  43:src/../h/circular_buffer.hpp ****     this->queue = (T *) mem_alloc(sizeof(T) * CAPACITY);
 243              		.loc 4 43 34
 244 002c 13050008 		li	a0,128
 245              	.LVL16:
 246 0030 97000000 		call	_Z9mem_allocm@plt
 246      E7800000 
 247              	.LVL17:
 248              		.loc 4 43 5
 249 0038 23B0A400 		sd	a0,0(s1)
  44:src/../h/circular_buffer.hpp **** }
 250              		.loc 4 44 1
 251 003c 83308101 		ld	ra,24(sp)
 252              		.cfi_restore 1
 253 0040 03340101 		ld	s0,16(sp)
 254              		.cfi_restore 8
 255              		.cfi_def_cfa 2, 32
 256 0044 83348100 		ld	s1,8(sp)
 257              		.cfi_restore 9
 258              	.LVL18:
 259 0048 13010102 		addi	sp,sp,32
 260              		.cfi_def_cfa_offset 0
 261 004c 67800000 		jr	ra
 262              		.cfi_endproc
 263              	.LFE54:
 265              		.section	.text._Z4initv,"axG",@progbits,_Z4initv,comdat
 266              		.align	2
 267              		.weak	_Z4initv
 269              	_Z4initv:
 270              	.LFB48:
  19:src/main.cpp  ****     __asm__ volatile("mv t0, %0": : "r" (&supervisorTrap));
 271              		.loc 1 19 20 is_stmt 1
 272              		.cfi_startproc
 273              		.cfi_personality 0x9b,DW.ref.__gxx_personality_v0
 274              		.cfi_lsda 0x1b,.LLSDA48
 275 0000 130101FD 		addi	sp,sp,-48
 276              		.cfi_def_cfa_offset 48
 277 0004 23341102 		sd	ra,40(sp)
 278 0008 23308102 		sd	s0,32(sp)
 279 000c 233C9100 		sd	s1,24(sp)
 280 0010 23382101 		sd	s2,16(sp)
 281              		.cfi_offset 1, -8
 282              		.cfi_offset 8, -16
 283              		.cfi_offset 9, -24
 284              		.cfi_offset 18, -32
 285 0014 13040103 		addi	s0,sp,48
 286              		.cfi_def_cfa 8, 0
  20:src/main.cpp  ****     __asm__ volatile("addi t0, t0, 1");
 287              		.loc 1 20 5
GAS LISTING /tmp/ccRDBEAC.s 			page 11


  20:src/main.cpp  ****     __asm__ volatile("addi t0, t0, 1");
 288              		.loc 1 20 59 is_stmt 0
 289 0018 97070000 		la	a5,supervisorTrap
 289      83B70700 
 290              	#APP
 291              	# 20 "src/main.cpp" 1
  21:src/main.cpp  ****     __asm__ volatile("csrw stvec, t0");
 292              		mv t0, a5
 293              	# 0 "" 2
 294              		.loc 1 21 5 is_stmt 1
  21:src/main.cpp  ****     __asm__ volatile("csrw stvec, t0");
 295              		.loc 1 21 39 is_stmt 0
 296              	# 21 "src/main.cpp" 1
  22:src/main.cpp  ****     Allocator::mem_init();
 297              		addi t0, t0, 1
 298              	# 0 "" 2
 299              		.loc 1 22 5 is_stmt 1
  22:src/main.cpp  ****     Allocator::mem_init();
 300              		.loc 1 22 39 is_stmt 0
 301              	# 22 "src/main.cpp" 1
  23:src/main.cpp  ****     IO::init();
 302              		csrw stvec, t0
 303              	# 0 "" 2
 304              		.loc 1 23 5 is_stmt 1
 305              	.LEHB0:
  23:src/main.cpp  ****     IO::init();
 306              		.loc 1 23 24 is_stmt 0
 307              	#NO_APP
 308 002c 97000000 		call	_ZN9Allocator8mem_initEv@plt
 308      E7800000 
 309              	.LVL19:
  24:src/main.cpp  ****     Scheduler::init();
 310              		.loc 1 24 5 is_stmt 1
  24:src/main.cpp  ****     Scheduler::init();
 311              		.loc 1 24 13 is_stmt 0
 312 0034 97000000 		call	_ZN2IO4initEv@plt
 312      E7800000 
 313              	.LVL20:
  25:src/main.cpp  ****     printer = new OwnedMutex();
 314              		.loc 1 25 5 is_stmt 1
 315              	.LBB17:
 316              	.LBB18:
 317              		.file 5 "src/../h/scheduler.hpp"
   1:src/../h/scheduler.hpp **** #ifndef PROJECT_BASE_SCHEDULER_HPP
   2:src/../h/scheduler.hpp **** #define PROJECT_BASE_SCHEDULER_HPP
   3:src/../h/scheduler.hpp **** 
   4:src/../h/scheduler.hpp **** #include "circular_buffer.hpp"
   5:src/../h/scheduler.hpp **** #include "syscall_c.hpp"
   6:src/../h/scheduler.hpp **** 
   7:src/../h/scheduler.hpp **** class Scheduler final {
   8:src/../h/scheduler.hpp **** public:
   9:src/../h/scheduler.hpp **** 
  10:src/../h/scheduler.hpp ****     static void init() { high_priority.init(); mid_priority.init(); low_priority.init(); }
 318              		.loc 5 10 26
 319              		.loc 5 10 44 is_stmt 0
 320 003c 17050000 		la	a0,_ZN9Scheduler13high_priorityE
 320      03350500 
GAS LISTING /tmp/ccRDBEAC.s 			page 12


 321 0044 97000000 		call	_ZN3stm14CircularBufferIP3TCBE4initEv
 321      E7800000 
 322              	.LVL21:
 323              		.loc 5 10 48 is_stmt 1
 324              		.loc 5 10 65 is_stmt 0
 325 004c 17050000 		la	a0,_ZN9Scheduler12mid_priorityE
 325      03350500 
 326 0054 97000000 		call	_ZN3stm14CircularBufferIP3TCBE4initEv
 326      E7800000 
 327              	.LVL22:
 328              		.loc 5 10 69 is_stmt 1
 329              		.loc 5 10 86 is_stmt 0
 330 005c 17050000 		la	a0,_ZN9Scheduler12low_priorityE
 330      03350500 
 331 0064 97000000 		call	_ZN3stm14CircularBufferIP3TCBE4initEv
 331      E7800000 
 332              	.LVL23:
 333              	.LBE18:
 334              	.LBE17:
  26:src/main.cpp  ****     thread_t handle_main;
 335              		.loc 1 26 5 is_stmt 1
  26:src/main.cpp  ****     thread_t handle_main;
 336              		.loc 1 26 30 is_stmt 0
 337 006c 13050002 		li	a0,32
 338 0070 97000000 		call	_Znwm@plt
 338      E7800000 
 339              	.LVL24:
 340              	.LEHE0:
 341 0078 93040500 		mv	s1,a0
 342              	.LEHB1:
 343 007c 97000000 		call	_ZN10OwnedMutexC1Ev@plt
 343      E7800000 
 344              	.LVL25:
 345              	.LEHE1:
  26:src/main.cpp  ****     thread_t handle_main;
 346              		.loc 1 26 13
 347 0084 97070000 		sd	s1,.LANCHOR0,a5
 347      23B09700 
  27:src/main.cpp  ****     thread_create(&handle_main, nullptr, nullptr);
 348              		.loc 1 27 5 is_stmt 1
  28:src/main.cpp  ****     TCB::running = handle_main;
 349              		.loc 1 28 5
  28:src/main.cpp  ****     TCB::running = handle_main;
 350              		.loc 1 28 18 is_stmt 0
 351 008c 13060000 		li	a2,0
 352 0090 93050000 		li	a1,0
 353 0094 130584FD 		addi	a0,s0,-40
 354              	.LEHB2:
 355 0098 97000000 		call	_Z13thread_createPP3TCBPFvPvES2_@plt
 355      E7800000 
 356              	.LVL26:
  29:src/main.cpp  ****     thread_create(&handle_bleya, &bleya_nit, nullptr);
 357              		.loc 1 29 5 is_stmt 1
  29:src/main.cpp  ****     thread_create(&handle_bleya, &bleya_nit, nullptr);
 358              		.loc 1 29 18 is_stmt 0
 359 00a0 97070000 		la	a5,_ZN3TCB7runningE
 359      83B70700 
GAS LISTING /tmp/ccRDBEAC.s 			page 13


 360 00a8 033784FD 		ld	a4,-40(s0)
 361 00ac 23B0E700 		sd	a4,0(a5)
  30:src/main.cpp  **** }
 362              		.loc 1 30 5 is_stmt 1
  30:src/main.cpp  **** }
 363              		.loc 1 30 18 is_stmt 0
 364 00b0 13060000 		li	a2,0
 365 00b4 97050000 		lla	a1,_Z9bleya_nitPv
 365      93850500 
 366 00bc 17050000 		lla	a0,.LANCHOR0+8
 366      13050500 
 367 00c4 97000000 		call	_Z13thread_createPP3TCBPFvPvES2_@plt
 367      E7800000 
 368              	.LVL27:
 369              	.LEHE2:
  31:src/main.cpp  **** 
 370              		.loc 1 31 1
 371 00cc 83308102 		ld	ra,40(sp)
 372              		.cfi_remember_state
 373              		.cfi_restore 1
 374 00d0 03340102 		ld	s0,32(sp)
 375              		.cfi_restore 8
 376              		.cfi_def_cfa 2, 48
 377 00d4 83348101 		ld	s1,24(sp)
 378              		.cfi_restore 9
 379 00d8 03390101 		ld	s2,16(sp)
 380              		.cfi_restore 18
 381 00dc 13010103 		addi	sp,sp,48
 382              		.cfi_def_cfa_offset 0
 383 00e0 67800000 		jr	ra
 384              	.L15:
 385              		.cfi_restore_state
 386 00e4 13090500 		mv	s2,a0
  26:src/main.cpp  ****     thread_t handle_main;
 387              		.loc 1 26 30
 388 00e8 13850400 		mv	a0,s1
 389 00ec 97000000 		call	_ZdlPv@plt
 389      E7800000 
 390              	.LVL28:
 391 00f4 13050900 		mv	a0,s2
 392              	.LEHB3:
 393 00f8 97000000 		call	_Unwind_Resume@plt
 393      E7800000 
 394              	.LVL29:
 395              	.LEHE3:
 396              		.cfi_endproc
 397              	.LFE48:
 398              		.globl	__gxx_personality_v0
 399              		.section	.gcc_except_table._Z4initv,"aG",@progbits,_Z4initv,comdat
 400              	.LLSDA48:
 401 0000 FF       		.byte	0xff
 402 0001 FF       		.byte	0xff
 403 0002 03       		.byte	0x3
 404 0003 34       		.byte	0x34
 405 0004 00000000 		.4byte	.LEHB0-.LFB48
 406 0008 00000000 		.4byte	.LEHE0-.LEHB0
 407 000c 00000000 		.4byte	0
GAS LISTING /tmp/ccRDBEAC.s 			page 14


 408 0010 00       		.byte	0
 409 0011 00000000 		.4byte	.LEHB1-.LFB48
 410 0015 00000000 		.4byte	.LEHE1-.LEHB1
 411 0019 00000000 		.4byte	.L15-.LFB48
 412 001d 00       		.byte	0
 413 001e 00000000 		.4byte	.LEHB2-.LFB48
 414 0022 00000000 		.4byte	.LEHE2-.LEHB2
 415 0026 00000000 		.4byte	0
 416 002a 00       		.byte	0
 417 002b 00000000 		.4byte	.LEHB3-.LFB48
 418 002f 00000000 		.4byte	.LEHE3-.LEHB3
 419 0033 00000000 		.4byte	0
 420 0037 00       		.byte	0
 421              		.section	.text._Z4initv,"axG",@progbits,_Z4initv,comdat
 423              		.text
 424              		.align	2
 425              		.globl	main
 427              	main:
 428              	.LFB52:
  54:src/main.cpp  **** 
  55:src/main.cpp  **** int main() {
 429              		.loc 1 55 12 is_stmt 1
 430              		.cfi_startproc
 431 011c 130101FF 		addi	sp,sp,-16
 432              		.cfi_def_cfa_offset 16
 433 0120 23341100 		sd	ra,8(sp)
 434 0124 23308100 		sd	s0,0(sp)
 435              		.cfi_offset 1, -8
 436              		.cfi_offset 8, -16
 437 0128 13040101 		addi	s0,sp,16
 438              		.cfi_def_cfa 8, 0
  56:src/main.cpp  ****     init();
 439              		.loc 1 56 5
 440              		.loc 1 56 9 is_stmt 0
 441 012c 97000000 		call	_Z4initv
 441      E7800000 
 442              	.LVL30:
  57:src/main.cpp  ****     int ret = call();
 443              		.loc 1 57 5 is_stmt 1
 444              		.loc 1 57 19 is_stmt 0
 445 0134 97000000 		call	_Z4callv
 445      E7800000 
 446              	.LVL31:
  58:src/main.cpp  ****     return end(ret);
 447              		.loc 1 58 5 is_stmt 1
 448              		.loc 1 58 15 is_stmt 0
 449 013c 97000000 		call	_Z3endi
 449      E7800000 
 450              	.LVL32:
  59:src/main.cpp  **** }...
 451              		.loc 1 59 1
 452 0144 83308100 		ld	ra,8(sp)
 453              		.cfi_restore 1
 454 0148 03340100 		ld	s0,0(sp)
 455              		.cfi_restore 8
 456              		.cfi_def_cfa 2, 16
 457 014c 13010101 		addi	sp,sp,16
GAS LISTING /tmp/ccRDBEAC.s 			page 15


 458              		.cfi_def_cfa_offset 0
 459 0150 67800000 		jr	ra
 460              		.cfi_endproc
 461              	.LFE52:
 463              		.globl	printer
 464              		.globl	handle_bleya
 465              		.bss
 466              		.align	3
 467              		.set	.LANCHOR0,. + 0
 470              	printer:
 471 0000 00000000 		.zero	8
 471      00000000 
 474              	handle_bleya:
 475 0008 00000000 		.zero	8
 475      00000000 
 476              		.text
 477              	.Letext0:
 478              		.file 6 "src/../h/../lib/hw.h"
 479              		.file 7 "src/../h/syscall_c.hpp"
 480              		.file 8 "src/../h/c_thread.hpp"
 481              		.file 9 "src/../h/c_memory.hpp"
 482              		.file 10 "src/../h/iostream.hpp"
 483              		.file 11 "src/../h/syscall_cpp.hpp"
 4830              		.align	3
 4833              	DW.ref.__gxx_personality_v0:
 4834 0000 00000000 		.dword	__gxx_personality_v0
 4834      00000000 
 4835              		.ident	"GCC: (Ubuntu 9.4.0-1ubuntu1~20.04) 9.4.0"
 4836              		.section	.note.GNU-stack,"",@progbits
GAS LISTING /tmp/ccRDBEAC.s 			page 16


DEFINED SYMBOLS
                            *ABS*:0000000000000000 main.cpp
     /tmp/ccRDBEAC.s:9      .text:0000000000000000 _Z9bleya_nitPv
     /tmp/ccRDBEAC.s:13     .text:0000000000000000 .L0 
     /tmp/ccRDBEAC.s:14     .text:0000000000000000 .L0 
     /tmp/ccRDBEAC.s:15     .text:0000000000000004 .L0 
     /tmp/ccRDBEAC.s:18     .text:000000000000000c .L0 
     /tmp/ccRDBEAC.s:19     .text:000000000000000c .L0 
     /tmp/ccRDBEAC.s:21     .text:0000000000000010 .L0 
     /tmp/ccRDBEAC.s:24     .text:0000000000000010 .L0 
     /tmp/ccRDBEAC.s:25     .text:0000000000000010 .L0 
     /tmp/ccRDBEAC.s:26     .text:0000000000000010 .L0 
     /tmp/ccRDBEAC.s:29     .text:0000000000000018 .L0 
     /tmp/ccRDBEAC.s:30     .text:000000000000001c .L0 
     /tmp/ccRDBEAC.s:36     .text:000000000000001c _Z11userWrapperPv
     /tmp/ccRDBEAC.s:39     .text:000000000000001c .L0 
     /tmp/ccRDBEAC.s:41     .text:000000000000001c .L0 
     /tmp/ccRDBEAC.s:42     .text:0000000000000020 .L0 
     /tmp/ccRDBEAC.s:46     .text:000000000000002c .L0 
     /tmp/ccRDBEAC.s:47     .text:000000000000002c .L0 
     /tmp/ccRDBEAC.s:48     .text:000000000000002c .L0 
     /tmp/ccRDBEAC.s:50     .text:0000000000000030 .L0 
     /tmp/ccRDBEAC.s:53     .text:0000000000000034 .L0 
     /tmp/ccRDBEAC.s:54     .text:0000000000000034 .L0 
     /tmp/ccRDBEAC.s:57     .text:000000000000003c .L0 
     /tmp/ccRDBEAC.s:59     .text:0000000000000040 .L0 
     /tmp/ccRDBEAC.s:60     .text:0000000000000044 .L0 
     /tmp/ccRDBEAC.s:62     .text:0000000000000048 .L0 
     /tmp/ccRDBEAC.s:63     .text:0000000000000048 .L0 
     /tmp/ccRDBEAC.s:65     .text:000000000000004c .L0 
     /tmp/ccRDBEAC.s:68     .text:0000000000000050 .L0 
     /tmp/ccRDBEAC.s:70     .text:0000000000000054 .L0 
     /tmp/ccRDBEAC.s:76     .text:0000000000000054 _Z4callv
     /tmp/ccRDBEAC.s:79     .text:0000000000000054 .L0 
     /tmp/ccRDBEAC.s:80     .text:0000000000000054 .L0 
     /tmp/ccRDBEAC.s:81     .text:0000000000000058 .L0 
     /tmp/ccRDBEAC.s:84     .text:0000000000000060 .L0 
     /tmp/ccRDBEAC.s:85     .text:0000000000000060 .L0 
     /tmp/ccRDBEAC.s:87     .text:0000000000000064 .L0 
     /tmp/ccRDBEAC.s:89     .text:0000000000000064 .L0 
     /tmp/ccRDBEAC.s:90     .text:0000000000000064 .L0 
     /tmp/ccRDBEAC.s:91     .text:0000000000000064 .L0 
     /tmp/ccRDBEAC.s:92     .text:0000000000000064 .L0 
     /tmp/ccRDBEAC.s:98     .text:000000000000007c .L0 
     /tmp/ccRDBEAC.s:99     .text:000000000000007c .L0 
     /tmp/ccRDBEAC.s:103    .text:0000000000000088 .L0 
     /tmp/ccRDBEAC.s:104    .text:0000000000000088 .L0 
     /tmp/ccRDBEAC.s:106    .text:0000000000000090 .L0 
     /tmp/ccRDBEAC.s:108    .text:0000000000000094 .L0 
     /tmp/ccRDBEAC.s:109    .text:0000000000000094 .L0 
     /tmp/ccRDBEAC.s:111    .text:0000000000000098 .L0 
     /tmp/ccRDBEAC.s:113    .text:000000000000009c .L0 
     /tmp/ccRDBEAC.s:127    .text:000000000000009c _Z3endi
     /tmp/ccRDBEAC.s:130    .text:000000000000009c .L0 
     /tmp/ccRDBEAC.s:132    .text:000000000000009c .L0 
     /tmp/ccRDBEAC.s:133    .text:00000000000000a0 .L0 
     /tmp/ccRDBEAC.s:137    .text:00000000000000ac .L0 
GAS LISTING /tmp/ccRDBEAC.s 			page 17


     /tmp/ccRDBEAC.s:138    .text:00000000000000ac .L0 
     /tmp/ccRDBEAC.s:139    .text:00000000000000ac .L0 
     /tmp/ccRDBEAC.s:141    .text:00000000000000b0 .L0 
     /tmp/ccRDBEAC.s:148    .text:00000000000000b4 .L0 
     /tmp/ccRDBEAC.s:149    .text:00000000000000b4 .L0 
     /tmp/ccRDBEAC.s:150    .text:00000000000000b4 .L0 
     /tmp/ccRDBEAC.s:160    .text:00000000000000bc .L0 
     /tmp/ccRDBEAC.s:161    .text:00000000000000bc .L0 
     /tmp/ccRDBEAC.s:166    .text:00000000000000cc .L0 
     /tmp/ccRDBEAC.s:167    .text:00000000000000cc .L0 
     /tmp/ccRDBEAC.s:171    .text:00000000000000d8 .L0 
     /tmp/ccRDBEAC.s:172    .text:00000000000000d8 .L0 
     /tmp/ccRDBEAC.s:177    .text:00000000000000e8 .L0 
     /tmp/ccRDBEAC.s:179    .text:00000000000000e8 .L0 
     /tmp/ccRDBEAC.s:184    .text:00000000000000e8 .L0 
     /tmp/ccRDBEAC.s:185    .text:00000000000000e8 .L0 
     /tmp/ccRDBEAC.s:192    .text:00000000000000f4 .L0 
     /tmp/ccRDBEAC.s:194    .text:00000000000000f8 .L0 
     /tmp/ccRDBEAC.s:195    .text:00000000000000f8 .L0 
     /tmp/ccRDBEAC.s:199    .text:0000000000000104 .L0 
     /tmp/ccRDBEAC.s:200    .text:0000000000000104 .L0 
     /tmp/ccRDBEAC.s:202    .text:000000000000010c .L0 
     /tmp/ccRDBEAC.s:204    .text:0000000000000110 .L0 
     /tmp/ccRDBEAC.s:205    .text:0000000000000110 .L0 
     /tmp/ccRDBEAC.s:207    .text:0000000000000114 .L0 
     /tmp/ccRDBEAC.s:209    .text:0000000000000118 .L0 
     /tmp/ccRDBEAC.s:211    .text:000000000000011c .L0 
     /tmp/ccRDBEAC.s:218    .text._ZN3stm14CircularBufferIP3TCBE4initEv:0000000000000000 _ZN3stm14CircularBufferIP3TCBE4initEv
     /tmp/ccRDBEAC.s:221    .text._ZN3stm14CircularBufferIP3TCBE4initEv:0000000000000000 .L0 
     /tmp/ccRDBEAC.s:223    .text._ZN3stm14CircularBufferIP3TCBE4initEv:0000000000000000 .L0 
     /tmp/ccRDBEAC.s:224    .text._ZN3stm14CircularBufferIP3TCBE4initEv:0000000000000004 .L0 
     /tmp/ccRDBEAC.s:228    .text._ZN3stm14CircularBufferIP3TCBE4initEv:0000000000000010 .L0 
     /tmp/ccRDBEAC.s:229    .text._ZN3stm14CircularBufferIP3TCBE4initEv:0000000000000010 .L0 
     /tmp/ccRDBEAC.s:230    .text._ZN3stm14CircularBufferIP3TCBE4initEv:0000000000000010 .L0 
     /tmp/ccRDBEAC.s:232    .text._ZN3stm14CircularBufferIP3TCBE4initEv:0000000000000014 .L0 
     /tmp/ccRDBEAC.s:235    .text._ZN3stm14CircularBufferIP3TCBE4initEv:0000000000000018 .L0 
     /tmp/ccRDBEAC.s:237    .text._ZN3stm14CircularBufferIP3TCBE4initEv:000000000000001c .L0 
     /tmp/ccRDBEAC.s:239    .text._ZN3stm14CircularBufferIP3TCBE4initEv:0000000000000020 .L0 
     /tmp/ccRDBEAC.s:241    .text._ZN3stm14CircularBufferIP3TCBE4initEv:0000000000000024 .L0 
     /tmp/ccRDBEAC.s:244    .text._ZN3stm14CircularBufferIP3TCBE4initEv:000000000000002c .L0 
     /tmp/ccRDBEAC.s:249    .text._ZN3stm14CircularBufferIP3TCBE4initEv:0000000000000038 .L0 
     /tmp/ccRDBEAC.s:251    .text._ZN3stm14CircularBufferIP3TCBE4initEv:000000000000003c .L0 
     /tmp/ccRDBEAC.s:252    .text._ZN3stm14CircularBufferIP3TCBE4initEv:0000000000000040 .L0 
     /tmp/ccRDBEAC.s:254    .text._ZN3stm14CircularBufferIP3TCBE4initEv:0000000000000044 .L0 
     /tmp/ccRDBEAC.s:255    .text._ZN3stm14CircularBufferIP3TCBE4initEv:0000000000000044 .L0 
     /tmp/ccRDBEAC.s:257    .text._ZN3stm14CircularBufferIP3TCBE4initEv:0000000000000048 .L0 
     /tmp/ccRDBEAC.s:260    .text._ZN3stm14CircularBufferIP3TCBE4initEv:000000000000004c .L0 
     /tmp/ccRDBEAC.s:262    .text._ZN3stm14CircularBufferIP3TCBE4initEv:0000000000000050 .L0 
     /tmp/ccRDBEAC.s:269    .text._Z4initv:0000000000000000 _Z4initv
     /tmp/ccRDBEAC.s:272    .text._Z4initv:0000000000000000 .L0 
     /tmp/ccRDBEAC.s:4833   .data.rel.local.DW.ref.__gxx_personality_v0:0000000000000000 DW.ref.__gxx_personality_v0
     /tmp/ccRDBEAC.s:275    .text._Z4initv:0000000000000000 .L0 
     /tmp/ccRDBEAC.s:276    .text._Z4initv:0000000000000004 .L0 
     /tmp/ccRDBEAC.s:281    .text._Z4initv:0000000000000014 .L0 
     /tmp/ccRDBEAC.s:282    .text._Z4initv:0000000000000014 .L0 
     /tmp/ccRDBEAC.s:283    .text._Z4initv:0000000000000014 .L0 
     /tmp/ccRDBEAC.s:284    .text._Z4initv:0000000000000014 .L0 
GAS LISTING /tmp/ccRDBEAC.s 			page 18


     /tmp/ccRDBEAC.s:286    .text._Z4initv:0000000000000018 .L0 
     /tmp/ccRDBEAC.s:288    .text._Z4initv:0000000000000018 .L0 
     /tmp/ccRDBEAC.s:289    .text._Z4initv:0000000000000018 .L0 
     /tmp/ccRDBEAC.s:295    .text._Z4initv:0000000000000024 .L0 
        src/main.cpp:21     .text._Z4initv:0000000000000024 .L0 
     /tmp/ccRDBEAC.s:300    .text._Z4initv:0000000000000028 .L0 
        src/main.cpp:22     .text._Z4initv:0000000000000028 .L0 
     /tmp/ccRDBEAC.s:306    .text._Z4initv:000000000000002c .L0 
     /tmp/ccRDBEAC.s:308    .text._Z4initv:000000000000002c .L0 
     /tmp/ccRDBEAC.s:311    .text._Z4initv:0000000000000034 .L0 
     /tmp/ccRDBEAC.s:312    .text._Z4initv:0000000000000034 .L0 
     /tmp/ccRDBEAC.s:318    .text._Z4initv:000000000000003c .L0 
     /tmp/ccRDBEAC.s:319    .text._Z4initv:000000000000003c .L0 
     /tmp/ccRDBEAC.s:320    .text._Z4initv:000000000000003c .L0 
     /tmp/ccRDBEAC.s:324    .text._Z4initv:000000000000004c .L0 
     /tmp/ccRDBEAC.s:325    .text._Z4initv:000000000000004c .L0 
     /tmp/ccRDBEAC.s:329    .text._Z4initv:000000000000005c .L0 
     /tmp/ccRDBEAC.s:330    .text._Z4initv:000000000000005c .L0 
     /tmp/ccRDBEAC.s:336    .text._Z4initv:000000000000006c .L0 
     /tmp/ccRDBEAC.s:337    .text._Z4initv:000000000000006c .L0 
     /tmp/ccRDBEAC.s:347    .text._Z4initv:0000000000000084 .L0 
     /tmp/ccRDBEAC.s:349    .text._Z4initv:000000000000008c .L0 
     /tmp/ccRDBEAC.s:350    .text._Z4initv:000000000000008c .L0 
     /tmp/ccRDBEAC.s:351    .text._Z4initv:000000000000008c .L0 
     /tmp/ccRDBEAC.s:358    .text._Z4initv:00000000000000a0 .L0 
     /tmp/ccRDBEAC.s:359    .text._Z4initv:00000000000000a0 .L0 
     /tmp/ccRDBEAC.s:363    .text._Z4initv:00000000000000b0 .L0 
     /tmp/ccRDBEAC.s:364    .text._Z4initv:00000000000000b0 .L0 
     /tmp/ccRDBEAC.s:371    .text._Z4initv:00000000000000cc .L0 
     /tmp/ccRDBEAC.s:372    .text._Z4initv:00000000000000d0 .L0 
     /tmp/ccRDBEAC.s:373    .text._Z4initv:00000000000000d0 .L0 
     /tmp/ccRDBEAC.s:375    .text._Z4initv:00000000000000d4 .L0 
     /tmp/ccRDBEAC.s:376    .text._Z4initv:00000000000000d4 .L0 
     /tmp/ccRDBEAC.s:378    .text._Z4initv:00000000000000d8 .L0 
     /tmp/ccRDBEAC.s:380    .text._Z4initv:00000000000000dc .L0 
     /tmp/ccRDBEAC.s:382    .text._Z4initv:00000000000000e0 .L0 
     /tmp/ccRDBEAC.s:385    .text._Z4initv:00000000000000e4 .L0 
     /tmp/ccRDBEAC.s:388    .text._Z4initv:00000000000000e8 .L0 
     /tmp/ccRDBEAC.s:396    .text._Z4initv:0000000000000100 .L0 
     /tmp/ccRDBEAC.s:427    .text:000000000000011c main
     /tmp/ccRDBEAC.s:430    .text:000000000000011c .L0 
     /tmp/ccRDBEAC.s:431    .text:000000000000011c .L0 
     /tmp/ccRDBEAC.s:432    .text:0000000000000120 .L0 
     /tmp/ccRDBEAC.s:435    .text:0000000000000128 .L0 
     /tmp/ccRDBEAC.s:436    .text:0000000000000128 .L0 
     /tmp/ccRDBEAC.s:438    .text:000000000000012c .L0 
     /tmp/ccRDBEAC.s:440    .text:000000000000012c .L0 
     /tmp/ccRDBEAC.s:441    .text:000000000000012c .L0 
     /tmp/ccRDBEAC.s:444    .text:0000000000000134 .L0 
     /tmp/ccRDBEAC.s:445    .text:0000000000000134 .L0 
     /tmp/ccRDBEAC.s:448    .text:000000000000013c .L0 
     /tmp/ccRDBEAC.s:449    .text:000000000000013c .L0 
     /tmp/ccRDBEAC.s:452    .text:0000000000000144 .L0 
     /tmp/ccRDBEAC.s:453    .text:0000000000000148 .L0 
     /tmp/ccRDBEAC.s:455    .text:000000000000014c .L0 
     /tmp/ccRDBEAC.s:456    .text:000000000000014c .L0 
     /tmp/ccRDBEAC.s:458    .text:0000000000000150 .L0 
GAS LISTING /tmp/ccRDBEAC.s 			page 19


     /tmp/ccRDBEAC.s:460    .text:0000000000000154 .L0 
     /tmp/ccRDBEAC.s:470    .bss:0000000000000000 printer
     /tmp/ccRDBEAC.s:474    .bss:0000000000000008 handle_bleya
     /tmp/ccRDBEAC.s:467    .bss:0000000000000000 .LANCHOR0
     /tmp/ccRDBEAC.s:484    .text:0000000000000154 .L0 
     /tmp/ccRDBEAC.s:265    .text._ZN3stm14CircularBufferIP3TCBE4initEv:0000000000000050 .L0 
     /tmp/ccRDBEAC.s:423    .text._Z4initv:0000000000000100 .L0 
     /tmp/ccRDBEAC.s:93     .text:0000000000000068 .L0 
     /tmp/ccRDBEAC.s:118    .rodata.str1.8:0000000000000000 .LC0
     /tmp/ccRDBEAC.s:161    .text:00000000000000bc .L0 
     /tmp/ccRDBEAC.s:121    .rodata.str1.8:0000000000000028 .LC1
     /tmp/ccRDBEAC.s:172    .text:00000000000000d8 .L0 
     /tmp/ccRDBEAC.s:185    .text:00000000000000e8 .L0 
     /tmp/ccRDBEAC.s:22     .text:0000000000000010 .L2
     /tmp/ccRDBEAC.s:175    .text:00000000000000e8 .L9
     /tmp/ccRDBEAC.s:289    .text._Z4initv:0000000000000018 .L0 
     /tmp/ccRDBEAC.s:320    .text._Z4initv:000000000000003c .L0 
     /tmp/ccRDBEAC.s:325    .text._Z4initv:000000000000004c .L0 
     /tmp/ccRDBEAC.s:330    .text._Z4initv:000000000000005c .L0 
     /tmp/ccRDBEAC.s:347    .text._Z4initv:0000000000000084 .L0 
     /tmp/ccRDBEAC.s:359    .text._Z4initv:00000000000000a0 .L0 
     /tmp/ccRDBEAC.s:365    .text._Z4initv:00000000000000b4 .L0 
     /tmp/ccRDBEAC.s:366    .text._Z4initv:00000000000000bc .L0 
     /tmp/ccRDBEAC.s:305    .text._Z4initv:000000000000002c .LEHB0
     /tmp/ccRDBEAC.s:270    .text._Z4initv:0000000000000000 .LFB48
     /tmp/ccRDBEAC.s:340    .text._Z4initv:0000000000000078 .LEHE0
     /tmp/ccRDBEAC.s:342    .text._Z4initv:000000000000007c .LEHB1
     /tmp/ccRDBEAC.s:345    .text._Z4initv:0000000000000084 .LEHE1
     /tmp/ccRDBEAC.s:384    .text._Z4initv:00000000000000e4 .L15
     /tmp/ccRDBEAC.s:354    .text._Z4initv:0000000000000098 .LEHB2
     /tmp/ccRDBEAC.s:369    .text._Z4initv:00000000000000cc .LEHE2
     /tmp/ccRDBEAC.s:392    .text._Z4initv:00000000000000f8 .LEHB3
     /tmp/ccRDBEAC.s:395    .text._Z4initv:0000000000000100 .LEHE3
     /tmp/ccRDBEAC.s:2787   .debug_abbrev:0000000000000000 .Ldebug_abbrev0
     /tmp/ccRDBEAC.s:4701   .debug_str:0000000000000d40 .LASF265
     /tmp/ccRDBEAC.s:4403   .debug_str:0000000000000456 .LASF266
     /tmp/ccRDBEAC.s:4421   .debug_str:00000000000004c8 .LASF267
     /tmp/ccRDBEAC.s:4255   .debug_ranges:0000000000000000 .Ldebug_ranges0
     /tmp/ccRDBEAC.s:4265   .debug_line:0000000000000000 .Ldebug_line0
     /tmp/ccRDBEAC.s:4457   .debug_str:0000000000000616 .LASF0
     /tmp/ccRDBEAC.s:4503   .debug_str:0000000000000791 .LASF1
     /tmp/ccRDBEAC.s:4635   .debug_str:0000000000000b66 .LASF2
     /tmp/ccRDBEAC.s:4641   .debug_str:0000000000000ba0 .LASF4
     /tmp/ccRDBEAC.s:4475   .debug_str:00000000000006a5 .LASF3
     /tmp/ccRDBEAC.s:4289   .debug_str:00000000000000b4 .LASF5
     /tmp/ccRDBEAC.s:4603   .debug_str:0000000000000a97 .LASF6
     /tmp/ccRDBEAC.s:4589   .debug_str:0000000000000a33 .LASF7
     /tmp/ccRDBEAC.s:4491   .debug_str:0000000000000736 .LASF8
     /tmp/ccRDBEAC.s:4415   .debug_str:000000000000048b .LASF9
     /tmp/ccRDBEAC.s:4427   .debug_str:0000000000000525 .LASF10
     /tmp/ccRDBEAC.s:4331   .debug_str:0000000000000217 .LASF11
     /tmp/ccRDBEAC.s:4399   .debug_str:0000000000000432 .LASF12
     /tmp/ccRDBEAC.s:4353   .debug_str:00000000000002ae .LASF13
     /tmp/ccRDBEAC.s:4329   .debug_str:0000000000000207 .LASF14
     /tmp/ccRDBEAC.s:4677   .debug_str:0000000000000ca1 .LASF15
     /tmp/ccRDBEAC.s:4385   .debug_str:00000000000003dc .LASF16
     /tmp/ccRDBEAC.s:4661   .debug_str:0000000000000c2a .LASF17
GAS LISTING /tmp/ccRDBEAC.s 			page 20


     /tmp/ccRDBEAC.s:4765   .debug_str:0000000000001043 .LASF18
     /tmp/ccRDBEAC.s:4509   .debug_str:00000000000007b5 .LASF26
     /tmp/ccRDBEAC.s:4277   .debug_str:0000000000000037 .LASF28
     /tmp/ccRDBEAC.s:4695   .debug_str:0000000000000d1e .LASF19
     /tmp/ccRDBEAC.s:4533   .debug_str:0000000000000873 .LASF21
     /tmp/ccRDBEAC.s:4657   .debug_str:0000000000000c10 .LASF20
     /tmp/ccRDBEAC.s:4707   .debug_str:0000000000000e1b .LASF22
     /tmp/ccRDBEAC.s:4739   .debug_str:0000000000000f5e .LASF23
     /tmp/ccRDBEAC.s:4429   .debug_str:0000000000000533 .LASF24
     /tmp/ccRDBEAC.s:4495   .debug_str:0000000000000757 .LASF25
     /tmp/ccRDBEAC.s:4315   .debug_str:00000000000001b1 .LASF91
     /tmp/ccRDBEAC.s:4565   .debug_str:0000000000000975 .LASF93
     /tmp/ccRDBEAC.s:4721   .debug_str:0000000000000ec3 .LASF27
     /tmp/ccRDBEAC.s:4763   .debug_str:0000000000001031 .LASF29
     /tmp/ccRDBEAC.s:4591   .debug_str:0000000000000a46 .LASF30
     /tmp/ccRDBEAC.s:4811   .debug_str:0000000000001196 .LASF31
     /tmp/ccRDBEAC.s:4525   .debug_str:0000000000000832 .LASF32
     /tmp/ccRDBEAC.s:4361   .debug_str:00000000000002f4 .LASF33
     /tmp/ccRDBEAC.s:4507   .debug_str:00000000000007af .LASF34
     /tmp/ccRDBEAC.s:4709   .debug_str:0000000000000e37 .LASF35
     /tmp/ccRDBEAC.s:4537   .debug_str:0000000000000892 .LASF36
     /tmp/ccRDBEAC.s:4717   .debug_str:0000000000000e81 .LASF37
     /tmp/ccRDBEAC.s:4773   .debug_str:0000000000001071 .LASF38
     /tmp/ccRDBEAC.s:4367   .debug_str:0000000000000343 .LASF39
     /tmp/ccRDBEAC.s:4541   .debug_str:00000000000008cc .LASF40
     /tmp/ccRDBEAC.s:4679   .debug_str:0000000000000cad .LASF41
     /tmp/ccRDBEAC.s:4723   .debug_str:0000000000000ec9 .LASF42
     /tmp/ccRDBEAC.s:4757   .debug_str:0000000000000ff5 .LASF44
     /tmp/ccRDBEAC.s:4787   .debug_str:00000000000010c4 .LASF43
     /tmp/ccRDBEAC.s:4307   .debug_str:0000000000000143 .LASF45
     /tmp/ccRDBEAC.s:4597   .debug_str:0000000000000a71 .LASF46
     /tmp/ccRDBEAC.s:4363   .debug_str:0000000000000319 .LASF47
     /tmp/ccRDBEAC.s:4529   .debug_str:0000000000000848 .LASF48
     /tmp/ccRDBEAC.s:4801   .debug_str:0000000000001144 .LASF49
     /tmp/ccRDBEAC.s:4583   .debug_str:00000000000009fb .LASF50
     /tmp/ccRDBEAC.s:4559   .debug_str:0000000000000950 .LASF51
     /tmp/ccRDBEAC.s:4327   .debug_str:00000000000001f9 .LASF52
     /tmp/ccRDBEAC.s:4455   .debug_str:0000000000000610 .LASF53
     /tmp/ccRDBEAC.s:4291   .debug_str:00000000000000bb .LASF54
     /tmp/ccRDBEAC.s:4305   .debug_str:000000000000013d .LASF55
     /tmp/ccRDBEAC.s:4647   .debug_str:0000000000000bc1 .LASF56
     /tmp/ccRDBEAC.s:4573   .debug_str:00000000000009a3 .LASF57
     /tmp/ccRDBEAC.s:4325   .debug_str:00000000000001e8 .LASF58
     /tmp/ccRDBEAC.s:4535   .debug_str:000000000000088b .LASF59
     /tmp/ccRDBEAC.s:4397   .debug_str:0000000000000421 .LASF60
     /tmp/ccRDBEAC.s:4671   .debug_str:0000000000000c7a .LASF61
     /tmp/ccRDBEAC.s:4467   .debug_str:000000000000064a .LASF62
     /tmp/ccRDBEAC.s:4299   .debug_str:00000000000000ff .LASF63
     /tmp/ccRDBEAC.s:4381   .debug_str:00000000000003af .LASF64
     /tmp/ccRDBEAC.s:4431   .debug_str:000000000000054d .LASF65
     /tmp/ccRDBEAC.s:4309   .debug_str:000000000000015a .LASF66
     /tmp/ccRDBEAC.s:4711   .debug_str:0000000000000e47 .LASF67
     /tmp/ccRDBEAC.s:4471   .debug_str:000000000000066e .LASF68
     /tmp/ccRDBEAC.s:4477   .debug_str:00000000000006b7 .LASF69
     /tmp/ccRDBEAC.s:4785   .debug_str:00000000000010aa .LASF70
     /tmp/ccRDBEAC.s:4405   .debug_str:0000000000000463 .LASF71
     /tmp/ccRDBEAC.s:4697   .debug_str:0000000000000d2b .LASF72
GAS LISTING /tmp/ccRDBEAC.s 			page 21


     /tmp/ccRDBEAC.s:4741   .debug_str:0000000000000f6b .LASF73
     /tmp/ccRDBEAC.s:4443   .debug_str:0000000000000590 .LASF74
     /tmp/ccRDBEAC.s:4805   .debug_str:000000000000116d .LASF75
     /tmp/ccRDBEAC.s:4371   .debug_str:0000000000000362 .LASF76
     /tmp/ccRDBEAC.s:4727   .debug_str:0000000000000ee1 .LASF77
     /tmp/ccRDBEAC.s:4761   .debug_str:000000000000102a .LASF78
     /tmp/ccRDBEAC.s:4623   .debug_str:0000000000000b17 .LASF79
     /tmp/ccRDBEAC.s:4729   .debug_str:0000000000000ee9 .LASF80
     /tmp/ccRDBEAC.s:4515   .debug_str:00000000000007df .LASF81
     /tmp/ccRDBEAC.s:4319   .debug_str:00000000000001c9 .LASF82
     /tmp/ccRDBEAC.s:4323   .debug_str:00000000000001dc .LASF213
     /tmp/ccRDBEAC.s:4333   .debug_str:0000000000000226 .LASF83
     /tmp/ccRDBEAC.s:4501   .debug_str:000000000000078c .LASF84
     /tmp/ccRDBEAC.s:4267   .debug_str:0000000000000000 .LASF85
     /tmp/ccRDBEAC.s:4473   .debug_str:0000000000000689 .LASF86
     /tmp/ccRDBEAC.s:4469   .debug_str:0000000000000664 .LASF87
     /tmp/ccRDBEAC.s:4377   .debug_str:000000000000037e .LASF88
     /tmp/ccRDBEAC.s:4655   .debug_str:0000000000000c07 .LASF89
     /tmp/ccRDBEAC.s:4735   .debug_str:0000000000000f1d .LASF90
     /tmp/ccRDBEAC.s:4755   .debug_str:0000000000000feb .LASF92
     /tmp/ccRDBEAC.s:4345   .debug_str:0000000000000271 .LASF94
     /tmp/ccRDBEAC.s:4557   .debug_str:0000000000000947 .LASF95
     /tmp/ccRDBEAC.s:4823   .debug_str:00000000000011f6 .LASF96
     /tmp/ccRDBEAC.s:4659   .debug_str:0000000000000c21 .LASF97
     /tmp/ccRDBEAC.s:4639   .debug_str:0000000000000b87 .LASF98
     /tmp/ccRDBEAC.s:4301   .debug_str:000000000000010d .LASF99
     /tmp/ccRDBEAC.s:4749   .debug_str:0000000000000f89 .LASF100
     /tmp/ccRDBEAC.s:4817   .debug_str:00000000000011d8 .LASF268
     /tmp/ccRDBEAC.s:4517   .debug_str:00000000000007e6 .LASF269
     /tmp/ccRDBEAC.s:4519   .debug_str:0000000000000810 .LASF180
     /tmp/ccRDBEAC.s:4543   .debug_str:00000000000008eb .LASF227
     /tmp/ccRDBEAC.s:4621   .debug_str:0000000000000b12 .LASF101
     /tmp/ccRDBEAC.s:4391   .debug_str:000000000000040f .LASF102
     /tmp/ccRDBEAC.s:4389   .debug_str:0000000000000400 .LASF270
     /tmp/ccRDBEAC.s:4725   .debug_str:0000000000000ed5 .LASF103
     /tmp/ccRDBEAC.s:4699   .debug_str:0000000000000d33 .LASF104
     /tmp/ccRDBEAC.s:4451   .debug_str:00000000000005ec .LASF105
     /tmp/ccRDBEAC.s:4593   .debug_str:0000000000000a53 .LASF106
     /tmp/ccRDBEAC.s:4483   .debug_str:00000000000006f0 .LASF107
     /tmp/ccRDBEAC.s:4703   .debug_str:0000000000000e04 .LASF108
     /tmp/ccRDBEAC.s:4759   .debug_str:000000000000100d .LASF109
     /tmp/ccRDBEAC.s:4579   .debug_str:00000000000009d7 .LASF110
     /tmp/ccRDBEAC.s:4715   .debug_str:0000000000000e65 .LASF111
     /tmp/ccRDBEAC.s:4781   .debug_str:0000000000001092 .LASF112
     /tmp/ccRDBEAC.s:4815   .debug_str:00000000000011bb .LASF113
     /tmp/ccRDBEAC.s:4441   .debug_str:0000000000000585 .LASF114
     /tmp/ccRDBEAC.s:4453   .debug_str:00000000000005f8 .LASF115
     /tmp/ccRDBEAC.s:4793   .debug_str:00000000000010ec .LASF116
     /tmp/ccRDBEAC.s:4617   .debug_str:0000000000000aea .LASF117
     /tmp/ccRDBEAC.s:4461   .debug_str:0000000000000633 .LASF118
     /tmp/ccRDBEAC.s:4281   .debug_str:000000000000006d .LASF119
     /tmp/ccRDBEAC.s:4629   .debug_str:0000000000000b42 .LASF271
     /tmp/ccRDBEAC.s:4745   .debug_str:0000000000000f75 .LASF120
     /tmp/ccRDBEAC.s:4285   .debug_str:0000000000000097 .LASF121
     /tmp/ccRDBEAC.s:4631   .debug_str:0000000000000b52 .LASF122
     /tmp/ccRDBEAC.s:4297   .debug_str:00000000000000ea .LASF123
     /tmp/ccRDBEAC.s:4609   .debug_str:0000000000000ab7 .LASF124
GAS LISTING /tmp/ccRDBEAC.s 			page 22


     /tmp/ccRDBEAC.s:4613   .debug_str:0000000000000ac3 .LASF125
     /tmp/ccRDBEAC.s:4567   .debug_str:0000000000000985 .LASF126
     /tmp/ccRDBEAC.s:4637   .debug_str:0000000000000b74 .LASF127
     /tmp/ccRDBEAC.s:4783   .debug_str:00000000000010a2 .LASF128
     /tmp/ccRDBEAC.s:4673   .debug_str:0000000000000c88 .LASF129
     /tmp/ccRDBEAC.s:4561   .debug_str:0000000000000968 .LASF130
     /tmp/ccRDBEAC.s:4577   .debug_str:00000000000009c3 .LASF131
     /tmp/ccRDBEAC.s:4555   .debug_str:000000000000093f .LASF132
     /tmp/ccRDBEAC.s:4615   .debug_str:0000000000000ad6 .LASF133
     /tmp/ccRDBEAC.s:4665   .debug_str:0000000000000c58 .LASF134
     /tmp/ccRDBEAC.s:4753   .debug_str:0000000000000fd7 .LASF135
     /tmp/ccRDBEAC.s:4791   .debug_str:00000000000010e5 .LASF136
     /tmp/ccRDBEAC.s:4643   .debug_str:0000000000000ba7 .LASF137
     /tmp/ccRDBEAC.s:4645   .debug_str:0000000000000bba .LASF138
     /tmp/ccRDBEAC.s:4337   .debug_str:0000000000000232 .LASF139
     /tmp/ccRDBEAC.s:4375   .debug_str:0000000000000378 .LASF140
     /tmp/ccRDBEAC.s:4295   .debug_str:00000000000000d8 .LASF141
     /tmp/ccRDBEAC.s:4465   .debug_str:0000000000000644 .LASF142
     /tmp/ccRDBEAC.s:4365   .debug_str:0000000000000331 .LASF143
     /tmp/ccRDBEAC.s:4807   .debug_str:0000000000001173 .LASF144
     /tmp/ccRDBEAC.s:4663   .debug_str:0000000000000c40 .LASF145
     /tmp/ccRDBEAC.s:4633   .debug_str:0000000000000b5b .LASF146
     /tmp/ccRDBEAC.s:4809   .debug_str:000000000000117e .LASF147
     /tmp/ccRDBEAC.s:4777   .debug_str:0000000000001080 .LASF148
     /tmp/ccRDBEAC.s:4789   .debug_str:00000000000010cf .LASF149
     /tmp/ccRDBEAC.s:4767   .debug_str:000000000000104c .LASF150
     /tmp/ccRDBEAC.s:4545   .debug_str:00000000000008f8 .LASF151
     /tmp/ccRDBEAC.s:4569   .debug_str:000000000000098c .LASF152
     /tmp/ccRDBEAC.s:4311   .debug_str:0000000000000175 .LASF153
     /tmp/ccRDBEAC.s:4401   .debug_str:0000000000000441 .LASF154
     /tmp/ccRDBEAC.s:4611   .debug_str:0000000000000abe .LASF155
     /tmp/ccRDBEAC.s:4357   .debug_str:00000000000002c7 .LASF156
     /tmp/ccRDBEAC.s:4751   .debug_str:0000000000000fb6 .LASF157
     /tmp/ccRDBEAC.s:4341   .debug_str:000000000000024a .LASF174
     /tmp/ccRDBEAC.s:4499   .debug_str:0000000000000787 .LASF158
     /tmp/ccRDBEAC.s:4683   .debug_str:0000000000000cc3 .LASF159
     /tmp/ccRDBEAC.s:4625   .debug_str:0000000000000b22 .LASF160
     /tmp/ccRDBEAC.s:4423   .debug_str:00000000000004e6 .LASF161
     /tmp/ccRDBEAC.s:4731   .debug_str:0000000000000ef3 .LASF162
     /tmp/ccRDBEAC.s:4649   .debug_str:0000000000000bd1 .LASF163
     /tmp/ccRDBEAC.s:4351   .debug_str:00000000000002a7 .LASF164
     /tmp/ccRDBEAC.s:4313   .debug_str:000000000000018d .LASF165
     /tmp/ccRDBEAC.s:4433   .debug_str:000000000000055d .LASF166
     /tmp/ccRDBEAC.s:4393   .debug_str:0000000000000415 .LASF167
     /tmp/ccRDBEAC.s:4667   .debug_str:0000000000000c60 .LASF168
     /tmp/ccRDBEAC.s:4563   .debug_str:0000000000000970 .LASF169
     /tmp/ccRDBEAC.s:4271   .debug_str:0000000000000013 .LASF170
     /tmp/ccRDBEAC.s:4273   .debug_str:000000000000001c .LASF171
     /tmp/ccRDBEAC.s:4799   .debug_str:000000000000111e .LASF172
     /tmp/ccRDBEAC.s:4303   .debug_str:0000000000000116 .LASF173
     /tmp/ccRDBEAC.s:4585   .debug_str:0000000000000a07 .LASF175
     /tmp/ccRDBEAC.s:4719   .debug_str:0000000000000e9d .LASF176
     /tmp/ccRDBEAC.s:4539   .debug_str:00000000000008a1 .LASF177
     /tmp/ccRDBEAC.s:4445   .debug_str:0000000000000595 .LASF178
     /tmp/ccRDBEAC.s:4737   .debug_str:0000000000000f36 .LASF179
     /tmp/ccRDBEAC.s:4413   .debug_str:0000000000000483 .LASF272
     /tmp/ccRDBEAC.s:4287   .debug_str:00000000000000ac .LASF181
GAS LISTING /tmp/ccRDBEAC.s 			page 23


     /tmp/ccRDBEAC.s:4689   .debug_str:0000000000000cfd .LASF182
     /tmp/ccRDBEAC.s:4481   .debug_str:00000000000006db .LASF183
     /tmp/ccRDBEAC.s:4627   .debug_str:0000000000000b2b .LASF184
     /tmp/ccRDBEAC.s:4531   .debug_str:0000000000000852 .LASF185
     /tmp/ccRDBEAC.s:4511   .debug_str:00000000000007c4 .LASF186
     /tmp/ccRDBEAC.s:4489   .debug_str:0000000000000721 .LASF187
     /tmp/ccRDBEAC.s:4497   .debug_str:0000000000000772 .LASF188
     /tmp/ccRDBEAC.s:4447   .debug_str:00000000000005be .LASF189
     /tmp/ccRDBEAC.s:4479   .debug_str:00000000000006c6 .LASF190
     /tmp/ccRDBEAC.s:4733   .debug_str:0000000000000efb .LASF191
     /tmp/ccRDBEAC.s:4335   .debug_str:000000000000022b .LASF192
     /tmp/ccRDBEAC.s:4339   .debug_str:0000000000000245 .LASF193
     /tmp/ccRDBEAC.s:4795   .debug_str:00000000000010fe .LASF195
     /tmp/ccRDBEAC.s:4675   .debug_str:0000000000000c9c .LASF194
     /tmp/ccRDBEAC.s:4347   .debug_str:000000000000028b .LASF196
     /tmp/ccRDBEAC.s:4685   .debug_str:0000000000000ce5 .LASF197
     /tmp/ccRDBEAC.s:4523   .debug_str:0000000000000829 .LASF198
     /tmp/ccRDBEAC.s:4383   .debug_str:00000000000003c8 .LASF199
     /tmp/ccRDBEAC.s:4687   .debug_str:0000000000000cea .LASF200
     /tmp/ccRDBEAC.s:4605   .debug_str:0000000000000a9e .LASF201
     /tmp/ccRDBEAC.s:4575   .debug_str:00000000000009aa .LASF202
     /tmp/ccRDBEAC.s:4653   .debug_str:0000000000000c00 .LASF203
     /tmp/ccRDBEAC.s:4369   .debug_str:000000000000035c .LASF204
     /tmp/ccRDBEAC.s:4493   .debug_str:0000000000000749 .LASF205
     /tmp/ccRDBEAC.s:4513   .debug_str:00000000000007d9 .LASF206
     /tmp/ccRDBEAC.s:4713   .debug_str:0000000000000e56 .LASF207
     /tmp/ccRDBEAC.s:4343   .debug_str:000000000000026b .LASF208
     /tmp/ccRDBEAC.s:4769   .debug_str:0000000000001056 .LASF209
     /tmp/ccRDBEAC.s:4607   .debug_str:0000000000000ab1 .LASF210
     /tmp/ccRDBEAC.s:4527   .debug_str:0000000000000841 .LASF211
     /tmp/ccRDBEAC.s:4485   .debug_str:0000000000000712 .LASF212
     /tmp/ccRDBEAC.s:4681   .debug_str:0000000000000cbb .LASF214
     /tmp/ccRDBEAC.s:4779   .debug_str:000000000000108a .LASF215
     /tmp/ccRDBEAC.s:4775   .debug_str:000000000000107b .LASF216
     /tmp/ccRDBEAC.s:4693   .debug_str:0000000000000d17 .LASF273
     /tmp/ccRDBEAC.s:4619   .debug_str:0000000000000b09 .LASF217
     /tmp/ccRDBEAC.s:4269   .debug_str:000000000000000b .LASF218
     /tmp/ccRDBEAC.s:4355   .debug_str:00000000000002be .LASF219
     /tmp/ccRDBEAC.s:4705   .debug_str:0000000000000e14 .LASF220
     /tmp/ccRDBEAC.s:4321   .debug_str:00000000000001d3 .LASF221
     /tmp/ccRDBEAC.s:4651   .debug_str:0000000000000bf6 .LASF222
     /tmp/ccRDBEAC.s:4669   .debug_str:0000000000000c65 .LASF223
     /tmp/ccRDBEAC.s:4449   .debug_str:00000000000005d4 .LASF274
     /tmp/ccRDBEAC.s:4803   .debug_str:0000000000001159 .LASF275
     /tmp/ccRDBEAC.s:4283   .debug_str:000000000000007e .LASF224
     /tmp/ccRDBEAC.s:4379   .debug_str:000000000000039a .LASF225
     /tmp/ccRDBEAC.s:4317   .debug_str:00000000000001b7 .LASF226
     /tmp/ccRDBEAC.s:4387   .debug_str:00000000000003f2 .LASF228
     /tmp/ccRDBEAC.s:4521   .debug_str:000000000000081c .LASF229
     /tmp/ccRDBEAC.s:4293   .debug_str:00000000000000cb .LASF230
     /tmp/ccRDBEAC.s:4349   .debug_str:0000000000000299 .LASF231
     /tmp/ccRDBEAC.s:4279   .debug_str:0000000000000060 .LASF232
     /tmp/ccRDBEAC.s:4747   .debug_str:0000000000000f7e .LASF233
     /tmp/ccRDBEAC.s:4435   .debug_str:0000000000000566 .LASF234
     /tmp/ccRDBEAC.s:219    .text._ZN3stm14CircularBufferIP3TCBE4initEv:0000000000000000 .LFB54
     /tmp/ccRDBEAC.s:263    .text._ZN3stm14CircularBufferIP3TCBE4initEv:0000000000000050 .LFE54
     /tmp/ccRDBEAC.s:4407   .debug_str:0000000000000471 .LASF245
GAS LISTING /tmp/ccRDBEAC.s 			page 24


     /tmp/ccRDBEAC.s:4173   .debug_loc:0000000000000000 .LLST3
     /tmp/ccRDBEAC.s:247    .text._ZN3stm14CircularBufferIP3TCBE4initEv:0000000000000038 .LVL17
     /tmp/ccRDBEAC.s:4409   .debug_str:0000000000000476 .LASF235
     /tmp/ccRDBEAC.s:428    .text:000000000000011c .LFB52
     /tmp/ccRDBEAC.s:461    .text:0000000000000154 .LFE52
     /tmp/ccRDBEAC.s:4191   .debug_loc:000000000000004c .LLST4
     /tmp/ccRDBEAC.s:442    .text:0000000000000134 .LVL30
     /tmp/ccRDBEAC.s:446    .text:000000000000013c .LVL31
     /tmp/ccRDBEAC.s:450    .text:0000000000000144 .LVL32
     /tmp/ccRDBEAC.s:4411   .debug_str:000000000000047b .LASF276
     /tmp/ccRDBEAC.s:128    .text:000000000000009c .LFB51
     /tmp/ccRDBEAC.s:212    .text:000000000000011c .LFE51
     /tmp/ccRDBEAC.s:4198   .debug_loc:000000000000006f .LLST1
     /tmp/ccRDBEAC.s:145    .text:00000000000000b4 .LBB10
     /tmp/ccRDBEAC.s:158    .text:00000000000000bc .LBE10
     /tmp/ccRDBEAC.s:4212   .debug_loc:00000000000000a8 .LLST2
     /tmp/ccRDBEAC.s:180    .text:00000000000000e8 .LBB12
     /tmp/ccRDBEAC.s:190    .text:00000000000000f4 .LBE12
     /tmp/ccRDBEAC.s:181    .text:00000000000000e8 .LBB13
     /tmp/ccRDBEAC.s:189    .text:00000000000000f4 .LBE13
     /tmp/ccRDBEAC.s:164    .text:00000000000000cc .LVL10
     /tmp/ccRDBEAC.s:169    .text:00000000000000d8 .LVL11
     /tmp/ccRDBEAC.s:174    .text:00000000000000e8 .LVL12
     /tmp/ccRDBEAC.s:197    .text:0000000000000104 .LVL14
     /tmp/ccRDBEAC.s:4743   .debug_str:0000000000000f70 .LASF236
     /tmp/ccRDBEAC.s:4439   .debug_str:000000000000057c .LASF243
     /tmp/ccRDBEAC.s:77     .text:0000000000000054 .LFB50
     /tmp/ccRDBEAC.s:114    .text:000000000000009c .LFE50
     /tmp/ccRDBEAC.s:4505   .debug_str:00000000000007a4 .LASF237
     /tmp/ccRDBEAC.s:96     .text:000000000000007c .LVL4
     /tmp/ccRDBEAC.s:101    .text:0000000000000088 .LVL5
     /tmp/ccRDBEAC.s:4417   .debug_str:000000000000049b .LASF238
     /tmp/ccRDBEAC.s:4797   .debug_str:000000000000110c .LASF239
     /tmp/ccRDBEAC.s:37     .text:000000000000001c .LFB49
     /tmp/ccRDBEAC.s:71     .text:0000000000000054 .LFE49
     /tmp/ccRDBEAC.s:4220   .debug_loc:00000000000000cc .LLST0
     /tmp/ccRDBEAC.s:55     .text:000000000000003c .LVL2
     /tmp/ccRDBEAC.s:4487   .debug_str:0000000000000718 .LASF240
     /tmp/ccRDBEAC.s:397    .text._Z4initv:0000000000000100 .LFE48
     /tmp/ccRDBEAC.s:4771   .debug_str:0000000000001065 .LASF241
     /tmp/ccRDBEAC.s:315    .text._Z4initv:000000000000003c .LBB17
     /tmp/ccRDBEAC.s:334    .text._Z4initv:000000000000006c .LBE17
     /tmp/ccRDBEAC.s:322    .text._Z4initv:000000000000004c .LVL21
     /tmp/ccRDBEAC.s:327    .text._Z4initv:000000000000005c .LVL22
     /tmp/ccRDBEAC.s:332    .text._Z4initv:000000000000006c .LVL23
     /tmp/ccRDBEAC.s:309    .text._Z4initv:0000000000000034 .LVL19
     /tmp/ccRDBEAC.s:313    .text._Z4initv:000000000000003c .LVL20
     /tmp/ccRDBEAC.s:339    .text._Z4initv:0000000000000078 .LVL24
     /tmp/ccRDBEAC.s:344    .text._Z4initv:0000000000000084 .LVL25
     /tmp/ccRDBEAC.s:356    .text._Z4initv:00000000000000a0 .LVL26
     /tmp/ccRDBEAC.s:368    .text._Z4initv:00000000000000cc .LVL27
     /tmp/ccRDBEAC.s:390    .text._Z4initv:00000000000000f4 .LVL28
     /tmp/ccRDBEAC.s:394    .text._Z4initv:0000000000000100 .LVL29
     /tmp/ccRDBEAC.s:4821   .debug_str:00000000000011ec .LASF242
     /tmp/ccRDBEAC.s:4373   .debug_str:0000000000000369 .LASF244
     /tmp/ccRDBEAC.s:10     .text:0000000000000000 .LFB47
     /tmp/ccRDBEAC.s:31     .text:000000000000001c .LFE47
GAS LISTING /tmp/ccRDBEAC.s 			page 25


     /tmp/ccRDBEAC.s:27     .text:0000000000000018 .LVL0
     /tmp/ccRDBEAC.s:4551   .debug_str:0000000000000925 .LASF277
     /tmp/ccRDBEAC.s:4437   .debug_str:000000000000056e .LASF246
     /tmp/ccRDBEAC.s:4549   .debug_str:000000000000091b .LASF248
     /tmp/ccRDBEAC.s:4463   .debug_str:0000000000000638 .LASF247
     /tmp/ccRDBEAC.s:4275   .debug_str:0000000000000031 .LASF249
     /tmp/ccRDBEAC.s:4599   .debug_str:0000000000000a7d .LASF250
     /tmp/ccRDBEAC.s:4601   .debug_str:0000000000000a87 .LASF251
     /tmp/ccRDBEAC.s:4359   .debug_str:00000000000002e9 .LASF252
     /tmp/ccRDBEAC.s:4419   .debug_str:00000000000004a7 .LASF253
     /tmp/ccRDBEAC.s:4819   .debug_str:00000000000011de .LASF254
     /tmp/ccRDBEAC.s:4581   .debug_str:00000000000009e6 .LASF255
     /tmp/ccRDBEAC.s:4571   .debug_str:0000000000000997 .LASF256
     /tmp/ccRDBEAC.s:4547   .debug_str:000000000000090e .LASF257
     /tmp/ccRDBEAC.s:4595   .debug_str:0000000000000a68 .LASF258
     /tmp/ccRDBEAC.s:4395   .debug_str:000000000000041b .LASF259
     /tmp/ccRDBEAC.s:4813   .debug_str:00000000000011ae .LASF260
     /tmp/ccRDBEAC.s:4587   .debug_str:0000000000000a2c .LASF261
     /tmp/ccRDBEAC.s:4459   .debug_str:0000000000000623 .LASF262
     /tmp/ccRDBEAC.s:4691   .debug_str:0000000000000d08 .LASF278
     /tmp/ccRDBEAC.s:4425   .debug_str:000000000000050d .LASF279
     /tmp/ccRDBEAC.s:4553   .debug_str:000000000000092a .LASF263
     /tmp/ccRDBEAC.s:4825   .debug_str:000000000000120f .LASF264
     /tmp/ccRDBEAC.s:222    .text._ZN3stm14CircularBufferIP3TCBE4initEv:0000000000000000 .LVL15
     /tmp/ccRDBEAC.s:245    .text._ZN3stm14CircularBufferIP3TCBE4initEv:0000000000000030 .LVL16
     /tmp/ccRDBEAC.s:258    .text._ZN3stm14CircularBufferIP3TCBE4initEv:0000000000000048 .LVL18
     /tmp/ccRDBEAC.s:131    .text:000000000000009c .LVL6
     /tmp/ccRDBEAC.s:162    .text:00000000000000c4 .LVL9
     /tmp/ccRDBEAC.s:144    .text:00000000000000b4 .LVL7
     /tmp/ccRDBEAC.s:155    .text:00000000000000bc .LVL8
     /tmp/ccRDBEAC.s:40     .text:000000000000001c .LVL1
     /tmp/ccRDBEAC.s:66     .text:000000000000004c .LVL3
     /tmp/ccRDBEAC.s:485    .debug_info:0000000000000000 .Ldebug_info0
     /tmp/ccRDBEAC.s:5      .text:0000000000000000 .Ltext0
     /tmp/ccRDBEAC.s:477    .text:0000000000000154 .Letext0
     /tmp/ccRDBEAC.s:400    .gcc_except_table._Z4initv:0000000000000000 .LLSDA48

UNDEFINED SYMBOLS
_Z15thread_dispatchv
_Z8userMainv
_Z13thread_createPP3TCBPFvPvES2_
_Z11thread_joinP3TCB
_Z5printPKc
_Z5printi
_ZN2IO6OutputE
_Z10time_sleepm
_Z9mem_allocm
supervisorTrap
_ZN9Allocator8mem_initEv
_ZN2IO4initEv
_ZN9Scheduler13high_priorityE
_ZN9Scheduler12mid_priorityE
_ZN9Scheduler12low_priorityE
_Znwm
_ZN10OwnedMutexC1Ev
_ZN3TCB7runningE
_ZdlPv
GAS LISTING /tmp/ccRDBEAC.s 			page 26


_Unwind_Resume
__gxx_personality_v0
