GAS LISTING /tmp/ccnFFJRG.s 			page 1


   1              		.file	"main.cpp"
   2              		.option pic
   3              		.option norelax
   4              		.text
   5              	.Ltext0:
   6              		.align	2
   7              		.globl	_Z11userWrapperPv
   9              	_Z11userWrapperPv:
  10              	.LFB67:
  11              		.file 1 "src/main.cpp"
   1:src/main.cpp  **** #include "../h/c_console.hpp"
   2:src/main.cpp  **** #include "../h/c_thread.hpp"
   3:src/main.cpp  **** #include "../h/cpp_semaphores.hpp"
   4:src/main.cpp  **** #include "../h/scheduler.hpp"
   5:src/main.cpp  **** #include "../h/iostream.hpp"
   6:src/main.cpp  **** 
   7:src/main.cpp  **** OwnedMutex *printer;
   8:src/main.cpp  **** 
   9:src/main.cpp  **** int userMain();
  10:src/main.cpp  **** 
  11:src/main.cpp  **** inline void init() {
  12:src/main.cpp  ****     __asm__ volatile("mv t0, %0": : "r" (&supervisorTrap));
  13:src/main.cpp  ****     __asm__ volatile("addi t0, t0, 1");
  14:src/main.cpp  ****     __asm__ volatile("csrw stvec, t0");
  15:src/main.cpp  ****     Allocator::mem_init();
  16:src/main.cpp  ****     IO::init();
  17:src/main.cpp  ****     Scheduler::init();
  18:src/main.cpp  ****     printer = new OwnedMutex();
  19:src/main.cpp  ****     thread_t handle_main, handle_idle;
  20:src/main.cpp  ****     thread_create(&handle_main, nullptr, nullptr);
  21:src/main.cpp  ****     thread_create(&handle_idle, reinterpret_cast<void(*)(void*)>(Scheduler::idle_body), nullptr);
  22:src/main.cpp  ****     riscv::ms_sstatus(riscv::SSTATUS_SIE);
  23:src/main.cpp  **** }
  24:src/main.cpp  **** 
  25:src/main.cpp  **** void userWrapper(void *ret) {
  12              		.loc 1 25 29
  13              		.cfi_startproc
  14              	.LVL0:
  15 0000 130101FE 		addi	sp,sp,-32
  16              		.cfi_def_cfa_offset 32
  17 0004 233C1100 		sd	ra,24(sp)
  18 0008 23388100 		sd	s0,16(sp)
  19 000c 23349100 		sd	s1,8(sp)
  20              		.cfi_offset 1, -8
  21              		.cfi_offset 8, -16
  22              		.cfi_offset 9, -24
  23 0010 13040102 		addi	s0,sp,32
  24              		.cfi_def_cfa 8, 0
  25 0014 93040500 		mv	s1,a0
  26:src/main.cpp  ****     *((int *) ret) = userMain();
  26              		.loc 1 26 5
  27              		.loc 1 26 30 is_stmt 0
  28 0018 97000000 		call	_Z8userMainv@plt
  28      E7800000 
  29              	.LVL1:
  30              		.loc 1 26 20
  31 0020 23A0A400 		sw	a0,0(s1)
GAS LISTING /tmp/ccnFFJRG.s 			page 2


  27:src/main.cpp  **** }
  32              		.loc 1 27 1
  33 0024 83308101 		ld	ra,24(sp)
  34              		.cfi_restore 1
  35 0028 03340101 		ld	s0,16(sp)
  36              		.cfi_restore 8
  37              		.cfi_def_cfa 2, 32
  38 002c 83348100 		ld	s1,8(sp)
  39              		.cfi_restore 9
  40              	.LVL2:
  41 0030 13010102 		addi	sp,sp,32
  42              		.cfi_def_cfa_offset 0
  43 0034 67800000 		jr	ra
  44              		.cfi_endproc
  45              	.LFE67:
  47              		.align	2
  48              		.globl	_Z4callv
  50              	_Z4callv:
  51              	.LFB68:
  28:src/main.cpp  **** 
  29:src/main.cpp  **** int call() {
  52              		.loc 1 29 12 is_stmt 1
  53              		.cfi_startproc
  54 0038 130101FE 		addi	sp,sp,-32
  55              		.cfi_def_cfa_offset 32
  56 003c 233C1100 		sd	ra,24(sp)
  57 0040 23388100 		sd	s0,16(sp)
  58              		.cfi_offset 1, -8
  59              		.cfi_offset 8, -16
  60 0044 13040102 		addi	s0,sp,32
  61              		.cfi_def_cfa 8, 0
  30:src/main.cpp  ****     thread_t userHandle;
  62              		.loc 1 30 5
  31:src/main.cpp  ****     int ret;
  63              		.loc 1 31 5
  32:src/main.cpp  ****     thread_create(&userHandle, userWrapper, &ret);
  64              		.loc 1 32 5
  65              		.loc 1 32 18 is_stmt 0
  66 0048 130644FE 		addi	a2,s0,-28
  67 004c 97050000 		lla	a1,_Z11userWrapperPv
  67      93850500 
  68 0054 130584FE 		addi	a0,s0,-24
  69 0058 97000000 		call	_Z13thread_createPP3TCBPFvPvES2_@plt
  69      E7800000 
  70              	.LVL3:
  33:src/main.cpp  ****     thread_join(userHandle);
  71              		.loc 1 33 5 is_stmt 1
  72              		.loc 1 33 16 is_stmt 0
  73 0060 033584FE 		ld	a0,-24(s0)
  74 0064 97000000 		call	_Z11thread_joinP3TCB@plt
  74      E7800000 
  75              	.LVL4:
  34:src/main.cpp  ****     return ret;
  76              		.loc 1 34 5 is_stmt 1
  35:src/main.cpp  **** }
  77              		.loc 1 35 1 is_stmt 0
  78 006c 032544FE 		lw	a0,-28(s0)
GAS LISTING /tmp/ccnFFJRG.s 			page 3


  79 0070 83308101 		ld	ra,24(sp)
  80              		.cfi_restore 1
  81 0074 03340101 		ld	s0,16(sp)
  82              		.cfi_restore 8
  83              		.cfi_def_cfa 2, 32
  84 0078 13010102 		addi	sp,sp,32
  85              		.cfi_def_cfa_offset 0
  86 007c 67800000 		jr	ra
  87              		.cfi_endproc
  88              	.LFE68:
  90              		.section	.rodata.str1.8,"aMS",@progbits,1
  91              		.align	3
  92              	.LC0:
  93 0000 0A0A5072 		.string	"\n\nProcess finished with exit code "
  93      6F636573 
  93      73206669 
  93      6E697368 
  93      65642077 
  94 0023 00000000 		.align	3
  94      00
  95              	.LC1:
  96 0028 0A00     		.string	"\n"
  97              		.text
  98              		.align	2
  99              		.globl	_Z3endi
 101              	_Z3endi:
 102              	.LFB69:
  36:src/main.cpp  **** 
  37:src/main.cpp  **** int end(int ret) {
 103              		.loc 1 37 18 is_stmt 1
 104              		.cfi_startproc
 105              	.LVL5:
 106 0080 130101FE 		addi	sp,sp,-32
 107              		.cfi_def_cfa_offset 32
 108 0084 233C1100 		sd	ra,24(sp)
 109 0088 23388100 		sd	s0,16(sp)
 110 008c 23349100 		sd	s1,8(sp)
 111              		.cfi_offset 1, -8
 112              		.cfi_offset 8, -16
 113              		.cfi_offset 9, -24
 114 0090 13040102 		addi	s0,sp,32
 115              		.cfi_def_cfa 8, 0
 116 0094 93040500 		mv	s1,a0
  38:src/main.cpp  ****     print("\n\nProcess finished with exit code ");
 117              		.loc 1 38 5
 118              		.loc 1 38 10 is_stmt 0
 119 0098 17050000 		lla	a0,.LC0
 119      13050500 
 120              	.LVL6:
 121 00a0 97000000 		call	_Z5printPKc@plt
 121      E7800000 
 122              	.LVL7:
  39:src/main.cpp  ****     print(ret);
 123              		.loc 1 39 5 is_stmt 1
 124              		.loc 1 39 10 is_stmt 0
 125 00a8 13850400 		mv	a0,s1
 126 00ac 97000000 		call	_Z5printi@plt
GAS LISTING /tmp/ccnFFJRG.s 			page 4


 126      E7800000 
 127              	.LVL8:
  40:src/main.cpp  ****     print("\n");
 128              		.loc 1 40 5 is_stmt 1
 129              		.loc 1 40 10 is_stmt 0
 130 00b4 17050000 		lla	a0,.LC1
 130      13050500 
 131 00bc 97000000 		call	_Z5printPKc@plt
 131      E7800000 
 132              	.LVL9:
 133              	.L6:
  41:src/main.cpp  ****     while (!IO::Output.is_empty());
 134              		.loc 1 41 5 is_stmt 1
 135              		.loc 1 41 12
 136              		.file 2 "src/../h/c_console.hpp"
   1:src/../h/c_console.hpp **** #ifndef PROJECT_BASE_C_CONSOLE_HPP
   2:src/../h/c_console.hpp **** #define PROJECT_BASE_C_CONSOLE_HPP
   3:src/../h/c_console.hpp **** 
   4:src/../h/c_console.hpp **** #include "circular_buffer.hpp"
   5:src/../h/c_console.hpp **** #include "riscv.hpp"
   6:src/../h/c_console.hpp **** 
   7:src/../h/c_console.hpp **** class Sem;
   8:src/../h/c_console.hpp **** 
   9:src/../h/c_console.hpp **** class IOBuffer final {
  10:src/../h/c_console.hpp **** public:
  11:src/../h/c_console.hpp ****     void init();
  12:src/../h/c_console.hpp **** 
  13:src/../h/c_console.hpp ****     void put(char c);
  14:src/../h/c_console.hpp **** 
  15:src/../h/c_console.hpp ****     char get();
  16:src/../h/c_console.hpp **** 
  17:src/../h/c_console.hpp ****     bool is_empty() const { return this->buffer.is_empty(); }
 137              		.loc 2 17 29
 138              	.LBB10:
 139              	.LBB11:
 140              	.LBB12:
 141              		.file 3 "src/../h/circular_buffer.hpp"
   1:src/../h/circular_buffer.hpp **** #ifndef PROJECT_BASE_CIRCULAR_BUFFER_HPP
   2:src/../h/circular_buffer.hpp **** #define PROJECT_BASE_CIRCULAR_BUFFER_HPP
   3:src/../h/circular_buffer.hpp **** 
   4:src/../h/circular_buffer.hpp **** #include "syscall_c.hpp"
   5:src/../h/circular_buffer.hpp **** #include "c_memory.hpp"
   6:src/../h/circular_buffer.hpp **** 
   7:src/../h/circular_buffer.hpp **** namespace stm {
   8:src/../h/circular_buffer.hpp ****     template<typename T>
   9:src/../h/circular_buffer.hpp ****     class CircularBuffer {
  10:src/../h/circular_buffer.hpp ****     public:
  11:src/../h/circular_buffer.hpp **** 
  12:src/../h/circular_buffer.hpp ****         void init();
  13:src/../h/circular_buffer.hpp **** 
  14:src/../h/circular_buffer.hpp ****         void put(T);
  15:src/../h/circular_buffer.hpp **** 
  16:src/../h/circular_buffer.hpp ****         T get();
  17:src/../h/circular_buffer.hpp **** 
  18:src/../h/circular_buffer.hpp ****         T &peek();
  19:src/../h/circular_buffer.hpp **** 
  20:src/../h/circular_buffer.hpp ****         inline bool is_empty() const { return this->size == 0; }
GAS LISTING /tmp/ccnFFJRG.s 			page 5


 142              		.loc 3 20 53 is_stmt 0
 143 00c4 97070000 		la	a5,_ZN2IO6OutputE
 143      83B70700 
 144 00cc 83A70701 		lw	a5,16(a5)
 145              	.LVL10:
 146              	.LBE12:
 147              	.LBE11:
 148              	.LBE10:
 149              		.loc 1 41 12
 150 00d0 E39A07FE 		bnez	a5,.L6
  42:src/main.cpp  ****     time_sleep(10);
 151              		.loc 1 42 5 is_stmt 1
 152              		.loc 1 42 15 is_stmt 0
 153 00d4 1305A000 		li	a0,10
 154 00d8 97000000 		call	_Z10time_sleepm@plt
 154      E7800000 
 155              	.LVL11:
  43:src/main.cpp  ****     return 0;
 156              		.loc 1 43 5 is_stmt 1
  44:src/main.cpp  **** }
 157              		.loc 1 44 1 is_stmt 0
 158 00e0 13050000 		li	a0,0
 159 00e4 83308101 		ld	ra,24(sp)
 160              		.cfi_restore 1
 161 00e8 03340101 		ld	s0,16(sp)
 162              		.cfi_restore 8
 163              		.cfi_def_cfa 2, 32
 164 00ec 83348100 		ld	s1,8(sp)
 165              		.cfi_restore 9
 166 00f0 13010102 		addi	sp,sp,32
 167              		.cfi_def_cfa_offset 0
 168 00f4 67800000 		jr	ra
 169              		.cfi_endproc
 170              	.LFE69:
 172              		.section	.text._ZN3stm14CircularBufferIP3TCBE4initEv,"axG",@progbits,_ZN3stm14CircularBufferIP3TCB
 173              		.align	2
 174              		.weak	_ZN3stm14CircularBufferIP3TCBE4initEv
 176              	_ZN3stm14CircularBufferIP3TCBE4initEv:
 177              	.LFB72:
  21:src/../h/circular_buffer.hpp **** 
  22:src/../h/circular_buffer.hpp ****         void destroy();
  23:src/../h/circular_buffer.hpp **** 
  24:src/../h/circular_buffer.hpp ****     private:
  25:src/../h/circular_buffer.hpp **** 
  26:src/../h/circular_buffer.hpp ****         void extend();
  27:src/../h/circular_buffer.hpp **** 
  28:src/../h/circular_buffer.hpp ****         static int constexpr CAPACITY = 16;
  29:src/../h/circular_buffer.hpp ****         T *queue;
  30:src/../h/circular_buffer.hpp ****         int head;
  31:src/../h/circular_buffer.hpp ****         int tail;
  32:src/../h/circular_buffer.hpp ****         int size;
  33:src/../h/circular_buffer.hpp ****         int capacity;
  34:src/../h/circular_buffer.hpp ****     };
  35:src/../h/circular_buffer.hpp **** }
  36:src/../h/circular_buffer.hpp **** 
  37:src/../h/circular_buffer.hpp **** template<typename T>
  38:src/../h/circular_buffer.hpp **** void stm::CircularBuffer<T>::init() {
GAS LISTING /tmp/ccnFFJRG.s 			page 6


 178              		.loc 3 38 6 is_stmt 1
 179              		.cfi_startproc
 180              	.LVL12:
 181 0000 130101FE 		addi	sp,sp,-32
 182              		.cfi_def_cfa_offset 32
 183 0004 233C1100 		sd	ra,24(sp)
 184 0008 23388100 		sd	s0,16(sp)
 185 000c 23349100 		sd	s1,8(sp)
 186              		.cfi_offset 1, -8
 187              		.cfi_offset 8, -16
 188              		.cfi_offset 9, -24
 189 0010 13040102 		addi	s0,sp,32
 190              		.cfi_def_cfa 8, 0
 191 0014 93040500 		mv	s1,a0
  39:src/../h/circular_buffer.hpp ****     this->head = 0;
 192              		.loc 3 39 5 is_stmt 0
 193 0018 23240500 		sw	zero,8(a0)
  40:src/../h/circular_buffer.hpp ****     this->tail = 0;
 194              		.loc 3 40 5
 195 001c 23260500 		sw	zero,12(a0)
  41:src/../h/circular_buffer.hpp ****     this->size = 0;
 196              		.loc 3 41 5
 197 0020 23280500 		sw	zero,16(a0)
  42:src/../h/circular_buffer.hpp ****     this->capacity = CAPACITY;
 198              		.loc 3 42 5
 199 0024 93070001 		li	a5,16
 200 0028 232AF500 		sw	a5,20(a0)
  43:src/../h/circular_buffer.hpp ****     this->queue = (T *) mem_alloc(sizeof(T) * CAPACITY);
 201              		.loc 3 43 34
 202 002c 13050008 		li	a0,128
 203              	.LVL13:
 204 0030 97000000 		call	_Z9mem_allocm@plt
 204      E7800000 
 205              	.LVL14:
 206              		.loc 3 43 5
 207 0038 23B0A400 		sd	a0,0(s1)
  44:src/../h/circular_buffer.hpp **** }
 208              		.loc 3 44 1
 209 003c 83308101 		ld	ra,24(sp)
 210              		.cfi_restore 1
 211 0040 03340101 		ld	s0,16(sp)
 212              		.cfi_restore 8
 213              		.cfi_def_cfa 2, 32
 214 0044 83348100 		ld	s1,8(sp)
 215              		.cfi_restore 9
 216              	.LVL15:
 217 0048 13010102 		addi	sp,sp,32
 218              		.cfi_def_cfa_offset 0
 219 004c 67800000 		jr	ra
 220              		.cfi_endproc
 221              	.LFE72:
 223              		.section	.text._Z4initv,"axG",@progbits,_Z4initv,comdat
 224              		.align	2
 225              		.weak	_Z4initv
 227              	_Z4initv:
 228              	.LFB66:
  11:src/main.cpp  ****     __asm__ volatile("mv t0, %0": : "r" (&supervisorTrap));
GAS LISTING /tmp/ccnFFJRG.s 			page 7


 229              		.loc 1 11 20 is_stmt 1
 230              		.cfi_startproc
 231              		.cfi_personality 0x9b,DW.ref.__gxx_personality_v0
 232              		.cfi_lsda 0x1b,.LLSDA66
 233 0000 130101FD 		addi	sp,sp,-48
 234              		.cfi_def_cfa_offset 48
 235 0004 23341102 		sd	ra,40(sp)
 236 0008 23308102 		sd	s0,32(sp)
 237 000c 233C9100 		sd	s1,24(sp)
 238 0010 23382101 		sd	s2,16(sp)
 239              		.cfi_offset 1, -8
 240              		.cfi_offset 8, -16
 241              		.cfi_offset 9, -24
 242              		.cfi_offset 18, -32
 243 0014 13040103 		addi	s0,sp,48
 244              		.cfi_def_cfa 8, 0
  12:src/main.cpp  ****     __asm__ volatile("addi t0, t0, 1");
 245              		.loc 1 12 5
  12:src/main.cpp  ****     __asm__ volatile("addi t0, t0, 1");
 246              		.loc 1 12 59 is_stmt 0
 247 0018 97070000 		la	a5,supervisorTrap
 247      83B70700 
 248              	#APP
 249              	# 12 "src/main.cpp" 1
  13:src/main.cpp  ****     __asm__ volatile("csrw stvec, t0");
 250              		mv t0, a5
 251              	# 0 "" 2
 252              		.loc 1 13 5 is_stmt 1
  13:src/main.cpp  ****     __asm__ volatile("csrw stvec, t0");
 253              		.loc 1 13 39 is_stmt 0
 254              	# 13 "src/main.cpp" 1
  14:src/main.cpp  ****     Allocator::mem_init();
 255              		addi t0, t0, 1
 256              	# 0 "" 2
 257              		.loc 1 14 5 is_stmt 1
  14:src/main.cpp  ****     Allocator::mem_init();
 258              		.loc 1 14 39 is_stmt 0
 259              	# 14 "src/main.cpp" 1
  15:src/main.cpp  ****     IO::init();
 260              		csrw stvec, t0
 261              	# 0 "" 2
 262              		.loc 1 15 5 is_stmt 1
 263              	.LEHB0:
  15:src/main.cpp  ****     IO::init();
 264              		.loc 1 15 24 is_stmt 0
 265              	#NO_APP
 266 002c 97000000 		call	_ZN9Allocator8mem_initEv@plt
 266      E7800000 
 267              	.LVL16:
  16:src/main.cpp  ****     Scheduler::init();
 268              		.loc 1 16 5 is_stmt 1
  16:src/main.cpp  ****     Scheduler::init();
 269              		.loc 1 16 13 is_stmt 0
 270 0034 97000000 		call	_ZN2IO4initEv@plt
 270      E7800000 
 271              	.LVL17:
  17:src/main.cpp  ****     printer = new OwnedMutex();
GAS LISTING /tmp/ccnFFJRG.s 			page 8


 272              		.loc 1 17 5 is_stmt 1
 273              	.LBB17:
 274              	.LBB18:
 275              		.file 4 "src/../h/scheduler.hpp"
   1:src/../h/scheduler.hpp **** #ifndef PROJECT_BASE_SCHEDULER_HPP
   2:src/../h/scheduler.hpp **** #define PROJECT_BASE_SCHEDULER_HPP
   3:src/../h/scheduler.hpp **** 
   4:src/../h/scheduler.hpp **** #include "circular_buffer.hpp"
   5:src/../h/scheduler.hpp **** #include "syscall_c.hpp"
   6:src/../h/scheduler.hpp **** 
   7:src/../h/scheduler.hpp **** class Scheduler final {
   8:src/../h/scheduler.hpp **** public:
   9:src/../h/scheduler.hpp **** 
  10:src/../h/scheduler.hpp ****     static void init() { high_priority.init(); mid_priority.init(); low_priority.init(); }
 276              		.loc 4 10 26
 277              		.loc 4 10 44 is_stmt 0
 278 003c 17050000 		la	a0,_ZN9Scheduler13high_priorityE
 278      03350500 
 279 0044 97000000 		call	_ZN3stm14CircularBufferIP3TCBE4initEv
 279      E7800000 
 280              	.LVL18:
 281              		.loc 4 10 48 is_stmt 1
 282              		.loc 4 10 65 is_stmt 0
 283 004c 17050000 		la	a0,_ZN9Scheduler12mid_priorityE
 283      03350500 
 284 0054 97000000 		call	_ZN3stm14CircularBufferIP3TCBE4initEv
 284      E7800000 
 285              	.LVL19:
 286              		.loc 4 10 69 is_stmt 1
 287              		.loc 4 10 86 is_stmt 0
 288 005c 17050000 		la	a0,_ZN9Scheduler12low_priorityE
 288      03350500 
 289 0064 97000000 		call	_ZN3stm14CircularBufferIP3TCBE4initEv
 289      E7800000 
 290              	.LVL20:
 291              	.LBE18:
 292              	.LBE17:
  18:src/main.cpp  ****     thread_t handle_main, handle_idle;
 293              		.loc 1 18 5 is_stmt 1
  18:src/main.cpp  ****     thread_t handle_main, handle_idle;
 294              		.loc 1 18 30 is_stmt 0
 295 006c 13050002 		li	a0,32
 296 0070 97000000 		call	_Znwm@plt
 296      E7800000 
 297              	.LVL21:
 298              	.LEHE0:
 299 0078 93040500 		mv	s1,a0
 300              	.LEHB1:
 301 007c 97000000 		call	_ZN10OwnedMutexC1Ev@plt
 301      E7800000 
 302              	.LVL22:
 303              	.LEHE1:
  18:src/main.cpp  ****     thread_t handle_main, handle_idle;
 304              		.loc 1 18 13
 305 0084 97070000 		sd	s1,.LANCHOR0,a5
 305      23B09700 
  19:src/main.cpp  ****     thread_create(&handle_main, nullptr, nullptr);
GAS LISTING /tmp/ccnFFJRG.s 			page 9


 306              		.loc 1 19 5 is_stmt 1
  20:src/main.cpp  ****     thread_create(&handle_idle, reinterpret_cast<void(*)(void*)>(Scheduler::idle_body), nullptr);
 307              		.loc 1 20 5
  20:src/main.cpp  ****     thread_create(&handle_idle, reinterpret_cast<void(*)(void*)>(Scheduler::idle_body), nullptr);
 308              		.loc 1 20 18 is_stmt 0
 309 008c 13060000 		li	a2,0
 310 0090 93050000 		li	a1,0
 311 0094 130584FD 		addi	a0,s0,-40
 312              	.LEHB2:
 313 0098 97000000 		call	_Z13thread_createPP3TCBPFvPvES2_@plt
 313      E7800000 
 314              	.LVL23:
  21:src/main.cpp  ****     riscv::ms_sstatus(riscv::SSTATUS_SIE);
 315              		.loc 1 21 5 is_stmt 1
  21:src/main.cpp  ****     riscv::ms_sstatus(riscv::SSTATUS_SIE);
 316              		.loc 1 21 18 is_stmt 0
 317 00a0 13060000 		li	a2,0
 318 00a4 97050000 		la	a1,_ZN9Scheduler9idle_bodyEv
 318      83B50500 
 319 00ac 130504FD 		addi	a0,s0,-48
 320 00b0 97000000 		call	_Z13thread_createPP3TCBPFvPvES2_@plt
 320      E7800000 
 321              	.LVL24:
 322              	.LEHE2:
  22:src/main.cpp  **** }
 323              		.loc 1 22 5 is_stmt 1
 324              	.LBB19:
 325              	.LBB20:
 326              		.file 5 "src/../h/riscv.hpp"
   1:src/../h/riscv.hpp **** #ifndef PROJECT_BASE_RISCV_HPP
   2:src/../h/riscv.hpp **** #define PROJECT_BASE_RISCV_HPP
   3:src/../h/riscv.hpp **** 
   4:src/../h/riscv.hpp **** #include "../lib/hw.h"
   5:src/../h/riscv.hpp **** #include "string.hpp"
   6:src/../h/riscv.hpp **** 
   7:src/../h/riscv.hpp **** extern "C" void supervisorTrap();
   8:src/../h/riscv.hpp **** 
   9:src/../h/riscv.hpp **** class riscv {
  10:src/../h/riscv.hpp **** public:
  11:src/../h/riscv.hpp **** 
  12:src/../h/riscv.hpp ****     static void handleSupervisorTrap(uint64, uint64, uint64, uint64, uint64);
  13:src/../h/riscv.hpp **** 
  14:src/../h/riscv.hpp ****     static void handleTimerTrap();
  15:src/../h/riscv.hpp **** 
  16:src/../h/riscv.hpp ****     static void handleReadTrap();
  17:src/../h/riscv.hpp **** 
  18:src/../h/riscv.hpp ****     static void handleWriteTrap();
  19:src/../h/riscv.hpp **** 
  20:src/../h/riscv.hpp ****     static void handleConsoleTrap();
  21:src/../h/riscv.hpp **** 
  22:src/../h/riscv.hpp ****     static void handleException(const stm::string &message);
  23:src/../h/riscv.hpp **** 
  24:src/../h/riscv.hpp ****     static void popSppSpie();
  25:src/../h/riscv.hpp **** 
  26:src/../h/riscv.hpp ****     static int setjump();
  27:src/../h/riscv.hpp **** 
  28:src/../h/riscv.hpp ****     static void longjump();
GAS LISTING /tmp/ccnFFJRG.s 			page 10


  29:src/../h/riscv.hpp **** 
  30:src/../h/riscv.hpp ****     static uint64 r_sp();
  31:src/../h/riscv.hpp **** 
  32:src/../h/riscv.hpp ****     // read register scause
  33:src/../h/riscv.hpp ****     static uint64 r_scause();
  34:src/../h/riscv.hpp **** 
  35:src/../h/riscv.hpp ****     // write register scause
  36:src/../h/riscv.hpp ****     static void w_scause(uint64 scause);
  37:src/../h/riscv.hpp **** 
  38:src/../h/riscv.hpp ****     // read register sepc
  39:src/../h/riscv.hpp ****     static uint64 r_sepc();
  40:src/../h/riscv.hpp **** 
  41:src/../h/riscv.hpp ****     // write register sepc
  42:src/../h/riscv.hpp ****     static void w_sepc(uint64 sepc);
  43:src/../h/riscv.hpp **** 
  44:src/../h/riscv.hpp ****     // read register stvec
  45:src/../h/riscv.hpp ****     static uint64 r_stvec();
  46:src/../h/riscv.hpp **** 
  47:src/../h/riscv.hpp ****     // write register stvec
  48:src/../h/riscv.hpp ****     static void w_stvec(uint64 stvec);
  49:src/../h/riscv.hpp **** 
  50:src/../h/riscv.hpp ****     // read register stval
  51:src/../h/riscv.hpp ****     static uint64 r_stval();
  52:src/../h/riscv.hpp **** 
  53:src/../h/riscv.hpp ****     // write register stval
  54:src/../h/riscv.hpp ****     static void w_stval(uint64 stval);
  55:src/../h/riscv.hpp **** 
  56:src/../h/riscv.hpp ****     enum BitMaskSip {
  57:src/../h/riscv.hpp ****         SIP_SSIE = (1 << 1),
  58:src/../h/riscv.hpp ****         SIP_STIE = (1 << 5),
  59:src/../h/riscv.hpp ****         SIP_SEIE = (1 << 9),
  60:src/../h/riscv.hpp ****     };
  61:src/../h/riscv.hpp **** 
  62:src/../h/riscv.hpp ****     // mask set register sip
  63:src/../h/riscv.hpp ****     static void ms_sip(uint64 mask);
  64:src/../h/riscv.hpp **** 
  65:src/../h/riscv.hpp ****     // mask clear register sip
  66:src/../h/riscv.hpp ****     static void mc_sip(uint64 mask);
  67:src/../h/riscv.hpp **** 
  68:src/../h/riscv.hpp ****     // read register sip
  69:src/../h/riscv.hpp ****     static uint64 r_sip();
  70:src/../h/riscv.hpp **** 
  71:src/../h/riscv.hpp ****     // write register sip
  72:src/../h/riscv.hpp ****     static void w_sip(uint64 sip);
  73:src/../h/riscv.hpp **** 
  74:src/../h/riscv.hpp ****     enum BitMaskSstatus {
  75:src/../h/riscv.hpp ****         SSTATUS_SIE = (1 << 1),
  76:src/../h/riscv.hpp ****         SSTATUS_SPIE = (1 << 5),
  77:src/../h/riscv.hpp ****         SSTATUS_SPP = (1 << 8),
  78:src/../h/riscv.hpp ****     };
  79:src/../h/riscv.hpp **** 
  80:src/../h/riscv.hpp ****     // mask set register sstatus
  81:src/../h/riscv.hpp ****     static void ms_sstatus(uint64 mask);
  82:src/../h/riscv.hpp **** 
  83:src/../h/riscv.hpp ****     // mask clear register sstatus
  84:src/../h/riscv.hpp ****     static void mc_sstatus(uint64 mask);
  85:src/../h/riscv.hpp **** 
GAS LISTING /tmp/ccnFFJRG.s 			page 11


  86:src/../h/riscv.hpp ****     // read register sstatus
  87:src/../h/riscv.hpp ****     static uint64 r_sstatus();
  88:src/../h/riscv.hpp **** 
  89:src/../h/riscv.hpp ****     // write register sstatus
  90:src/../h/riscv.hpp ****     static void w_sstatus(uint64 sstatus);
  91:src/../h/riscv.hpp **** 
  92:src/../h/riscv.hpp ****     static uint64 r_sscratch();
  93:src/../h/riscv.hpp **** 
  94:src/../h/riscv.hpp **** private:
  95:src/../h/riscv.hpp **** 
  96:src/../h/riscv.hpp ****     enum Scause {
  97:src/../h/riscv.hpp ****         ILLEGAL_INSTRUCTION = 2,
  98:src/../h/riscv.hpp ****     };
  99:src/../h/riscv.hpp **** 
 100:src/../h/riscv.hpp ****     typedef uint64 (*syscall_f)(uint64, uint64, uint64, uint64);
 101:src/../h/riscv.hpp **** 
 102:src/../h/riscv.hpp ****     static syscall_f syscall_table[SYSCALL_COUNT];
 103:src/../h/riscv.hpp **** };
 104:src/../h/riscv.hpp **** 
 105:src/../h/riscv.hpp **** inline uint64 riscv::r_sscratch() {
 106:src/../h/riscv.hpp ****     uint64 volatile sscratch;
 107:src/../h/riscv.hpp ****     __asm__ volatile ("csrr %[scause], scause" : [scause] "=r"(sscratch));
 108:src/../h/riscv.hpp ****     return sscratch;
 109:src/../h/riscv.hpp **** }
 110:src/../h/riscv.hpp **** 
 111:src/../h/riscv.hpp **** inline uint64 riscv::r_scause() {
 112:src/../h/riscv.hpp ****     uint64 volatile scause;
 113:src/../h/riscv.hpp ****     __asm__ volatile ("csrr %[scause], scause" : [scause] "=r"(scause));
 114:src/../h/riscv.hpp ****     return scause;
 115:src/../h/riscv.hpp **** }
 116:src/../h/riscv.hpp **** 
 117:src/../h/riscv.hpp **** inline void riscv::w_scause(uint64 scause) {
 118:src/../h/riscv.hpp ****     __asm__ volatile ("csrw scause, %[scause]" : : [scause] "r"(scause));
 119:src/../h/riscv.hpp **** }
 120:src/../h/riscv.hpp **** 
 121:src/../h/riscv.hpp **** inline uint64 riscv::r_sepc() {
 122:src/../h/riscv.hpp ****     uint64 volatile sepc;
 123:src/../h/riscv.hpp ****     __asm__ volatile ("csrr %[sepc], sepc" : [sepc] "=r"(sepc));
 124:src/../h/riscv.hpp ****     return sepc;
 125:src/../h/riscv.hpp **** }
 126:src/../h/riscv.hpp **** 
 127:src/../h/riscv.hpp **** inline void riscv::w_sepc(uint64 sepc) {
 128:src/../h/riscv.hpp ****     __asm__ volatile ("csrw sepc, %[sepc]" : : [sepc] "r"(sepc));
 129:src/../h/riscv.hpp **** }
 130:src/../h/riscv.hpp **** 
 131:src/../h/riscv.hpp **** inline uint64 riscv::r_stvec() {
 132:src/../h/riscv.hpp ****     uint64 volatile stvec;
 133:src/../h/riscv.hpp ****     __asm__ volatile ("csrr %[stvec], stvec" : [stvec] "=r"(stvec));
 134:src/../h/riscv.hpp ****     return stvec;
 135:src/../h/riscv.hpp **** }
 136:src/../h/riscv.hpp **** 
 137:src/../h/riscv.hpp **** inline void riscv::w_stvec(uint64 stvec) {
 138:src/../h/riscv.hpp ****     __asm__ volatile ("csrw stvec, %[stvec]" : : [stvec] "r"(stvec));
 139:src/../h/riscv.hpp **** }
 140:src/../h/riscv.hpp **** 
 141:src/../h/riscv.hpp **** inline uint64 riscv::r_stval() {
 142:src/../h/riscv.hpp ****     uint64 volatile stval;
GAS LISTING /tmp/ccnFFJRG.s 			page 12


 143:src/../h/riscv.hpp ****     __asm__ volatile ("csrr %[stval], stval" : [stval] "=r"(stval));
 144:src/../h/riscv.hpp ****     return stval;
 145:src/../h/riscv.hpp **** }
 146:src/../h/riscv.hpp **** 
 147:src/../h/riscv.hpp **** inline void riscv::w_stval(uint64 stval) {
 148:src/../h/riscv.hpp ****     __asm__ volatile ("csrw stval, %[stval]" : : [stval] "r"(stval));
 149:src/../h/riscv.hpp **** }
 150:src/../h/riscv.hpp **** 
 151:src/../h/riscv.hpp **** inline void riscv::ms_sip(uint64 mask) {
 152:src/../h/riscv.hpp ****     __asm__ volatile ("csrs sip, %[mask]" : : [mask] "r"(mask));
 153:src/../h/riscv.hpp **** }
 154:src/../h/riscv.hpp **** 
 155:src/../h/riscv.hpp **** inline void riscv::mc_sip(uint64 mask) {
 156:src/../h/riscv.hpp ****     __asm__ volatile ("csrc sip, %[mask]" : : [mask] "r"(mask));
 157:src/../h/riscv.hpp **** }
 158:src/../h/riscv.hpp **** 
 159:src/../h/riscv.hpp **** inline uint64 riscv::r_sip() {
 160:src/../h/riscv.hpp ****     uint64 volatile sip;
 161:src/../h/riscv.hpp ****     __asm__ volatile ("csrr %[sip], sip" : [sip] "=r"(sip));
 162:src/../h/riscv.hpp ****     return sip;
 163:src/../h/riscv.hpp **** }
 164:src/../h/riscv.hpp **** 
 165:src/../h/riscv.hpp **** inline void riscv::w_sip(uint64 sip) {
 166:src/../h/riscv.hpp ****     __asm__ volatile ("csrw sip, %[sip]" : : [sip] "r"(sip));
 167:src/../h/riscv.hpp **** }
 168:src/../h/riscv.hpp **** 
 169:src/../h/riscv.hpp **** inline void riscv::ms_sstatus(uint64 mask) {
 170:src/../h/riscv.hpp ****     __asm__ volatile ("csrs sstatus, %[mask]" : : [mask] "r"(mask));
 327              		.loc 5 170 5
 328              		.loc 5 170 68 is_stmt 0
 329 00b8 93072000 		li	a5,2
 330              	#APP
 331              	# 170 "src/../h/riscv.hpp" 1
 171              	}
 332              		csrs sstatus, a5
 333              	# 0 "" 2
 334              	.LVL25:
 335              	#NO_APP
 336              	.LBE20:
 337              	.LBE19:
  23:src/main.cpp  **** 
 338              		.loc 1 23 1
 339 00c0 83308102 		ld	ra,40(sp)
 340              		.cfi_remember_state
 341              		.cfi_restore 1
 342 00c4 03340102 		ld	s0,32(sp)
 343              		.cfi_restore 8
 344              		.cfi_def_cfa 2, 48
 345 00c8 83348101 		ld	s1,24(sp)
 346              		.cfi_restore 9
 347 00cc 03390101 		ld	s2,16(sp)
 348              		.cfi_restore 18
 349 00d0 13010103 		addi	sp,sp,48
 350              		.cfi_def_cfa_offset 0
 351 00d4 67800000 		jr	ra
 352              	.L12:
 353              		.cfi_restore_state
GAS LISTING /tmp/ccnFFJRG.s 			page 13


 354 00d8 13090500 		mv	s2,a0
  18:src/main.cpp  ****     thread_t handle_main, handle_idle;
 355              		.loc 1 18 30
 356 00dc 13850400 		mv	a0,s1
 357 00e0 97000000 		call	_ZdlPv@plt
 357      E7800000 
 358              	.LVL26:
 359 00e8 13050900 		mv	a0,s2
 360              	.LEHB3:
 361 00ec 97000000 		call	_Unwind_Resume@plt
 361      E7800000 
 362              	.LVL27:
 363              	.LEHE3:
 364              		.cfi_endproc
 365              	.LFE66:
 366              		.globl	__gxx_personality_v0
 367              		.section	.gcc_except_table._Z4initv,"aG",@progbits,_Z4initv,comdat
 368              	.LLSDA66:
 369 0000 FF       		.byte	0xff
 370 0001 FF       		.byte	0xff
 371 0002 03       		.byte	0x3
 372 0003 34       		.byte	0x34
 373 0004 00000000 		.4byte	.LEHB0-.LFB66
 374 0008 00000000 		.4byte	.LEHE0-.LEHB0
 375 000c 00000000 		.4byte	0
 376 0010 00       		.byte	0
 377 0011 00000000 		.4byte	.LEHB1-.LFB66
 378 0015 00000000 		.4byte	.LEHE1-.LEHB1
 379 0019 00000000 		.4byte	.L12-.LFB66
 380 001d 00       		.byte	0
 381 001e 00000000 		.4byte	.LEHB2-.LFB66
 382 0022 00000000 		.4byte	.LEHE2-.LEHB2
 383 0026 00000000 		.4byte	0
 384 002a 00       		.byte	0
 385 002b 00000000 		.4byte	.LEHB3-.LFB66
 386 002f 00000000 		.4byte	.LEHE3-.LEHB3
 387 0033 00000000 		.4byte	0
 388 0037 00       		.byte	0
 389              		.section	.text._Z4initv,"axG",@progbits,_Z4initv,comdat
 391              		.text
 392              		.align	2
 393              		.globl	main
 395              	main:
 396              	.LFB70:
  45:src/main.cpp  **** 
  46:src/main.cpp  **** int main() {
 397              		.loc 1 46 12 is_stmt 1
 398              		.cfi_startproc
 399 00f8 130101FF 		addi	sp,sp,-16
 400              		.cfi_def_cfa_offset 16
 401 00fc 23341100 		sd	ra,8(sp)
 402 0100 23308100 		sd	s0,0(sp)
 403              		.cfi_offset 1, -8
 404              		.cfi_offset 8, -16
 405 0104 13040101 		addi	s0,sp,16
 406              		.cfi_def_cfa 8, 0
  47:src/main.cpp  ****     init();
GAS LISTING /tmp/ccnFFJRG.s 			page 14


 407              		.loc 1 47 5
 408              		.loc 1 47 9 is_stmt 0
 409 0108 97000000 		call	_Z4initv
 409      E7800000 
 410              	.LVL28:
  48:src/main.cpp  ****     int ret = call();
 411              		.loc 1 48 5 is_stmt 1
 412              		.loc 1 48 19 is_stmt 0
 413 0110 97000000 		call	_Z4callv
 413      E7800000 
 414              	.LVL29:
  49:src/main.cpp  ****     return end(ret);
 415              		.loc 1 49 5 is_stmt 1
 416              		.loc 1 49 15 is_stmt 0
 417 0118 97000000 		call	_Z3endi
 417      E7800000 
 418              	.LVL30:
  50:src/main.cpp  **** }...
 419              		.loc 1 50 1
 420 0120 83308100 		ld	ra,8(sp)
 421              		.cfi_restore 1
 422 0124 03340100 		ld	s0,0(sp)
 423              		.cfi_restore 8
 424              		.cfi_def_cfa 2, 16
 425 0128 13010101 		addi	sp,sp,16
 426              		.cfi_def_cfa_offset 0
 427 012c 67800000 		jr	ra
 428              		.cfi_endproc
 429              	.LFE70:
 431              		.globl	printer
 432              		.bss
 433              		.align	3
 434              		.set	.LANCHOR0,. + 0
 437              	printer:
 438 0000 00000000 		.zero	8
 438      00000000 
 439              		.text
 440              	.Letext0:
 441              		.file 6 "src/../h/../lib/hw.h"
 442              		.file 7 "src/../h/syscall_c.hpp"
 443              		.file 8 "src/../h/c_thread.hpp"
 444              		.file 9 "src/../h/c_memory.hpp"
 445              		.file 10 "src/../h/string.hpp"
 446              		.file 11 "src/../h/iostream.hpp"
 447              		.file 12 "src/../h/syscall_cpp.hpp"
 5287              		.align	3
 5290              	DW.ref.__gxx_personality_v0:
 5291 0000 00000000 		.dword	__gxx_personality_v0
 5291      00000000 
 5292              		.ident	"GCC: (Ubuntu 9.4.0-1ubuntu1~20.04) 9.4.0"
 5293              		.section	.note.GNU-stack,"",@progbits
GAS LISTING /tmp/ccnFFJRG.s 			page 15


DEFINED SYMBOLS
                            *ABS*:0000000000000000 main.cpp
     /tmp/ccnFFJRG.s:9      .text:0000000000000000 _Z11userWrapperPv
     /tmp/ccnFFJRG.s:13     .text:0000000000000000 .L0 
     /tmp/ccnFFJRG.s:15     .text:0000000000000000 .L0 
     /tmp/ccnFFJRG.s:16     .text:0000000000000004 .L0 
     /tmp/ccnFFJRG.s:20     .text:0000000000000010 .L0 
     /tmp/ccnFFJRG.s:21     .text:0000000000000010 .L0 
     /tmp/ccnFFJRG.s:22     .text:0000000000000010 .L0 
     /tmp/ccnFFJRG.s:24     .text:0000000000000014 .L0 
     /tmp/ccnFFJRG.s:27     .text:0000000000000018 .L0 
     /tmp/ccnFFJRG.s:28     .text:0000000000000018 .L0 
     /tmp/ccnFFJRG.s:31     .text:0000000000000020 .L0 
     /tmp/ccnFFJRG.s:33     .text:0000000000000024 .L0 
     /tmp/ccnFFJRG.s:34     .text:0000000000000028 .L0 
     /tmp/ccnFFJRG.s:36     .text:000000000000002c .L0 
     /tmp/ccnFFJRG.s:37     .text:000000000000002c .L0 
     /tmp/ccnFFJRG.s:39     .text:0000000000000030 .L0 
     /tmp/ccnFFJRG.s:42     .text:0000000000000034 .L0 
     /tmp/ccnFFJRG.s:44     .text:0000000000000038 .L0 
     /tmp/ccnFFJRG.s:50     .text:0000000000000038 _Z4callv
     /tmp/ccnFFJRG.s:53     .text:0000000000000038 .L0 
     /tmp/ccnFFJRG.s:54     .text:0000000000000038 .L0 
     /tmp/ccnFFJRG.s:55     .text:000000000000003c .L0 
     /tmp/ccnFFJRG.s:58     .text:0000000000000044 .L0 
     /tmp/ccnFFJRG.s:59     .text:0000000000000044 .L0 
     /tmp/ccnFFJRG.s:61     .text:0000000000000048 .L0 
     /tmp/ccnFFJRG.s:63     .text:0000000000000048 .L0 
     /tmp/ccnFFJRG.s:64     .text:0000000000000048 .L0 
     /tmp/ccnFFJRG.s:65     .text:0000000000000048 .L0 
     /tmp/ccnFFJRG.s:66     .text:0000000000000048 .L0 
     /tmp/ccnFFJRG.s:72     .text:0000000000000060 .L0 
     /tmp/ccnFFJRG.s:73     .text:0000000000000060 .L0 
     /tmp/ccnFFJRG.s:77     .text:000000000000006c .L0 
     /tmp/ccnFFJRG.s:78     .text:000000000000006c .L0 
     /tmp/ccnFFJRG.s:80     .text:0000000000000074 .L0 
     /tmp/ccnFFJRG.s:82     .text:0000000000000078 .L0 
     /tmp/ccnFFJRG.s:83     .text:0000000000000078 .L0 
     /tmp/ccnFFJRG.s:85     .text:000000000000007c .L0 
     /tmp/ccnFFJRG.s:87     .text:0000000000000080 .L0 
     /tmp/ccnFFJRG.s:101    .text:0000000000000080 _Z3endi
     /tmp/ccnFFJRG.s:104    .text:0000000000000080 .L0 
     /tmp/ccnFFJRG.s:106    .text:0000000000000080 .L0 
     /tmp/ccnFFJRG.s:107    .text:0000000000000084 .L0 
     /tmp/ccnFFJRG.s:111    .text:0000000000000090 .L0 
     /tmp/ccnFFJRG.s:112    .text:0000000000000090 .L0 
     /tmp/ccnFFJRG.s:113    .text:0000000000000090 .L0 
     /tmp/ccnFFJRG.s:115    .text:0000000000000094 .L0 
     /tmp/ccnFFJRG.s:118    .text:0000000000000098 .L0 
     /tmp/ccnFFJRG.s:119    .text:0000000000000098 .L0 
     /tmp/ccnFFJRG.s:124    .text:00000000000000a8 .L0 
     /tmp/ccnFFJRG.s:125    .text:00000000000000a8 .L0 
     /tmp/ccnFFJRG.s:129    .text:00000000000000b4 .L0 
     /tmp/ccnFFJRG.s:130    .text:00000000000000b4 .L0 
     /tmp/ccnFFJRG.s:135    .text:00000000000000c4 .L0 
     /tmp/ccnFFJRG.s:137    .text:00000000000000c4 .L0 
     /tmp/ccnFFJRG.s:142    .text:00000000000000c4 .L0 
GAS LISTING /tmp/ccnFFJRG.s 			page 16


     /tmp/ccnFFJRG.s:143    .text:00000000000000c4 .L0 
     /tmp/ccnFFJRG.s:150    .text:00000000000000d0 .L0 
     /tmp/ccnFFJRG.s:152    .text:00000000000000d4 .L0 
     /tmp/ccnFFJRG.s:153    .text:00000000000000d4 .L0 
     /tmp/ccnFFJRG.s:157    .text:00000000000000e0 .L0 
     /tmp/ccnFFJRG.s:158    .text:00000000000000e0 .L0 
     /tmp/ccnFFJRG.s:160    .text:00000000000000e8 .L0 
     /tmp/ccnFFJRG.s:162    .text:00000000000000ec .L0 
     /tmp/ccnFFJRG.s:163    .text:00000000000000ec .L0 
     /tmp/ccnFFJRG.s:165    .text:00000000000000f0 .L0 
     /tmp/ccnFFJRG.s:167    .text:00000000000000f4 .L0 
     /tmp/ccnFFJRG.s:169    .text:00000000000000f8 .L0 
     /tmp/ccnFFJRG.s:176    .text._ZN3stm14CircularBufferIP3TCBE4initEv:0000000000000000 _ZN3stm14CircularBufferIP3TCBE4initEv
     /tmp/ccnFFJRG.s:179    .text._ZN3stm14CircularBufferIP3TCBE4initEv:0000000000000000 .L0 
     /tmp/ccnFFJRG.s:181    .text._ZN3stm14CircularBufferIP3TCBE4initEv:0000000000000000 .L0 
     /tmp/ccnFFJRG.s:182    .text._ZN3stm14CircularBufferIP3TCBE4initEv:0000000000000004 .L0 
     /tmp/ccnFFJRG.s:186    .text._ZN3stm14CircularBufferIP3TCBE4initEv:0000000000000010 .L0 
     /tmp/ccnFFJRG.s:187    .text._ZN3stm14CircularBufferIP3TCBE4initEv:0000000000000010 .L0 
     /tmp/ccnFFJRG.s:188    .text._ZN3stm14CircularBufferIP3TCBE4initEv:0000000000000010 .L0 
     /tmp/ccnFFJRG.s:190    .text._ZN3stm14CircularBufferIP3TCBE4initEv:0000000000000014 .L0 
     /tmp/ccnFFJRG.s:193    .text._ZN3stm14CircularBufferIP3TCBE4initEv:0000000000000018 .L0 
     /tmp/ccnFFJRG.s:195    .text._ZN3stm14CircularBufferIP3TCBE4initEv:000000000000001c .L0 
     /tmp/ccnFFJRG.s:197    .text._ZN3stm14CircularBufferIP3TCBE4initEv:0000000000000020 .L0 
     /tmp/ccnFFJRG.s:199    .text._ZN3stm14CircularBufferIP3TCBE4initEv:0000000000000024 .L0 
     /tmp/ccnFFJRG.s:202    .text._ZN3stm14CircularBufferIP3TCBE4initEv:000000000000002c .L0 
     /tmp/ccnFFJRG.s:207    .text._ZN3stm14CircularBufferIP3TCBE4initEv:0000000000000038 .L0 
     /tmp/ccnFFJRG.s:209    .text._ZN3stm14CircularBufferIP3TCBE4initEv:000000000000003c .L0 
     /tmp/ccnFFJRG.s:210    .text._ZN3stm14CircularBufferIP3TCBE4initEv:0000000000000040 .L0 
     /tmp/ccnFFJRG.s:212    .text._ZN3stm14CircularBufferIP3TCBE4initEv:0000000000000044 .L0 
     /tmp/ccnFFJRG.s:213    .text._ZN3stm14CircularBufferIP3TCBE4initEv:0000000000000044 .L0 
     /tmp/ccnFFJRG.s:215    .text._ZN3stm14CircularBufferIP3TCBE4initEv:0000000000000048 .L0 
     /tmp/ccnFFJRG.s:218    .text._ZN3stm14CircularBufferIP3TCBE4initEv:000000000000004c .L0 
     /tmp/ccnFFJRG.s:220    .text._ZN3stm14CircularBufferIP3TCBE4initEv:0000000000000050 .L0 
     /tmp/ccnFFJRG.s:227    .text._Z4initv:0000000000000000 _Z4initv
     /tmp/ccnFFJRG.s:230    .text._Z4initv:0000000000000000 .L0 
     /tmp/ccnFFJRG.s:5290   .data.rel.local.DW.ref.__gxx_personality_v0:0000000000000000 DW.ref.__gxx_personality_v0
     /tmp/ccnFFJRG.s:233    .text._Z4initv:0000000000000000 .L0 
     /tmp/ccnFFJRG.s:234    .text._Z4initv:0000000000000004 .L0 
     /tmp/ccnFFJRG.s:239    .text._Z4initv:0000000000000014 .L0 
     /tmp/ccnFFJRG.s:240    .text._Z4initv:0000000000000014 .L0 
     /tmp/ccnFFJRG.s:241    .text._Z4initv:0000000000000014 .L0 
     /tmp/ccnFFJRG.s:242    .text._Z4initv:0000000000000014 .L0 
     /tmp/ccnFFJRG.s:244    .text._Z4initv:0000000000000018 .L0 
     /tmp/ccnFFJRG.s:246    .text._Z4initv:0000000000000018 .L0 
     /tmp/ccnFFJRG.s:247    .text._Z4initv:0000000000000018 .L0 
     /tmp/ccnFFJRG.s:253    .text._Z4initv:0000000000000024 .L0 
        src/main.cpp:13     .text._Z4initv:0000000000000024 .L0 
     /tmp/ccnFFJRG.s:258    .text._Z4initv:0000000000000028 .L0 
        src/main.cpp:14     .text._Z4initv:0000000000000028 .L0 
     /tmp/ccnFFJRG.s:264    .text._Z4initv:000000000000002c .L0 
     /tmp/ccnFFJRG.s:266    .text._Z4initv:000000000000002c .L0 
     /tmp/ccnFFJRG.s:269    .text._Z4initv:0000000000000034 .L0 
     /tmp/ccnFFJRG.s:270    .text._Z4initv:0000000000000034 .L0 
     /tmp/ccnFFJRG.s:276    .text._Z4initv:000000000000003c .L0 
     /tmp/ccnFFJRG.s:277    .text._Z4initv:000000000000003c .L0 
     /tmp/ccnFFJRG.s:278    .text._Z4initv:000000000000003c .L0 
     /tmp/ccnFFJRG.s:282    .text._Z4initv:000000000000004c .L0 
GAS LISTING /tmp/ccnFFJRG.s 			page 17


     /tmp/ccnFFJRG.s:283    .text._Z4initv:000000000000004c .L0 
     /tmp/ccnFFJRG.s:287    .text._Z4initv:000000000000005c .L0 
     /tmp/ccnFFJRG.s:288    .text._Z4initv:000000000000005c .L0 
     /tmp/ccnFFJRG.s:294    .text._Z4initv:000000000000006c .L0 
     /tmp/ccnFFJRG.s:295    .text._Z4initv:000000000000006c .L0 
     /tmp/ccnFFJRG.s:305    .text._Z4initv:0000000000000084 .L0 
     /tmp/ccnFFJRG.s:307    .text._Z4initv:000000000000008c .L0 
     /tmp/ccnFFJRG.s:308    .text._Z4initv:000000000000008c .L0 
     /tmp/ccnFFJRG.s:309    .text._Z4initv:000000000000008c .L0 
     /tmp/ccnFFJRG.s:316    .text._Z4initv:00000000000000a0 .L0 
     /tmp/ccnFFJRG.s:317    .text._Z4initv:00000000000000a0 .L0 
     /tmp/ccnFFJRG.s:327    .text._Z4initv:00000000000000b8 .L0 
     /tmp/ccnFFJRG.s:328    .text._Z4initv:00000000000000b8 .L0 
     /tmp/ccnFFJRG.s:329    .text._Z4initv:00000000000000b8 .L0 
     /tmp/ccnFFJRG.s:339    .text._Z4initv:00000000000000c0 .L0 
     /tmp/ccnFFJRG.s:340    .text._Z4initv:00000000000000c4 .L0 
     /tmp/ccnFFJRG.s:341    .text._Z4initv:00000000000000c4 .L0 
     /tmp/ccnFFJRG.s:343    .text._Z4initv:00000000000000c8 .L0 
     /tmp/ccnFFJRG.s:344    .text._Z4initv:00000000000000c8 .L0 
     /tmp/ccnFFJRG.s:346    .text._Z4initv:00000000000000cc .L0 
     /tmp/ccnFFJRG.s:348    .text._Z4initv:00000000000000d0 .L0 
     /tmp/ccnFFJRG.s:350    .text._Z4initv:00000000000000d4 .L0 
     /tmp/ccnFFJRG.s:353    .text._Z4initv:00000000000000d8 .L0 
     /tmp/ccnFFJRG.s:356    .text._Z4initv:00000000000000dc .L0 
     /tmp/ccnFFJRG.s:364    .text._Z4initv:00000000000000f4 .L0 
     /tmp/ccnFFJRG.s:395    .text:00000000000000f8 main
     /tmp/ccnFFJRG.s:398    .text:00000000000000f8 .L0 
     /tmp/ccnFFJRG.s:399    .text:00000000000000f8 .L0 
     /tmp/ccnFFJRG.s:400    .text:00000000000000fc .L0 
     /tmp/ccnFFJRG.s:403    .text:0000000000000104 .L0 
     /tmp/ccnFFJRG.s:404    .text:0000000000000104 .L0 
     /tmp/ccnFFJRG.s:406    .text:0000000000000108 .L0 
     /tmp/ccnFFJRG.s:408    .text:0000000000000108 .L0 
     /tmp/ccnFFJRG.s:409    .text:0000000000000108 .L0 
     /tmp/ccnFFJRG.s:412    .text:0000000000000110 .L0 
     /tmp/ccnFFJRG.s:413    .text:0000000000000110 .L0 
     /tmp/ccnFFJRG.s:416    .text:0000000000000118 .L0 
     /tmp/ccnFFJRG.s:417    .text:0000000000000118 .L0 
     /tmp/ccnFFJRG.s:420    .text:0000000000000120 .L0 
     /tmp/ccnFFJRG.s:421    .text:0000000000000124 .L0 
     /tmp/ccnFFJRG.s:423    .text:0000000000000128 .L0 
     /tmp/ccnFFJRG.s:424    .text:0000000000000128 .L0 
     /tmp/ccnFFJRG.s:426    .text:000000000000012c .L0 
     /tmp/ccnFFJRG.s:428    .text:0000000000000130 .L0 
     /tmp/ccnFFJRG.s:437    .bss:0000000000000000 printer
     /tmp/ccnFFJRG.s:434    .bss:0000000000000000 .LANCHOR0
     /tmp/ccnFFJRG.s:448    .text:0000000000000130 .L0 
     /tmp/ccnFFJRG.s:223    .text._ZN3stm14CircularBufferIP3TCBE4initEv:0000000000000050 .L0 
     /tmp/ccnFFJRG.s:391    .text._Z4initv:00000000000000f4 .L0 
     /tmp/ccnFFJRG.s:67     .text:000000000000004c .L0 
     /tmp/ccnFFJRG.s:92     .rodata.str1.8:0000000000000000 .LC0
     /tmp/ccnFFJRG.s:119    .text:0000000000000098 .L0 
     /tmp/ccnFFJRG.s:95     .rodata.str1.8:0000000000000028 .LC1
     /tmp/ccnFFJRG.s:130    .text:00000000000000b4 .L0 
     /tmp/ccnFFJRG.s:143    .text:00000000000000c4 .L0 
     /tmp/ccnFFJRG.s:133    .text:00000000000000c4 .L6
     /tmp/ccnFFJRG.s:247    .text._Z4initv:0000000000000018 .L0 
GAS LISTING /tmp/ccnFFJRG.s 			page 18


     /tmp/ccnFFJRG.s:278    .text._Z4initv:000000000000003c .L0 
     /tmp/ccnFFJRG.s:283    .text._Z4initv:000000000000004c .L0 
     /tmp/ccnFFJRG.s:288    .text._Z4initv:000000000000005c .L0 
     /tmp/ccnFFJRG.s:305    .text._Z4initv:0000000000000084 .L0 
     /tmp/ccnFFJRG.s:318    .text._Z4initv:00000000000000a4 .L0 
     /tmp/ccnFFJRG.s:263    .text._Z4initv:000000000000002c .LEHB0
     /tmp/ccnFFJRG.s:228    .text._Z4initv:0000000000000000 .LFB66
     /tmp/ccnFFJRG.s:298    .text._Z4initv:0000000000000078 .LEHE0
     /tmp/ccnFFJRG.s:300    .text._Z4initv:000000000000007c .LEHB1
     /tmp/ccnFFJRG.s:303    .text._Z4initv:0000000000000084 .LEHE1
     /tmp/ccnFFJRG.s:352    .text._Z4initv:00000000000000d8 .L12
     /tmp/ccnFFJRG.s:312    .text._Z4initv:0000000000000098 .LEHB2
     /tmp/ccnFFJRG.s:322    .text._Z4initv:00000000000000b8 .LEHE2
     /tmp/ccnFFJRG.s:360    .text._Z4initv:00000000000000ec .LEHB3
     /tmp/ccnFFJRG.s:363    .text._Z4initv:00000000000000f4 .LEHE3
     /tmp/ccnFFJRG.s:3137   .debug_abbrev:0000000000000000 .Ldebug_abbrev0
     /tmp/ccnFFJRG.s:5150   .debug_str:0000000000000ff8 .LASF306
     /tmp/ccnFFJRG.s:4798   .debug_str:0000000000000503 .LASF307
     /tmp/ccnFFJRG.s:4816   .debug_str:0000000000000581 .LASF308
     /tmp/ccnFFJRG.s:4630   .debug_ranges:0000000000000000 .Ldebug_ranges0
     /tmp/ccnFFJRG.s:4640   .debug_line:0000000000000000 .Ldebug_line0
     /tmp/ccnFFJRG.s:4856   .debug_str:00000000000006ff .LASF0
     /tmp/ccnFFJRG.s:4908   .debug_str:000000000000089f .LASF1
     /tmp/ccnFFJRG.s:5076   .debug_str:0000000000000de6 .LASF2
     /tmp/ccnFFJRG.s:5084   .debug_str:0000000000000e21 .LASF4
     /tmp/ccnFFJRG.s:4876   .debug_str:00000000000007a2 .LASF3
     /tmp/ccnFFJRG.s:4658   .debug_str:0000000000000070 .LASF5
     /tmp/ccnFFJRG.s:5036   .debug_str:0000000000000cab .LASF6
     /tmp/ccnFFJRG.s:5014   .debug_str:0000000000000bf6 .LASF7
     /tmp/ccnFFJRG.s:4894   .debug_str:000000000000084b .LASF8
     /tmp/ccnFFJRG.s:4810   .debug_str:0000000000000546 .LASF9
     /tmp/ccnFFJRG.s:4826   .debug_str:00000000000005fa .LASF10
     /tmp/ccnFFJRG.s:4712   .debug_str:0000000000000226 .LASF11
     /tmp/ccnFFJRG.s:4794   .debug_str:00000000000004df .LASF12
     /tmp/ccnFFJRG.s:4736   .debug_str:00000000000002c4 .LASF13
     /tmp/ccnFFJRG.s:4710   .debug_str:0000000000000216 .LASF14
     /tmp/ccnFFJRG.s:5120   .debug_str:0000000000000f2a .LASF15
     /tmp/ccnFFJRG.s:4776   .debug_str:000000000000044f .LASF16
     /tmp/ccnFFJRG.s:5106   .debug_str:0000000000000eca .LASF17
     /tmp/ccnFFJRG.s:5218   .debug_str:00000000000012e5 .LASF18
     /tmp/ccnFFJRG.s:4914   .debug_str:00000000000008c3 .LASF27
     /tmp/ccnFFJRG.s:4918   .debug_str:00000000000008e7 .LASF29
     /tmp/ccnFFJRG.s:5144   .debug_str:0000000000000fd6 .LASF19
     /tmp/ccnFFJRG.s:4944   .debug_str:00000000000009cc .LASF21
     /tmp/ccnFFJRG.s:5102   .debug_str:0000000000000eb0 .LASF20
     /tmp/ccnFFJRG.s:5156   .debug_str:00000000000010c8 .LASF22
     /tmp/ccnFFJRG.s:5188   .debug_str:00000000000011f5 .LASF23
     /tmp/ccnFFJRG.s:4828   .debug_str:0000000000000608 .LASF25
     /tmp/ccnFFJRG.s:5064   .debug_str:0000000000000d80 .LASF24
     /tmp/ccnFFJRG.s:5028   .debug_str:0000000000000c61 .LASF26
     /tmp/ccnFFJRG.s:4688   .debug_str:0000000000000155 .LASF96
     /tmp/ccnFFJRG.s:4982   .debug_str:0000000000000b07 .LASF98
     /tmp/ccnFFJRG.s:5170   .debug_str:000000000000115c .LASF28
     /tmp/ccnFFJRG.s:5216   .debug_str:00000000000012d3 .LASF30
     /tmp/ccnFFJRG.s:5016   .debug_str:0000000000000c09 .LASF31
     /tmp/ccnFFJRG.s:5270   .debug_str:0000000000001494 .LASF32
     /tmp/ccnFFJRG.s:4984   .debug_str:0000000000000b17 .LASF33
GAS LISTING /tmp/ccnFFJRG.s 			page 19


     /tmp/ccnFFJRG.s:5140   .debug_str:0000000000000fab .LASF34
     /tmp/ccnFFJRG.s:4938   .debug_str:00000000000009ac .LASF35
     /tmp/ccnFFJRG.s:4746   .debug_str:000000000000032b .LASF36
     /tmp/ccnFFJRG.s:5082   .debug_str:0000000000000e11 .LASF37
     /tmp/ccnFFJRG.s:4700   .debug_str:00000000000001b5 .LASF38
     /tmp/ccnFFJRG.s:4950   .debug_str:00000000000009f6 .LASF39
     /tmp/ccnFFJRG.s:5166   .debug_str:000000000000111a .LASF40
     /tmp/ccnFFJRG.s:5228   .debug_str:0000000000001347 .LASF41
     /tmp/ccnFFJRG.s:4758   .debug_str:00000000000003a7 .LASF42
     /tmp/ccnFFJRG.s:4954   .debug_str:0000000000000a30 .LASF43
     /tmp/ccnFFJRG.s:5122   .debug_str:0000000000000f36 .LASF44
     /tmp/ccnFFJRG.s:5172   .debug_str:0000000000001162 .LASF45
     /tmp/ccnFFJRG.s:5208   .debug_str:000000000000129b .LASF47
     /tmp/ccnFFJRG.s:5248   .debug_str:00000000000013df .LASF46
     /tmp/ccnFFJRG.s:4676   .debug_str:00000000000000d7 .LASF48
     /tmp/ccnFFJRG.s:5030   .debug_str:0000000000000c81 .LASF49
     /tmp/ccnFFJRG.s:4750   .debug_str:0000000000000359 .LASF50
     /tmp/ccnFFJRG.s:4942   .debug_str:00000000000009c2 .LASF51
     /tmp/ccnFFJRG.s:5260   .debug_str:0000000000001455 .LASF52
     /tmp/ccnFFJRG.s:5004   .debug_str:0000000000000ba0 .LASF53
     /tmp/ccnFFJRG.s:4976   .debug_str:0000000000000ad3 .LASF54
     /tmp/ccnFFJRG.s:4708   .debug_str:0000000000000208 .LASF55
     /tmp/ccnFFJRG.s:4854   .debug_str:00000000000006f9 .LASF56
     /tmp/ccnFFJRG.s:4660   .debug_str:0000000000000077 .LASF57
     /tmp/ccnFFJRG.s:4912   .debug_str:00000000000008bd .LASF58
     /tmp/ccnFFJRG.s:5090   .debug_str:0000000000000e35 .LASF59
     /tmp/ccnFFJRG.s:4992   .debug_str:0000000000000b42 .LASF60
     /tmp/ccnFFJRG.s:4706   .debug_str:00000000000001f7 .LASF61
     /tmp/ccnFFJRG.s:4946   .debug_str:00000000000009e4 .LASF62
     /tmp/ccnFFJRG.s:4792   .debug_str:00000000000004ce .LASF63
     /tmp/ccnFFJRG.s:5114   .debug_str:0000000000000f02 .LASF64
     /tmp/ccnFFJRG.s:4866   .debug_str:0000000000000739 .LASF65
     /tmp/ccnFFJRG.s:4666   .debug_str:00000000000000ab .LASF66
     /tmp/ccnFFJRG.s:4772   .debug_str:0000000000000422 .LASF67
     /tmp/ccnFFJRG.s:4830   .debug_str:0000000000000622 .LASF68
     /tmp/ccnFFJRG.s:4678   .debug_str:00000000000000ee .LASF69
     /tmp/ccnFFJRG.s:5162   .debug_str:00000000000010f5 .LASF70
     /tmp/ccnFFJRG.s:4870   .debug_str:000000000000075d .LASF71
     /tmp/ccnFFJRG.s:4878   .debug_str:00000000000007b4 .LASF72
     /tmp/ccnFFJRG.s:5246   .debug_str:00000000000013c5 .LASF73
     /tmp/ccnFFJRG.s:4726   .debug_str:000000000000027e .LASF74
     /tmp/ccnFFJRG.s:4766   .debug_str:00000000000003f1 .LASF75
     /tmp/ccnFFJRG.s:4800   .debug_str:0000000000000510 .LASF76
     /tmp/ccnFFJRG.s:5146   .debug_str:0000000000000fe3 .LASF77
     /tmp/ccnFFJRG.s:5176   .debug_str:000000000000117b .LASF106
     /tmp/ccnFFJRG.s:5190   .debug_str:0000000000001202 .LASF78
     /tmp/ccnFFJRG.s:4652   .debug_str:0000000000000055 .LASF79
     /tmp/ccnFFJRG.s:5264   .debug_str:000000000000147e .LASF80
     /tmp/ccnFFJRG.s:4762   .debug_str:00000000000003d7 .LASF81
     /tmp/ccnFFJRG.s:4904   .debug_str:0000000000000892 .LASF82
     /tmp/ccnFFJRG.s:5214   .debug_str:00000000000012cc .LASF83
     /tmp/ccnFFJRG.s:5060   .debug_str:0000000000000d6c .LASF84
     /tmp/ccnFFJRG.s:5178   .debug_str:0000000000001180 .LASF85
     /tmp/ccnFFJRG.s:4924   .debug_str:0000000000000920 .LASF86
     /tmp/ccnFFJRG.s:4690   .debug_str:000000000000015b .LASF87
     /tmp/ccnFFJRG.s:4704   .debug_str:00000000000001eb .LASF260
     /tmp/ccnFFJRG.s:4714   .debug_str:0000000000000235 .LASF88
GAS LISTING /tmp/ccnFFJRG.s 			page 20


     /tmp/ccnFFJRG.s:4906   .debug_str:000000000000089a .LASF89
     /tmp/ccnFFJRG.s:4642   .debug_str:0000000000000000 .LASF90
     /tmp/ccnFFJRG.s:4872   .debug_str:0000000000000778 .LASF91
     /tmp/ccnFFJRG.s:4868   .debug_str:0000000000000753 .LASF92
     /tmp/ccnFFJRG.s:5098   .debug_str:0000000000000e8b .LASF93
     /tmp/ccnFFJRG.s:5100   .debug_str:0000000000000ea7 .LASF94
     /tmp/ccnFFJRG.s:5184   .debug_str:00000000000011b4 .LASF95
     /tmp/ccnFFJRG.s:5206   .debug_str:0000000000001291 .LASF97
     /tmp/ccnFFJRG.s:4728   .debug_str:0000000000000287 .LASF99
     /tmp/ccnFFJRG.s:4972   .debug_str:0000000000000ac5 .LASF100
     /tmp/ccnFFJRG.s:5278   .debug_str:00000000000014cf .LASF101
     /tmp/ccnFFJRG.s:5104   .debug_str:0000000000000ec1 .LASF102
     /tmp/ccnFFJRG.s:5224   .debug_str:0000000000001326 .LASF103
     /tmp/ccnFFJRG.s:4668   .debug_str:00000000000000b9 .LASF104
     /tmp/ccnFFJRG.s:5200   .debug_str:000000000000122b .LASF105
     /tmp/ccnFFJRG.s:5276   .debug_str:00000000000014c9 .LASF309
     /tmp/ccnFFJRG.s:4928   .debug_str:000000000000093f .LASF310
     /tmp/ccnFFJRG.s:4930   .debug_str:0000000000000969 .LASF138
     /tmp/ccnFFJRG.s:4958   .debug_str:0000000000000a58 .LASF107
     /tmp/ccnFFJRG.s:5058   .debug_str:0000000000000d67 .LASF108
     /tmp/ccnFFJRG.s:4672   .debug_str:00000000000000c9 .LASF109
     /tmp/ccnFFJRG.s:4820   .debug_str:00000000000005c6 .LASF110
     /tmp/ccnFFJRG.s:4790   .debug_str:00000000000004b9 .LASF111
     /tmp/ccnFFJRG.s:4788   .debug_str:00000000000004a6 .LASF112
     /tmp/ccnFFJRG.s:4822   .debug_str:00000000000005d9 .LASF113
     /tmp/ccnFFJRG.s:5010   .debug_str:0000000000000bdc .LASF114
     /tmp/ccnFFJRG.s:4806   .debug_str:000000000000052b .LASF115
     /tmp/ccnFFJRG.s:4760   .debug_str:00000000000003c0 .LASF116
     /tmp/ccnFFJRG.s:5164   .debug_str:0000000000001104 .LASF117
     /tmp/ccnFFJRG.s:5080   .debug_str:0000000000000e07 .LASF118
     /tmp/ccnFFJRG.s:5006   .debug_str:0000000000000bac .LASF119
     /tmp/ccnFFJRG.s:5050   .debug_str:0000000000000d15 .LASF120
     /tmp/ccnFFJRG.s:5130   .debug_str:0000000000000f77 .LASF121
     /tmp/ccnFFJRG.s:5070   .debug_str:0000000000000db1 .LASF122
     /tmp/ccnFFJRG.s:5238   .debug_str:0000000000001392 .LASF123
     /tmp/ccnFFJRG.s:5142   .debug_str:0000000000000fc3 .LASF124
     /tmp/ccnFFJRG.s:5282   .debug_str:0000000000001501 .LASF125
     /tmp/ccnFFJRG.s:5000   .debug_str:0000000000000b80 .LASF126
     /tmp/ccnFFJRG.s:4664   .debug_str:0000000000000094 .LASF127
     /tmp/ccnFFJRG.s:4778   .debug_str:0000000000000465 .LASF128
     /tmp/ccnFFJRG.s:4744   .debug_str:0000000000000318 .LASF129
     /tmp/ccnFFJRG.s:4974   .debug_str:0000000000000ace .LASF130
     /tmp/ccnFFJRG.s:4838   .debug_str:0000000000000652 .LASF131
     /tmp/ccnFFJRG.s:4722   .debug_str:0000000000000270 .LASF132
     /tmp/ccnFFJRG.s:5018   .debug_str:0000000000000c16 .LASF133
     /tmp/ccnFFJRG.s:5226   .debug_str:000000000000133f .LASF134
     /tmp/ccnFFJRG.s:5280   .debug_str:00000000000014e8 .LASF135
     /tmp/ccnFFJRG.s:5274   .debug_str:00000000000014b9 .LASF136
     /tmp/ccnFFJRG.s:4646   .debug_str:0000000000000013 .LASF137
     /tmp/ccnFFJRG.s:4720   .debug_str:0000000000000265 .LASF139
     /tmp/ccnFFJRG.s:4686   .debug_str:0000000000000147 .LASF140
     /tmp/ccnFFJRG.s:5174   .debug_str:000000000000116e .LASF141
     /tmp/ccnFFJRG.s:4796   .debug_str:00000000000004ee .LASF142
     /tmp/ccnFFJRG.s:5044   .debug_str:0000000000000cd2 .LASF143
     /tmp/ccnFFJRG.s:5220   .debug_str:00000000000012ee .LASF144
     /tmp/ccnFFJRG.s:5202   .debug_str:0000000000001258 .LASF145
     /tmp/ccnFFJRG.s:4684   .debug_str:0000000000000126 .LASF162
GAS LISTING /tmp/ccnFFJRG.s 			page 21


     /tmp/ccnFFJRG.s:4656   .debug_str:000000000000006b .LASF146
     /tmp/ccnFFJRG.s:5128   .debug_str:0000000000000f55 .LASF147
     /tmp/ccnFFJRG.s:5062   .debug_str:0000000000000d77 .LASF148
     /tmp/ccnFFJRG.s:4818   .debug_str:000000000000059f .LASF149
     /tmp/ccnFFJRG.s:5180   .debug_str:000000000000118a .LASF150
     /tmp/ccnFFJRG.s:5092   .debug_str:0000000000000e45 .LASF151
     /tmp/ccnFFJRG.s:4734   .debug_str:00000000000002bd .LASF152
     /tmp/ccnFFJRG.s:4692   .debug_str:0000000000000165 .LASF153
     /tmp/ccnFFJRG.s:4832   .debug_str:0000000000000632 .LASF154
     /tmp/ccnFFJRG.s:4786   .debug_str:00000000000004a0 .LASF155
     /tmp/ccnFFJRG.s:5110   .debug_str:0000000000000ee8 .LASF156
     /tmp/ccnFFJRG.s:4980   .debug_str:0000000000000b02 .LASF157
     /tmp/ccnFFJRG.s:4724   .debug_str:0000000000000275 .LASF158
     /tmp/ccnFFJRG.s:4648   .debug_str:000000000000003a .LASF159
     /tmp/ccnFFJRG.s:5252   .debug_str:0000000000001409 .LASF160
     /tmp/ccnFFJRG.s:4886   .debug_str:0000000000000801 .LASF161
     /tmp/ccnFFJRG.s:4850   .debug_str:00000000000006c2 .LASF163
     /tmp/ccnFFJRG.s:5168   .debug_str:0000000000001136 .LASF164
     /tmp/ccnFFJRG.s:4952   .debug_str:0000000000000a05 .LASF165
     /tmp/ccnFFJRG.s:4844   .debug_str:000000000000067d .LASF166
     /tmp/ccnFFJRG.s:5186   .debug_str:00000000000011cd .LASF167
     /tmp/ccnFFJRG.s:4808   .debug_str:000000000000053e .LASF311
     /tmp/ccnFFJRG.s:4698   .debug_str:00000000000001ad .LASF168
     /tmp/ccnFFJRG.s:5138   .debug_str:0000000000000fa0 .LASF169
     /tmp/ccnFFJRG.s:4882   .debug_str:00000000000007d8 .LASF170
     /tmp/ccnFFJRG.s:4978   .debug_str:0000000000000aeb .LASF171
     /tmp/ccnFFJRG.s:4718   .debug_str:0000000000000244 .LASF172
     /tmp/ccnFFJRG.s:4916   .debug_str:00000000000008d2 .LASF173
     /tmp/ccnFFJRG.s:4892   .debug_str:0000000000000836 .LASF174
     /tmp/ccnFFJRG.s:4900   .debug_str:0000000000000871 .LASF175
     /tmp/ccnFFJRG.s:4846   .debug_str:00000000000006a6 .LASF176
     /tmp/ccnFFJRG.s:4880   .debug_str:00000000000007c3 .LASF177
     /tmp/ccnFFJRG.s:5182   .debug_str:0000000000001192 .LASF178
     /tmp/ccnFFJRG.s:4898   .debug_str:000000000000086c .LASF179
     /tmp/ccnFFJRG.s:5258   .debug_str:0000000000001447 .LASF181
     /tmp/ccnFFJRG.s:5152   .debug_str:00000000000010bc .LASF180
     /tmp/ccnFFJRG.s:4730   .debug_str:00000000000002a1 .LASF182
     /tmp/ccnFFJRG.s:5132   .debug_str:0000000000000f7e .LASF183
     /tmp/ccnFFJRG.s:4732   .debug_str:00000000000002af .LASF184
     /tmp/ccnFFJRG.s:4848   .debug_str:00000000000006bc .LASF185
     /tmp/ccnFFJRG.s:4780   .debug_str:000000000000046d .LASF312
     /tmp/ccnFFJRG.s:4784   .debug_str:0000000000000494 .LASF186
     /tmp/ccnFFJRG.s:5148   .debug_str:0000000000000feb .LASF187
     /tmp/ccnFFJRG.s:4962   .debug_str:0000000000000a7d .LASF188
     /tmp/ccnFFJRG.s:5022   .debug_str:0000000000000c35 .LASF189
     /tmp/ccnFFJRG.s:5234   .debug_str:0000000000001364 .LASF190
     /tmp/ccnFFJRG.s:5244   .debug_str:00000000000013b5 .LASF191
     /tmp/ccnFFJRG.s:5054   .debug_str:0000000000000d41 .LASF192
     /tmp/ccnFFJRG.s:4998   .debug_str:0000000000000b71 .LASF193
     /tmp/ccnFFJRG.s:4932   .debug_str:0000000000000975 .LASF194
     /tmp/ccnFFJRG.s:5240   .debug_str:000000000000139d .LASF195
     /tmp/ccnFFJRG.s:4968   .debug_str:0000000000000aa0 .LASF196
     /tmp/ccnFFJRG.s:5096   .debug_str:0000000000000e79 .LASF197
     /tmp/ccnFFJRG.s:5250   .debug_str:00000000000013ea .LASF198
     /tmp/ccnFFJRG.s:5196   .debug_str:0000000000001215 .LASF199
     /tmp/ccnFFJRG.s:5046   .debug_str:0000000000000cd7 .LASF200
     /tmp/ccnFFJRG.s:4842   .debug_str:0000000000000672 .LASF201
GAS LISTING /tmp/ccnFFJRG.s 			page 22


     /tmp/ccnFFJRG.s:4960   .debug_str:0000000000000a65 .LASF202
     /tmp/ccnFFJRG.s:5134   .debug_str:0000000000000f83 .LASF203
     /tmp/ccnFFJRG.s:5034   .debug_str:0000000000000c97 .LASF204
     /tmp/ccnFFJRG.s:5124   .debug_str:0000000000000f44 .LASF205
     /tmp/ccnFFJRG.s:5136   .debug_str:0000000000000f8b .LASF206
     /tmp/ccnFFJRG.s:4920   .debug_str:000000000000090f .LASF207
     /tmp/ccnFFJRG.s:4654   .debug_str:000000000000005a .LASF208
     /tmp/ccnFFJRG.s:5194   .debug_str:000000000000120c .LASF209
     /tmp/ccnFFJRG.s:4738   .debug_str:00000000000002d4 .LASF210
     /tmp/ccnFFJRG.s:5072   .debug_str:0000000000000dca .LASF211
     /tmp/ccnFFJRG.s:4740   .debug_str:00000000000002e9 .LASF212
     /tmp/ccnFFJRG.s:5042   .debug_str:0000000000000ccb .LASF213
     /tmp/ccnFFJRG.s:4702   .debug_str:00000000000001d8 .LASF214
     /tmp/ccnFFJRG.s:4986   .debug_str:0000000000000b24 .LASF215
     /tmp/ccnFFJRG.s:5074   .debug_str:0000000000000dd3 .LASF216
     /tmp/ccnFFJRG.s:5242   .debug_str:00000000000013ad .LASF217
     /tmp/ccnFFJRG.s:5068   .debug_str:0000000000000d9d .LASF218
     /tmp/ccnFFJRG.s:4890   .debug_str:000000000000082e .LASF219
     /tmp/ccnFFJRG.s:4884   .debug_str:00000000000007ed .LASF220
     /tmp/ccnFFJRG.s:4970   .debug_str:0000000000000abd .LASF221
     /tmp/ccnFFJRG.s:5210   .debug_str:00000000000012b3 .LASF222
     /tmp/ccnFFJRG.s:5108   .debug_str:0000000000000ee0 .LASF223
     /tmp/ccnFFJRG.s:4754   .debug_str:0000000000000389 .LASF224
     /tmp/ccnFFJRG.s:4674   .debug_str:00000000000000d0 .LASF225
     /tmp/ccnFFJRG.s:5078   .debug_str:0000000000000df4 .LASF226
     /tmp/ccnFFJRG.s:5088   .debug_str:0000000000000e2e .LASF227
     /tmp/ccnFFJRG.s:4764   .debug_str:00000000000003de .LASF228
     /tmp/ccnFFJRG.s:5086   .debug_str:0000000000000e28 .LASF229
     /tmp/ccnFFJRG.s:4852   .debug_str:00000000000006e7 .LASF230
     /tmp/ccnFFJRG.s:4864   .debug_str:0000000000000733 .LASF231
     /tmp/ccnFFJRG.s:4936   .debug_str:000000000000099a .LASF232
     /tmp/ccnFFJRG.s:5266   .debug_str:0000000000001484 .LASF233
     /tmp/ccnFFJRG.s:4694   .debug_str:0000000000000189 .LASF234
     /tmp/ccnFFJRG.s:4948   .debug_str:00000000000009eb .LASF235
     /tmp/ccnFFJRG.s:4926   .debug_str:0000000000000927 .LASF236
     /tmp/ccnFFJRG.s:5232   .debug_str:000000000000135a .LASF237
     /tmp/ccnFFJRG.s:5052   .debug_str:0000000000000d2b .LASF238
     /tmp/ccnFFJRG.s:4716   .debug_str:000000000000023a .LASF239
     /tmp/ccnFFJRG.s:5222   .debug_str:0000000000001310 .LASF240
     /tmp/ccnFFJRG.s:4988   .debug_str:0000000000000b2b .LASF241
     /tmp/ccnFFJRG.s:5204   .debug_str:0000000000001279 .LASF242
     /tmp/ccnFFJRG.s:4756   .debug_str:000000000000039d .LASF243
     /tmp/ccnFFJRG.s:4874   .debug_str:0000000000000794 .LASF244
     /tmp/ccnFFJRG.s:4934   .debug_str:0000000000000991 .LASF245
     /tmp/ccnFFJRG.s:4774   .debug_str:000000000000043b .LASF246
     /tmp/ccnFFJRG.s:5048   .debug_str:0000000000000d02 .LASF247
     /tmp/ccnFFJRG.s:5038   .debug_str:0000000000000cb2 .LASF248
     /tmp/ccnFFJRG.s:4994   .debug_str:0000000000000b49 .LASF249
     /tmp/ccnFFJRG.s:5158   .debug_str:00000000000010e4 .LASF250
     /tmp/ccnFFJRG.s:5254   .debug_str:000000000000142f .LASF251
     /tmp/ccnFFJRG.s:4896   .debug_str:000000000000085e .LASF252
     /tmp/ccnFFJRG.s:5020   .debug_str:0000000000000c2f .LASF253
     /tmp/ccnFFJRG.s:4836   .debug_str:0000000000000643 .LASF254
     /tmp/ccnFFJRG.s:4840   .debug_str:000000000000066c .LASF255
     /tmp/ccnFFJRG.s:4996   .debug_str:0000000000000b62 .LASF256
     /tmp/ccnFFJRG.s:5040   .debug_str:0000000000000cc5 .LASF257
     /tmp/ccnFFJRG.s:4940   .debug_str:00000000000009bb .LASF258
GAS LISTING /tmp/ccnFFJRG.s 			page 23


     /tmp/ccnFFJRG.s:4888   .debug_str:0000000000000828 .LASF259
     /tmp/ccnFFJRG.s:5126   .debug_str:0000000000000f4d .LASF261
     /tmp/ccnFFJRG.s:5236   .debug_str:000000000000138a .LASF262
     /tmp/ccnFFJRG.s:4670   .debug_str:00000000000000c2 .LASF313
     /tmp/ccnFFJRG.s:5056   .debug_str:0000000000000d5e .LASF263
     /tmp/ccnFFJRG.s:4644   .debug_str:000000000000000b .LASF264
     /tmp/ccnFFJRG.s:5230   .debug_str:0000000000001351 .LASF265
     /tmp/ccnFFJRG.s:5154   .debug_str:00000000000010c1 .LASF266
     /tmp/ccnFFJRG.s:4770   .debug_str:0000000000000419 .LASF267
     /tmp/ccnFFJRG.s:5160   .debug_str:00000000000010eb .LASF268
     /tmp/ccnFFJRG.s:5112   .debug_str:0000000000000eed .LASF269
     /tmp/ccnFFJRG.s:4782   .debug_str:000000000000047c .LASF314
     /tmp/ccnFFJRG.s:5262   .debug_str:000000000000146a .LASF315
     /tmp/ccnFFJRG.s:5008   .debug_str:0000000000000bc3 .LASF270
     /tmp/ccnFFJRG.s:4768   .debug_str:0000000000000404 .LASF271
     /tmp/ccnFFJRG.s:4812   .debug_str:0000000000000556 .LASF272
     /tmp/ccnFFJRG.s:4742   .debug_str:00000000000002fe .LASF273
     /tmp/ccnFFJRG.s:4922   .debug_str:0000000000000914 .LASF274
     /tmp/ccnFFJRG.s:5026   .debug_str:0000000000000c53 .LASF275
     /tmp/ccnFFJRG.s:4680   .debug_str:0000000000000109 .LASF276
     /tmp/ccnFFJRG.s:4662   .debug_str:0000000000000087 .LASF277
     /tmp/ccnFFJRG.s:4860   .debug_str:000000000000071c .LASF278
     /tmp/ccnFFJRG.s:4834   .debug_str:000000000000063b .LASF279
     /tmp/ccnFFJRG.s:177    .text._ZN3stm14CircularBufferIP3TCBE4initEv:0000000000000000 .LFB72
     /tmp/ccnFFJRG.s:221    .text._ZN3stm14CircularBufferIP3TCBE4initEv:0000000000000050 .LFE72
     /tmp/ccnFFJRG.s:4802   .debug_str:000000000000051e .LASF288
     /tmp/ccnFFJRG.s:4548   .debug_loc:0000000000000000 .LLST2
     /tmp/ccnFFJRG.s:205    .text._ZN3stm14CircularBufferIP3TCBE4initEv:0000000000000038 .LVL14
     /tmp/ccnFFJRG.s:5268   .debug_str:000000000000148f .LASF280
     /tmp/ccnFFJRG.s:396    .text:00000000000000f8 .LFB70
     /tmp/ccnFFJRG.s:429    .text:0000000000000130 .LFE70
     /tmp/ccnFFJRG.s:4566   .debug_loc:000000000000004c .LLST4
     /tmp/ccnFFJRG.s:410    .text:0000000000000110 .LVL28
     /tmp/ccnFFJRG.s:414    .text:0000000000000118 .LVL29
     /tmp/ccnFFJRG.s:418    .text:0000000000000120 .LVL30
     /tmp/ccnFFJRG.s:4804   .debug_str:0000000000000523 .LASF316
     /tmp/ccnFFJRG.s:102    .text:0000000000000080 .LFB69
     /tmp/ccnFFJRG.s:170    .text:00000000000000f8 .LFE69
     /tmp/ccnFFJRG.s:4573   .debug_loc:000000000000006f .LLST1
     /tmp/ccnFFJRG.s:138    .text:00000000000000c4 .LBB10
     /tmp/ccnFFJRG.s:148    .text:00000000000000d0 .LBE10
     /tmp/ccnFFJRG.s:139    .text:00000000000000c4 .LBB11
     /tmp/ccnFFJRG.s:147    .text:00000000000000d0 .LBE11
     /tmp/ccnFFJRG.s:122    .text:00000000000000a8 .LVL7
     /tmp/ccnFFJRG.s:127    .text:00000000000000b4 .LVL8
     /tmp/ccnFFJRG.s:132    .text:00000000000000c4 .LVL9
     /tmp/ccnFFJRG.s:155    .text:00000000000000e0 .LVL11
     /tmp/ccnFFJRG.s:5192   .debug_str:0000000000001207 .LASF281
     /tmp/ccnFFJRG.s:4748   .debug_str:0000000000000350 .LASF317
     /tmp/ccnFFJRG.s:51     .text:0000000000000038 .LFB68
     /tmp/ccnFFJRG.s:88     .text:0000000000000080 .LFE68
     /tmp/ccnFFJRG.s:4910   .debug_str:00000000000008b2 .LASF282
     /tmp/ccnFFJRG.s:70     .text:0000000000000060 .LVL3
     /tmp/ccnFFJRG.s:75     .text:000000000000006c .LVL4
     /tmp/ccnFFJRG.s:5116   .debug_str:0000000000000f10 .LASF283
     /tmp/ccnFFJRG.s:5256   .debug_str:0000000000001435 .LASF284
     /tmp/ccnFFJRG.s:10     .text:0000000000000000 .LFB67
GAS LISTING /tmp/ccnFFJRG.s 			page 24


     /tmp/ccnFFJRG.s:45     .text:0000000000000038 .LFE67
     /tmp/ccnFFJRG.s:4587   .debug_loc:00000000000000a8 .LLST0
     /tmp/ccnFFJRG.s:29     .text:0000000000000020 .LVL1
     /tmp/ccnFFJRG.s:4956   .debug_str:0000000000000a4f .LASF285
     /tmp/ccnFFJRG.s:365    .text._Z4initv:00000000000000f4 .LFE66
     /tmp/ccnFFJRG.s:4696   .debug_str:00000000000001a1 .LASF286
     /tmp/ccnFFJRG.s:4902   .debug_str:0000000000000886 .LASF287
     /tmp/ccnFFJRG.s:273    .text._Z4initv:000000000000003c .LBB17
     /tmp/ccnFFJRG.s:292    .text._Z4initv:000000000000006c .LBE17
     /tmp/ccnFFJRG.s:280    .text._Z4initv:000000000000004c .LVL18
     /tmp/ccnFFJRG.s:285    .text._Z4initv:000000000000005c .LVL19
     /tmp/ccnFFJRG.s:290    .text._Z4initv:000000000000006c .LVL20
     /tmp/ccnFFJRG.s:324    .text._Z4initv:00000000000000b8 .LBB19
     /tmp/ccnFFJRG.s:337    .text._Z4initv:00000000000000c0 .LBE19
     /tmp/ccnFFJRG.s:4605   .debug_loc:00000000000000f4 .LLST3
     /tmp/ccnFFJRG.s:267    .text._Z4initv:0000000000000034 .LVL16
     /tmp/ccnFFJRG.s:271    .text._Z4initv:000000000000003c .LVL17
     /tmp/ccnFFJRG.s:297    .text._Z4initv:0000000000000078 .LVL21
     /tmp/ccnFFJRG.s:302    .text._Z4initv:0000000000000084 .LVL22
     /tmp/ccnFFJRG.s:314    .text._Z4initv:00000000000000a0 .LVL23
     /tmp/ccnFFJRG.s:321    .text._Z4initv:00000000000000b8 .LVL24
     /tmp/ccnFFJRG.s:358    .text._Z4initv:00000000000000e8 .LVL26
     /tmp/ccnFFJRG.s:362    .text._Z4initv:00000000000000f4 .LVL27
     /tmp/ccnFFJRG.s:5212   .debug_str:00000000000012c7 .LASF318
     /tmp/ccnFFJRG.s:4824   .debug_str:00000000000005ec .LASF289
     /tmp/ccnFFJRG.s:4966   .debug_str:0000000000000a96 .LASF291
     /tmp/ccnFFJRG.s:4862   .debug_str:0000000000000727 .LASF290
     /tmp/ccnFFJRG.s:4650   .debug_str:000000000000004f .LASF292
     /tmp/ccnFFJRG.s:5032   .debug_str:0000000000000c8d .LASF293
     /tmp/ccnFFJRG.s:4682   .debug_str:0000000000000116 .LASF294
     /tmp/ccnFFJRG.s:5066   .debug_str:0000000000000d92 .LASF295
     /tmp/ccnFFJRG.s:4814   .debug_str:0000000000000560 .LASF296
     /tmp/ccnFFJRG.s:5118   .debug_str:0000000000000f1c .LASF297
     /tmp/ccnFFJRG.s:5002   .debug_str:0000000000000b8b .LASF298
     /tmp/ccnFFJRG.s:4990   .debug_str:0000000000000b36 .LASF299
     /tmp/ccnFFJRG.s:4964   .debug_str:0000000000000a89 .LASF300
     /tmp/ccnFFJRG.s:5024   .debug_str:0000000000000c4a .LASF301
     /tmp/ccnFFJRG.s:5198   .debug_str:0000000000001225 .LASF302
     /tmp/ccnFFJRG.s:5272   .debug_str:00000000000014ac .LASF303
     /tmp/ccnFFJRG.s:5012   .debug_str:0000000000000bef .LASF304
     /tmp/ccnFFJRG.s:4858   .debug_str:000000000000070c .LASF305
     /tmp/ccnFFJRG.s:5094   .debug_str:0000000000000e6a .LASF319
     /tmp/ccnFFJRG.s:4752   .debug_str:0000000000000371 .LASF320
     /tmp/ccnFFJRG.s:180    .text._ZN3stm14CircularBufferIP3TCBE4initEv:0000000000000000 .LVL12
     /tmp/ccnFFJRG.s:203    .text._ZN3stm14CircularBufferIP3TCBE4initEv:0000000000000030 .LVL13
     /tmp/ccnFFJRG.s:216    .text._ZN3stm14CircularBufferIP3TCBE4initEv:0000000000000048 .LVL15
     /tmp/ccnFFJRG.s:105    .text:0000000000000080 .LVL5
     /tmp/ccnFFJRG.s:120    .text:00000000000000a0 .LVL6
     /tmp/ccnFFJRG.s:14     .text:0000000000000000 .LVL0
     /tmp/ccnFFJRG.s:40     .text:0000000000000030 .LVL2
     /tmp/ccnFFJRG.s:334    .text._Z4initv:00000000000000c0 .LVL25
     /tmp/ccnFFJRG.s:449    .debug_info:0000000000000000 .Ldebug_info0
     /tmp/ccnFFJRG.s:5      .text:0000000000000000 .Ltext0
     /tmp/ccnFFJRG.s:440    .text:0000000000000130 .Letext0
     /tmp/ccnFFJRG.s:368    .gcc_except_table._Z4initv:0000000000000000 .LLSDA66

UNDEFINED SYMBOLS
GAS LISTING /tmp/ccnFFJRG.s 			page 25


_Z8userMainv
_Z13thread_createPP3TCBPFvPvES2_
_Z11thread_joinP3TCB
_Z5printPKc
_Z5printi
_ZN2IO6OutputE
_Z10time_sleepm
_Z9mem_allocm
supervisorTrap
_ZN9Allocator8mem_initEv
_ZN2IO4initEv
_ZN9Scheduler13high_priorityE
_ZN9Scheduler12mid_priorityE
_ZN9Scheduler12low_priorityE
_Znwm
_ZN10OwnedMutexC1Ev
_ZN9Scheduler9idle_bodyEv
_ZdlPv
_Unwind_Resume
__gxx_personality_v0
