GAS LISTING /tmp/ccnFFJRG.s 			page 1


   1              		.file	"main.cpp"
   2              		.option pic
   3              		.option norelax
   4              		.text
   5              	.Ltext0:
   6              		.align	2
   7              		.globl	_Z11userWrapperPv
   9              	_Z11userWrapperPv:
  10              	.LFB67:
  11              		.file 1 "src/main.cpp"
   1:src/main.cpp  **** #include "../h/c_console.hpp"
   2:src/main.cpp  **** #include "../h/c_thread.hpp"
   3:src/main.cpp  **** #include "../h/cpp_semaphores.hpp"
   4:src/main.cpp  **** #include "../h/scheduler.hpp"
   5:src/main.cpp  **** #include "../h/iostream.hpp"
   6:src/main.cpp  **** 
   7:src/main.cpp  **** OwnedMutex *printer;
   8:src/main.cpp  **** 
   9:src/main.cpp  **** int userMain();
  10:src/main.cpp  **** 
  11:src/main.cpp  **** inline void init() {
  12:src/main.cpp  ****     __asm__ volatile("mv t0, %0": : "r" (&supervisorTrap));
  13:src/main.cpp  ****     __asm__ volatile("addi t0, t0, 1");
  14:src/main.cpp  ****     __asm__ volatile("csrw stvec, t0");
  15:src/main.cpp  ****     Allocator::mem_init();
  16:src/main.cpp  ****     IO::init();
  17:src/main.cpp  ****     Scheduler::init();
  18:src/main.cpp  ****     printer = new OwnedMutex();
  19:src/main.cpp  ****     thread_t handle_main, handle_idle;
  20:src/main.cpp  ****     thread_create(&handle_main, nullptr, nullptr);
  21:src/main.cpp  ****     thread_create(&handle_idle, reinterpret_cast<void(*)(void*)>(Scheduler::idle_body), nullptr);
  22:src/main.cpp  ****     riscv::ms_sstatus(riscv::SSTATUS_SIE);
  23:src/main.cpp  **** }
  24:src/main.cpp  **** 
  25:src/main.cpp  **** void userWrapper(void *ret) {
  12              		.loc 1 25 29
  13              		.cfi_startproc
  14              	.LVL0:
  15 0000 130101FE 		addi	sp,sp,-32
  16              		.cfi_def_cfa_offset 32
  17 0004 233C1100 		sd	ra,24(sp)
  18 0008 23388100 		sd	s0,16(sp)
  19 000c 23349100 		sd	s1,8(sp)
  20              		.cfi_offset 1, -8
  21              		.cfi_offset 8, -16
  22              		.cfi_offset 9, -24
  23 0010 13040102 		addi	s0,sp,32
  24              		.cfi_def_cfa 8, 0
  25 0014 93040500 		mv	s1,a0
  26:src/main.cpp  ****     *((int *) ret) = userMain();
  26              		.loc 1 26 5
  27              		.loc 1 26 30 is_stmt 0
  28 0018 97000000 		call	_Z8userMainv@plt
  28      E7800000 
  29              	.LVL1:
  30              		.loc 1 26 20
  31 0020 23A0A400 		sw	a0,0(s1)
GAS LISTING /tmp/ccnFFJRG.s 			page 2


  27:src/main.cpp  **** }
  32              		.loc 1 27 1
  33 0024 83308101 		ld	ra,24(sp)
  34              		.cfi_restore 1
  35 0028 03340101 		ld	s0,16(sp)
  36              		.cfi_restore 8
  37              		.cfi_def_cfa 2, 32
  38 002c 83348100 		ld	s1,8(sp)
  39              		.cfi_restore 9
  40              	.LVL2:
  41 0030 13010102 		addi	sp,sp,32
  42              		.cfi_def_cfa_offset 0
  43 0034 67800000 		jr	ra
  44              		.cfi_endproc
  45              	.LFE67:
  47              		.align	2
  48              		.globl	_Z4callv
  50              	_Z4callv:
  51              	.LFB68:
  28:src/main.cpp  **** 
  29:src/main.cpp  **** int call() {
  52              		.loc 1 29 12 is_stmt 1
  53              		.cfi_startproc
  54 0038 130101FE 		addi	sp,sp,-32
  55              		.cfi_def_cfa_offset 32
  56 003c 233C1100 		sd	ra,24(sp)
  57 0040 23388100 		sd	s0,16(sp)
  58              		.cfi_offset 1, -8
  59              		.cfi_offset 8, -16
  60 0044 13040102 		addi	s0,sp,32
  61              		.cfi_def_cfa 8, 0
  30:src/main.cpp  ****     thread_t userHandle;
  62              		.loc 1 30 5
  31:src/main.cpp  ****     int ret;
  63              		.loc 1 31 5
  32:src/main.cpp  ****     thread_create(&userHandle, userWrapper, &ret);
  64              		.loc 1 32 5
  65              		.loc 1 32 18 is_stmt 0
  66 0048 130644FE 		addi	a2,s0,-28
  67 004c 97050000 		lla	a1,_Z11userWrapperPv
  67      93850500 
  68 0054 130584FE 		addi	a0,s0,-24
  69 0058 97000000 		call	_Z13thread_createPP3TCBPFvPvES2_@plt
  69      E7800000 
  70              	.LVL3:
  33:src/main.cpp  ****     thread_join(userHandle);
  71              		.loc 1 33 5 is_stmt 1
  72              		.loc 1 33 16 is_stmt 0
  73 0060 033584FE 		ld	a0,-24(s0)
  74 0064 97000000 		call	_Z11thread_joinP3TCB@plt
  74      E7800000 
  75              	.LVL4:
  34:src/main.cpp  ****     return ret;
  76              		.loc 1 34 5 is_stmt 1
  35:src/main.cpp  **** }
  77              		.loc 1 35 1 is_stmt 0
  78 006c 032544FE 		lw	a0,-28(s0)
GAS LISTING /tmp/ccnFFJRG.s 			page 3


  79 0070 83308101 		ld	ra,24(sp)
  80              		.cfi_restore 1
  81 0074 03340101 		ld	s0,16(sp)
  82              		.cfi_restore 8
  83              		.cfi_def_cfa 2, 32
  84 0078 13010102 		addi	sp,sp,32
  85              		.cfi_def_cfa_offset 0
  86 007c 67800000 		jr	ra
  87              		.cfi_endproc
  88              	.LFE68:
  90              		.section	.rodata.str1.8,"aMS",@progbits,1
  91              		.align	3
  92              	.LC0:
  93 0000 0A0A5072 		.string	"\n\nProcess finished with exit code "
  93      6F636573 
  93      73206669 
  93      6E697368 
  93      65642077 
  94 0023 00000000 		.align	3
  94      00
  95              	.LC1:
  96 0028 0A00     		.string	"\n"
  97              		.text
  98              		.align	2
  99              		.globl	_Z3endi
 101              	_Z3endi:
 102              	.LFB69:
  36:src/main.cpp  **** 
  37:src/main.cpp  **** int end(int ret) {
 103              		.loc 1 37 18 is_stmt 1
 104              		.cfi_startproc
 105              	.LVL5:
 106 0080 130101FE 		addi	sp,sp,-32
 107              		.cfi_def_cfa_offset 32
 108 0084 233C1100 		sd	ra,24(sp)
 109 0088 23388100 		sd	s0,16(sp)
 110 008c 23349100 		sd	s1,8(sp)
 111              		.cfi_offset 1, -8
 112              		.cfi_offset 8, -16
 113              		.cfi_offset 9, -24
 114 0090 13040102 		addi	s0,sp,32
 115              		.cfi_def_cfa 8, 0
 116 0094 93040500 		mv	s1,a0
  38:src/main.cpp  ****     print("\n\nProcess finished with exit code ");
 117              		.loc 1 38 5
 118              		.loc 1 38 10 is_stmt 0
 119 0098 17050000 		lla	a0,.LC0
 119      13050500 
 120              	.LVL6:
 121 00a0 97000000 		call	_Z5printPKc@plt
 121      E7800000 
 122              	.LVL7:
  39:src/main.cpp  ****     print(ret);
 123              		.loc 1 39 5 is_stmt 1
 124              		.loc 1 39 10 is_stmt 0
 125 00a8 13850400 		mv	a0,s1
 126 00ac 97000000 		call	_Z5printi@plt
GAS LISTING /tmp/ccnFFJRG.s 			page 4


 126      E7800000 
 127              	.LVL8:
  40:src/main.cpp  ****     print("\n");
 128              		.loc 1 40 5 is_stmt 1
 129              		.loc 1 40 10 is_stmt 0
 130 00b4 17050000 		lla	a0,.LC1
 130      13050500 
 131 00bc 97000000 		call	_Z5printPKc@plt
 131      E7800000 
 132              	.LVL9:
 133              	.L6:
  41:src/main.cpp  ****     while (!IO::Output.is_empty());
 134              		.loc 1 41 5 is_stmt 1
 135              		.loc 1 41 12
 136              		.file 2 "src/../h/c_console.hpp"
   1:src/../h/c_console.hpp **** #ifndef PROJECT_BASE_C_CONSOLE_HPP
   2:src/../h/c_console.hpp **** #define PROJECT_BASE_C_CONSOLE_HPP
   3:src/../h/c_console.hpp **** 
   4:src/../h/c_console.hpp **** #include "circular_buffer.hpp"
   5:src/../h/c_console.hpp **** #include "riscv.hpp"
   6:src/../h/c_console.hpp **** 
   7:src/../h/c_console.hpp **** class Sem;
   8:src/../h/c_console.hpp **** 
   9:src/../h/c_console.hpp **** class IOBuffer final {
  10:src/../h/c_console.hpp **** public:
  11:src/../h/c_console.hpp ****     void init();
  12:src/../h/c_console.hpp **** 
  13:src/../h/c_console.hpp ****     void put(char c);
  14:src/../h/c_console.hpp **** 
  15:src/../h/c_console.hpp ****     char get();
  16:src/../h/c_console.hpp **** 
  17:src/../h/c_console.hpp ****     bool is_empty() const { return this->buffer.is_empty(); }
 137              		.loc 2 17 29
 138              	.LBB10:
 139              	.LBB11:
 140              	.LBB12:
 141              		.file 3 "src/../h/circular_buffer.hpp"
   1:src/../h/circular_buffer.hpp **** #ifndef PROJECT_BASE_CIRCULAR_BUFFER_HPP
   2:src/../h/circular_buffer.hpp **** #define PROJECT_BASE_CIRCULAR_BUFFER_HPP
   3:src/../h/circular_buffer.hpp **** 
   4:src/../h/circular_buffer.hpp **** #include "syscall_c.hpp"
   5:src/../h/circular_buffer.hpp **** #include "c_memory.hpp"
   6:src/../h/circular_buffer.hpp **** 
   7:src/../h/circular_buffer.hpp **** namespace stm {
   8:src/../h/circular_buffer.hpp ****     template<typename T>
   9:src/../h/circular_buffer.hpp ****     class CircularBuffer {
  10:src/../h/circular_buffer.hpp ****     public:
  11:src/../h/circular_buffer.hpp **** 
  12:src/../h/circular_buffer.hpp ****         void init();
  13:src/../h/circular_buffer.hpp **** 
  14:src/../h/circular_buffer.hpp ****         void put(T);
  15:src/../h/circular_buffer.hpp **** 
  16:src/../h/circular_buffer.hpp ****         T get();
  17:src/../h/circular_buffer.hpp **** 
  18:src/../h/circular_buffer.hpp ****         T &peek();
  19:src/../h/circular_buffer.hpp **** 
  20:src/../h/circular_buffer.hpp ****         inline bool is_empty() const { return this->size == 0; }
GAS LISTING /tmp/ccnFFJRG.s 			page 5


 142              		.loc 3 20 53 is_stmt 0
 143 00c4 97070000 		la	a5,_ZN2IO6OutputE
 143      83B70700 
 144 00cc 83A70701 		lw	a5,16(a5)
 145              	.LVL10:
 146              	.LBE12:
 147              	.LBE11:
 148              	.LBE10:
 149              		.loc 1 41 12
 150 00d0 E39A07FE 		bnez	a5,.L6
  42:src/main.cpp  ****     time_sleep(10);
 151              		.loc 1 42 5 is_stmt 1
 152              		.loc 1 42 15 is_stmt 0
 153 00d4 1305A000 		li	a0,10
 154 00d8 97000000 		call	_Z10time_sleepm@plt
 154      E7800000 
 155              	.LVL11:
  43:src/main.cpp  ****     return 0;
 156              		.loc 1 43 5 is_stmt 1
  44:src/main.cpp  **** }
 157              		.loc 1 44 1 is_stmt 0
 158 00e0 13050000 		li	a0,0
 159 00e4 83308101 		ld	ra,24(sp)
 160              		.cfi_restore 1
 161 00e8 03340101 		ld	s0,16(sp)
 162              		.cfi_restore 8
 163              		.cfi_def_cfa 2, 32
 164 00ec 83348100 		ld	s1,8(sp)
 165              		.cfi_restore 9
 166 00f0 13010102 		addi	sp,sp,32
 167              		.cfi_def_cfa_offset 0
 168 00f4 67800000 		jr	ra
 169              		.cfi_endproc
 170              	.LFE69:
 172              		.section	.text._ZN3stm14CircularBufferIP3TCBE4initEv,"axG",@progbits,_ZN3stm14CircularBufferIP3TCB
 173              		.align	2
 174              		.weak	_ZN3stm14CircularBufferIP3TCBE4initEv
 176              	_ZN3stm14CircularBufferIP3TCBE4initEv:
 177              	.LFB72:
  21:src/../h/circular_buffer.hpp **** 
  22:src/../h/circular_buffer.hpp ****         void destroy();
  23:src/../h/circular_buffer.hpp **** 
  24:src/../h/circular_buffer.hpp ****     private:
  25:src/../h/circular_buffer.hpp **** 
  26:src/../h/circular_buffer.hpp ****         void extend();
  27:src/../h/circular_buffer.hpp **** 
  28:src/../h/circular_buffer.hpp ****         static int constexpr CAPACITY = 16;
  29:src/../h/circular_buffer.hpp ****         T *queue;
  30:src/../h/circular_buffer.hpp ****         int head;
  31:src/../h/circular_buffer.hpp ****         int tail;
  32:src/../h/circular_buffer.hpp ****         int size;
  33:src/../h/circular_buffer.hpp ****         int capacity;
  34:src/../h/circular_buffer.hpp ****     };
  35:src/../h/circular_buffer.hpp **** }
  36:src/../h/circular_buffer.hpp **** 
  37:src/../h/circular_buffer.hpp **** template<typename T>
  38:src/../h/circular_buffer.hpp **** void stm::CircularBuffer<T>::init() {
GAS LISTING /tmp/ccnFFJRG.s 			page 6


 178              		.loc 3 38 6 is_stmt 1
 179              		.cfi_startproc
 180              	.LVL12:
 181 0000 130101FE 		addi	sp,sp,-32
 182              		.cfi_def_cfa_offset 32
 183 0004 233C1100 		sd	ra,24(sp)
 184 0008 23388100 		sd	s0,16(sp)
 185 000c 23349100 		sd	s1,8(sp)
 186              		.cfi_offset 1, -8
 187              		.cfi_offset 8, -16
 188              		.cfi_offset 9, -24
 189 0010 13040102 		addi	s0,sp,32
 190              		.cfi_def_cfa 8, 0
 191 0014 93040500 		mv	s1,a0
  39:src/../h/circular_buffer.hpp ****     this->head = 0;
 192              		.loc 3 39 5 is_stmt 0
 193 0018 23240500 		sw	zero,8(a0)
  40:src/../h/circular_buffer.hpp ****     this->tail = 0;
 194              		.loc 3 40 5
 195 001c 23260500 		sw	zero,12(a0)
  41:src/../h/circular_buffer.hpp ****     this->size = 0;
 196              		.loc 3 41 5
 197 0020 23280500 		sw	zero,16(a0)
  42:src/../h/circular_buffer.hpp ****     this->capacity = CAPACITY;
 198              		.loc 3 42 5
 199 0024 93070001 		li	a5,16
 200 0028 232AF500 		sw	a5,20(a0)
  43:src/../h/circular_buffer.hpp ****     this->queue = (T *) mem_alloc(sizeof(T) * CAPACITY);
 201              		.loc 3 43 34
 202 002c 13050008 		li	a0,128
 203              	.LVL13:
 204 0030 97000000 		call	_Z9mem_allocm@plt
 204      E7800000 
 205              	.LVL14:
 206              		.loc 3 43 5
 207 0038 23B0A400 		sd	a0,0(s1)
  44:src/../h/circular_buffer.hpp **** }
 208              		.loc 3 44 1
 209 003c 83308101 		ld	ra,24(sp)
 210              		.cfi_restore 1
 211 0040 03340101 		ld	s0,16(sp)
 212              		.cfi_restore 8
 213              		.cfi_def_cfa 2, 32
 214 0044 83348100 		ld	s1,8(sp)
 215              		.cfi_restore 9
 216              	.LVL15:
 217 0048 13010102 		addi	sp,sp,32
 218              		.cfi_def_cfa_offset 0
 219 004c 67800000 		jr	ra
 220              		.cfi_endproc
 221              	.LFE72:
 223              		.section	.text._Z4initv,"axG",@progbits,_Z4initv,comdat
 224              		.align	2
 225              		.weak	_Z4initv
 227              	_Z4initv:
 228              	.LFB66:
  11:src/main.cpp  ****     __asm__ volatile("mv t0, %0": : "r" (&supervisorTrap));
GAS LISTING /tmp/ccnFFJRG.s 			page 7


 229              		.loc 1 11 20 is_stmt 1
 230              		.cfi_startproc
 231              		.cfi_personality 0x9b,DW.ref.__gxx_personality_v0
 232              		.cfi_lsda 0x1b,.LLSDA66
 233 0000 130101FD 		addi	sp,sp,-48
 234              		.cfi_def_cfa_offset 48
 235 0004 23341102 		sd	ra,40(sp)
 236 0008 23308102 		sd	s0,32(sp)
 237 000c 233C9100 		sd	s1,24(sp)
 238 0010 23382101 		sd	s2,16(sp)
 239              		.cfi_offset 1, -8
 240              		.cfi_offset 8, -16
 241              		.cfi_offset 9, -24
 242              		.cfi_offset 18, -32
 243 0014 13040103 		addi	s0,sp,48
 244              		.cfi_def_cfa 8, 0
  12:src/main.cpp  ****     __asm__ volatile("addi t0, t0, 1");
 245              		.loc 1 12 5
  12:src/main.cpp  ****     __asm__ volatile("addi t0, t0, 1");
 246              		.loc 1 12 59 is_stmt 0
 247 0018 97070000 		la	a5,supervisorTrap
 247      83B70700 
 248              	#APP
 249              	# 12 "src/main.cpp" 1
  13:src/main.cpp  ****     __asm__ volatile("csrw stvec, t0");
 250              		mv t0, a5
 251              	# 0 "" 2
 252              		.loc 1 13 5 is_stmt 1
  13:src/main.cpp  ****     __asm__ volatile("csrw stvec, t0");
 253              		.loc 1 13 39 is_stmt 0
 254              	# 13 "src/main.cpp" 1
  14:src/main.cpp  ****     Allocator::mem_init();
 255              		addi t0, t0, 1
 256              	# 0 "" 2
 257              		.loc 1 14 5 is_stmt 1
  14:src/main.cpp  ****     Allocator::mem_init();
 258              		.loc 1 14 39 is_stmt 0
 259              	# 14 "src/main.cpp" 1
  15:src/main.cpp  ****     IO::init();
 260              		csrw stvec, t0
 261              	# 0 "" 2
 262              		.loc 1 15 5 is_stmt 1
 263              	.LEHB0:
  15:src/main.cpp  ****     IO::init();
 264              		.loc 1 15 24 is_stmt 0
 265              	#NO_APP
 266 002c 97000000 		call	_ZN9Allocator8mem_initEv@plt
 266      E7800000 
 267              	.LVL16:
  16:src/main.cpp  ****     Scheduler::init();
 268              		.loc 1 16 5 is_stmt 1
  16:src/main.cpp  ****     Scheduler::init();
 269              		.loc 1 16 13 is_stmt 0
 270 0034 97000000 		call	_ZN2IO4initEv@plt
 270      E7800000 
 271              	.LVL17:
  17:src/main.cpp  ****     printer = new OwnedMutex();
GAS LISTING /tmp/ccnFFJRG.s 			page 8


 272              		.loc 1 17 5 is_stmt 1
 273              	.LBB17:
 274              	.LBB18:
 275              		.file 4 "src/../h/scheduler.hpp"
   1:src/../h/scheduler.hpp **** #ifndef PROJECT_BASE_SCHEDULER_HPP
   2:src/../h/scheduler.hpp **** #define PROJECT_BASE_SCHEDULER_HPP
   3:src/../h/scheduler.hpp **** 
   4:src/../h/scheduler.hpp **** #include "circular_buffer.hpp"
   5:src/../h/scheduler.hpp **** #include "syscall_c.hpp"
   6:src/../h/scheduler.hpp **** 
   7:src/../h/scheduler.hpp **** class Scheduler final {
   8:src/../h/scheduler.hpp **** public:
   9:src/../h/scheduler.hpp **** 
  10:src/../h/scheduler.hpp ****     static void init() { high_priority.init(); mid_priority.init(); low_priority.init(); }
 276              		.loc 4 10 26
 277              		.loc 4 10 44 is_stmt 0
 278 003c 17050000 		la	a0,_ZN9Scheduler13high_priorityE
 278      03350500 
 279 0044 97000000 		call	_ZN3stm14CircularBufferIP3TCBE4initEv
 279      E7800000 
 280              	.LVL18:
 281              		.loc 4 10 48 is_stmt 1
 282              		.loc 4 10 65 is_stmt 0
 283 004c 17050000 		la	a0,_ZN9Scheduler12mid_priorityE
 283      03350500 
 284 0054 97000000 		call	_ZN3stm14CircularBufferIP3TCBE4initEv
 284      E7800000 
 285              	.LVL19:
 286              		.loc 4 10 69 is_stmt 1
 287              		.loc 4 10 86 is_stmt 0
 288 005c 17050000 		la	a0,_ZN9Scheduler12low_priorityE
 288      03350500 
 289 0064 97000000 		call	_ZN3stm14CircularBufferIP3TCBE4initEv
 289      E7800000 
 290              	.LVL20:
 291              	.LBE18:
 292              	.LBE17:
  18:src/main.cpp  ****     thread_t handle_main, handle_idle;
 293              		.loc 1 18 5 is_stmt 1
  18:src/main.cpp  ****     thread_t handle_main, handle_idle;
 294              		.loc 1 18 30 is_stmt 0
 295 006c 13050002 		li	a0,32
 296 0070 97000000 		call	_Znwm@plt
 296      E7800000 
 297              	.LVL21:
 298              	.LEHE0:
 299 0078 93040500 		mv	s1,a0
 300              	.LEHB1:
 301 007c 97000000 		call	_ZN10OwnedMutexC1Ev@plt
 301      E7800000 
 302              	.LVL22:
 303              	.LEHE1:
  18:src/main.cpp  ****     thread_t handle_main, handle_idle;
 304              		.loc 1 18 13
 305 0084 97070000 		sd	s1,.LANCHOR0,a5
 305      23B09700 
  19:src/main.cpp  ****     thread_create(&handle_main, nullptr, nullptr);
GAS LISTING /tmp/ccnFFJRG.s 			page 9


 306              		.loc 1 19 5 is_stmt 1
  20:src/main.cpp  ****     thread_create(&handle_idle, reinterpret_cast<void(*)(void*)>(Scheduler::idle_body), nullptr);
 307              		.loc 1 20 5
  20:src/main.cpp  ****     thread_create(&handle_idle, reinterpret_cast<void(*)(void*)>(Scheduler::idle_body), nullptr);
 308              		.loc 1 20 18 is_stmt 0
 309 008c 13060000 		li	a2,0
 310 0090 93050000 		li	a1,0
 311 0094 130584FD 		addi	a0,s0,-40
 312              	.LEHB2:
 313 0098 97000000 		call	_Z13thread_createPP3TCBPFvPvES2_@plt
 313      E7800000 
 314              	.LVL23:
  21:src/main.cpp  ****     riscv::ms_sstatus(riscv::SSTATUS_SIE);
 315              		.loc 1 21 5 is_stmt 1
  21:src/main.cpp  ****     riscv::ms_sstatus(riscv::SSTATUS_SIE);
 316              		.loc 1 21 18 is_stmt 0
 317 00a0 13060000 		li	a2,0
 318 00a4 97050000 		la	a1,_ZN9Scheduler9idle_bodyEv
 318      83B50500 
 319 00ac 130504FD 		addi	a0,s0,-48
 320 00b0 97000000 		call	_Z13thread_createPP3TCBPFvPvES2_@plt
 320      E7800000 
 321              	.LVL24:
 322              	.LEHE2:
  22:src/main.cpp  **** }
 323              		.loc 1 22 5 is_stmt 1
 324              	.LBB19:
 325              	.LBB20:
 326              		.file 5 "src/../h/riscv.hpp"
   1:src/../h/riscv.hpp **** #ifndef PROJECT_BASE_RISCV_HPP
   2:src/../h/riscv.hpp **** #define PROJECT_BASE_RISCV_HPP
   3:src/../h/riscv.hpp **** 
   4:src/../h/riscv.hpp **** #include "../lib/hw.h"
   5:src/../h/riscv.hpp **** #include "string.hpp"
   6:src/../h/riscv.hpp **** 
   7:src/../h/riscv.hpp **** extern "C" void supervisorTrap();
   8:src/../h/riscv.hpp **** 
   9:src/../h/riscv.hpp **** class riscv {
  10:src/../h/riscv.hpp **** public:
  11:src/../h/riscv.hpp **** 
  12:src/../h/riscv.hpp ****     static void handleSupervisorTrap(uint64, uint64, uint64, uint64, uint64);
  13:src/../h/riscv.hpp **** 
  14:src/../h/riscv.hpp ****     static void handleTimerTrap();
  15:src/../h/riscv.hpp **** 
  16:src/../h/riscv.hpp ****     static void handleReadTrap();
  17:src/../h/riscv.hpp **** 
  18:src/../h/riscv.hpp ****     static void handleWriteTrap();
  19:src/../h/riscv.hpp **** 
  20:src/../h/riscv.hpp ****     static void handleConsoleTrap();
  21:src/../h/riscv.hpp **** 
  22:src/../h/riscv.hpp ****     static void handleException(const stm::string &message);
  23:src/../h/riscv.hpp **** 
  24:src/../h/riscv.hpp ****     static void popSppSpie();
  25:src/../h/riscv.hpp **** 
  26:src/../h/riscv.hpp ****     static int setjump();
  27:src/../h/riscv.hpp **** 
  28:src/../h/riscv.hpp ****     static void longjump();
GAS LISTING /tmp/ccnFFJRG.s 			page 10


  29:src/../h/riscv.hpp **** 
  30:src/../h/riscv.hpp ****     static uint64 r_sp();
  31:src/../h/riscv.hpp **** 
  32:src/../h/riscv.hpp ****     // read register scause
  33:src/../h/riscv.hpp ****     static uint64 r_scause();
  34:src/../h/riscv.hpp **** 
  35:src/../h/riscv.hpp ****     // write register scause
  36:src/../h/riscv.hpp ****     static void w_scause(uint64 scause);
  37:src/../h/riscv.hpp **** 
  38:src/../h/riscv.hpp ****     // read register sepc
  39:src/../h/riscv.hpp ****     static uint64 r_sepc();
  40:src/../h/riscv.hpp **** 
  41:src/../h/riscv.hpp ****     // write register sepc
  42:src/../h/riscv.hpp ****     static void w_sepc(uint64 sepc);
  43:src/../h/riscv.hpp **** 
  44:src/../h/riscv.hpp ****     // read register stvec
  45:src/../h/riscv.hpp ****     static uint64 r_stvec();
  46:src/../h/riscv.hpp **** 
  47:src/../h/riscv.hpp ****     // write register stvec
  48:src/../h/riscv.hpp ****     static void w_stvec(uint64 stvec);
  49:src/../h/riscv.hpp **** 
  50:src/../h/riscv.hpp ****     // read register stval
  51:src/../h/riscv.hpp ****     static uint64 r_stval();
  52:src/../h/riscv.hpp **** 
  53:src/../h/riscv.hpp ****     // write register stval
  54:src/../h/riscv.hpp ****     static void w_stval(uint64 stval);
  55:src/../h/riscv.hpp **** 
  56:src/../h/riscv.hpp ****     enum BitMaskSip {
  57:src/../h/riscv.hpp ****         SIP_SSIE = (1 << 1),
  58:src/../h/riscv.hpp ****         SIP_STIE = (1 << 5),
  59:src/../h/riscv.hpp ****         SIP_SEIE = (1 << 9),
  60:src/../h/riscv.hpp ****     };
  61:src/../h/riscv.hpp **** 
  62:src/../h/riscv.hpp ****     // mask set register sip
  63:src/../h/riscv.hpp ****     static void ms_sip(uint64 mask);
  64:src/../h/riscv.hpp **** 
  65:src/../h/riscv.hpp ****     // mask clear register sip
  66:src/../h/riscv.hpp ****     static void mc_sip(uint64 mask);
  67:src/../h/riscv.hpp **** 
  68:src/../h/riscv.hpp ****     // read register sip
  69:src/../h/riscv.hpp ****     static uint64 r_sip();
  70:src/../h/riscv.hpp **** 
  71:src/../h/riscv.hpp ****     // write register sip
  72:src/../h/riscv.hpp ****     static void w_sip(uint64 sip);
  73:src/../h/riscv.hpp **** 
  74:src/../h/riscv.hpp ****     enum BitMaskSstatus {
  75:src/../h/riscv.hpp ****         SSTATUS_SIE = (1 << 1),
  76:src/../h/riscv.hpp ****         SSTATUS_SPIE = (1 << 5),
  77:src/../h/riscv.hpp ****         SSTATUS_SPP = (1 << 8),
  78:src/../h/riscv.hpp ****     };
  79:src/../h/riscv.hpp **** 
  80:src/../h/riscv.hpp ****     // mask set register sstatus
  81:src/../h/riscv.hpp ****     static void ms_sstatus(uint64 mask);
  82:src/../h/riscv.hpp **** 
  83:src/../h/riscv.hpp ****     // mask clear register sstatus
  84:src/../h/riscv.hpp ****     static void mc_sstatus(uint64 mask);
  85:src/../h/riscv.hpp **** 
GAS LISTING /tmp/ccnFFJRG.s 			page 11


  86:src/../h/riscv.hpp ****     // read register sstatus
  87:src/../h/riscv.hpp ****     static uint64 r_sstatus();
  88:src/../h/riscv.hpp **** 
  89:src/../h/riscv.hpp ****     // write register sstatus
  90:src/../h/riscv.hpp ****     static void w_sstatus(uint64 sstatus);
  91:src/../h/riscv.hpp **** 
  92:src/../h/riscv.hpp ****     static uint64 r_sscratch();
  93:src/../h/riscv.hpp **** 
  94:src/../h/riscv.hpp **** private:
  95:src/../h/riscv.hpp **** 
  96:src/../h/riscv.hpp ****     enum Scause {
  97:src/../h/riscv.hpp ****         ILLEGAL_INSTRUCTION = 2,
  98:src/../h/riscv.hpp ****     };
  99:src/../h/riscv.hpp **** 
 100:src/../h/riscv.hpp ****     typedef uint64 (*syscall_f)(uint64, uint64, uint64, uint64);
 101:src/../h/riscv.hpp **** 
 102:src/../h/riscv.hpp ****     static syscall_f syscall_table[SYSCALL_COUNT];
 103:src/../h/riscv.hpp **** };
 104:src/../h/riscv.hpp **** 
 105:src/../h/riscv.hpp **** inline uint64 riscv::r_sscratch() {
 106:src/../h/riscv.hpp ****     uint64 volatile sscratch;
 107:src/../h/riscv.hpp ****     __asm__ volatile ("csrr %[scause], scause" : [scause] "=r"(sscratch));
 108:src/../h/riscv.hpp ****     return sscratch;
 109:src/../h/riscv.hpp **** }
 110:src/../h/riscv.hpp **** 
 111:src/../h/riscv.hpp **** inline uint64 riscv::r_scause() {
 112:src/../h/riscv.hpp ****     uint64 volatile scause;
 113:src/../h/riscv.hpp ****     __asm__ volatile ("csrr %[scause], scause" : [scause] "=r"(scause));
 114:src/../h/riscv.hpp ****     return scause;
 115:src/../h/riscv.hpp **** }
 116:src/../h/riscv.hpp **** 
 117:src/../h/riscv.hpp **** inline void riscv::w_scause(uint64 scause) {
 118:src/../h/riscv.hpp ****     __asm__ volatile ("csrw scause, %[scause]" : : [scause] "r"(scause));
 119:src/../h/riscv.hpp **** }
 120:src/../h/riscv.hpp **** 
 121:src/../h/riscv.hpp **** inline uint64 riscv::r_sepc() {
 122:src/../h/riscv.hpp ****     uint64 volatile sepc;
 123:src/../h/riscv.hpp ****     __asm__ volatile ("csrr %[sepc], sepc" : [sepc] "=r"(sepc));
 124:src/../h/riscv.hpp ****     return sepc;
 125:src/../h/riscv.hpp **** }
 126:src/../h/riscv.hpp **** 
 127:src/../h/riscv.hpp **** inline void riscv::w_sepc(uint64 sepc) {
 128:src/../h/riscv.hpp ****     __asm__ volatile ("csrw sepc, %[sepc]" : : [sepc] "r"(sepc));
 129:src/../h/riscv.hpp **** }
 130:src/../h/riscv.hpp **** 
 131:src/../h/riscv.hpp **** inline uint64 riscv::r_stvec() {
 132:src/../h/riscv.hpp ****     uint64 volatile stvec;
 133:src/../h/riscv.hpp ****     __asm__ volatile ("csrr %[stvec], stvec" : [stvec] "=r"(stvec));
 134:src/../h/riscv.hpp ****     return stvec;
 135:src/../h/riscv.hpp **** }
 136:src/../h/riscv.hpp **** 
 137:src/../h/riscv.hpp **** inline void riscv::w_stvec(uint64 stvec) {
 138:src/../h/riscv.hpp ****     __asm__ volatile ("csrw stvec, %[stvec]" : : [stvec] "r"(stvec));
 139:src/../h/riscv.hpp **** }
 140:src/../h/riscv.hpp **** 
 141:src/../h/riscv.hpp **** inline uint64 riscv::r_stval() {
 142:src/../h/riscv.hpp ****     uint64 volatile stval;
GAS LISTING /tmp/ccnFFJRG.s 			page 12


 143:src/../h/riscv.hpp ****     __asm__ volatile ("csrr %[stval], stval" : [stval] "=r"(stval));
 144:src/../h/riscv.hpp ****     return stval;
 145:src/../h/riscv.hpp **** }
 146:src/../h/riscv.hpp **** 
 147:src/../h/riscv.hpp **** inline void riscv::w_stval(uint64 stval) {
 148:src/../h/riscv.hpp ****     __asm__ volatile ("csrw stval, %[stval]" : : [stval] "r"(stval));
 149:src/../h/riscv.hpp **** }
 150:src/../h/riscv.hpp **** 
 151:src/../h/riscv.hpp **** inline void riscv::ms_sip(uint64 mask) {
 152:src/../h/riscv.hpp ****     __asm__ volatile ("csrs sip, %[mask]" : : [mask] "r"(mask));
 153:src/../h/riscv.hpp **** }
 154:src/../h/riscv.hpp **** 
 155:src/../h/riscv.hpp **** inline void riscv::mc_sip(uint64 mask) {
 156:src/../h/riscv.hpp ****     __asm__ volatile ("csrc sip, %[mask]" : : [mask] "r"(mask));
 157:src/../h/riscv.hpp **** }
 158:src/../h/riscv.hpp **** 
 159:src/../h/riscv.hpp **** inline uint64 riscv::r_sip() {
 160:src/../h/riscv.hpp ****     uint64 volatile sip;
 161:src/../h/riscv.hpp ****     __asm__ volatile ("csrr %[sip], sip" : [sip] "=r"(sip));
 162:src/../h/riscv.hpp ****     return sip;
 163:src/../h/riscv.hpp **** }
 164:src/../h/riscv.hpp **** 
 165:src/../h/riscv.hpp **** inline void riscv::w_sip(uint64 sip) {
 166:src/../h/riscv.hpp ****     __asm__ volatile ("csrw sip, %[sip]" : : [sip] "r"(sip));
 167:src/../h/riscv.hpp **** }
 168:src/../h/riscv.hpp **** 
 169:src/../h/riscv.hpp **** inline void riscv::ms_sstatus(uint64 mask) {
 170:src/../h/riscv.hpp ****     __asm__ volatile ("csrs sstatus, %[mask]" : : [mask] "r"(mask));
 327              		.loc 5 170 5
 328              		.loc 5 170 68 is_stmt 0
 329 00b8 93072000 		li	a5,2
 330              	#APP
 331              	# 170 "src/../h/riscv.hpp" 1
 171              	}
 332              		csrs sstatus, a5
 333              	# 0 "" 2
 334              	.LVL25:
 335              	#NO_APP
 336              	.LBE20:
 337              	.LBE19:
  23:src/main.cpp  **** 
 338              		.loc 1 23 1
 339 00c0 83308102 		ld	ra,40(sp)
 340              		.cfi_remember_state
 341              		.cfi_restore 1
 342 00c4 03340102 		ld	s0,32(sp)
 343              		.cfi_restore 8
 344              		.cfi_def_cfa 2, 48
 345 00c8 83348101 		ld	s1,24(sp)
 346              		.cfi_restore 9
 347 00cc 03390101 		ld	s2,16(sp)
 348              		.cfi_restore 18
 349 00d0 13010103 		addi	sp,sp,48
 350              		.cfi_def_cfa_offset 0
 351 00d4 67800000 		jr	ra
 352              	.L12:
 353              		.cfi_restore_state
GAS LISTING /tmp/ccnFFJRG.s 			page 13


 354 00d8 13090500 		mv	s2,a0
  18:src/main.cpp  ****     thread_t handle_main, handle_idle;
 355              		.loc 1 18 30
 356 00dc 13850400 		mv	a0,s1
 357 00e0 97000000 		call	_ZdlPv@plt
 357      E7800000 
 358              	.LVL26:
 359 00e8 13050900 		mv	a0,s2
 360              	.LEHB3:
 361 00ec 97000000 		call	_Unwind_Resume@plt
 361      E7800000 
 362              	.LVL27:
 363              	.LEHE3:
 364              		.cfi_endproc
 365              	.LFE66:
 366              		.globl	__gxx_personality_v0
 367              		.section	.gcc_except_table._Z4initv,"aG",@progbits,_Z4initv,comdat
 368              	.LLSDA66:
 369 0000 FF       		.byte	0xff
 370 0001 FF       		.byte	0xff
 371 0002 03       		.byte	0x3
 372 0003 34       		.byte	0x34
 373 0004 00000000 		.4byte	.LEHB0-.LFB66
 374 0008 00000000 		.4byte	.LEHE0-.LEHB0
 375 000c 00000000 		.4byte	0
 376 0010 00       		.byte	0
 377 0011 00000000 		.4byte	.LEHB1-.LFB66
 378 0015 00000000 		.4byte	.LEHE1-.LEHB1
 379 0019 00000000 		.4byte	.L12-.LFB66
 380 001d 00       		.byte	0
 381 001e 00000000 		.4byte	.LEHB2-.LFB66
 382 0022 00000000 		.4byte	.LEHE2-.LEHB2
 383 0026 00000000 		.4byte	0
 384 002a 00       		.byte	0
 385 002b 00000000 		.4byte	.LEHB3-.LFB66
 386 002f 00000000 		.4byte	.LEHE3-.LEHB3
 387 0033 00000000 		.4byte	0
 388 0037 00       		.byte	0
 389              		.section	.text._Z4initv,"axG",@progbits,_Z4initv,comdat
 391              		.text
 392              		.align	2
 393              		.globl	main
 395              	main:
 396              	.LFB70:
  45:src/main.cpp  **** 
  46:src/main.cpp  **** int main() {
 397              		.loc 1 46 12 is_stmt 1
 398              		.cfi_startproc
 399 00f8 130101FF 		addi	sp,sp,-16
 400              		.cfi_def_cfa_offset 16
 401 00fc 23341100 		sd	ra,8(sp)
 402 0100 23308100 		sd	s0,0(sp)
 403              		.cfi_offset 1, -8
 404              		.cfi_offset 8, -16
 405 0104 13040101 		addi	s0,sp,16
 406              		.cfi_def_cfa 8, 0
  47:src/main.cpp  ****     init();
GAS LISTING /tmp/ccnFFJRG.s 			page 14


 407              		.loc 1 47 5
 408              		.loc 1 47 9 is_stmt 0
 409 0108 97000000 		call	_Z4initv
 409      E7800000 
 410              	.LVL28:
  48:src/main.cpp  ****     int ret = call();
 411              		.loc 1 48 5 is_stmt 1
 412              		.loc 1 48 19 is_stmt 0
 413 0110 97000000 		call	_Z4callv
 413      E7800000 
 414              	.LVL29:
  49:src/main.cpp  ****     return end(ret);
 415              		.loc 1 49 5 is_stmt 1
 416              		.loc 1 49 15 is_stmt 0
 417 0118 97000000 		call	_Z3endi
 417      E7800000 
 418              	.LVL30:
  50:src/main.cpp  **** }...
 419              		.loc 1 50 1
 420 0120 83308100 		ld	ra,8(sp)
 421              		.cfi_restore 1
 422 0124 03340100 		ld	s0,0(sp)
 423              		.cfi_restore 8
 424              		.cfi_def_cfa 2, 16
 425 0128 13010101 		addi	sp,sp,16
 426              		.cfi_def_cfa_offset 0
 427 012c 67800000 		jr	ra
 428              		.cfi_endproc
 429              	.LFE70:
 431              		.globl	printer
 432              		.bss
 433              		.align	3
 434              		.set	.LANCHOR0,. + 0
 437              	printer:
 438 0000 00000000 		.zero	8
 438      00000000 
 439              		.text
 440              	.Letext0:
 441              		.file 6 "src/../h/../lib/hw.h"
 442              		.file 7 "src/../h/syscall_c.hpp"
 443              		.file 8 "src/../h/c_thread.hpp"
 444              		.file 9 "src/../h/c_memory.hpp"
 445              		.file 10 "src/../h/string.hpp"
 446              		.file 11 "src/../h/iostream.hpp"
 447              		.file 12 "src/../h/syscall_cpp.hpp"
 5287              		.align	3
 5290              	DW.ref.__gxx_personality_v0:
 5291 0000 00000000 		.dword	__gxx_personality_v0
 5291      00000000 
 5292              		.ident	"GCC: (Ubuntu 9.4.0-1ubuntu1~20.04) 9.4.0"
 5293              		.section	.note.GNU-stack,"",@progbits
GAS LISTING /tmp/ccnFFJRG.s 			page 15

