GAS LISTING /tmp/ccfnOxaa.s 			page 1


   1              		.file	"main.cpp"
   2              		.option pic
   3              		.option norelax
   4              		.text
   5              	.Ltext0:
   6              		.align	2
   7              		.globl	_Z9bleya_nitPv
   9              	_Z9bleya_nitPv:
  10              	.LFB47:
  11              		.file 1 "src/main.cpp"
   1:src/main.cpp  **** #include "../h/c_console.hpp"
   2:src/main.cpp  **** #include "../h/c_thread.hpp"
   3:src/main.cpp  **** #include "../h/cpp_semaphores.hpp"
   4:src/main.cpp  **** #include "../h/scheduler.hpp"
   5:src/main.cpp  **** #include "../h/iostream.hpp"
   6:src/main.cpp  **** 
   7:src/main.cpp  **** [[noreturn]]
   8:src/main.cpp  **** void bleya_nit(void *) {
  12              		.loc 1 8 24
  13              		.cfi_startproc
  14 0000 130101FF 		addi	sp,sp,-16
  15              		.cfi_def_cfa_offset 16
  16 0004 23348100 		sd	s0,8(sp)
  17              		.cfi_offset 8, -8
  18 0008 13040101 		addi	s0,sp,16
  19              		.cfi_def_cfa 8, 0
  20              	.L2:
   9:src/main.cpp  ****     while (true) {
  21              		.loc 1 9 5 discriminator 1
  22              		.loc 1 9 5 discriminator 1
  23 000c 6F000000 		j	.L2
  24              		.cfi_endproc
  25              	.LFE47:
  27              		.align	2
  28              		.globl	_Z11userWrapperPv
  30              	_Z11userWrapperPv:
  31              	.LFB49:
  10:src/main.cpp  ****     }
  11:src/main.cpp  **** }
  12:src/main.cpp  **** 
  13:src/main.cpp  **** thread_t handle_bleya = nullptr;
  14:src/main.cpp  **** OwnedMutex *printer;
  15:src/main.cpp  **** 
  16:src/main.cpp  **** int userMain();
  17:src/main.cpp  **** 
  18:src/main.cpp  **** inline void init() {
  19:src/main.cpp  ****     __asm__ volatile("mv t0, %0": : "r" (&supervisorTrap));
  20:src/main.cpp  ****     __asm__ volatile("addi t0, t0, 1");
  21:src/main.cpp  ****     __asm__ volatile("csrw stvec, t0");
  22:src/main.cpp  ****     Allocator::mem_init();
  23:src/main.cpp  ****     IO::init();
  24:src/main.cpp  ****     Scheduler::init();
  25:src/main.cpp  ****     printer = new OwnedMutex();
  26:src/main.cpp  ****     thread_t handle_main;
  27:src/main.cpp  ****     thread_create(&handle_main, nullptr, nullptr);
  28:src/main.cpp  ****     thread_create(&handle_bleya, &bleya_nit, nullptr);
  29:src/main.cpp  ****     Riscv::ms_sstatus(Riscv::SSTATUS_SIE);
GAS LISTING /tmp/ccfnOxaa.s 			page 2


  30:src/main.cpp  **** }
  31:src/main.cpp  **** 
  32:src/main.cpp  **** void userWrapper(void *ret) {
  32              		.loc 1 32 29
  33              		.cfi_startproc
  34              	.LVL0:
  35 0010 130101FE 		addi	sp,sp,-32
  36              		.cfi_def_cfa_offset 32
  37 0014 233C1100 		sd	ra,24(sp)
  38 0018 23388100 		sd	s0,16(sp)
  39 001c 23349100 		sd	s1,8(sp)
  40              		.cfi_offset 1, -8
  41              		.cfi_offset 8, -16
  42              		.cfi_offset 9, -24
  43 0020 13040102 		addi	s0,sp,32
  44              		.cfi_def_cfa 8, 0
  45 0024 93040500 		mv	s1,a0
  33:src/main.cpp  ****     *((int *) ret) = userMain();
  46              		.loc 1 33 5
  47              		.loc 1 33 30 is_stmt 0
  48 0028 97000000 		call	_Z8userMainv@plt
  48      E7800000 
  49              	.LVL1:
  50              		.loc 1 33 20
  51 0030 23A0A400 		sw	a0,0(s1)
  34:src/main.cpp  **** }
  52              		.loc 1 34 1
  53 0034 83308101 		ld	ra,24(sp)
  54              		.cfi_restore 1
  55 0038 03340101 		ld	s0,16(sp)
  56              		.cfi_restore 8
  57              		.cfi_def_cfa 2, 32
  58 003c 83348100 		ld	s1,8(sp)
  59              		.cfi_restore 9
  60              	.LVL2:
  61 0040 13010102 		addi	sp,sp,32
  62              		.cfi_def_cfa_offset 0
  63 0044 67800000 		jr	ra
  64              		.cfi_endproc
  65              	.LFE49:
  67              		.align	2
  68              		.globl	_Z4callv
  70              	_Z4callv:
  71              	.LFB50:
  35:src/main.cpp  **** 
  36:src/main.cpp  **** int call() {
  72              		.loc 1 36 12 is_stmt 1
  73              		.cfi_startproc
  74 0048 130101FE 		addi	sp,sp,-32
  75              		.cfi_def_cfa_offset 32
  76 004c 233C1100 		sd	ra,24(sp)
  77 0050 23388100 		sd	s0,16(sp)
  78              		.cfi_offset 1, -8
  79              		.cfi_offset 8, -16
  80 0054 13040102 		addi	s0,sp,32
  81              		.cfi_def_cfa 8, 0
  37:src/main.cpp  ****     thread_t userHandle;
GAS LISTING /tmp/ccfnOxaa.s 			page 3


  82              		.loc 1 37 5
  38:src/main.cpp  ****     int ret;
  83              		.loc 1 38 5
  39:src/main.cpp  ****     thread_create(&userHandle, userWrapper, &ret);
  84              		.loc 1 39 5
  85              		.loc 1 39 18 is_stmt 0
  86 0058 130644FE 		addi	a2,s0,-28
  87 005c 97050000 		lla	a1,_Z11userWrapperPv
  87      93850500 
  88 0064 130584FE 		addi	a0,s0,-24
  89 0068 97000000 		call	_Z13thread_createPP3TCBPFvPvES2_@plt
  89      E7800000 
  90              	.LVL3:
  40:src/main.cpp  ****     thread_join(userHandle);
  91              		.loc 1 40 5 is_stmt 1
  92              		.loc 1 40 16 is_stmt 0
  93 0070 033584FE 		ld	a0,-24(s0)
  94 0074 97000000 		call	_Z11thread_joinP3TCB@plt
  94      E7800000 
  95              	.LVL4:
  41:src/main.cpp  ****     return ret;
  96              		.loc 1 41 5 is_stmt 1
  42:src/main.cpp  **** }
  97              		.loc 1 42 1 is_stmt 0
  98 007c 032544FE 		lw	a0,-28(s0)
  99 0080 83308101 		ld	ra,24(sp)
 100              		.cfi_restore 1
 101 0084 03340101 		ld	s0,16(sp)
 102              		.cfi_restore 8
 103              		.cfi_def_cfa 2, 32
 104 0088 13010102 		addi	sp,sp,32
 105              		.cfi_def_cfa_offset 0
 106 008c 67800000 		jr	ra
 107              		.cfi_endproc
 108              	.LFE50:
 110              		.section	.rodata.str1.8,"aMS",@progbits,1
 111              		.align	3
 112              	.LC0:
 113 0000 0A0A5072 		.string	"\n\nProcess finished with exit code "
 113      6F636573 
 113      73206669 
 113      6E697368 
 113      65642077 
 114 0023 00000000 		.align	3
 114      00
 115              	.LC1:
 116 0028 0A0A00   		.string	"\n\n"
 117              		.text
 118              		.align	2
 119              		.globl	_Z3endi
 121              	_Z3endi:
 122              	.LFB51:
  43:src/main.cpp  **** 
  44:src/main.cpp  **** int end(int ret) {
 123              		.loc 1 44 18 is_stmt 1
 124              		.cfi_startproc
 125              	.LVL5:
GAS LISTING /tmp/ccfnOxaa.s 			page 4


 126 0090 130101FE 		addi	sp,sp,-32
 127              		.cfi_def_cfa_offset 32
 128 0094 233C1100 		sd	ra,24(sp)
 129 0098 23388100 		sd	s0,16(sp)
 130 009c 23349100 		sd	s1,8(sp)
 131              		.cfi_offset 1, -8
 132              		.cfi_offset 8, -16
 133              		.cfi_offset 9, -24
 134 00a0 13040102 		addi	s0,sp,32
 135              		.cfi_def_cfa 8, 0
 136 00a4 93040500 		mv	s1,a0
  45:src/main.cpp  ****     print("\n\nProcess finished with exit code ");
 137              		.loc 1 45 5
 138              		.loc 1 45 10 is_stmt 0
 139 00a8 17050000 		lla	a0,.LC0
 139      13050500 
 140              	.LVL6:
 141 00b0 97000000 		call	_Z5printPKc@plt
 141      E7800000 
 142              	.LVL7:
  46:src/main.cpp  ****     print(ret);
 143              		.loc 1 46 5 is_stmt 1
 144              		.loc 1 46 10 is_stmt 0
 145 00b8 13850400 		mv	a0,s1
 146 00bc 97000000 		call	_Z5printi@plt
 146      E7800000 
 147              	.LVL8:
  47:src/main.cpp  ****     print("\n\n");
 148              		.loc 1 47 5 is_stmt 1
 149              		.loc 1 47 10 is_stmt 0
 150 00c4 17050000 		lla	a0,.LC1
 150      13050500 
 151 00cc 97000000 		call	_Z5printPKc@plt
 151      E7800000 
 152              	.LVL9:
 153              	.L9:
  48:src/main.cpp  ****     while (!IO::Output.is_empty());
 154              		.loc 1 48 5 is_stmt 1
 155              		.loc 1 48 12
 156              		.file 2 "src/../h/c_console.hpp"
   1:src/../h/c_console.hpp **** #ifndef PROJECT_BASE_C_CONSOLE_HPP
   2:src/../h/c_console.hpp **** #define PROJECT_BASE_C_CONSOLE_HPP
   3:src/../h/c_console.hpp **** 
   4:src/../h/c_console.hpp **** #include "circular_buffer.hpp"
   5:src/../h/c_console.hpp **** #include "riscv.hpp"
   6:src/../h/c_console.hpp **** 
   7:src/../h/c_console.hpp **** class Sem;
   8:src/../h/c_console.hpp **** 
   9:src/../h/c_console.hpp **** class IOBuffer final {
  10:src/../h/c_console.hpp **** public:
  11:src/../h/c_console.hpp ****     void init();
  12:src/../h/c_console.hpp **** 
  13:src/../h/c_console.hpp ****     void put(char c);
  14:src/../h/c_console.hpp **** 
  15:src/../h/c_console.hpp ****     char get();
  16:src/../h/c_console.hpp **** 
  17:src/../h/c_console.hpp ****     bool is_empty() const { return this->buffer.is_empty(); }
GAS LISTING /tmp/ccfnOxaa.s 			page 5


 157              		.loc 2 17 29
 158              	.LBB10:
 159              	.LBB11:
 160              	.LBB12:
 161              		.file 3 "src/../h/circular_buffer.hpp"
   1:src/../h/circular_buffer.hpp **** #ifndef PROJECT_BASE_CIRCULAR_BUFFER_HPP
   2:src/../h/circular_buffer.hpp **** #define PROJECT_BASE_CIRCULAR_BUFFER_HPP
   3:src/../h/circular_buffer.hpp **** 
   4:src/../h/circular_buffer.hpp **** #include "syscall_c.hpp"
   5:src/../h/circular_buffer.hpp **** #include "c_memory.hpp"
   6:src/../h/circular_buffer.hpp **** 
   7:src/../h/circular_buffer.hpp **** namespace stm {
   8:src/../h/circular_buffer.hpp ****     template<typename T>
   9:src/../h/circular_buffer.hpp ****     class CircularBuffer {
  10:src/../h/circular_buffer.hpp ****     public:
  11:src/../h/circular_buffer.hpp **** 
  12:src/../h/circular_buffer.hpp ****         void init();
  13:src/../h/circular_buffer.hpp **** 
  14:src/../h/circular_buffer.hpp ****         void put(T);
  15:src/../h/circular_buffer.hpp **** 
  16:src/../h/circular_buffer.hpp ****         T get();
  17:src/../h/circular_buffer.hpp **** 
  18:src/../h/circular_buffer.hpp ****         T &peek();
  19:src/../h/circular_buffer.hpp **** 
  20:src/../h/circular_buffer.hpp ****         inline bool is_empty() const { return this->size == 0; }
 162              		.loc 3 20 53 is_stmt 0
 163 00d4 97070000 		la	a5,_ZN2IO6OutputE
 163      83B70700 
 164 00dc 83A70701 		lw	a5,16(a5)
 165              	.LVL10:
 166              	.LBE12:
 167              	.LBE11:
 168              	.LBE10:
 169              		.loc 1 48 12
 170 00e0 E39A07FE 		bnez	a5,.L9
  49:src/main.cpp  ****     time_sleep(10);
 171              		.loc 1 49 5 is_stmt 1
 172              		.loc 1 49 15 is_stmt 0
 173 00e4 1305A000 		li	a0,10
 174 00e8 97000000 		call	_Z10time_sleepm@plt
 174      E7800000 
 175              	.LVL11:
  50:src/main.cpp  ****     return 0;
 176              		.loc 1 50 5 is_stmt 1
  51:src/main.cpp  **** }
 177              		.loc 1 51 1 is_stmt 0
 178 00f0 13050000 		li	a0,0
 179 00f4 83308101 		ld	ra,24(sp)
 180              		.cfi_restore 1
 181 00f8 03340101 		ld	s0,16(sp)
 182              		.cfi_restore 8
 183              		.cfi_def_cfa 2, 32
 184 00fc 83348100 		ld	s1,8(sp)
 185              		.cfi_restore 9
 186 0100 13010102 		addi	sp,sp,32
 187              		.cfi_def_cfa_offset 0
 188 0104 67800000 		jr	ra
GAS LISTING /tmp/ccfnOxaa.s 			page 6


 189              		.cfi_endproc
 190              	.LFE51:
 192              		.section	.text._ZN3stm14CircularBufferIP3TCBE4initEv,"axG",@progbits,_ZN3stm14CircularBufferIP3TCB
 193              		.align	2
 194              		.weak	_ZN3stm14CircularBufferIP3TCBE4initEv
 196              	_ZN3stm14CircularBufferIP3TCBE4initEv:
 197              	.LFB54:
  21:src/../h/circular_buffer.hpp **** 
  22:src/../h/circular_buffer.hpp ****         void destroy();
  23:src/../h/circular_buffer.hpp **** 
  24:src/../h/circular_buffer.hpp ****     private:
  25:src/../h/circular_buffer.hpp **** 
  26:src/../h/circular_buffer.hpp ****         void extend();
  27:src/../h/circular_buffer.hpp **** 
  28:src/../h/circular_buffer.hpp ****         static int constexpr CAPACITY = 16;
  29:src/../h/circular_buffer.hpp ****         T *queue;
  30:src/../h/circular_buffer.hpp ****         int head;
  31:src/../h/circular_buffer.hpp ****         int tail;
  32:src/../h/circular_buffer.hpp ****         int size;
  33:src/../h/circular_buffer.hpp ****         int capacity;
  34:src/../h/circular_buffer.hpp ****     };
  35:src/../h/circular_buffer.hpp **** }
  36:src/../h/circular_buffer.hpp **** 
  37:src/../h/circular_buffer.hpp **** template<typename T>
  38:src/../h/circular_buffer.hpp **** void stm::CircularBuffer<T>::init() {
 198              		.loc 3 38 6 is_stmt 1
 199              		.cfi_startproc
 200              	.LVL12:
 201 0000 130101FE 		addi	sp,sp,-32
 202              		.cfi_def_cfa_offset 32
 203 0004 233C1100 		sd	ra,24(sp)
 204 0008 23388100 		sd	s0,16(sp)
 205 000c 23349100 		sd	s1,8(sp)
 206              		.cfi_offset 1, -8
 207              		.cfi_offset 8, -16
 208              		.cfi_offset 9, -24
 209 0010 13040102 		addi	s0,sp,32
 210              		.cfi_def_cfa 8, 0
 211 0014 93040500 		mv	s1,a0
  39:src/../h/circular_buffer.hpp ****     this->head = 0;
 212              		.loc 3 39 5 is_stmt 0
 213 0018 23240500 		sw	zero,8(a0)
  40:src/../h/circular_buffer.hpp ****     this->tail = 0;
 214              		.loc 3 40 5
 215 001c 23260500 		sw	zero,12(a0)
  41:src/../h/circular_buffer.hpp ****     this->size = 0;
 216              		.loc 3 41 5
 217 0020 23280500 		sw	zero,16(a0)
  42:src/../h/circular_buffer.hpp ****     this->capacity = CAPACITY;
 218              		.loc 3 42 5
 219 0024 93070001 		li	a5,16
 220 0028 232AF500 		sw	a5,20(a0)
  43:src/../h/circular_buffer.hpp ****     this->queue = (T *) mem_alloc(sizeof(T) * CAPACITY);
 221              		.loc 3 43 34
 222 002c 13050008 		li	a0,128
 223              	.LVL13:
 224 0030 97000000 		call	_Z9mem_allocm@plt
GAS LISTING /tmp/ccfnOxaa.s 			page 7


 224      E7800000 
 225              	.LVL14:
 226              		.loc 3 43 5
 227 0038 23B0A400 		sd	a0,0(s1)
  44:src/../h/circular_buffer.hpp **** }
 228              		.loc 3 44 1
 229 003c 83308101 		ld	ra,24(sp)
 230              		.cfi_restore 1
 231 0040 03340101 		ld	s0,16(sp)
 232              		.cfi_restore 8
 233              		.cfi_def_cfa 2, 32
 234 0044 83348100 		ld	s1,8(sp)
 235              		.cfi_restore 9
 236              	.LVL15:
 237 0048 13010102 		addi	sp,sp,32
 238              		.cfi_def_cfa_offset 0
 239 004c 67800000 		jr	ra
 240              		.cfi_endproc
 241              	.LFE54:
 243              		.section	.text._Z4initv,"axG",@progbits,_Z4initv,comdat
 244              		.align	2
 245              		.weak	_Z4initv
 247              	_Z4initv:
 248              	.LFB48:
  18:src/main.cpp  ****     __asm__ volatile("mv t0, %0": : "r" (&supervisorTrap));
 249              		.loc 1 18 20 is_stmt 1
 250              		.cfi_startproc
 251              		.cfi_personality 0x9b,DW.ref.__gxx_personality_v0
 252              		.cfi_lsda 0x1b,.LLSDA48
 253 0000 130101FD 		addi	sp,sp,-48
 254              		.cfi_def_cfa_offset 48
 255 0004 23341102 		sd	ra,40(sp)
 256 0008 23308102 		sd	s0,32(sp)
 257 000c 233C9100 		sd	s1,24(sp)
 258 0010 23382101 		sd	s2,16(sp)
 259              		.cfi_offset 1, -8
 260              		.cfi_offset 8, -16
 261              		.cfi_offset 9, -24
 262              		.cfi_offset 18, -32
 263 0014 13040103 		addi	s0,sp,48
 264              		.cfi_def_cfa 8, 0
  19:src/main.cpp  ****     __asm__ volatile("addi t0, t0, 1");
 265              		.loc 1 19 5
  19:src/main.cpp  ****     __asm__ volatile("addi t0, t0, 1");
 266              		.loc 1 19 59 is_stmt 0
 267 0018 97070000 		la	a5,supervisorTrap
 267      83B70700 
 268              	#APP
 269              	# 19 "src/main.cpp" 1
  20:src/main.cpp  ****     __asm__ volatile("csrw stvec, t0");
 270              		mv t0, a5
 271              	# 0 "" 2
 272              		.loc 1 20 5 is_stmt 1
  20:src/main.cpp  ****     __asm__ volatile("csrw stvec, t0");
 273              		.loc 1 20 39 is_stmt 0
 274              	# 20 "src/main.cpp" 1
  21:src/main.cpp  ****     Allocator::mem_init();
GAS LISTING /tmp/ccfnOxaa.s 			page 8


 275              		addi t0, t0, 1
 276              	# 0 "" 2
 277              		.loc 1 21 5 is_stmt 1
  21:src/main.cpp  ****     Allocator::mem_init();
 278              		.loc 1 21 39 is_stmt 0
 279              	# 21 "src/main.cpp" 1
  22:src/main.cpp  ****     IO::init();
 280              		csrw stvec, t0
 281              	# 0 "" 2
 282              		.loc 1 22 5 is_stmt 1
 283              	.LEHB0:
  22:src/main.cpp  ****     IO::init();
 284              		.loc 1 22 24 is_stmt 0
 285              	#NO_APP
 286 002c 97000000 		call	_ZN9Allocator8mem_initEv@plt
 286      E7800000 
 287              	.LVL16:
  23:src/main.cpp  ****     Scheduler::init();
 288              		.loc 1 23 5 is_stmt 1
  23:src/main.cpp  ****     Scheduler::init();
 289              		.loc 1 23 13 is_stmt 0
 290 0034 97000000 		call	_ZN2IO4initEv@plt
 290      E7800000 
 291              	.LVL17:
  24:src/main.cpp  ****     printer = new OwnedMutex();
 292              		.loc 1 24 5 is_stmt 1
 293              	.LBB17:
 294              	.LBB18:
 295              		.file 4 "src/../h/scheduler.hpp"
   1:src/../h/scheduler.hpp **** #ifndef PROJECT_BASE_SCHEDULER_HPP
   2:src/../h/scheduler.hpp **** #define PROJECT_BASE_SCHEDULER_HPP
   3:src/../h/scheduler.hpp **** 
   4:src/../h/scheduler.hpp **** #include "circular_buffer.hpp"
   5:src/../h/scheduler.hpp **** #include "syscall_c.hpp"
   6:src/../h/scheduler.hpp **** 
   7:src/../h/scheduler.hpp **** class Scheduler final {
   8:src/../h/scheduler.hpp **** public:
   9:src/../h/scheduler.hpp **** 
  10:src/../h/scheduler.hpp ****     static void init() { high_priority.init(); mid_priority.init(); low_priority.init(); }
 296              		.loc 4 10 26
 297              		.loc 4 10 44 is_stmt 0
 298 003c 17050000 		la	a0,_ZN9Scheduler13high_priorityE
 298      03350500 
 299 0044 97000000 		call	_ZN3stm14CircularBufferIP3TCBE4initEv
 299      E7800000 
 300              	.LVL18:
 301              		.loc 4 10 48 is_stmt 1
 302              		.loc 4 10 65 is_stmt 0
 303 004c 17050000 		la	a0,_ZN9Scheduler12mid_priorityE
 303      03350500 
 304 0054 97000000 		call	_ZN3stm14CircularBufferIP3TCBE4initEv
 304      E7800000 
 305              	.LVL19:
 306              		.loc 4 10 69 is_stmt 1
 307              		.loc 4 10 86 is_stmt 0
 308 005c 17050000 		la	a0,_ZN9Scheduler12low_priorityE
 308      03350500 
GAS LISTING /tmp/ccfnOxaa.s 			page 9


 309 0064 97000000 		call	_ZN3stm14CircularBufferIP3TCBE4initEv
 309      E7800000 
 310              	.LVL20:
 311              	.LBE18:
 312              	.LBE17:
  25:src/main.cpp  ****     thread_t handle_main;
 313              		.loc 1 25 5 is_stmt 1
  25:src/main.cpp  ****     thread_t handle_main;
 314              		.loc 1 25 30 is_stmt 0
 315 006c 13050002 		li	a0,32
 316 0070 97000000 		call	_Znwm@plt
 316      E7800000 
 317              	.LVL21:
 318              	.LEHE0:
 319 0078 93040500 		mv	s1,a0
 320              	.LEHB1:
 321 007c 97000000 		call	_ZN10OwnedMutexC1Ev@plt
 321      E7800000 
 322              	.LVL22:
 323              	.LEHE1:
  25:src/main.cpp  ****     thread_t handle_main;
 324              		.loc 1 25 13
 325 0084 97070000 		sd	s1,.LANCHOR0,a5
 325      23B09700 
  26:src/main.cpp  ****     thread_create(&handle_main, nullptr, nullptr);
 326              		.loc 1 26 5 is_stmt 1
  27:src/main.cpp  ****     thread_create(&handle_bleya, &bleya_nit, nullptr);
 327              		.loc 1 27 5
  27:src/main.cpp  ****     thread_create(&handle_bleya, &bleya_nit, nullptr);
 328              		.loc 1 27 18 is_stmt 0
 329 008c 13060000 		li	a2,0
 330 0090 93050000 		li	a1,0
 331 0094 130584FD 		addi	a0,s0,-40
 332              	.LEHB2:
 333 0098 97000000 		call	_Z13thread_createPP3TCBPFvPvES2_@plt
 333      E7800000 
 334              	.LVL23:
  28:src/main.cpp  ****     Riscv::ms_sstatus(Riscv::SSTATUS_SIE);
 335              		.loc 1 28 5 is_stmt 1
  28:src/main.cpp  ****     Riscv::ms_sstatus(Riscv::SSTATUS_SIE);
 336              		.loc 1 28 18 is_stmt 0
 337 00a0 13060000 		li	a2,0
 338 00a4 97050000 		lla	a1,_Z9bleya_nitPv
 338      93850500 
 339 00ac 17050000 		lla	a0,.LANCHOR0+8
 339      13050500 
 340 00b4 97000000 		call	_Z13thread_createPP3TCBPFvPvES2_@plt
 340      E7800000 
 341              	.LVL24:
 342              	.LEHE2:
  29:src/main.cpp  **** }
 343              		.loc 1 29 5 is_stmt 1
 344              	.LBB19:
 345              	.LBB20:
 346              		.file 5 "src/../h/riscv.hpp"
   1:src/../h/riscv.hpp **** #ifndef PROJECT_BASE_RISCV_HPP
   2:src/../h/riscv.hpp **** #define PROJECT_BASE_RISCV_HPP
GAS LISTING /tmp/ccfnOxaa.s 			page 10


   3:src/../h/riscv.hpp **** 
   4:src/../h/riscv.hpp **** #include "../lib/hw.h"
   5:src/../h/riscv.hpp **** 
   6:src/../h/riscv.hpp **** extern "C" void supervisorTrap();
   7:src/../h/riscv.hpp **** 
   8:src/../h/riscv.hpp **** class Riscv {
   9:src/../h/riscv.hpp **** public:
  10:src/../h/riscv.hpp **** 
  11:src/../h/riscv.hpp ****     static void handleSupervisorTrap(uint64, uint64, uint64, uint64, uint64);
  12:src/../h/riscv.hpp **** 
  13:src/../h/riscv.hpp ****     static void handleTimerTrap();
  14:src/../h/riscv.hpp **** 
  15:src/../h/riscv.hpp ****     static void handleReadTrap();
  16:src/../h/riscv.hpp **** 
  17:src/../h/riscv.hpp ****     static void handleWriteTrap();
  18:src/../h/riscv.hpp **** 
  19:src/../h/riscv.hpp ****     static void popSppSpie();
  20:src/../h/riscv.hpp **** 
  21:src/../h/riscv.hpp ****     static void handleConsoleTrap();
  22:src/../h/riscv.hpp **** 
  23:src/../h/riscv.hpp ****     static void push();
  24:src/../h/riscv.hpp **** 
  25:src/../h/riscv.hpp ****     static void pop();
  26:src/../h/riscv.hpp **** 
  27:src/../h/riscv.hpp ****     // read register scause
  28:src/../h/riscv.hpp ****     static uint64 r_scause();
  29:src/../h/riscv.hpp **** 
  30:src/../h/riscv.hpp ****     // write register scause
  31:src/../h/riscv.hpp ****     static void w_scause(uint64 scause);
  32:src/../h/riscv.hpp **** 
  33:src/../h/riscv.hpp ****     // read register sepc
  34:src/../h/riscv.hpp ****     static uint64 r_sepc();
  35:src/../h/riscv.hpp **** 
  36:src/../h/riscv.hpp ****     // write register sepc
  37:src/../h/riscv.hpp ****     static void w_sepc(uint64 sepc);
  38:src/../h/riscv.hpp **** 
  39:src/../h/riscv.hpp ****     // read register stvec
  40:src/../h/riscv.hpp ****     static uint64 r_stvec();
  41:src/../h/riscv.hpp **** 
  42:src/../h/riscv.hpp ****     // write register stvec
  43:src/../h/riscv.hpp ****     static void w_stvec(uint64 stvec);
  44:src/../h/riscv.hpp **** 
  45:src/../h/riscv.hpp ****     // read register stval
  46:src/../h/riscv.hpp ****     static uint64 r_stval();
  47:src/../h/riscv.hpp **** 
  48:src/../h/riscv.hpp ****     // write register stval
  49:src/../h/riscv.hpp ****     static void w_stval(uint64 stval);
  50:src/../h/riscv.hpp **** 
  51:src/../h/riscv.hpp ****     enum BitMaskSip {
  52:src/../h/riscv.hpp ****         SIP_SSIE = (1 << 1),
  53:src/../h/riscv.hpp ****         SIP_STIE = (1 << 5),
  54:src/../h/riscv.hpp ****         SIP_SEIE = (1 << 9),
  55:src/../h/riscv.hpp ****     };
  56:src/../h/riscv.hpp **** 
  57:src/../h/riscv.hpp ****     // mask set register sip
  58:src/../h/riscv.hpp ****     static void ms_sip(uint64 mask);
  59:src/../h/riscv.hpp **** 
GAS LISTING /tmp/ccfnOxaa.s 			page 11


  60:src/../h/riscv.hpp ****     // mask clear register sip
  61:src/../h/riscv.hpp ****     static void mc_sip(uint64 mask);
  62:src/../h/riscv.hpp **** 
  63:src/../h/riscv.hpp ****     // read register sip
  64:src/../h/riscv.hpp ****     static uint64 r_sip();
  65:src/../h/riscv.hpp **** 
  66:src/../h/riscv.hpp ****     // write register sip
  67:src/../h/riscv.hpp ****     static void w_sip(uint64 sip);
  68:src/../h/riscv.hpp **** 
  69:src/../h/riscv.hpp ****     enum BitMaskSstatus {
  70:src/../h/riscv.hpp ****         SSTATUS_SIE = (1 << 1),
  71:src/../h/riscv.hpp ****         SSTATUS_SPIE = (1 << 5),
  72:src/../h/riscv.hpp ****         SSTATUS_SPP = (1 << 8),
  73:src/../h/riscv.hpp ****     };
  74:src/../h/riscv.hpp **** 
  75:src/../h/riscv.hpp ****     // mask set register sstatus
  76:src/../h/riscv.hpp ****     static void ms_sstatus(uint64 mask);
  77:src/../h/riscv.hpp **** 
  78:src/../h/riscv.hpp ****     // mask clear register sstatus
  79:src/../h/riscv.hpp ****     static void mc_sstatus(uint64 mask);
  80:src/../h/riscv.hpp **** 
  81:src/../h/riscv.hpp ****     // read register sstatus
  82:src/../h/riscv.hpp ****     static uint64 r_sstatus();
  83:src/../h/riscv.hpp **** 
  84:src/../h/riscv.hpp ****     // write register sstatus
  85:src/../h/riscv.hpp ****     static void w_sstatus(uint64 sstatus);
  86:src/../h/riscv.hpp **** 
  87:src/../h/riscv.hpp ****     static uint64 r_sscratch();
  88:src/../h/riscv.hpp **** 
  89:src/../h/riscv.hpp **** private:
  90:src/../h/riscv.hpp **** 
  91:src/../h/riscv.hpp ****     enum Scause {
  92:src/../h/riscv.hpp ****         ILLEGAL_INSTRUCTION = 2,
  93:src/../h/riscv.hpp ****     };
  94:src/../h/riscv.hpp **** 
  95:src/../h/riscv.hpp ****     typedef uint64 (*syscall_f)(uint64, uint64, uint64, uint64);
  96:src/../h/riscv.hpp **** 
  97:src/../h/riscv.hpp ****     static syscall_f syscall_table[SYSCALL_COUNT];
  98:src/../h/riscv.hpp **** };
  99:src/../h/riscv.hpp **** 
 100:src/../h/riscv.hpp **** inline uint64 Riscv::r_sscratch() {
 101:src/../h/riscv.hpp ****     uint64 volatile sscratch;
 102:src/../h/riscv.hpp ****     __asm__ volatile ("csrr %[scause], scause" : [scause] "=r"(sscratch));
 103:src/../h/riscv.hpp ****     return sscratch;
 104:src/../h/riscv.hpp **** }
 105:src/../h/riscv.hpp **** 
 106:src/../h/riscv.hpp **** inline uint64 Riscv::r_scause() {
 107:src/../h/riscv.hpp ****     uint64 volatile scause;
 108:src/../h/riscv.hpp ****     __asm__ volatile ("csrr %[scause], scause" : [scause] "=r"(scause));
 109:src/../h/riscv.hpp ****     return scause;
 110:src/../h/riscv.hpp **** }
 111:src/../h/riscv.hpp **** 
 112:src/../h/riscv.hpp **** inline void Riscv::w_scause(uint64 scause) {
 113:src/../h/riscv.hpp ****     __asm__ volatile ("csrw scause, %[scause]" : : [scause] "r"(scause));
 114:src/../h/riscv.hpp **** }
 115:src/../h/riscv.hpp **** 
 116:src/../h/riscv.hpp **** inline uint64 Riscv::r_sepc() {
GAS LISTING /tmp/ccfnOxaa.s 			page 12


 117:src/../h/riscv.hpp ****     uint64 volatile sepc;
 118:src/../h/riscv.hpp ****     __asm__ volatile ("csrr %[sepc], sepc" : [sepc] "=r"(sepc));
 119:src/../h/riscv.hpp ****     return sepc;
 120:src/../h/riscv.hpp **** }
 121:src/../h/riscv.hpp **** 
 122:src/../h/riscv.hpp **** inline void Riscv::w_sepc(uint64 sepc) {
 123:src/../h/riscv.hpp ****     __asm__ volatile ("csrw sepc, %[sepc]" : : [sepc] "r"(sepc));
 124:src/../h/riscv.hpp **** }
 125:src/../h/riscv.hpp **** 
 126:src/../h/riscv.hpp **** inline uint64 Riscv::r_stvec() {
 127:src/../h/riscv.hpp ****     uint64 volatile stvec;
 128:src/../h/riscv.hpp ****     __asm__ volatile ("csrr %[stvec], stvec" : [stvec] "=r"(stvec));
 129:src/../h/riscv.hpp ****     return stvec;
 130:src/../h/riscv.hpp **** }
 131:src/../h/riscv.hpp **** 
 132:src/../h/riscv.hpp **** inline void Riscv::w_stvec(uint64 stvec) {
 133:src/../h/riscv.hpp ****     __asm__ volatile ("csrw stvec, %[stvec]" : : [stvec] "r"(stvec));
 134:src/../h/riscv.hpp **** }
 135:src/../h/riscv.hpp **** 
 136:src/../h/riscv.hpp **** inline uint64 Riscv::r_stval() {
 137:src/../h/riscv.hpp ****     uint64 volatile stval;
 138:src/../h/riscv.hpp ****     __asm__ volatile ("csrr %[stval], stval" : [stval] "=r"(stval));
 139:src/../h/riscv.hpp ****     return stval;
 140:src/../h/riscv.hpp **** }
 141:src/../h/riscv.hpp **** 
 142:src/../h/riscv.hpp **** inline void Riscv::w_stval(uint64 stval) {
 143:src/../h/riscv.hpp ****     __asm__ volatile ("csrw stval, %[stval]" : : [stval] "r"(stval));
 144:src/../h/riscv.hpp **** }
 145:src/../h/riscv.hpp **** 
 146:src/../h/riscv.hpp **** inline void Riscv::ms_sip(uint64 mask) {
 147:src/../h/riscv.hpp ****     __asm__ volatile ("csrs sip, %[mask]" : : [mask] "r"(mask));
 148:src/../h/riscv.hpp **** }
 149:src/../h/riscv.hpp **** 
 150:src/../h/riscv.hpp **** inline void Riscv::mc_sip(uint64 mask) {
 151:src/../h/riscv.hpp ****     __asm__ volatile ("csrc sip, %[mask]" : : [mask] "r"(mask));
 152:src/../h/riscv.hpp **** }
 153:src/../h/riscv.hpp **** 
 154:src/../h/riscv.hpp **** inline uint64 Riscv::r_sip() {
 155:src/../h/riscv.hpp ****     uint64 volatile sip;
 156:src/../h/riscv.hpp ****     __asm__ volatile ("csrr %[sip], sip" : [sip] "=r"(sip));
 157:src/../h/riscv.hpp ****     return sip;
 158:src/../h/riscv.hpp **** }
 159:src/../h/riscv.hpp **** 
 160:src/../h/riscv.hpp **** inline void Riscv::w_sip(uint64 sip) {
 161:src/../h/riscv.hpp ****     __asm__ volatile ("csrw sip, %[sip]" : : [sip] "r"(sip));
 162:src/../h/riscv.hpp **** }
 163:src/../h/riscv.hpp **** 
 164:src/../h/riscv.hpp **** inline void Riscv::ms_sstatus(uint64 mask) {
 165:src/../h/riscv.hpp ****     __asm__ volatile ("csrs sstatus, %[mask]" : : [mask] "r"(mask));
 347              		.loc 5 165 5
 348              		.loc 5 165 68 is_stmt 0
 349 00bc 93072000 		li	a5,2
 350              	#APP
 351              	# 165 "src/../h/riscv.hpp" 1
 166              	}
 352              		csrs sstatus, a5
 353              	# 0 "" 2
GAS LISTING /tmp/ccfnOxaa.s 			page 13


 354              	.LVL25:
 355              	#NO_APP
 356              	.LBE20:
 357              	.LBE19:
  30:src/main.cpp  **** 
 358              		.loc 1 30 1
 359 00c4 83308102 		ld	ra,40(sp)
 360              		.cfi_remember_state
 361              		.cfi_restore 1
 362 00c8 03340102 		ld	s0,32(sp)
 363              		.cfi_restore 8
 364              		.cfi_def_cfa 2, 48
 365 00cc 83348101 		ld	s1,24(sp)
 366              		.cfi_restore 9
 367 00d0 03390101 		ld	s2,16(sp)
 368              		.cfi_restore 18
 369 00d4 13010103 		addi	sp,sp,48
 370              		.cfi_def_cfa_offset 0
 371 00d8 67800000 		jr	ra
 372              	.L15:
 373              		.cfi_restore_state
 374 00dc 13090500 		mv	s2,a0
  25:src/main.cpp  ****     thread_t handle_main;
 375              		.loc 1 25 30
 376 00e0 13850400 		mv	a0,s1
 377 00e4 97000000 		call	_ZdlPv@plt
 377      E7800000 
 378              	.LVL26:
 379 00ec 13050900 		mv	a0,s2
 380              	.LEHB3:
 381 00f0 97000000 		call	_Unwind_Resume@plt
 381      E7800000 
 382              	.LVL27:
 383              	.LEHE3:
 384              		.cfi_endproc
 385              	.LFE48:
 386              		.globl	__gxx_personality_v0
 387              		.section	.gcc_except_table._Z4initv,"aG",@progbits,_Z4initv,comdat
 388              	.LLSDA48:
 389 0000 FF       		.byte	0xff
 390 0001 FF       		.byte	0xff
 391 0002 03       		.byte	0x3
 392 0003 34       		.byte	0x34
 393 0004 00000000 		.4byte	.LEHB0-.LFB48
 394 0008 00000000 		.4byte	.LEHE0-.LEHB0
 395 000c 00000000 		.4byte	0
 396 0010 00       		.byte	0
 397 0011 00000000 		.4byte	.LEHB1-.LFB48
 398 0015 00000000 		.4byte	.LEHE1-.LEHB1
 399 0019 00000000 		.4byte	.L15-.LFB48
 400 001d 00       		.byte	0
 401 001e 00000000 		.4byte	.LEHB2-.LFB48
 402 0022 00000000 		.4byte	.LEHE2-.LEHB2
 403 0026 00000000 		.4byte	0
 404 002a 00       		.byte	0
 405 002b 00000000 		.4byte	.LEHB3-.LFB48
 406 002f 00000000 		.4byte	.LEHE3-.LEHB3
GAS LISTING /tmp/ccfnOxaa.s 			page 14


 407 0033 00000000 		.4byte	0
 408 0037 00       		.byte	0
 409              		.section	.text._Z4initv,"axG",@progbits,_Z4initv,comdat
 411              		.text
 412              		.align	2
 413              		.globl	main
 415              	main:
 416              	.LFB52:
  52:src/main.cpp  **** 
  53:src/main.cpp  **** int main() {
 417              		.loc 1 53 12 is_stmt 1
 418              		.cfi_startproc
 419 0108 130101FF 		addi	sp,sp,-16
 420              		.cfi_def_cfa_offset 16
 421 010c 23341100 		sd	ra,8(sp)
 422 0110 23308100 		sd	s0,0(sp)
 423              		.cfi_offset 1, -8
 424              		.cfi_offset 8, -16
 425 0114 13040101 		addi	s0,sp,16
 426              		.cfi_def_cfa 8, 0
  54:src/main.cpp  ****     init();
 427              		.loc 1 54 5
 428              		.loc 1 54 9 is_stmt 0
 429 0118 97000000 		call	_Z4initv
 429      E7800000 
 430              	.LVL28:
  55:src/main.cpp  ****     int ret = call();
 431              		.loc 1 55 5 is_stmt 1
 432              		.loc 1 55 19 is_stmt 0
 433 0120 97000000 		call	_Z4callv
 433      E7800000 
 434              	.LVL29:
  56:src/main.cpp  ****     return end(ret);
 435              		.loc 1 56 5 is_stmt 1
 436              		.loc 1 56 15 is_stmt 0
 437 0128 97000000 		call	_Z3endi
 437      E7800000 
 438              	.LVL30:
  57:src/main.cpp  **** }...
 439              		.loc 1 57 1
 440 0130 83308100 		ld	ra,8(sp)
 441              		.cfi_restore 1
 442 0134 03340100 		ld	s0,0(sp)
 443              		.cfi_restore 8
 444              		.cfi_def_cfa 2, 16
 445 0138 13010101 		addi	sp,sp,16
 446              		.cfi_def_cfa_offset 0
 447 013c 67800000 		jr	ra
 448              		.cfi_endproc
 449              	.LFE52:
 451              		.globl	printer
 452              		.globl	handle_bleya
 453              		.bss
 454              		.align	3
 455              		.set	.LANCHOR0,. + 0
 458              	printer:
 459 0000 00000000 		.zero	8
GAS LISTING /tmp/ccfnOxaa.s 			page 15


 459      00000000 
 462              	handle_bleya:
 463 0008 00000000 		.zero	8
 463      00000000 
 464              		.text
 465              	.Letext0:
 466              		.file 6 "src/../h/../lib/hw.h"
 467              		.file 7 "src/../h/syscall_c.hpp"
 468              		.file 8 "src/../h/c_thread.hpp"
 469              		.file 9 "src/../h/c_memory.hpp"
 470              		.file 10 "src/../h/iostream.hpp"
 471              		.file 11 "src/../h/syscall_cpp.hpp"
 4884              		.align	3
 4887              	DW.ref.__gxx_personality_v0:
 4888 0000 00000000 		.dword	__gxx_personality_v0
 4888      00000000 
 4889              		.ident	"GCC: (Ubuntu 9.4.0-1ubuntu1~20.04) 9.4.0"
 4890              		.section	.note.GNU-stack,"",@progbits
GAS LISTING /tmp/ccfnOxaa.s 			page 16


DEFINED SYMBOLS
                            *ABS*:0000000000000000 main.cpp
     /tmp/ccfnOxaa.s:9      .text:0000000000000000 _Z9bleya_nitPv
     /tmp/ccfnOxaa.s:13     .text:0000000000000000 .L0 
     /tmp/ccfnOxaa.s:14     .text:0000000000000000 .L0 
     /tmp/ccfnOxaa.s:15     .text:0000000000000004 .L0 
     /tmp/ccfnOxaa.s:17     .text:0000000000000008 .L0 
     /tmp/ccfnOxaa.s:19     .text:000000000000000c .L0 
     /tmp/ccfnOxaa.s:22     .text:000000000000000c .L0 
     /tmp/ccfnOxaa.s:23     .text:000000000000000c .L0 
     /tmp/ccfnOxaa.s:24     .text:0000000000000010 .L0 
     /tmp/ccfnOxaa.s:30     .text:0000000000000010 _Z11userWrapperPv
     /tmp/ccfnOxaa.s:33     .text:0000000000000010 .L0 
     /tmp/ccfnOxaa.s:35     .text:0000000000000010 .L0 
     /tmp/ccfnOxaa.s:36     .text:0000000000000014 .L0 
     /tmp/ccfnOxaa.s:40     .text:0000000000000020 .L0 
     /tmp/ccfnOxaa.s:41     .text:0000000000000020 .L0 
     /tmp/ccfnOxaa.s:42     .text:0000000000000020 .L0 
     /tmp/ccfnOxaa.s:44     .text:0000000000000024 .L0 
     /tmp/ccfnOxaa.s:47     .text:0000000000000028 .L0 
     /tmp/ccfnOxaa.s:48     .text:0000000000000028 .L0 
     /tmp/ccfnOxaa.s:51     .text:0000000000000030 .L0 
     /tmp/ccfnOxaa.s:53     .text:0000000000000034 .L0 
     /tmp/ccfnOxaa.s:54     .text:0000000000000038 .L0 
     /tmp/ccfnOxaa.s:56     .text:000000000000003c .L0 
     /tmp/ccfnOxaa.s:57     .text:000000000000003c .L0 
     /tmp/ccfnOxaa.s:59     .text:0000000000000040 .L0 
     /tmp/ccfnOxaa.s:62     .text:0000000000000044 .L0 
     /tmp/ccfnOxaa.s:64     .text:0000000000000048 .L0 
     /tmp/ccfnOxaa.s:70     .text:0000000000000048 _Z4callv
     /tmp/ccfnOxaa.s:73     .text:0000000000000048 .L0 
     /tmp/ccfnOxaa.s:74     .text:0000000000000048 .L0 
     /tmp/ccfnOxaa.s:75     .text:000000000000004c .L0 
     /tmp/ccfnOxaa.s:78     .text:0000000000000054 .L0 
     /tmp/ccfnOxaa.s:79     .text:0000000000000054 .L0 
     /tmp/ccfnOxaa.s:81     .text:0000000000000058 .L0 
     /tmp/ccfnOxaa.s:83     .text:0000000000000058 .L0 
     /tmp/ccfnOxaa.s:84     .text:0000000000000058 .L0 
     /tmp/ccfnOxaa.s:85     .text:0000000000000058 .L0 
     /tmp/ccfnOxaa.s:86     .text:0000000000000058 .L0 
     /tmp/ccfnOxaa.s:92     .text:0000000000000070 .L0 
     /tmp/ccfnOxaa.s:93     .text:0000000000000070 .L0 
     /tmp/ccfnOxaa.s:97     .text:000000000000007c .L0 
     /tmp/ccfnOxaa.s:98     .text:000000000000007c .L0 
     /tmp/ccfnOxaa.s:100    .text:0000000000000084 .L0 
     /tmp/ccfnOxaa.s:102    .text:0000000000000088 .L0 
     /tmp/ccfnOxaa.s:103    .text:0000000000000088 .L0 
     /tmp/ccfnOxaa.s:105    .text:000000000000008c .L0 
     /tmp/ccfnOxaa.s:107    .text:0000000000000090 .L0 
     /tmp/ccfnOxaa.s:121    .text:0000000000000090 _Z3endi
     /tmp/ccfnOxaa.s:124    .text:0000000000000090 .L0 
     /tmp/ccfnOxaa.s:126    .text:0000000000000090 .L0 
     /tmp/ccfnOxaa.s:127    .text:0000000000000094 .L0 
     /tmp/ccfnOxaa.s:131    .text:00000000000000a0 .L0 
     /tmp/ccfnOxaa.s:132    .text:00000000000000a0 .L0 
     /tmp/ccfnOxaa.s:133    .text:00000000000000a0 .L0 
     /tmp/ccfnOxaa.s:135    .text:00000000000000a4 .L0 
GAS LISTING /tmp/ccfnOxaa.s 			page 17


     /tmp/ccfnOxaa.s:138    .text:00000000000000a8 .L0 
     /tmp/ccfnOxaa.s:139    .text:00000000000000a8 .L0 
     /tmp/ccfnOxaa.s:144    .text:00000000000000b8 .L0 
     /tmp/ccfnOxaa.s:145    .text:00000000000000b8 .L0 
     /tmp/ccfnOxaa.s:149    .text:00000000000000c4 .L0 
     /tmp/ccfnOxaa.s:150    .text:00000000000000c4 .L0 
     /tmp/ccfnOxaa.s:155    .text:00000000000000d4 .L0 
     /tmp/ccfnOxaa.s:157    .text:00000000000000d4 .L0 
     /tmp/ccfnOxaa.s:162    .text:00000000000000d4 .L0 
     /tmp/ccfnOxaa.s:163    .text:00000000000000d4 .L0 
     /tmp/ccfnOxaa.s:170    .text:00000000000000e0 .L0 
     /tmp/ccfnOxaa.s:172    .text:00000000000000e4 .L0 
     /tmp/ccfnOxaa.s:173    .text:00000000000000e4 .L0 
     /tmp/ccfnOxaa.s:177    .text:00000000000000f0 .L0 
     /tmp/ccfnOxaa.s:178    .text:00000000000000f0 .L0 
     /tmp/ccfnOxaa.s:180    .text:00000000000000f8 .L0 
     /tmp/ccfnOxaa.s:182    .text:00000000000000fc .L0 
     /tmp/ccfnOxaa.s:183    .text:00000000000000fc .L0 
     /tmp/ccfnOxaa.s:185    .text:0000000000000100 .L0 
     /tmp/ccfnOxaa.s:187    .text:0000000000000104 .L0 
     /tmp/ccfnOxaa.s:189    .text:0000000000000108 .L0 
     /tmp/ccfnOxaa.s:196    .text._ZN3stm14CircularBufferIP3TCBE4initEv:0000000000000000 _ZN3stm14CircularBufferIP3TCBE4initEv
     /tmp/ccfnOxaa.s:199    .text._ZN3stm14CircularBufferIP3TCBE4initEv:0000000000000000 .L0 
     /tmp/ccfnOxaa.s:201    .text._ZN3stm14CircularBufferIP3TCBE4initEv:0000000000000000 .L0 
     /tmp/ccfnOxaa.s:202    .text._ZN3stm14CircularBufferIP3TCBE4initEv:0000000000000004 .L0 
     /tmp/ccfnOxaa.s:206    .text._ZN3stm14CircularBufferIP3TCBE4initEv:0000000000000010 .L0 
     /tmp/ccfnOxaa.s:207    .text._ZN3stm14CircularBufferIP3TCBE4initEv:0000000000000010 .L0 
     /tmp/ccfnOxaa.s:208    .text._ZN3stm14CircularBufferIP3TCBE4initEv:0000000000000010 .L0 
     /tmp/ccfnOxaa.s:210    .text._ZN3stm14CircularBufferIP3TCBE4initEv:0000000000000014 .L0 
     /tmp/ccfnOxaa.s:213    .text._ZN3stm14CircularBufferIP3TCBE4initEv:0000000000000018 .L0 
     /tmp/ccfnOxaa.s:215    .text._ZN3stm14CircularBufferIP3TCBE4initEv:000000000000001c .L0 
     /tmp/ccfnOxaa.s:217    .text._ZN3stm14CircularBufferIP3TCBE4initEv:0000000000000020 .L0 
     /tmp/ccfnOxaa.s:219    .text._ZN3stm14CircularBufferIP3TCBE4initEv:0000000000000024 .L0 
     /tmp/ccfnOxaa.s:222    .text._ZN3stm14CircularBufferIP3TCBE4initEv:000000000000002c .L0 
     /tmp/ccfnOxaa.s:227    .text._ZN3stm14CircularBufferIP3TCBE4initEv:0000000000000038 .L0 
     /tmp/ccfnOxaa.s:229    .text._ZN3stm14CircularBufferIP3TCBE4initEv:000000000000003c .L0 
     /tmp/ccfnOxaa.s:230    .text._ZN3stm14CircularBufferIP3TCBE4initEv:0000000000000040 .L0 
     /tmp/ccfnOxaa.s:232    .text._ZN3stm14CircularBufferIP3TCBE4initEv:0000000000000044 .L0 
     /tmp/ccfnOxaa.s:233    .text._ZN3stm14CircularBufferIP3TCBE4initEv:0000000000000044 .L0 
     /tmp/ccfnOxaa.s:235    .text._ZN3stm14CircularBufferIP3TCBE4initEv:0000000000000048 .L0 
     /tmp/ccfnOxaa.s:238    .text._ZN3stm14CircularBufferIP3TCBE4initEv:000000000000004c .L0 
     /tmp/ccfnOxaa.s:240    .text._ZN3stm14CircularBufferIP3TCBE4initEv:0000000000000050 .L0 
     /tmp/ccfnOxaa.s:247    .text._Z4initv:0000000000000000 _Z4initv
     /tmp/ccfnOxaa.s:250    .text._Z4initv:0000000000000000 .L0 
     /tmp/ccfnOxaa.s:4887   .data.rel.local.DW.ref.__gxx_personality_v0:0000000000000000 DW.ref.__gxx_personality_v0
     /tmp/ccfnOxaa.s:253    .text._Z4initv:0000000000000000 .L0 
     /tmp/ccfnOxaa.s:254    .text._Z4initv:0000000000000004 .L0 
     /tmp/ccfnOxaa.s:259    .text._Z4initv:0000000000000014 .L0 
     /tmp/ccfnOxaa.s:260    .text._Z4initv:0000000000000014 .L0 
     /tmp/ccfnOxaa.s:261    .text._Z4initv:0000000000000014 .L0 
     /tmp/ccfnOxaa.s:262    .text._Z4initv:0000000000000014 .L0 
     /tmp/ccfnOxaa.s:264    .text._Z4initv:0000000000000018 .L0 
     /tmp/ccfnOxaa.s:266    .text._Z4initv:0000000000000018 .L0 
     /tmp/ccfnOxaa.s:267    .text._Z4initv:0000000000000018 .L0 
     /tmp/ccfnOxaa.s:273    .text._Z4initv:0000000000000024 .L0 
        src/main.cpp:20     .text._Z4initv:0000000000000024 .L0 
     /tmp/ccfnOxaa.s:278    .text._Z4initv:0000000000000028 .L0 
GAS LISTING /tmp/ccfnOxaa.s 			page 18


        src/main.cpp:21     .text._Z4initv:0000000000000028 .L0 
     /tmp/ccfnOxaa.s:284    .text._Z4initv:000000000000002c .L0 
     /tmp/ccfnOxaa.s:286    .text._Z4initv:000000000000002c .L0 
     /tmp/ccfnOxaa.s:289    .text._Z4initv:0000000000000034 .L0 
     /tmp/ccfnOxaa.s:290    .text._Z4initv:0000000000000034 .L0 
     /tmp/ccfnOxaa.s:296    .text._Z4initv:000000000000003c .L0 
     /tmp/ccfnOxaa.s:297    .text._Z4initv:000000000000003c .L0 
     /tmp/ccfnOxaa.s:298    .text._Z4initv:000000000000003c .L0 
     /tmp/ccfnOxaa.s:302    .text._Z4initv:000000000000004c .L0 
     /tmp/ccfnOxaa.s:303    .text._Z4initv:000000000000004c .L0 
     /tmp/ccfnOxaa.s:307    .text._Z4initv:000000000000005c .L0 
     /tmp/ccfnOxaa.s:308    .text._Z4initv:000000000000005c .L0 
     /tmp/ccfnOxaa.s:314    .text._Z4initv:000000000000006c .L0 
     /tmp/ccfnOxaa.s:315    .text._Z4initv:000000000000006c .L0 
     /tmp/ccfnOxaa.s:325    .text._Z4initv:0000000000000084 .L0 
     /tmp/ccfnOxaa.s:327    .text._Z4initv:000000000000008c .L0 
     /tmp/ccfnOxaa.s:328    .text._Z4initv:000000000000008c .L0 
     /tmp/ccfnOxaa.s:329    .text._Z4initv:000000000000008c .L0 
     /tmp/ccfnOxaa.s:336    .text._Z4initv:00000000000000a0 .L0 
     /tmp/ccfnOxaa.s:337    .text._Z4initv:00000000000000a0 .L0 
     /tmp/ccfnOxaa.s:347    .text._Z4initv:00000000000000bc .L0 
     /tmp/ccfnOxaa.s:348    .text._Z4initv:00000000000000bc .L0 
     /tmp/ccfnOxaa.s:349    .text._Z4initv:00000000000000bc .L0 
     /tmp/ccfnOxaa.s:359    .text._Z4initv:00000000000000c4 .L0 
     /tmp/ccfnOxaa.s:360    .text._Z4initv:00000000000000c8 .L0 
     /tmp/ccfnOxaa.s:361    .text._Z4initv:00000000000000c8 .L0 
     /tmp/ccfnOxaa.s:363    .text._Z4initv:00000000000000cc .L0 
     /tmp/ccfnOxaa.s:364    .text._Z4initv:00000000000000cc .L0 
     /tmp/ccfnOxaa.s:366    .text._Z4initv:00000000000000d0 .L0 
     /tmp/ccfnOxaa.s:368    .text._Z4initv:00000000000000d4 .L0 
     /tmp/ccfnOxaa.s:370    .text._Z4initv:00000000000000d8 .L0 
     /tmp/ccfnOxaa.s:373    .text._Z4initv:00000000000000dc .L0 
     /tmp/ccfnOxaa.s:376    .text._Z4initv:00000000000000e0 .L0 
     /tmp/ccfnOxaa.s:384    .text._Z4initv:00000000000000f8 .L0 
     /tmp/ccfnOxaa.s:415    .text:0000000000000108 main
     /tmp/ccfnOxaa.s:418    .text:0000000000000108 .L0 
     /tmp/ccfnOxaa.s:419    .text:0000000000000108 .L0 
     /tmp/ccfnOxaa.s:420    .text:000000000000010c .L0 
     /tmp/ccfnOxaa.s:423    .text:0000000000000114 .L0 
     /tmp/ccfnOxaa.s:424    .text:0000000000000114 .L0 
     /tmp/ccfnOxaa.s:426    .text:0000000000000118 .L0 
     /tmp/ccfnOxaa.s:428    .text:0000000000000118 .L0 
     /tmp/ccfnOxaa.s:429    .text:0000000000000118 .L0 
     /tmp/ccfnOxaa.s:432    .text:0000000000000120 .L0 
     /tmp/ccfnOxaa.s:433    .text:0000000000000120 .L0 
     /tmp/ccfnOxaa.s:436    .text:0000000000000128 .L0 
     /tmp/ccfnOxaa.s:437    .text:0000000000000128 .L0 
     /tmp/ccfnOxaa.s:440    .text:0000000000000130 .L0 
     /tmp/ccfnOxaa.s:441    .text:0000000000000134 .L0 
     /tmp/ccfnOxaa.s:443    .text:0000000000000138 .L0 
     /tmp/ccfnOxaa.s:444    .text:0000000000000138 .L0 
     /tmp/ccfnOxaa.s:446    .text:000000000000013c .L0 
     /tmp/ccfnOxaa.s:448    .text:0000000000000140 .L0 
     /tmp/ccfnOxaa.s:458    .bss:0000000000000000 printer
     /tmp/ccfnOxaa.s:462    .bss:0000000000000008 handle_bleya
     /tmp/ccfnOxaa.s:455    .bss:0000000000000000 .LANCHOR0
     /tmp/ccfnOxaa.s:472    .text:0000000000000140 .L0 
GAS LISTING /tmp/ccfnOxaa.s 			page 19


     /tmp/ccfnOxaa.s:243    .text._ZN3stm14CircularBufferIP3TCBE4initEv:0000000000000050 .L0 
     /tmp/ccfnOxaa.s:411    .text._Z4initv:00000000000000f8 .L0 
     /tmp/ccfnOxaa.s:87     .text:000000000000005c .L0 
     /tmp/ccfnOxaa.s:112    .rodata.str1.8:0000000000000000 .LC0
     /tmp/ccfnOxaa.s:139    .text:00000000000000a8 .L0 
     /tmp/ccfnOxaa.s:115    .rodata.str1.8:0000000000000028 .LC1
     /tmp/ccfnOxaa.s:150    .text:00000000000000c4 .L0 
     /tmp/ccfnOxaa.s:163    .text:00000000000000d4 .L0 
     /tmp/ccfnOxaa.s:20     .text:000000000000000c .L2
     /tmp/ccfnOxaa.s:153    .text:00000000000000d4 .L9
     /tmp/ccfnOxaa.s:267    .text._Z4initv:0000000000000018 .L0 
     /tmp/ccfnOxaa.s:298    .text._Z4initv:000000000000003c .L0 
     /tmp/ccfnOxaa.s:303    .text._Z4initv:000000000000004c .L0 
     /tmp/ccfnOxaa.s:308    .text._Z4initv:000000000000005c .L0 
     /tmp/ccfnOxaa.s:325    .text._Z4initv:0000000000000084 .L0 
     /tmp/ccfnOxaa.s:338    .text._Z4initv:00000000000000a4 .L0 
     /tmp/ccfnOxaa.s:339    .text._Z4initv:00000000000000ac .L0 
     /tmp/ccfnOxaa.s:283    .text._Z4initv:000000000000002c .LEHB0
     /tmp/ccfnOxaa.s:248    .text._Z4initv:0000000000000000 .LFB48
     /tmp/ccfnOxaa.s:318    .text._Z4initv:0000000000000078 .LEHE0
     /tmp/ccfnOxaa.s:320    .text._Z4initv:000000000000007c .LEHB1
     /tmp/ccfnOxaa.s:323    .text._Z4initv:0000000000000084 .LEHE1
     /tmp/ccfnOxaa.s:372    .text._Z4initv:00000000000000dc .L15
     /tmp/ccfnOxaa.s:332    .text._Z4initv:0000000000000098 .LEHB2
     /tmp/ccfnOxaa.s:342    .text._Z4initv:00000000000000bc .LEHE2
     /tmp/ccfnOxaa.s:380    .text._Z4initv:00000000000000f0 .LEHB3
     /tmp/ccfnOxaa.s:383    .text._Z4initv:00000000000000f8 .LEHE3
     /tmp/ccfnOxaa.s:2812   .debug_abbrev:0000000000000000 .Ldebug_abbrev0
     /tmp/ccfnOxaa.s:4753   .debug_str:0000000000000d33 .LASF266
     /tmp/ccfnOxaa.s:4453   .debug_str:000000000000042f .LASF267
     /tmp/ccfnOxaa.s:4471   .debug_str:00000000000004a1 .LASF268
     /tmp/ccfnOxaa.s:4307   .debug_ranges:0000000000000000 .Ldebug_ranges0
     /tmp/ccfnOxaa.s:4317   .debug_line:0000000000000000 .Ldebug_line0
     /tmp/ccfnOxaa.s:4507   .debug_str:00000000000005ef .LASF0
     /tmp/ccfnOxaa.s:4557   .debug_str:000000000000079b .LASF1
     /tmp/ccfnOxaa.s:4689   .debug_str:0000000000000b6c .LASF2
     /tmp/ccfnOxaa.s:4695   .debug_str:0000000000000bab .LASF4
     /tmp/ccfnOxaa.s:4529   .debug_str:00000000000006b2 .LASF3
     /tmp/ccfnOxaa.s:4341   .debug_str:00000000000000b4 .LASF5
     /tmp/ccfnOxaa.s:4655   .debug_str:0000000000000a8b .LASF6
     /tmp/ccfnOxaa.s:4639   .debug_str:0000000000000a07 .LASF7
     /tmp/ccfnOxaa.s:4545   .debug_str:0000000000000748 .LASF8
     /tmp/ccfnOxaa.s:4465   .debug_str:0000000000000464 .LASF9
     /tmp/ccfnOxaa.s:4477   .debug_str:00000000000004fe .LASF10
     /tmp/ccfnOxaa.s:4383   .debug_str:00000000000001f7 .LASF11
     /tmp/ccfnOxaa.s:4449   .debug_str:000000000000040b .LASF12
     /tmp/ccfnOxaa.s:4403   .debug_str:0000000000000287 .LASF13
     /tmp/ccfnOxaa.s:4381   .debug_str:00000000000001e7 .LASF14
     /tmp/ccfnOxaa.s:4729   .debug_str:0000000000000c94 .LASF15
     /tmp/ccfnOxaa.s:4435   .debug_str:00000000000003b5 .LASF16
     /tmp/ccfnOxaa.s:4715   .debug_str:0000000000000c35 .LASF17
     /tmp/ccfnOxaa.s:4817   .debug_str:0000000000001036 .LASF18
     /tmp/ccfnOxaa.s:4563   .debug_str:00000000000007bf .LASF27
     /tmp/ccfnOxaa.s:4329   .debug_str:0000000000000037 .LASF29
     /tmp/ccfnOxaa.s:4747   .debug_str:0000000000000d11 .LASF19
     /tmp/ccfnOxaa.s:4585   .debug_str:000000000000085c .LASF21
     /tmp/ccfnOxaa.s:4711   .debug_str:0000000000000c1b .LASF20
GAS LISTING /tmp/ccfnOxaa.s 			page 20


     /tmp/ccfnOxaa.s:4759   .debug_str:0000000000000e0e .LASF22
     /tmp/ccfnOxaa.s:4791   .debug_str:0000000000000f51 .LASF23
     /tmp/ccfnOxaa.s:4479   .debug_str:000000000000050c .LASF25
     /tmp/ccfnOxaa.s:4681   .debug_str:0000000000000b36 .LASF24
     /tmp/ccfnOxaa.s:4647   .debug_str:0000000000000a45 .LASF26
     /tmp/ccfnOxaa.s:4367   .debug_str:0000000000000191 .LASF92
     /tmp/ccfnOxaa.s:4615   .debug_str:0000000000000949 .LASF94
     /tmp/ccfnOxaa.s:4773   .debug_str:0000000000000eb6 .LASF28
     /tmp/ccfnOxaa.s:4815   .debug_str:0000000000001024 .LASF30
     /tmp/ccfnOxaa.s:4641   .debug_str:0000000000000a1a .LASF31
     /tmp/ccfnOxaa.s:4865   .debug_str:00000000000011aa .LASF32
     /tmp/ccfnOxaa.s:4579   .debug_str:000000000000083c .LASF33
     /tmp/ccfnOxaa.s:4411   .debug_str:00000000000002cd .LASF34
     /tmp/ccfnOxaa.s:4561   .debug_str:00000000000007b9 .LASF35
     /tmp/ccfnOxaa.s:4761   .debug_str:0000000000000e2a .LASF36
     /tmp/ccfnOxaa.s:4589   .debug_str:000000000000087b .LASF37
     /tmp/ccfnOxaa.s:4769   .debug_str:0000000000000e74 .LASF38
     /tmp/ccfnOxaa.s:4825   .debug_str:0000000000001064 .LASF39
     /tmp/ccfnOxaa.s:4417   .debug_str:000000000000031c .LASF40
     /tmp/ccfnOxaa.s:4593   .debug_str:00000000000008b5 .LASF41
     /tmp/ccfnOxaa.s:4731   .debug_str:0000000000000ca0 .LASF42
     /tmp/ccfnOxaa.s:4775   .debug_str:0000000000000ebc .LASF43
     /tmp/ccfnOxaa.s:4809   .debug_str:0000000000000fe8 .LASF45
     /tmp/ccfnOxaa.s:4839   .debug_str:00000000000010b7 .LASF44
     /tmp/ccfnOxaa.s:4359   .debug_str:0000000000000123 .LASF46
     /tmp/ccfnOxaa.s:4649   .debug_str:0000000000000a65 .LASF47
     /tmp/ccfnOxaa.s:4413   .debug_str:00000000000002f2 .LASF48
     /tmp/ccfnOxaa.s:4583   .debug_str:0000000000000852 .LASF49
     /tmp/ccfnOxaa.s:4853   .debug_str:0000000000001137 .LASF50
     /tmp/ccfnOxaa.s:4633   .debug_str:00000000000009cf .LASF51
     /tmp/ccfnOxaa.s:4609   .debug_str:0000000000000924 .LASF52
     /tmp/ccfnOxaa.s:4379   .debug_str:00000000000001d9 .LASF53
     /tmp/ccfnOxaa.s:4505   .debug_str:00000000000005e9 .LASF54
     /tmp/ccfnOxaa.s:4343   .debug_str:00000000000000bb .LASF55
     /tmp/ccfnOxaa.s:4357   .debug_str:000000000000011d .LASF56
     /tmp/ccfnOxaa.s:4701   .debug_str:0000000000000bcc .LASF57
     /tmp/ccfnOxaa.s:4623   .debug_str:0000000000000977 .LASF58
     /tmp/ccfnOxaa.s:4377   .debug_str:00000000000001c8 .LASF59
     /tmp/ccfnOxaa.s:4587   .debug_str:0000000000000874 .LASF60
     /tmp/ccfnOxaa.s:4447   .debug_str:00000000000003fa .LASF61
     /tmp/ccfnOxaa.s:4723   .debug_str:0000000000000c6d .LASF62
     /tmp/ccfnOxaa.s:4519   .debug_str:0000000000000649 .LASF63
     /tmp/ccfnOxaa.s:4351   .debug_str:00000000000000ff .LASF64
     /tmp/ccfnOxaa.s:4431   .debug_str:0000000000000388 .LASF65
     /tmp/ccfnOxaa.s:4481   .debug_str:0000000000000526 .LASF66
     /tmp/ccfnOxaa.s:4361   .debug_str:000000000000013a .LASF67
     /tmp/ccfnOxaa.s:4763   .debug_str:0000000000000e3a .LASF68
     /tmp/ccfnOxaa.s:4523   .debug_str:000000000000066d .LASF69
     /tmp/ccfnOxaa.s:4531   .debug_str:00000000000006c4 .LASF70
     /tmp/ccfnOxaa.s:4837   .debug_str:000000000000109d .LASF71
     /tmp/ccfnOxaa.s:4455   .debug_str:000000000000043c .LASF72
     /tmp/ccfnOxaa.s:4749   .debug_str:0000000000000d1e .LASF73
     /tmp/ccfnOxaa.s:4793   .debug_str:0000000000000f5e .LASF74
     /tmp/ccfnOxaa.s:4493   .debug_str:0000000000000569 .LASF75
     /tmp/ccfnOxaa.s:4857   .debug_str:0000000000001160 .LASF76
     /tmp/ccfnOxaa.s:4421   .debug_str:000000000000033b .LASF77
     /tmp/ccfnOxaa.s:4779   .debug_str:0000000000000ed4 .LASF78
GAS LISTING /tmp/ccfnOxaa.s 			page 21


     /tmp/ccfnOxaa.s:4813   .debug_str:000000000000101d .LASF79
     /tmp/ccfnOxaa.s:4675   .debug_str:0000000000000b0b .LASF80
     /tmp/ccfnOxaa.s:4781   .debug_str:0000000000000edc .LASF81
     /tmp/ccfnOxaa.s:4569   .debug_str:00000000000007e9 .LASF82
     /tmp/ccfnOxaa.s:4371   .debug_str:00000000000001a9 .LASF83
     /tmp/ccfnOxaa.s:4375   .debug_str:00000000000001bc .LASF217
     /tmp/ccfnOxaa.s:4385   .debug_str:0000000000000206 .LASF84
     /tmp/ccfnOxaa.s:4555   .debug_str:0000000000000796 .LASF85
     /tmp/ccfnOxaa.s:4319   .debug_str:0000000000000000 .LASF86
     /tmp/ccfnOxaa.s:4525   .debug_str:0000000000000688 .LASF87
     /tmp/ccfnOxaa.s:4521   .debug_str:0000000000000663 .LASF88
     /tmp/ccfnOxaa.s:4427   .debug_str:0000000000000357 .LASF89
     /tmp/ccfnOxaa.s:4709   .debug_str:0000000000000c12 .LASF90
     /tmp/ccfnOxaa.s:4787   .debug_str:0000000000000f10 .LASF91
     /tmp/ccfnOxaa.s:4807   .debug_str:0000000000000fde .LASF93
     /tmp/ccfnOxaa.s:4395   .debug_str:000000000000024a .LASF95
     /tmp/ccfnOxaa.s:4607   .debug_str:000000000000091b .LASF96
     /tmp/ccfnOxaa.s:4877   .debug_str:000000000000120a .LASF97
     /tmp/ccfnOxaa.s:4713   .debug_str:0000000000000c2c .LASF98
     /tmp/ccfnOxaa.s:4693   .debug_str:0000000000000b92 .LASF99
     /tmp/ccfnOxaa.s:4353   .debug_str:000000000000010d .LASF100
     /tmp/ccfnOxaa.s:4801   .debug_str:0000000000000f7c .LASF101
     /tmp/ccfnOxaa.s:4871   .debug_str:00000000000011ec .LASF269
     /tmp/ccfnOxaa.s:4571   .debug_str:00000000000007f0 .LASF270
     /tmp/ccfnOxaa.s:4573   .debug_str:000000000000081a .LASF184
     /tmp/ccfnOxaa.s:4595   .debug_str:00000000000008d4 .LASF156
     /tmp/ccfnOxaa.s:4673   .debug_str:0000000000000b06 .LASF102
     /tmp/ccfnOxaa.s:4441   .debug_str:00000000000003e8 .LASF103
     /tmp/ccfnOxaa.s:4439   .debug_str:00000000000003d9 .LASF271
     /tmp/ccfnOxaa.s:4777   .debug_str:0000000000000ec8 .LASF104
     /tmp/ccfnOxaa.s:4751   .debug_str:0000000000000d26 .LASF105
     /tmp/ccfnOxaa.s:4501   .debug_str:00000000000005c5 .LASF106
     /tmp/ccfnOxaa.s:4643   .debug_str:0000000000000a27 .LASF107
     /tmp/ccfnOxaa.s:4515   .debug_str:000000000000061d .LASF108
     /tmp/ccfnOxaa.s:4755   .debug_str:0000000000000df7 .LASF109
     /tmp/ccfnOxaa.s:4811   .debug_str:0000000000001000 .LASF110
     /tmp/ccfnOxaa.s:4629   .debug_str:00000000000009ab .LASF111
     /tmp/ccfnOxaa.s:4767   .debug_str:0000000000000e58 .LASF112
     /tmp/ccfnOxaa.s:4833   .debug_str:0000000000001085 .LASF113
     /tmp/ccfnOxaa.s:4869   .debug_str:00000000000011cf .LASF114
     /tmp/ccfnOxaa.s:4491   .debug_str:000000000000055e .LASF115
     /tmp/ccfnOxaa.s:4503   .debug_str:00000000000005d1 .LASF116
     /tmp/ccfnOxaa.s:4845   .debug_str:00000000000010df .LASF117
     /tmp/ccfnOxaa.s:4669   .debug_str:0000000000000ade .LASF118
     /tmp/ccfnOxaa.s:4511   .debug_str:000000000000060c .LASF119
     /tmp/ccfnOxaa.s:4333   .debug_str:000000000000006d .LASF120
     /tmp/ccfnOxaa.s:4683   .debug_str:0000000000000b48 .LASF272
     /tmp/ccfnOxaa.s:4797   .debug_str:0000000000000f68 .LASF121
     /tmp/ccfnOxaa.s:4337   .debug_str:0000000000000097 .LASF122
     /tmp/ccfnOxaa.s:4685   .debug_str:0000000000000b58 .LASF123
     /tmp/ccfnOxaa.s:4349   .debug_str:00000000000000ea .LASF124
     /tmp/ccfnOxaa.s:4661   .debug_str:0000000000000aab .LASF125
     /tmp/ccfnOxaa.s:4665   .debug_str:0000000000000ab7 .LASF126
     /tmp/ccfnOxaa.s:4617   .debug_str:0000000000000959 .LASF127
     /tmp/ccfnOxaa.s:4549   .debug_str:0000000000000769 .LASF128
     /tmp/ccfnOxaa.s:4835   .debug_str:0000000000001095 .LASF129
     /tmp/ccfnOxaa.s:4725   .debug_str:0000000000000c7b .LASF130
GAS LISTING /tmp/ccfnOxaa.s 			page 22


     /tmp/ccfnOxaa.s:4611   .debug_str:000000000000093c .LASF131
     /tmp/ccfnOxaa.s:4627   .debug_str:0000000000000997 .LASF132
     /tmp/ccfnOxaa.s:4605   .debug_str:0000000000000913 .LASF133
     /tmp/ccfnOxaa.s:4667   .debug_str:0000000000000aca .LASF134
     /tmp/ccfnOxaa.s:4717   .debug_str:0000000000000c4b .LASF135
     /tmp/ccfnOxaa.s:4805   .debug_str:0000000000000fca .LASF136
     /tmp/ccfnOxaa.s:4843   .debug_str:00000000000010d8 .LASF137
     /tmp/ccfnOxaa.s:4697   .debug_str:0000000000000bb2 .LASF138
     /tmp/ccfnOxaa.s:4699   .debug_str:0000000000000bc5 .LASF139
     /tmp/ccfnOxaa.s:4387   .debug_str:000000000000020b .LASF140
     /tmp/ccfnOxaa.s:4425   .debug_str:0000000000000351 .LASF141
     /tmp/ccfnOxaa.s:4347   .debug_str:00000000000000d8 .LASF142
     /tmp/ccfnOxaa.s:4517   .debug_str:0000000000000643 .LASF143
     /tmp/ccfnOxaa.s:4415   .debug_str:000000000000030a .LASF144
     /tmp/ccfnOxaa.s:4861   .debug_str:0000000000001187 .LASF145
     /tmp/ccfnOxaa.s:4691   .debug_str:0000000000000b7a .LASF146
     /tmp/ccfnOxaa.s:4687   .debug_str:0000000000000b61 .LASF147
     /tmp/ccfnOxaa.s:4863   .debug_str:0000000000001192 .LASF148
     /tmp/ccfnOxaa.s:4829   .debug_str:0000000000001073 .LASF149
     /tmp/ccfnOxaa.s:4841   .debug_str:00000000000010c2 .LASF150
     /tmp/ccfnOxaa.s:4819   .debug_str:000000000000103f .LASF151
     /tmp/ccfnOxaa.s:4597   .debug_str:00000000000008e1 .LASF152
     /tmp/ccfnOxaa.s:4619   .debug_str:0000000000000960 .LASF153
     /tmp/ccfnOxaa.s:4363   .debug_str:0000000000000155 .LASF154
     /tmp/ccfnOxaa.s:4879   .debug_str:0000000000001223 .LASF155
     /tmp/ccfnOxaa.s:4527   .debug_str:00000000000006a4 .LASF157
     /tmp/ccfnOxaa.s:4451   .debug_str:000000000000041a .LASF158
     /tmp/ccfnOxaa.s:4663   .debug_str:0000000000000ab2 .LASF159
     /tmp/ccfnOxaa.s:4407   .debug_str:00000000000002a0 .LASF160
     /tmp/ccfnOxaa.s:4803   .debug_str:0000000000000fa9 .LASF161
     /tmp/ccfnOxaa.s:4391   .debug_str:0000000000000223 .LASF178
     /tmp/ccfnOxaa.s:4553   .debug_str:0000000000000791 .LASF162
     /tmp/ccfnOxaa.s:4735   .debug_str:0000000000000cb6 .LASF163
     /tmp/ccfnOxaa.s:4677   .debug_str:0000000000000b16 .LASF164
     /tmp/ccfnOxaa.s:4473   .debug_str:00000000000004bf .LASF165
     /tmp/ccfnOxaa.s:4783   .debug_str:0000000000000ee6 .LASF166
     /tmp/ccfnOxaa.s:4703   .debug_str:0000000000000bdc .LASF167
     /tmp/ccfnOxaa.s:4401   .debug_str:0000000000000280 .LASF168
     /tmp/ccfnOxaa.s:4365   .debug_str:000000000000016d .LASF169
     /tmp/ccfnOxaa.s:4483   .debug_str:0000000000000536 .LASF170
     /tmp/ccfnOxaa.s:4443   .debug_str:00000000000003ee .LASF171
     /tmp/ccfnOxaa.s:4719   .debug_str:0000000000000c53 .LASF172
     /tmp/ccfnOxaa.s:4613   .debug_str:0000000000000944 .LASF173
     /tmp/ccfnOxaa.s:4323   .debug_str:0000000000000013 .LASF174
     /tmp/ccfnOxaa.s:4325   .debug_str:000000000000001c .LASF175
     /tmp/ccfnOxaa.s:4851   .debug_str:0000000000001111 .LASF176
     /tmp/ccfnOxaa.s:4537   .debug_str:00000000000006fd .LASF177
     /tmp/ccfnOxaa.s:4635   .debug_str:00000000000009db .LASF179
     /tmp/ccfnOxaa.s:4771   .debug_str:0000000000000e90 .LASF180
     /tmp/ccfnOxaa.s:4591   .debug_str:000000000000088a .LASF181
     /tmp/ccfnOxaa.s:4495   .debug_str:000000000000056e .LASF182
     /tmp/ccfnOxaa.s:4789   .debug_str:0000000000000f29 .LASF183
     /tmp/ccfnOxaa.s:4463   .debug_str:000000000000045c .LASF273
     /tmp/ccfnOxaa.s:4339   .debug_str:00000000000000ac .LASF185
     /tmp/ccfnOxaa.s:4741   .debug_str:0000000000000cf0 .LASF186
     /tmp/ccfnOxaa.s:4535   .debug_str:00000000000006e8 .LASF187
     /tmp/ccfnOxaa.s:4679   .debug_str:0000000000000b1f .LASF188
GAS LISTING /tmp/ccfnOxaa.s 			page 23


     /tmp/ccfnOxaa.s:4859   .debug_str:0000000000001166 .LASF189
     /tmp/ccfnOxaa.s:4565   .debug_str:00000000000007ce .LASF190
     /tmp/ccfnOxaa.s:4543   .debug_str:0000000000000733 .LASF191
     /tmp/ccfnOxaa.s:4551   .debug_str:000000000000077c .LASF192
     /tmp/ccfnOxaa.s:4497   .debug_str:0000000000000597 .LASF193
     /tmp/ccfnOxaa.s:4533   .debug_str:00000000000006d3 .LASF194
     /tmp/ccfnOxaa.s:4785   .debug_str:0000000000000eee .LASF195
     /tmp/ccfnOxaa.s:4355   .debug_str:0000000000000116 .LASF196
     /tmp/ccfnOxaa.s:4389   .debug_str:000000000000021e .LASF197
     /tmp/ccfnOxaa.s:4847   .debug_str:00000000000010f1 .LASF199
     /tmp/ccfnOxaa.s:4727   .debug_str:0000000000000c8f .LASF198
     /tmp/ccfnOxaa.s:4397   .debug_str:0000000000000264 .LASF200
     /tmp/ccfnOxaa.s:4737   .debug_str:0000000000000cd8 .LASF201
     /tmp/ccfnOxaa.s:4577   .debug_str:0000000000000833 .LASF202
     /tmp/ccfnOxaa.s:4433   .debug_str:00000000000003a1 .LASF203
     /tmp/ccfnOxaa.s:4739   .debug_str:0000000000000cdd .LASF204
     /tmp/ccfnOxaa.s:4657   .debug_str:0000000000000a92 .LASF205
     /tmp/ccfnOxaa.s:4625   .debug_str:000000000000097e .LASF206
     /tmp/ccfnOxaa.s:4707   .debug_str:0000000000000c0b .LASF207
     /tmp/ccfnOxaa.s:4419   .debug_str:0000000000000335 .LASF208
     /tmp/ccfnOxaa.s:4547   .debug_str:000000000000075b .LASF209
     /tmp/ccfnOxaa.s:4567   .debug_str:00000000000007e3 .LASF210
     /tmp/ccfnOxaa.s:4765   .debug_str:0000000000000e49 .LASF211
     /tmp/ccfnOxaa.s:4393   .debug_str:0000000000000244 .LASF212
     /tmp/ccfnOxaa.s:4821   .debug_str:0000000000001049 .LASF213
     /tmp/ccfnOxaa.s:4659   .debug_str:0000000000000aa5 .LASF214
     /tmp/ccfnOxaa.s:4581   .debug_str:000000000000084b .LASF215
     /tmp/ccfnOxaa.s:4539   .debug_str:0000000000000724 .LASF216
     /tmp/ccfnOxaa.s:4733   .debug_str:0000000000000cae .LASF218
     /tmp/ccfnOxaa.s:4831   .debug_str:000000000000107d .LASF219
     /tmp/ccfnOxaa.s:4827   .debug_str:000000000000106e .LASF220
     /tmp/ccfnOxaa.s:4745   .debug_str:0000000000000d0a .LASF274
     /tmp/ccfnOxaa.s:4671   .debug_str:0000000000000afd .LASF221
     /tmp/ccfnOxaa.s:4321   .debug_str:000000000000000b .LASF222
     /tmp/ccfnOxaa.s:4405   .debug_str:0000000000000297 .LASF223
     /tmp/ccfnOxaa.s:4757   .debug_str:0000000000000e07 .LASF224
     /tmp/ccfnOxaa.s:4373   .debug_str:00000000000001b3 .LASF225
     /tmp/ccfnOxaa.s:4705   .debug_str:0000000000000c01 .LASF226
     /tmp/ccfnOxaa.s:4721   .debug_str:0000000000000c58 .LASF227
     /tmp/ccfnOxaa.s:4499   .debug_str:00000000000005ad .LASF275
     /tmp/ccfnOxaa.s:4855   .debug_str:000000000000114c .LASF276
     /tmp/ccfnOxaa.s:4335   .debug_str:000000000000007e .LASF228
     /tmp/ccfnOxaa.s:4429   .debug_str:0000000000000373 .LASF229
     /tmp/ccfnOxaa.s:4369   .debug_str:0000000000000197 .LASF230
     /tmp/ccfnOxaa.s:4437   .debug_str:00000000000003cb .LASF231
     /tmp/ccfnOxaa.s:4575   .debug_str:0000000000000826 .LASF232
     /tmp/ccfnOxaa.s:4345   .debug_str:00000000000000cb .LASF233
     /tmp/ccfnOxaa.s:4399   .debug_str:0000000000000272 .LASF234
     /tmp/ccfnOxaa.s:4331   .debug_str:0000000000000060 .LASF235
     /tmp/ccfnOxaa.s:4799   .debug_str:0000000000000f71 .LASF236
     /tmp/ccfnOxaa.s:4485   .debug_str:000000000000053f .LASF237
     /tmp/ccfnOxaa.s:197    .text._ZN3stm14CircularBufferIP3TCBE4initEv:0000000000000000 .LFB54
     /tmp/ccfnOxaa.s:241    .text._ZN3stm14CircularBufferIP3TCBE4initEv:0000000000000050 .LFE54
     /tmp/ccfnOxaa.s:4457   .debug_str:000000000000044a .LASF248
     /tmp/ccfnOxaa.s:4225   .debug_loc:0000000000000000 .LLST2
     /tmp/ccfnOxaa.s:225    .text._ZN3stm14CircularBufferIP3TCBE4initEv:0000000000000038 .LVL14
     /tmp/ccfnOxaa.s:4459   .debug_str:000000000000044f .LASF238
GAS LISTING /tmp/ccfnOxaa.s 			page 24


     /tmp/ccfnOxaa.s:416    .text:0000000000000108 .LFB52
     /tmp/ccfnOxaa.s:449    .text:0000000000000140 .LFE52
     /tmp/ccfnOxaa.s:4243   .debug_loc:000000000000004c .LLST4
     /tmp/ccfnOxaa.s:430    .text:0000000000000120 .LVL28
     /tmp/ccfnOxaa.s:434    .text:0000000000000128 .LVL29
     /tmp/ccfnOxaa.s:438    .text:0000000000000130 .LVL30
     /tmp/ccfnOxaa.s:4461   .debug_str:0000000000000454 .LASF277
     /tmp/ccfnOxaa.s:122    .text:0000000000000090 .LFB51
     /tmp/ccfnOxaa.s:190    .text:0000000000000108 .LFE51
     /tmp/ccfnOxaa.s:4250   .debug_loc:000000000000006f .LLST1
     /tmp/ccfnOxaa.s:158    .text:00000000000000d4 .LBB10
     /tmp/ccfnOxaa.s:168    .text:00000000000000e0 .LBE10
     /tmp/ccfnOxaa.s:159    .text:00000000000000d4 .LBB11
     /tmp/ccfnOxaa.s:167    .text:00000000000000e0 .LBE11
     /tmp/ccfnOxaa.s:142    .text:00000000000000b8 .LVL7
     /tmp/ccfnOxaa.s:147    .text:00000000000000c4 .LVL8
     /tmp/ccfnOxaa.s:152    .text:00000000000000d4 .LVL9
     /tmp/ccfnOxaa.s:175    .text:00000000000000f0 .LVL11
     /tmp/ccfnOxaa.s:4795   .debug_str:0000000000000f63 .LASF239
     /tmp/ccfnOxaa.s:4489   .debug_str:0000000000000555 .LASF246
     /tmp/ccfnOxaa.s:71     .text:0000000000000048 .LFB50
     /tmp/ccfnOxaa.s:108    .text:0000000000000090 .LFE50
     /tmp/ccfnOxaa.s:4559   .debug_str:00000000000007ae .LASF240
     /tmp/ccfnOxaa.s:90     .text:0000000000000070 .LVL3
     /tmp/ccfnOxaa.s:95     .text:000000000000007c .LVL4
     /tmp/ccfnOxaa.s:4467   .debug_str:0000000000000474 .LASF241
     /tmp/ccfnOxaa.s:4849   .debug_str:00000000000010ff .LASF242
     /tmp/ccfnOxaa.s:31     .text:0000000000000010 .LFB49
     /tmp/ccfnOxaa.s:65     .text:0000000000000048 .LFE49
     /tmp/ccfnOxaa.s:4264   .debug_loc:00000000000000a8 .LLST0
     /tmp/ccfnOxaa.s:49     .text:0000000000000030 .LVL1
     /tmp/ccfnOxaa.s:4541   .debug_str:000000000000072a .LASF243
     /tmp/ccfnOxaa.s:385    .text._Z4initv:00000000000000f8 .LFE48
     /tmp/ccfnOxaa.s:4823   .debug_str:0000000000001058 .LASF244
     /tmp/ccfnOxaa.s:293    .text._Z4initv:000000000000003c .LBB17
     /tmp/ccfnOxaa.s:312    .text._Z4initv:000000000000006c .LBE17
     /tmp/ccfnOxaa.s:300    .text._Z4initv:000000000000004c .LVL18
     /tmp/ccfnOxaa.s:305    .text._Z4initv:000000000000005c .LVL19
     /tmp/ccfnOxaa.s:310    .text._Z4initv:000000000000006c .LVL20
     /tmp/ccfnOxaa.s:344    .text._Z4initv:00000000000000bc .LBB19
     /tmp/ccfnOxaa.s:357    .text._Z4initv:00000000000000c4 .LBE19
     /tmp/ccfnOxaa.s:4282   .debug_loc:00000000000000f4 .LLST3
     /tmp/ccfnOxaa.s:287    .text._Z4initv:0000000000000034 .LVL16
     /tmp/ccfnOxaa.s:291    .text._Z4initv:000000000000003c .LVL17
     /tmp/ccfnOxaa.s:317    .text._Z4initv:0000000000000078 .LVL21
     /tmp/ccfnOxaa.s:322    .text._Z4initv:0000000000000084 .LVL22
     /tmp/ccfnOxaa.s:334    .text._Z4initv:00000000000000a0 .LVL23
     /tmp/ccfnOxaa.s:341    .text._Z4initv:00000000000000bc .LVL24
     /tmp/ccfnOxaa.s:378    .text._Z4initv:00000000000000ec .LVL26
     /tmp/ccfnOxaa.s:382    .text._Z4initv:00000000000000f8 .LVL27
     /tmp/ccfnOxaa.s:4875   .debug_str:0000000000001200 .LASF245
     /tmp/ccfnOxaa.s:4423   .debug_str:0000000000000342 .LASF247
     /tmp/ccfnOxaa.s:10     .text:0000000000000000 .LFB47
     /tmp/ccfnOxaa.s:25     .text:0000000000000010 .LFE47
     /tmp/ccfnOxaa.s:4603   .debug_str:000000000000090e .LASF278
     /tmp/ccfnOxaa.s:4487   .debug_str:0000000000000547 .LASF249
     /tmp/ccfnOxaa.s:4601   .debug_str:0000000000000904 .LASF251
GAS LISTING /tmp/ccfnOxaa.s 			page 25


     /tmp/ccfnOxaa.s:4513   .debug_str:0000000000000611 .LASF250
     /tmp/ccfnOxaa.s:4327   .debug_str:0000000000000031 .LASF252
     /tmp/ccfnOxaa.s:4651   .debug_str:0000000000000a71 .LASF253
     /tmp/ccfnOxaa.s:4653   .debug_str:0000000000000a7b .LASF254
     /tmp/ccfnOxaa.s:4409   .debug_str:00000000000002c2 .LASF255
     /tmp/ccfnOxaa.s:4469   .debug_str:0000000000000480 .LASF256
     /tmp/ccfnOxaa.s:4873   .debug_str:00000000000011f2 .LASF257
     /tmp/ccfnOxaa.s:4631   .debug_str:00000000000009ba .LASF258
     /tmp/ccfnOxaa.s:4621   .debug_str:000000000000096b .LASF259
     /tmp/ccfnOxaa.s:4599   .debug_str:00000000000008f7 .LASF260
     /tmp/ccfnOxaa.s:4645   .debug_str:0000000000000a3c .LASF261
     /tmp/ccfnOxaa.s:4445   .debug_str:00000000000003f4 .LASF262
     /tmp/ccfnOxaa.s:4867   .debug_str:00000000000011c2 .LASF263
     /tmp/ccfnOxaa.s:4637   .debug_str:0000000000000a00 .LASF264
     /tmp/ccfnOxaa.s:4509   .debug_str:00000000000005fc .LASF265
     /tmp/ccfnOxaa.s:4743   .debug_str:0000000000000cfb .LASF279
     /tmp/ccfnOxaa.s:4475   .debug_str:00000000000004e6 .LASF280
     /tmp/ccfnOxaa.s:200    .text._ZN3stm14CircularBufferIP3TCBE4initEv:0000000000000000 .LVL12
     /tmp/ccfnOxaa.s:223    .text._ZN3stm14CircularBufferIP3TCBE4initEv:0000000000000030 .LVL13
     /tmp/ccfnOxaa.s:236    .text._ZN3stm14CircularBufferIP3TCBE4initEv:0000000000000048 .LVL15
     /tmp/ccfnOxaa.s:125    .text:0000000000000090 .LVL5
     /tmp/ccfnOxaa.s:140    .text:00000000000000b0 .LVL6
     /tmp/ccfnOxaa.s:34     .text:0000000000000010 .LVL0
     /tmp/ccfnOxaa.s:60     .text:0000000000000040 .LVL2
     /tmp/ccfnOxaa.s:354    .text._Z4initv:00000000000000c4 .LVL25
     /tmp/ccfnOxaa.s:473    .debug_info:0000000000000000 .Ldebug_info0
     /tmp/ccfnOxaa.s:5      .text:0000000000000000 .Ltext0
     /tmp/ccfnOxaa.s:465    .text:0000000000000140 .Letext0
     /tmp/ccfnOxaa.s:388    .gcc_except_table._Z4initv:0000000000000000 .LLSDA48

UNDEFINED SYMBOLS
_Z8userMainv
_Z13thread_createPP3TCBPFvPvES2_
_Z11thread_joinP3TCB
_Z5printPKc
_Z5printi
_ZN2IO6OutputE
_Z10time_sleepm
_Z9mem_allocm
supervisorTrap
_ZN9Allocator8mem_initEv
_ZN2IO4initEv
_ZN9Scheduler13high_priorityE
_ZN9Scheduler12mid_priorityE
_ZN9Scheduler12low_priorityE
_Znwm
_ZN10OwnedMutexC1Ev
_ZdlPv
_Unwind_Resume
__gxx_personality_v0
