GAS LISTING /tmp/ccmi3Mjt.s 			page 1


   1              		.file	"main.cpp"
   2              		.option pic
   3              		.option norelax
   4              		.text
   5              	.Ltext0:
   6              		.align	2
   7              		.globl	_Z9bleya_nitPv
   9              	_Z9bleya_nitPv:
  10              	.LFB51:
  11              		.file 1 "src/main.cpp"
   1:src/main.cpp  **** #include "../h/c_console.hpp"
   2:src/main.cpp  **** #include "../h/c_thread.hpp"
   3:src/main.cpp  **** #include "../h/cpp_semaphores.hpp"
   4:src/main.cpp  **** #include "../h/scheduler.hpp"
   5:src/main.cpp  **** #include "../h/iostream.hpp"
   6:src/main.cpp  **** 
   7:src/main.cpp  **** [[noreturn]]
   8:src/main.cpp  **** void bleya_nit(void *) {
  12              		.loc 1 8 24
  13              		.cfi_startproc
  14 0000 130101FF 		addi	sp,sp,-16
  15              		.cfi_def_cfa_offset 16
  16 0004 23341100 		sd	ra,8(sp)
  17 0008 23308100 		sd	s0,0(sp)
  18              		.cfi_offset 1, -8
  19              		.cfi_offset 8, -16
  20 000c 13040101 		addi	s0,sp,16
  21              		.cfi_def_cfa 8, 0
  22              	.L2:
   9:src/main.cpp  ****     while (true) {
  23              		.loc 1 9 5 discriminator 1
  10:src/main.cpp  ****         thread_dispatch();
  24              		.loc 1 10 9 discriminator 1
  25              		.loc 1 10 24 is_stmt 0 discriminator 1
  26 0010 97000000 		call	_Z15thread_dispatchv@plt
  26      E7800000 
  27              	.LVL0:
   9:src/main.cpp  ****     while (true) {
  28              		.loc 1 9 5 is_stmt 1 discriminator 1
  29 0018 6FF09FFF 		j	.L2
  30              		.cfi_endproc
  31              	.LFE51:
  33              		.align	2
  34              		.globl	_Z11userWrapperPv
  36              	_Z11userWrapperPv:
  37              	.LFB53:
  11:src/main.cpp  ****     }
  12:src/main.cpp  **** }
  13:src/main.cpp  **** 
  14:src/main.cpp  **** thread_t handle_bleya = nullptr;
  15:src/main.cpp  **** OwnedMutex *printer;
  16:src/main.cpp  **** 
  17:src/main.cpp  **** int userMain();
  18:src/main.cpp  **** 
  19:src/main.cpp  **** inline void init() {
  20:src/main.cpp  ****     __asm__ volatile("mv t0, %0": : "r" (&supervisorTrap));
  21:src/main.cpp  ****     __asm__ volatile("addi t0, t0, 1");
GAS LISTING /tmp/ccmi3Mjt.s 			page 2


  22:src/main.cpp  ****     __asm__ volatile("csrw stvec, t0");
  23:src/main.cpp  ****     Allocator::mem_init();
  24:src/main.cpp  ****     IO::init();
  25:src/main.cpp  ****     Scheduler::init();
  26:src/main.cpp  ****     printer = new OwnedMutex();
  27:src/main.cpp  ****     thread_t handle_main;
  28:src/main.cpp  ****     thread_create(&handle_main, nullptr, nullptr);
  29:src/main.cpp  ****     TCB::running = handle_main;
  30:src/main.cpp  ****     thread_create(&handle_bleya, &bleya_nit, nullptr);
  31:src/main.cpp  ****     Riscv::ms_sstatus(Riscv::SSTATUS_SIE);
  32:src/main.cpp  **** }
  33:src/main.cpp  **** 
  34:src/main.cpp  **** void userWrapper(void *ret) {
  38              		.loc 1 34 29
  39              		.cfi_startproc
  40              	.LVL1:
  41 001c 130101FE 		addi	sp,sp,-32
  42              		.cfi_def_cfa_offset 32
  43 0020 233C1100 		sd	ra,24(sp)
  44 0024 23388100 		sd	s0,16(sp)
  45 0028 23349100 		sd	s1,8(sp)
  46              		.cfi_offset 1, -8
  47              		.cfi_offset 8, -16
  48              		.cfi_offset 9, -24
  49 002c 13040102 		addi	s0,sp,32
  50              		.cfi_def_cfa 8, 0
  51 0030 93040500 		mv	s1,a0
  35:src/main.cpp  ****     *((int *) ret) = userMain();
  52              		.loc 1 35 5
  53              		.loc 1 35 30 is_stmt 0
  54 0034 97000000 		call	_Z8userMainv@plt
  54      E7800000 
  55              	.LVL2:
  56              		.loc 1 35 20
  57 003c 23A0A400 		sw	a0,0(s1)
  36:src/main.cpp  **** }
  58              		.loc 1 36 1
  59 0040 83308101 		ld	ra,24(sp)
  60              		.cfi_restore 1
  61 0044 03340101 		ld	s0,16(sp)
  62              		.cfi_restore 8
  63              		.cfi_def_cfa 2, 32
  64 0048 83348100 		ld	s1,8(sp)
  65              		.cfi_restore 9
  66              	.LVL3:
  67 004c 13010102 		addi	sp,sp,32
  68              		.cfi_def_cfa_offset 0
  69 0050 67800000 		jr	ra
  70              		.cfi_endproc
  71              	.LFE53:
  73              		.align	2
  74              		.globl	_Z4callv
  76              	_Z4callv:
  77              	.LFB54:
  37:src/main.cpp  **** 
  38:src/main.cpp  **** int call() {
  78              		.loc 1 38 12 is_stmt 1
GAS LISTING /tmp/ccmi3Mjt.s 			page 3


  79              		.cfi_startproc
  80 0054 130101FE 		addi	sp,sp,-32
  81              		.cfi_def_cfa_offset 32
  82 0058 233C1100 		sd	ra,24(sp)
  83 005c 23388100 		sd	s0,16(sp)
  84              		.cfi_offset 1, -8
  85              		.cfi_offset 8, -16
  86 0060 13040102 		addi	s0,sp,32
  87              		.cfi_def_cfa 8, 0
  39:src/main.cpp  ****     thread_t userHandle;
  88              		.loc 1 39 5
  40:src/main.cpp  ****     int ret;
  89              		.loc 1 40 5
  41:src/main.cpp  ****     thread_create(&userHandle, userWrapper, &ret);
  90              		.loc 1 41 5
  91              		.loc 1 41 18 is_stmt 0
  92 0064 130644FE 		addi	a2,s0,-28
  93 0068 97050000 		lla	a1,_Z11userWrapperPv
  93      93850500 
  94 0070 130584FE 		addi	a0,s0,-24
  95 0074 97000000 		call	_Z13thread_createPP3TCBPFvPvES2_@plt
  95      E7800000 
  96              	.LVL4:
  42:src/main.cpp  ****     thread_join(userHandle);
  97              		.loc 1 42 5 is_stmt 1
  98              		.loc 1 42 16 is_stmt 0
  99 007c 033584FE 		ld	a0,-24(s0)
 100 0080 97000000 		call	_Z11thread_joinP3TCB@plt
 100      E7800000 
 101              	.LVL5:
  43:src/main.cpp  ****     return ret;
 102              		.loc 1 43 5 is_stmt 1
  44:src/main.cpp  **** }
 103              		.loc 1 44 1 is_stmt 0
 104 0088 032544FE 		lw	a0,-28(s0)
 105 008c 83308101 		ld	ra,24(sp)
 106              		.cfi_restore 1
 107 0090 03340101 		ld	s0,16(sp)
 108              		.cfi_restore 8
 109              		.cfi_def_cfa 2, 32
 110 0094 13010102 		addi	sp,sp,32
 111              		.cfi_def_cfa_offset 0
 112 0098 67800000 		jr	ra
 113              		.cfi_endproc
 114              	.LFE54:
 116              		.section	.rodata.str1.8,"aMS",@progbits,1
 117              		.align	3
 118              	.LC0:
 119 0000 0A0A5072 		.string	"\n\nProcess finished with exit code "
 119      6F636573 
 119      73206669 
 119      6E697368 
 119      65642077 
 120 0023 00000000 		.align	3
 120      00
 121              	.LC1:
 122 0028 0A0A00   		.string	"\n\n"
GAS LISTING /tmp/ccmi3Mjt.s 			page 4


 123              		.text
 124              		.align	2
 125              		.globl	_Z3endi
 127              	_Z3endi:
 128              	.LFB55:
  45:src/main.cpp  **** 
  46:src/main.cpp  **** int end(int ret) {
 129              		.loc 1 46 18 is_stmt 1
 130              		.cfi_startproc
 131              	.LVL6:
 132 009c 130101FE 		addi	sp,sp,-32
 133              		.cfi_def_cfa_offset 32
 134 00a0 233C1100 		sd	ra,24(sp)
 135 00a4 23388100 		sd	s0,16(sp)
 136 00a8 23349100 		sd	s1,8(sp)
 137              		.cfi_offset 1, -8
 138              		.cfi_offset 8, -16
 139              		.cfi_offset 9, -24
 140 00ac 13040102 		addi	s0,sp,32
 141              		.cfi_def_cfa 8, 0
 142 00b0 93040500 		mv	s1,a0
  47:src/main.cpp  ****     print("\n\nProcess finished with exit code ");
 143              		.loc 1 47 5
 144              		.loc 1 47 10 is_stmt 0
 145 00b4 17050000 		lla	a0,.LC0
 145      13050500 
 146              	.LVL7:
 147 00bc 97000000 		call	_Z5printPKc@plt
 147      E7800000 
 148              	.LVL8:
  48:src/main.cpp  ****     print(ret);
 149              		.loc 1 48 5 is_stmt 1
 150              		.loc 1 48 10 is_stmt 0
 151 00c4 13850400 		mv	a0,s1
 152 00c8 97000000 		call	_Z5printi@plt
 152      E7800000 
 153              	.LVL9:
  49:src/main.cpp  ****     print("\n\n");
 154              		.loc 1 49 5 is_stmt 1
 155              		.loc 1 49 10 is_stmt 0
 156 00d0 17050000 		lla	a0,.LC1
 156      13050500 
 157 00d8 97000000 		call	_Z5printPKc@plt
 157      E7800000 
 158              	.LVL10:
 159              	.L9:
  50:src/main.cpp  ****     while (!IO::Output.is_empty());
 160              		.loc 1 50 5 is_stmt 1
 161              		.loc 1 50 12
 162              		.file 2 "src/../h/c_console.hpp"
   1:src/../h/c_console.hpp **** #ifndef PROJECT_BASE_C_CONSOLE_HPP
   2:src/../h/c_console.hpp **** #define PROJECT_BASE_C_CONSOLE_HPP
   3:src/../h/c_console.hpp **** 
   4:src/../h/c_console.hpp **** #include "circular_buffer.hpp"
   5:src/../h/c_console.hpp **** #include "riscv.hpp"
   6:src/../h/c_console.hpp **** 
   7:src/../h/c_console.hpp **** class Sem;
GAS LISTING /tmp/ccmi3Mjt.s 			page 5


   8:src/../h/c_console.hpp **** 
   9:src/../h/c_console.hpp **** class IOBuffer final {
  10:src/../h/c_console.hpp **** public:
  11:src/../h/c_console.hpp ****     void init();
  12:src/../h/c_console.hpp **** 
  13:src/../h/c_console.hpp ****     void put(char c);
  14:src/../h/c_console.hpp **** 
  15:src/../h/c_console.hpp ****     char get();
  16:src/../h/c_console.hpp **** 
  17:src/../h/c_console.hpp ****     bool is_empty() const { return this->buffer.is_empty(); }
 163              		.loc 2 17 29
 164              	.LBB10:
 165              	.LBB11:
 166              	.LBB12:
 167              		.file 3 "src/../h/circular_buffer.hpp"
   1:src/../h/circular_buffer.hpp **** #ifndef PROJECT_BASE_CIRCULAR_BUFFER_HPP
   2:src/../h/circular_buffer.hpp **** #define PROJECT_BASE_CIRCULAR_BUFFER_HPP
   3:src/../h/circular_buffer.hpp **** 
   4:src/../h/circular_buffer.hpp **** #include "c_memory.hpp"
   5:src/../h/circular_buffer.hpp **** 
   6:src/../h/circular_buffer.hpp **** 
   7:src/../h/circular_buffer.hpp **** namespace os {
   8:src/../h/circular_buffer.hpp ****     template<typename T>
   9:src/../h/circular_buffer.hpp ****     class CircularBuffer {
  10:src/../h/circular_buffer.hpp ****     public:
  11:src/../h/circular_buffer.hpp **** 
  12:src/../h/circular_buffer.hpp ****         void init();
  13:src/../h/circular_buffer.hpp **** 
  14:src/../h/circular_buffer.hpp ****         void put(T);
  15:src/../h/circular_buffer.hpp **** 
  16:src/../h/circular_buffer.hpp ****         T get();
  17:src/../h/circular_buffer.hpp **** 
  18:src/../h/circular_buffer.hpp ****         T &peek();
  19:src/../h/circular_buffer.hpp **** 
  20:src/../h/circular_buffer.hpp ****         inline bool is_empty() const { return this->size == 0; }
 168              		.loc 3 20 53 is_stmt 0
 169 00e0 97070000 		la	a5,_ZN2IO6OutputE
 169      83B70700 
 170 00e8 83A70701 		lw	a5,16(a5)
 171              	.LVL11:
 172              	.LBE12:
 173              	.LBE11:
 174              	.LBE10:
 175              		.loc 1 50 12
 176 00ec E39A07FE 		bnez	a5,.L9
  51:src/main.cpp  ****     time_sleep(10);
 177              		.loc 1 51 5 is_stmt 1
 178              		.loc 1 51 15 is_stmt 0
 179 00f0 1305A000 		li	a0,10
 180 00f4 97000000 		call	_Z10time_sleepm@plt
 180      E7800000 
 181              	.LVL12:
  52:src/main.cpp  ****     return 0;
 182              		.loc 1 52 5 is_stmt 1
  53:src/main.cpp  **** }
 183              		.loc 1 53 1 is_stmt 0
 184 00fc 13050000 		li	a0,0
GAS LISTING /tmp/ccmi3Mjt.s 			page 6


 185 0100 83308101 		ld	ra,24(sp)
 186              		.cfi_restore 1
 187 0104 03340101 		ld	s0,16(sp)
 188              		.cfi_restore 8
 189              		.cfi_def_cfa 2, 32
 190 0108 83348100 		ld	s1,8(sp)
 191              		.cfi_restore 9
 192 010c 13010102 		addi	sp,sp,32
 193              		.cfi_def_cfa_offset 0
 194 0110 67800000 		jr	ra
 195              		.cfi_endproc
 196              	.LFE55:
 198              		.section	.text._ZN2os14CircularBufferIP3TCBE4initEv,"axG",@progbits,_ZN2os14CircularBufferIP3TCBE4
 199              		.align	2
 200              		.weak	_ZN2os14CircularBufferIP3TCBE4initEv
 202              	_ZN2os14CircularBufferIP3TCBE4initEv:
 203              	.LFB58:
  21:src/../h/circular_buffer.hpp **** 
  22:src/../h/circular_buffer.hpp ****         void destroy();
  23:src/../h/circular_buffer.hpp **** 
  24:src/../h/circular_buffer.hpp ****     private:
  25:src/../h/circular_buffer.hpp **** 
  26:src/../h/circular_buffer.hpp ****         void extend();
  27:src/../h/circular_buffer.hpp **** 
  28:src/../h/circular_buffer.hpp ****         static int constexpr CAPACITY = 16;
  29:src/../h/circular_buffer.hpp ****         T *queue;
  30:src/../h/circular_buffer.hpp ****         int head;
  31:src/../h/circular_buffer.hpp ****         int tail;
  32:src/../h/circular_buffer.hpp ****         int size;
  33:src/../h/circular_buffer.hpp ****         int capacity;
  34:src/../h/circular_buffer.hpp ****     };
  35:src/../h/circular_buffer.hpp **** }
  36:src/../h/circular_buffer.hpp **** 
  37:src/../h/circular_buffer.hpp **** template<typename T>
  38:src/../h/circular_buffer.hpp **** void os::CircularBuffer<T>::init() {
 204              		.loc 3 38 6 is_stmt 1
 205              		.cfi_startproc
 206              	.LVL13:
 207 0000 130101FE 		addi	sp,sp,-32
 208              		.cfi_def_cfa_offset 32
 209 0004 233C1100 		sd	ra,24(sp)
 210 0008 23388100 		sd	s0,16(sp)
 211 000c 23349100 		sd	s1,8(sp)
 212              		.cfi_offset 1, -8
 213              		.cfi_offset 8, -16
 214              		.cfi_offset 9, -24
 215 0010 13040102 		addi	s0,sp,32
 216              		.cfi_def_cfa 8, 0
 217 0014 93040500 		mv	s1,a0
  39:src/../h/circular_buffer.hpp ****     this->head = 0;
 218              		.loc 3 39 5 is_stmt 0
 219 0018 23240500 		sw	zero,8(a0)
  40:src/../h/circular_buffer.hpp ****     this->tail = 0;
 220              		.loc 3 40 5
 221 001c 23260500 		sw	zero,12(a0)
  41:src/../h/circular_buffer.hpp ****     this->size = 0;
 222              		.loc 3 41 5
GAS LISTING /tmp/ccmi3Mjt.s 			page 7


 223 0020 23280500 		sw	zero,16(a0)
  42:src/../h/circular_buffer.hpp ****     this->capacity = CAPACITY;
 224              		.loc 3 42 5
 225 0024 93070001 		li	a5,16
 226 0028 232AF500 		sw	a5,20(a0)
  43:src/../h/circular_buffer.hpp ****     this->queue = (T *) Allocator::_mem_alloc(sizeof(T) * CAPACITY);
 227              		.loc 3 43 46
 228 002c 13050008 		li	a0,128
 229              	.LVL14:
 230 0030 97000000 		call	_ZN9Allocator10_mem_allocEm@plt
 230      E7800000 
 231              	.LVL15:
 232              		.loc 3 43 5
 233 0038 23B0A400 		sd	a0,0(s1)
  44:src/../h/circular_buffer.hpp **** }
 234              		.loc 3 44 1
 235 003c 83308101 		ld	ra,24(sp)
 236              		.cfi_restore 1
 237 0040 03340101 		ld	s0,16(sp)
 238              		.cfi_restore 8
 239              		.cfi_def_cfa 2, 32
 240 0044 83348100 		ld	s1,8(sp)
 241              		.cfi_restore 9
 242              	.LVL16:
 243 0048 13010102 		addi	sp,sp,32
 244              		.cfi_def_cfa_offset 0
 245 004c 67800000 		jr	ra
 246              		.cfi_endproc
 247              	.LFE58:
 249              		.section	.text._Z4initv,"axG",@progbits,_Z4initv,comdat
 250              		.align	2
 251              		.weak	_Z4initv
 253              	_Z4initv:
 254              	.LFB52:
  19:src/main.cpp  ****     __asm__ volatile("mv t0, %0": : "r" (&supervisorTrap));
 255              		.loc 1 19 20 is_stmt 1
 256              		.cfi_startproc
 257              		.cfi_personality 0x9b,DW.ref.__gxx_personality_v0
 258              		.cfi_lsda 0x1b,.LLSDA52
 259 0000 130101FD 		addi	sp,sp,-48
 260              		.cfi_def_cfa_offset 48
 261 0004 23341102 		sd	ra,40(sp)
 262 0008 23308102 		sd	s0,32(sp)
 263 000c 233C9100 		sd	s1,24(sp)
 264 0010 23382101 		sd	s2,16(sp)
 265              		.cfi_offset 1, -8
 266              		.cfi_offset 8, -16
 267              		.cfi_offset 9, -24
 268              		.cfi_offset 18, -32
 269 0014 13040103 		addi	s0,sp,48
 270              		.cfi_def_cfa 8, 0
  20:src/main.cpp  ****     __asm__ volatile("addi t0, t0, 1");
 271              		.loc 1 20 5
  20:src/main.cpp  ****     __asm__ volatile("addi t0, t0, 1");
 272              		.loc 1 20 59 is_stmt 0
 273 0018 97070000 		la	a5,supervisorTrap
 273      83B70700 
GAS LISTING /tmp/ccmi3Mjt.s 			page 8


 274              	#APP
 275              	# 20 "src/main.cpp" 1
  21:src/main.cpp  ****     __asm__ volatile("csrw stvec, t0");
 276              		mv t0, a5
 277              	# 0 "" 2
 278              		.loc 1 21 5 is_stmt 1
  21:src/main.cpp  ****     __asm__ volatile("csrw stvec, t0");
 279              		.loc 1 21 39 is_stmt 0
 280              	# 21 "src/main.cpp" 1
  22:src/main.cpp  ****     Allocator::mem_init();
 281              		addi t0, t0, 1
 282              	# 0 "" 2
 283              		.loc 1 22 5 is_stmt 1
  22:src/main.cpp  ****     Allocator::mem_init();
 284              		.loc 1 22 39 is_stmt 0
 285              	# 22 "src/main.cpp" 1
  23:src/main.cpp  ****     IO::init();
 286              		csrw stvec, t0
 287              	# 0 "" 2
 288              		.loc 1 23 5 is_stmt 1
 289              	.LEHB0:
  23:src/main.cpp  ****     IO::init();
 290              		.loc 1 23 24 is_stmt 0
 291              	#NO_APP
 292 002c 97000000 		call	_ZN9Allocator8mem_initEv@plt
 292      E7800000 
 293              	.LVL17:
  24:src/main.cpp  ****     Scheduler::init();
 294              		.loc 1 24 5 is_stmt 1
  24:src/main.cpp  ****     Scheduler::init();
 295              		.loc 1 24 13 is_stmt 0
 296 0034 97000000 		call	_ZN2IO4initEv@plt
 296      E7800000 
 297              	.LVL18:
  25:src/main.cpp  ****     printer = new OwnedMutex();
 298              		.loc 1 25 5 is_stmt 1
 299              	.LBB17:
 300              	.LBB18:
 301              		.file 4 "src/../h/scheduler.hpp"
   1:src/../h/scheduler.hpp **** #ifndef PROJECT_BASE_SCHEDULER_HPP
   2:src/../h/scheduler.hpp **** #define PROJECT_BASE_SCHEDULER_HPP
   3:src/../h/scheduler.hpp **** 
   4:src/../h/scheduler.hpp **** #include "circular_buffer.hpp"
   5:src/../h/scheduler.hpp **** #include "syscall_c.hpp"
   6:src/../h/scheduler.hpp **** 
   7:src/../h/scheduler.hpp **** class Scheduler final {
   8:src/../h/scheduler.hpp **** public:
   9:src/../h/scheduler.hpp **** 
  10:src/../h/scheduler.hpp ****     static void init() { high_priority.init(); mid_priority.init(); low_priority.init(); }
 302              		.loc 4 10 26
 303              		.loc 4 10 44 is_stmt 0
 304 003c 17050000 		la	a0,_ZN9Scheduler13high_priorityE
 304      03350500 
 305 0044 97000000 		call	_ZN2os14CircularBufferIP3TCBE4initEv
 305      E7800000 
 306              	.LVL19:
 307              		.loc 4 10 48 is_stmt 1
GAS LISTING /tmp/ccmi3Mjt.s 			page 9


 308              		.loc 4 10 65 is_stmt 0
 309 004c 17050000 		la	a0,_ZN9Scheduler12mid_priorityE
 309      03350500 
 310 0054 97000000 		call	_ZN2os14CircularBufferIP3TCBE4initEv
 310      E7800000 
 311              	.LVL20:
 312              		.loc 4 10 69 is_stmt 1
 313              		.loc 4 10 86 is_stmt 0
 314 005c 17050000 		la	a0,_ZN9Scheduler12low_priorityE
 314      03350500 
 315 0064 97000000 		call	_ZN2os14CircularBufferIP3TCBE4initEv
 315      E7800000 
 316              	.LVL21:
 317              	.LBE18:
 318              	.LBE17:
  26:src/main.cpp  ****     thread_t handle_main;
 319              		.loc 1 26 5 is_stmt 1
  26:src/main.cpp  ****     thread_t handle_main;
 320              		.loc 1 26 30 is_stmt 0
 321 006c 13050002 		li	a0,32
 322 0070 97000000 		call	_Znwm@plt
 322      E7800000 
 323              	.LVL22:
 324              	.LEHE0:
 325 0078 93040500 		mv	s1,a0
 326              	.LEHB1:
 327 007c 97000000 		call	_ZN10OwnedMutexC1Ev@plt
 327      E7800000 
 328              	.LVL23:
 329              	.LEHE1:
  26:src/main.cpp  ****     thread_t handle_main;
 330              		.loc 1 26 13
 331 0084 97070000 		sd	s1,.LANCHOR0,a5
 331      23B09700 
  27:src/main.cpp  ****     thread_create(&handle_main, nullptr, nullptr);
 332              		.loc 1 27 5 is_stmt 1
  28:src/main.cpp  ****     TCB::running = handle_main;
 333              		.loc 1 28 5
  28:src/main.cpp  ****     TCB::running = handle_main;
 334              		.loc 1 28 18 is_stmt 0
 335 008c 13060000 		li	a2,0
 336 0090 93050000 		li	a1,0
 337 0094 130584FD 		addi	a0,s0,-40
 338              	.LEHB2:
 339 0098 97000000 		call	_Z13thread_createPP3TCBPFvPvES2_@plt
 339      E7800000 
 340              	.LVL24:
  29:src/main.cpp  ****     thread_create(&handle_bleya, &bleya_nit, nullptr);
 341              		.loc 1 29 5 is_stmt 1
  29:src/main.cpp  ****     thread_create(&handle_bleya, &bleya_nit, nullptr);
 342              		.loc 1 29 18 is_stmt 0
 343 00a0 97070000 		la	a5,_ZN3TCB7runningE
 343      83B70700 
 344 00a8 033784FD 		ld	a4,-40(s0)
 345 00ac 23B0E700 		sd	a4,0(a5)
  30:src/main.cpp  ****     Riscv::ms_sstatus(Riscv::SSTATUS_SIE);
 346              		.loc 1 30 5 is_stmt 1
GAS LISTING /tmp/ccmi3Mjt.s 			page 10


  30:src/main.cpp  ****     Riscv::ms_sstatus(Riscv::SSTATUS_SIE);
 347              		.loc 1 30 18 is_stmt 0
 348 00b0 13060000 		li	a2,0
 349 00b4 97050000 		lla	a1,_Z9bleya_nitPv
 349      93850500 
 350 00bc 17050000 		lla	a0,.LANCHOR0+8
 350      13050500 
 351 00c4 97000000 		call	_Z13thread_createPP3TCBPFvPvES2_@plt
 351      E7800000 
 352              	.LVL25:
 353              	.LEHE2:
  31:src/main.cpp  **** }
 354              		.loc 1 31 5 is_stmt 1
 355              	.LBB19:
 356              	.LBB20:
 357              		.file 5 "src/../h/riscv.hpp"
   1:src/../h/riscv.hpp **** #ifndef PROJECT_BASE_RISCV_HPP
   2:src/../h/riscv.hpp **** #define PROJECT_BASE_RISCV_HPP
   3:src/../h/riscv.hpp **** 
   4:src/../h/riscv.hpp **** #include "../lib/hw.h"
   5:src/../h/riscv.hpp **** 
   6:src/../h/riscv.hpp **** extern "C" void supervisorTrap();
   7:src/../h/riscv.hpp **** 
   8:src/../h/riscv.hpp **** class Riscv {
   9:src/../h/riscv.hpp **** public:
  10:src/../h/riscv.hpp **** 
  11:src/../h/riscv.hpp ****     __attribute__((unused)) static void handleSupervisorTrap();
  12:src/../h/riscv.hpp **** 
  13:src/../h/riscv.hpp ****     static void handleTimerTrap();
  14:src/../h/riscv.hpp **** 
  15:src/../h/riscv.hpp ****     static void handleReadTrap();
  16:src/../h/riscv.hpp **** 
  17:src/../h/riscv.hpp ****     static void handleWriteTrap();
  18:src/../h/riscv.hpp **** 
  19:src/../h/riscv.hpp ****     static void popSppSpie();
  20:src/../h/riscv.hpp **** 
  21:src/../h/riscv.hpp ****     static void handleConsoleTrap();
  22:src/../h/riscv.hpp **** 
  23:src/../h/riscv.hpp ****     static void push();
  24:src/../h/riscv.hpp **** 
  25:src/../h/riscv.hpp ****     static void pop();
  26:src/../h/riscv.hpp **** 
  27:src/../h/riscv.hpp ****     // read register scause
  28:src/../h/riscv.hpp ****     static uint64 r_scause();
  29:src/../h/riscv.hpp **** 
  30:src/../h/riscv.hpp ****     // write register scause
  31:src/../h/riscv.hpp ****     static void w_scause(uint64 scause);
  32:src/../h/riscv.hpp **** 
  33:src/../h/riscv.hpp ****     // read register sepc
  34:src/../h/riscv.hpp ****     static uint64 r_sepc();
  35:src/../h/riscv.hpp **** 
  36:src/../h/riscv.hpp ****     // write register sepc
  37:src/../h/riscv.hpp ****     static void w_sepc(uint64 sepc);
  38:src/../h/riscv.hpp **** 
  39:src/../h/riscv.hpp ****     // read register stvec
  40:src/../h/riscv.hpp ****     static uint64 r_stvec();
  41:src/../h/riscv.hpp **** 
GAS LISTING /tmp/ccmi3Mjt.s 			page 11


  42:src/../h/riscv.hpp ****     // write register stvec
  43:src/../h/riscv.hpp ****     static void w_stvec(uint64 stvec);
  44:src/../h/riscv.hpp **** 
  45:src/../h/riscv.hpp ****     // read register stval
  46:src/../h/riscv.hpp ****     static uint64 r_stval();
  47:src/../h/riscv.hpp **** 
  48:src/../h/riscv.hpp ****     // write register stval
  49:src/../h/riscv.hpp ****     static void w_stval(uint64 stval);
  50:src/../h/riscv.hpp **** 
  51:src/../h/riscv.hpp ****     enum BitMaskSip {
  52:src/../h/riscv.hpp ****         SIP_SSIE = (1 << 1),
  53:src/../h/riscv.hpp ****         SIP_STIE = (1 << 5),
  54:src/../h/riscv.hpp ****         SIP_SEIE = (1 << 9),
  55:src/../h/riscv.hpp ****     };
  56:src/../h/riscv.hpp **** 
  57:src/../h/riscv.hpp ****     // mask set register sip
  58:src/../h/riscv.hpp ****     static void ms_sip(uint64 mask);
  59:src/../h/riscv.hpp **** 
  60:src/../h/riscv.hpp ****     // mask clear register sip
  61:src/../h/riscv.hpp ****     static void mc_sip(uint64 mask);
  62:src/../h/riscv.hpp **** 
  63:src/../h/riscv.hpp ****     // read register sip
  64:src/../h/riscv.hpp ****     static uint64 r_sip();
  65:src/../h/riscv.hpp **** 
  66:src/../h/riscv.hpp ****     // write register sip
  67:src/../h/riscv.hpp ****     static void w_sip(uint64 sip);
  68:src/../h/riscv.hpp **** 
  69:src/../h/riscv.hpp ****     enum BitMaskSstatus {
  70:src/../h/riscv.hpp ****         SSTATUS_SIE = (1 << 1),
  71:src/../h/riscv.hpp ****         SSTATUS_SPIE = (1 << 5),
  72:src/../h/riscv.hpp ****         SSTATUS_SPP = (1 << 8),
  73:src/../h/riscv.hpp ****     };
  74:src/../h/riscv.hpp **** 
  75:src/../h/riscv.hpp ****     // mask set register sstatus
  76:src/../h/riscv.hpp ****     static void ms_sstatus(uint64 mask);
  77:src/../h/riscv.hpp **** 
  78:src/../h/riscv.hpp ****     // mask clear register sstatus
  79:src/../h/riscv.hpp ****     static void mc_sstatus(uint64 mask);
  80:src/../h/riscv.hpp **** 
  81:src/../h/riscv.hpp ****     // read register sstatus
  82:src/../h/riscv.hpp ****     static uint64 r_sstatus();
  83:src/../h/riscv.hpp **** 
  84:src/../h/riscv.hpp ****     // write register sstatus
  85:src/../h/riscv.hpp ****     static void w_sstatus(uint64 sstatus);
  86:src/../h/riscv.hpp **** 
  87:src/../h/riscv.hpp ****     static uint64 r_sscratch();
  88:src/../h/riscv.hpp **** 
  89:src/../h/riscv.hpp **** private:
  90:src/../h/riscv.hpp **** 
  91:src/../h/riscv.hpp **** };
  92:src/../h/riscv.hpp **** 
  93:src/../h/riscv.hpp **** inline uint64 Riscv::r_sscratch() {
  94:src/../h/riscv.hpp ****     uint64 volatile sscratch;
  95:src/../h/riscv.hpp ****     __asm__ volatile ("csrr %[scause], scause" : [scause] "=r"(sscratch));
  96:src/../h/riscv.hpp ****     return sscratch;
  97:src/../h/riscv.hpp **** }
  98:src/../h/riscv.hpp **** 
GAS LISTING /tmp/ccmi3Mjt.s 			page 12


  99:src/../h/riscv.hpp **** inline uint64 Riscv::r_scause() {
 100:src/../h/riscv.hpp ****     uint64 volatile scause;
 101:src/../h/riscv.hpp ****     __asm__ volatile ("csrr %[scause], scause" : [scause] "=r"(scause));
 102:src/../h/riscv.hpp ****     return scause;
 103:src/../h/riscv.hpp **** }
 104:src/../h/riscv.hpp **** 
 105:src/../h/riscv.hpp **** inline void Riscv::w_scause(uint64 scause) {
 106:src/../h/riscv.hpp ****     __asm__ volatile ("csrw scause, %[scause]" : : [scause] "r"(scause));
 107:src/../h/riscv.hpp **** }
 108:src/../h/riscv.hpp **** 
 109:src/../h/riscv.hpp **** inline uint64 Riscv::r_sepc() {
 110:src/../h/riscv.hpp ****     uint64 volatile sepc;
 111:src/../h/riscv.hpp ****     __asm__ volatile ("csrr %[sepc], sepc" : [sepc] "=r"(sepc));
 112:src/../h/riscv.hpp ****     return sepc;
 113:src/../h/riscv.hpp **** }
 114:src/../h/riscv.hpp **** 
 115:src/../h/riscv.hpp **** inline void Riscv::w_sepc(uint64 sepc) {
 116:src/../h/riscv.hpp ****     __asm__ volatile ("csrw sepc, %[sepc]" : : [sepc] "r"(sepc));
 117:src/../h/riscv.hpp **** }
 118:src/../h/riscv.hpp **** 
 119:src/../h/riscv.hpp **** inline uint64 Riscv::r_stvec() {
 120:src/../h/riscv.hpp ****     uint64 volatile stvec;
 121:src/../h/riscv.hpp ****     __asm__ volatile ("csrr %[stvec], stvec" : [stvec] "=r"(stvec));
 122:src/../h/riscv.hpp ****     return stvec;
 123:src/../h/riscv.hpp **** }
 124:src/../h/riscv.hpp **** 
 125:src/../h/riscv.hpp **** inline void Riscv::w_stvec(uint64 stvec) {
 126:src/../h/riscv.hpp ****     __asm__ volatile ("csrw stvec, %[stvec]" : : [stvec] "r"(stvec));
 127:src/../h/riscv.hpp **** }
 128:src/../h/riscv.hpp **** 
 129:src/../h/riscv.hpp **** inline uint64 Riscv::r_stval() {
 130:src/../h/riscv.hpp ****     uint64 volatile stval;
 131:src/../h/riscv.hpp ****     __asm__ volatile ("csrr %[stval], stval" : [stval] "=r"(stval));
 132:src/../h/riscv.hpp ****     return stval;
 133:src/../h/riscv.hpp **** }
 134:src/../h/riscv.hpp **** 
 135:src/../h/riscv.hpp **** inline void Riscv::w_stval(uint64 stval) {
 136:src/../h/riscv.hpp ****     __asm__ volatile ("csrw stval, %[stval]" : : [stval] "r"(stval));
 137:src/../h/riscv.hpp **** }
 138:src/../h/riscv.hpp **** 
 139:src/../h/riscv.hpp **** inline void Riscv::ms_sip(uint64 mask) {
 140:src/../h/riscv.hpp ****     __asm__ volatile ("csrs sip, %[mask]" : : [mask] "r"(mask));
 141:src/../h/riscv.hpp **** }
 142:src/../h/riscv.hpp **** 
 143:src/../h/riscv.hpp **** inline void Riscv::mc_sip(uint64 mask) {
 144:src/../h/riscv.hpp ****     __asm__ volatile ("csrc sip, %[mask]" : : [mask] "r"(mask));
 145:src/../h/riscv.hpp **** }
 146:src/../h/riscv.hpp **** 
 147:src/../h/riscv.hpp **** inline uint64 Riscv::r_sip() {
 148:src/../h/riscv.hpp ****     uint64 volatile sip;
 149:src/../h/riscv.hpp ****     __asm__ volatile ("csrr %[sip], sip" : [sip] "=r"(sip));
 150:src/../h/riscv.hpp ****     return sip;
 151:src/../h/riscv.hpp **** }
 152:src/../h/riscv.hpp **** 
 153:src/../h/riscv.hpp **** inline void Riscv::w_sip(uint64 sip) {
 154:src/../h/riscv.hpp ****     __asm__ volatile ("csrw sip, %[sip]" : : [sip] "r"(sip));
 155:src/../h/riscv.hpp **** }
GAS LISTING /tmp/ccmi3Mjt.s 			page 13


 156:src/../h/riscv.hpp **** 
 157:src/../h/riscv.hpp **** inline void Riscv::ms_sstatus(uint64 mask) {
 158:src/../h/riscv.hpp ****     __asm__ volatile ("csrs sstatus, %[mask]" : : [mask] "r"(mask));
 358              		.loc 5 158 5
 359              		.loc 5 158 68 is_stmt 0
 360 00cc 93072000 		li	a5,2
 361              	#APP
 362              	# 158 "src/../h/riscv.hpp" 1
 159              	}
 363              		csrs sstatus, a5
 364              	# 0 "" 2
 365              	.LVL26:
 366              	#NO_APP
 367              	.LBE20:
 368              	.LBE19:
  32:src/main.cpp  **** 
 369              		.loc 1 32 1
 370 00d4 83308102 		ld	ra,40(sp)
 371              		.cfi_remember_state
 372              		.cfi_restore 1
 373 00d8 03340102 		ld	s0,32(sp)
 374              		.cfi_restore 8
 375              		.cfi_def_cfa 2, 48
 376 00dc 83348101 		ld	s1,24(sp)
 377              		.cfi_restore 9
 378 00e0 03390101 		ld	s2,16(sp)
 379              		.cfi_restore 18
 380 00e4 13010103 		addi	sp,sp,48
 381              		.cfi_def_cfa_offset 0
 382 00e8 67800000 		jr	ra
 383              	.L15:
 384              		.cfi_restore_state
 385 00ec 13090500 		mv	s2,a0
  26:src/main.cpp  ****     thread_t handle_main;
 386              		.loc 1 26 30
 387 00f0 13850400 		mv	a0,s1
 388 00f4 97000000 		call	_ZdlPv@plt
 388      E7800000 
 389              	.LVL27:
 390 00fc 13050900 		mv	a0,s2
 391              	.LEHB3:
 392 0100 97000000 		call	_Unwind_Resume@plt
 392      E7800000 
 393              	.LVL28:
 394              	.LEHE3:
 395              		.cfi_endproc
 396              	.LFE52:
 397              		.globl	__gxx_personality_v0
 398              		.section	.gcc_except_table._Z4initv,"aG",@progbits,_Z4initv,comdat
 399              	.LLSDA52:
 400 0000 FF       		.byte	0xff
 401 0001 FF       		.byte	0xff
 402 0002 03       		.byte	0x3
 403 0003 34       		.byte	0x34
 404 0004 00000000 		.4byte	.LEHB0-.LFB52
 405 0008 00000000 		.4byte	.LEHE0-.LEHB0
 406 000c 00000000 		.4byte	0
GAS LISTING /tmp/ccmi3Mjt.s 			page 14


 407 0010 00       		.byte	0
 408 0011 00000000 		.4byte	.LEHB1-.LFB52
 409 0015 00000000 		.4byte	.LEHE1-.LEHB1
 410 0019 00000000 		.4byte	.L15-.LFB52
 411 001d 00       		.byte	0
 412 001e 00000000 		.4byte	.LEHB2-.LFB52
 413 0022 00000000 		.4byte	.LEHE2-.LEHB2
 414 0026 00000000 		.4byte	0
 415 002a 00       		.byte	0
 416 002b 00000000 		.4byte	.LEHB3-.LFB52
 417 002f 00000000 		.4byte	.LEHE3-.LEHB3
 418 0033 00000000 		.4byte	0
 419 0037 00       		.byte	0
 420              		.section	.text._Z4initv,"axG",@progbits,_Z4initv,comdat
 422              		.text
 423              		.align	2
 424              		.globl	main
 426              	main:
 427              	.LFB56:
  54:src/main.cpp  **** 
  55:src/main.cpp  **** int main() {
 428              		.loc 1 55 12 is_stmt 1
 429              		.cfi_startproc
 430 0114 130101FF 		addi	sp,sp,-16
 431              		.cfi_def_cfa_offset 16
 432 0118 23341100 		sd	ra,8(sp)
 433 011c 23308100 		sd	s0,0(sp)
 434              		.cfi_offset 1, -8
 435              		.cfi_offset 8, -16
 436 0120 13040101 		addi	s0,sp,16
 437              		.cfi_def_cfa 8, 0
  56:src/main.cpp  ****     init();
 438              		.loc 1 56 5
 439              		.loc 1 56 9 is_stmt 0
 440 0124 97000000 		call	_Z4initv
 440      E7800000 
 441              	.LVL29:
  57:src/main.cpp  ****     int ret = call();
 442              		.loc 1 57 5 is_stmt 1
 443              		.loc 1 57 19 is_stmt 0
 444 012c 97000000 		call	_Z4callv
 444      E7800000 
 445              	.LVL30:
  58:src/main.cpp  ****     return end(ret);
 446              		.loc 1 58 5 is_stmt 1
 447              		.loc 1 58 15 is_stmt 0
 448 0134 97000000 		call	_Z3endi
 448      E7800000 
 449              	.LVL31:
  59:src/main.cpp  **** }...
 450              		.loc 1 59 1
 451 013c 83308100 		ld	ra,8(sp)
 452              		.cfi_restore 1
 453 0140 03340100 		ld	s0,0(sp)
 454              		.cfi_restore 8
 455              		.cfi_def_cfa 2, 16
 456 0144 13010101 		addi	sp,sp,16
GAS LISTING /tmp/ccmi3Mjt.s 			page 15


 457              		.cfi_def_cfa_offset 0
 458 0148 67800000 		jr	ra
 459              		.cfi_endproc
 460              	.LFE56:
 462              		.globl	printer
 463              		.globl	handle_bleya
 464              		.bss
 465              		.align	3
 466              		.set	.LANCHOR0,. + 0
 469              	printer:
 470 0000 00000000 		.zero	8
 470      00000000 
 473              	handle_bleya:
 474 0008 00000000 		.zero	8
 474      00000000 
 475              		.text
 476              	.Letext0:
 477              		.file 6 "src/../h/../lib/hw.h"
 478              		.file 7 "src/../h/c_memory.hpp"
 479              		.file 8 "src/../h/syscall_c.hpp"
 480              		.file 9 "src/../h/c_thread.hpp"
 481              		.file 10 "src/../h/iostream.hpp"
 482              		.file 11 "src/../h/syscall_cpp.hpp"
 4884              		.align	3
 4887              	DW.ref.__gxx_personality_v0:
 4888 0000 00000000 		.dword	__gxx_personality_v0
 4888      00000000 
 4889              		.ident	"GCC: (Ubuntu 9.4.0-1ubuntu1~20.04) 9.4.0"
 4890              		.section	.note.GNU-stack,"",@progbits
GAS LISTING /tmp/ccmi3Mjt.s 			page 16


DEFINED SYMBOLS
                            *ABS*:0000000000000000 main.cpp
     /tmp/ccmi3Mjt.s:9      .text:0000000000000000 _Z9bleya_nitPv
     /tmp/ccmi3Mjt.s:13     .text:0000000000000000 .L0 
     /tmp/ccmi3Mjt.s:14     .text:0000000000000000 .L0 
     /tmp/ccmi3Mjt.s:15     .text:0000000000000004 .L0 
     /tmp/ccmi3Mjt.s:18     .text:000000000000000c .L0 
     /tmp/ccmi3Mjt.s:19     .text:000000000000000c .L0 
     /tmp/ccmi3Mjt.s:21     .text:0000000000000010 .L0 
     /tmp/ccmi3Mjt.s:24     .text:0000000000000010 .L0 
     /tmp/ccmi3Mjt.s:25     .text:0000000000000010 .L0 
     /tmp/ccmi3Mjt.s:26     .text:0000000000000010 .L0 
     /tmp/ccmi3Mjt.s:29     .text:0000000000000018 .L0 
     /tmp/ccmi3Mjt.s:30     .text:000000000000001c .L0 
     /tmp/ccmi3Mjt.s:36     .text:000000000000001c _Z11userWrapperPv
     /tmp/ccmi3Mjt.s:39     .text:000000000000001c .L0 
     /tmp/ccmi3Mjt.s:41     .text:000000000000001c .L0 
     /tmp/ccmi3Mjt.s:42     .text:0000000000000020 .L0 
     /tmp/ccmi3Mjt.s:46     .text:000000000000002c .L0 
     /tmp/ccmi3Mjt.s:47     .text:000000000000002c .L0 
     /tmp/ccmi3Mjt.s:48     .text:000000000000002c .L0 
     /tmp/ccmi3Mjt.s:50     .text:0000000000000030 .L0 
     /tmp/ccmi3Mjt.s:53     .text:0000000000000034 .L0 
     /tmp/ccmi3Mjt.s:54     .text:0000000000000034 .L0 
     /tmp/ccmi3Mjt.s:57     .text:000000000000003c .L0 
     /tmp/ccmi3Mjt.s:59     .text:0000000000000040 .L0 
     /tmp/ccmi3Mjt.s:60     .text:0000000000000044 .L0 
     /tmp/ccmi3Mjt.s:62     .text:0000000000000048 .L0 
     /tmp/ccmi3Mjt.s:63     .text:0000000000000048 .L0 
     /tmp/ccmi3Mjt.s:65     .text:000000000000004c .L0 
     /tmp/ccmi3Mjt.s:68     .text:0000000000000050 .L0 
     /tmp/ccmi3Mjt.s:70     .text:0000000000000054 .L0 
     /tmp/ccmi3Mjt.s:76     .text:0000000000000054 _Z4callv
     /tmp/ccmi3Mjt.s:79     .text:0000000000000054 .L0 
     /tmp/ccmi3Mjt.s:80     .text:0000000000000054 .L0 
     /tmp/ccmi3Mjt.s:81     .text:0000000000000058 .L0 
     /tmp/ccmi3Mjt.s:84     .text:0000000000000060 .L0 
     /tmp/ccmi3Mjt.s:85     .text:0000000000000060 .L0 
     /tmp/ccmi3Mjt.s:87     .text:0000000000000064 .L0 
     /tmp/ccmi3Mjt.s:89     .text:0000000000000064 .L0 
     /tmp/ccmi3Mjt.s:90     .text:0000000000000064 .L0 
     /tmp/ccmi3Mjt.s:91     .text:0000000000000064 .L0 
     /tmp/ccmi3Mjt.s:92     .text:0000000000000064 .L0 
     /tmp/ccmi3Mjt.s:98     .text:000000000000007c .L0 
     /tmp/ccmi3Mjt.s:99     .text:000000000000007c .L0 
     /tmp/ccmi3Mjt.s:103    .text:0000000000000088 .L0 
     /tmp/ccmi3Mjt.s:104    .text:0000000000000088 .L0 
     /tmp/ccmi3Mjt.s:106    .text:0000000000000090 .L0 
     /tmp/ccmi3Mjt.s:108    .text:0000000000000094 .L0 
     /tmp/ccmi3Mjt.s:109    .text:0000000000000094 .L0 
     /tmp/ccmi3Mjt.s:111    .text:0000000000000098 .L0 
     /tmp/ccmi3Mjt.s:113    .text:000000000000009c .L0 
     /tmp/ccmi3Mjt.s:127    .text:000000000000009c _Z3endi
     /tmp/ccmi3Mjt.s:130    .text:000000000000009c .L0 
     /tmp/ccmi3Mjt.s:132    .text:000000000000009c .L0 
     /tmp/ccmi3Mjt.s:133    .text:00000000000000a0 .L0 
     /tmp/ccmi3Mjt.s:137    .text:00000000000000ac .L0 
GAS LISTING /tmp/ccmi3Mjt.s 			page 17


     /tmp/ccmi3Mjt.s:138    .text:00000000000000ac .L0 
     /tmp/ccmi3Mjt.s:139    .text:00000000000000ac .L0 
     /tmp/ccmi3Mjt.s:141    .text:00000000000000b0 .L0 
     /tmp/ccmi3Mjt.s:144    .text:00000000000000b4 .L0 
     /tmp/ccmi3Mjt.s:145    .text:00000000000000b4 .L0 
     /tmp/ccmi3Mjt.s:150    .text:00000000000000c4 .L0 
     /tmp/ccmi3Mjt.s:151    .text:00000000000000c4 .L0 
     /tmp/ccmi3Mjt.s:155    .text:00000000000000d0 .L0 
     /tmp/ccmi3Mjt.s:156    .text:00000000000000d0 .L0 
     /tmp/ccmi3Mjt.s:161    .text:00000000000000e0 .L0 
     /tmp/ccmi3Mjt.s:163    .text:00000000000000e0 .L0 
     /tmp/ccmi3Mjt.s:168    .text:00000000000000e0 .L0 
     /tmp/ccmi3Mjt.s:169    .text:00000000000000e0 .L0 
     /tmp/ccmi3Mjt.s:176    .text:00000000000000ec .L0 
     /tmp/ccmi3Mjt.s:178    .text:00000000000000f0 .L0 
     /tmp/ccmi3Mjt.s:179    .text:00000000000000f0 .L0 
     /tmp/ccmi3Mjt.s:183    .text:00000000000000fc .L0 
     /tmp/ccmi3Mjt.s:184    .text:00000000000000fc .L0 
     /tmp/ccmi3Mjt.s:186    .text:0000000000000104 .L0 
     /tmp/ccmi3Mjt.s:188    .text:0000000000000108 .L0 
     /tmp/ccmi3Mjt.s:189    .text:0000000000000108 .L0 
     /tmp/ccmi3Mjt.s:191    .text:000000000000010c .L0 
     /tmp/ccmi3Mjt.s:193    .text:0000000000000110 .L0 
     /tmp/ccmi3Mjt.s:195    .text:0000000000000114 .L0 
     /tmp/ccmi3Mjt.s:202    .text._ZN2os14CircularBufferIP3TCBE4initEv:0000000000000000 _ZN2os14CircularBufferIP3TCBE4initEv
     /tmp/ccmi3Mjt.s:205    .text._ZN2os14CircularBufferIP3TCBE4initEv:0000000000000000 .L0 
     /tmp/ccmi3Mjt.s:207    .text._ZN2os14CircularBufferIP3TCBE4initEv:0000000000000000 .L0 
     /tmp/ccmi3Mjt.s:208    .text._ZN2os14CircularBufferIP3TCBE4initEv:0000000000000004 .L0 
     /tmp/ccmi3Mjt.s:212    .text._ZN2os14CircularBufferIP3TCBE4initEv:0000000000000010 .L0 
     /tmp/ccmi3Mjt.s:213    .text._ZN2os14CircularBufferIP3TCBE4initEv:0000000000000010 .L0 
     /tmp/ccmi3Mjt.s:214    .text._ZN2os14CircularBufferIP3TCBE4initEv:0000000000000010 .L0 
     /tmp/ccmi3Mjt.s:216    .text._ZN2os14CircularBufferIP3TCBE4initEv:0000000000000014 .L0 
     /tmp/ccmi3Mjt.s:219    .text._ZN2os14CircularBufferIP3TCBE4initEv:0000000000000018 .L0 
     /tmp/ccmi3Mjt.s:221    .text._ZN2os14CircularBufferIP3TCBE4initEv:000000000000001c .L0 
     /tmp/ccmi3Mjt.s:223    .text._ZN2os14CircularBufferIP3TCBE4initEv:0000000000000020 .L0 
     /tmp/ccmi3Mjt.s:225    .text._ZN2os14CircularBufferIP3TCBE4initEv:0000000000000024 .L0 
     /tmp/ccmi3Mjt.s:228    .text._ZN2os14CircularBufferIP3TCBE4initEv:000000000000002c .L0 
     /tmp/ccmi3Mjt.s:233    .text._ZN2os14CircularBufferIP3TCBE4initEv:0000000000000038 .L0 
     /tmp/ccmi3Mjt.s:235    .text._ZN2os14CircularBufferIP3TCBE4initEv:000000000000003c .L0 
     /tmp/ccmi3Mjt.s:236    .text._ZN2os14CircularBufferIP3TCBE4initEv:0000000000000040 .L0 
     /tmp/ccmi3Mjt.s:238    .text._ZN2os14CircularBufferIP3TCBE4initEv:0000000000000044 .L0 
     /tmp/ccmi3Mjt.s:239    .text._ZN2os14CircularBufferIP3TCBE4initEv:0000000000000044 .L0 
     /tmp/ccmi3Mjt.s:241    .text._ZN2os14CircularBufferIP3TCBE4initEv:0000000000000048 .L0 
     /tmp/ccmi3Mjt.s:244    .text._ZN2os14CircularBufferIP3TCBE4initEv:000000000000004c .L0 
     /tmp/ccmi3Mjt.s:246    .text._ZN2os14CircularBufferIP3TCBE4initEv:0000000000000050 .L0 
     /tmp/ccmi3Mjt.s:253    .text._Z4initv:0000000000000000 _Z4initv
     /tmp/ccmi3Mjt.s:256    .text._Z4initv:0000000000000000 .L0 
     /tmp/ccmi3Mjt.s:4887   .data.rel.local.DW.ref.__gxx_personality_v0:0000000000000000 DW.ref.__gxx_personality_v0
     /tmp/ccmi3Mjt.s:259    .text._Z4initv:0000000000000000 .L0 
     /tmp/ccmi3Mjt.s:260    .text._Z4initv:0000000000000004 .L0 
     /tmp/ccmi3Mjt.s:265    .text._Z4initv:0000000000000014 .L0 
     /tmp/ccmi3Mjt.s:266    .text._Z4initv:0000000000000014 .L0 
     /tmp/ccmi3Mjt.s:267    .text._Z4initv:0000000000000014 .L0 
     /tmp/ccmi3Mjt.s:268    .text._Z4initv:0000000000000014 .L0 
     /tmp/ccmi3Mjt.s:270    .text._Z4initv:0000000000000018 .L0 
     /tmp/ccmi3Mjt.s:272    .text._Z4initv:0000000000000018 .L0 
     /tmp/ccmi3Mjt.s:273    .text._Z4initv:0000000000000018 .L0 
GAS LISTING /tmp/ccmi3Mjt.s 			page 18


     /tmp/ccmi3Mjt.s:279    .text._Z4initv:0000000000000024 .L0 
        src/main.cpp:21     .text._Z4initv:0000000000000024 .L0 
     /tmp/ccmi3Mjt.s:284    .text._Z4initv:0000000000000028 .L0 
        src/main.cpp:22     .text._Z4initv:0000000000000028 .L0 
     /tmp/ccmi3Mjt.s:290    .text._Z4initv:000000000000002c .L0 
     /tmp/ccmi3Mjt.s:292    .text._Z4initv:000000000000002c .L0 
     /tmp/ccmi3Mjt.s:295    .text._Z4initv:0000000000000034 .L0 
     /tmp/ccmi3Mjt.s:296    .text._Z4initv:0000000000000034 .L0 
     /tmp/ccmi3Mjt.s:302    .text._Z4initv:000000000000003c .L0 
     /tmp/ccmi3Mjt.s:303    .text._Z4initv:000000000000003c .L0 
     /tmp/ccmi3Mjt.s:304    .text._Z4initv:000000000000003c .L0 
     /tmp/ccmi3Mjt.s:308    .text._Z4initv:000000000000004c .L0 
     /tmp/ccmi3Mjt.s:309    .text._Z4initv:000000000000004c .L0 
     /tmp/ccmi3Mjt.s:313    .text._Z4initv:000000000000005c .L0 
     /tmp/ccmi3Mjt.s:314    .text._Z4initv:000000000000005c .L0 
     /tmp/ccmi3Mjt.s:320    .text._Z4initv:000000000000006c .L0 
     /tmp/ccmi3Mjt.s:321    .text._Z4initv:000000000000006c .L0 
     /tmp/ccmi3Mjt.s:331    .text._Z4initv:0000000000000084 .L0 
     /tmp/ccmi3Mjt.s:333    .text._Z4initv:000000000000008c .L0 
     /tmp/ccmi3Mjt.s:334    .text._Z4initv:000000000000008c .L0 
     /tmp/ccmi3Mjt.s:335    .text._Z4initv:000000000000008c .L0 
     /tmp/ccmi3Mjt.s:342    .text._Z4initv:00000000000000a0 .L0 
     /tmp/ccmi3Mjt.s:343    .text._Z4initv:00000000000000a0 .L0 
     /tmp/ccmi3Mjt.s:347    .text._Z4initv:00000000000000b0 .L0 
     /tmp/ccmi3Mjt.s:348    .text._Z4initv:00000000000000b0 .L0 
     /tmp/ccmi3Mjt.s:358    .text._Z4initv:00000000000000cc .L0 
     /tmp/ccmi3Mjt.s:359    .text._Z4initv:00000000000000cc .L0 
     /tmp/ccmi3Mjt.s:360    .text._Z4initv:00000000000000cc .L0 
     /tmp/ccmi3Mjt.s:370    .text._Z4initv:00000000000000d4 .L0 
     /tmp/ccmi3Mjt.s:371    .text._Z4initv:00000000000000d8 .L0 
     /tmp/ccmi3Mjt.s:372    .text._Z4initv:00000000000000d8 .L0 
     /tmp/ccmi3Mjt.s:374    .text._Z4initv:00000000000000dc .L0 
     /tmp/ccmi3Mjt.s:375    .text._Z4initv:00000000000000dc .L0 
     /tmp/ccmi3Mjt.s:377    .text._Z4initv:00000000000000e0 .L0 
     /tmp/ccmi3Mjt.s:379    .text._Z4initv:00000000000000e4 .L0 
     /tmp/ccmi3Mjt.s:381    .text._Z4initv:00000000000000e8 .L0 
     /tmp/ccmi3Mjt.s:384    .text._Z4initv:00000000000000ec .L0 
     /tmp/ccmi3Mjt.s:387    .text._Z4initv:00000000000000f0 .L0 
     /tmp/ccmi3Mjt.s:395    .text._Z4initv:0000000000000108 .L0 
     /tmp/ccmi3Mjt.s:426    .text:0000000000000114 main
     /tmp/ccmi3Mjt.s:429    .text:0000000000000114 .L0 
     /tmp/ccmi3Mjt.s:430    .text:0000000000000114 .L0 
     /tmp/ccmi3Mjt.s:431    .text:0000000000000118 .L0 
     /tmp/ccmi3Mjt.s:434    .text:0000000000000120 .L0 
     /tmp/ccmi3Mjt.s:435    .text:0000000000000120 .L0 
     /tmp/ccmi3Mjt.s:437    .text:0000000000000124 .L0 
     /tmp/ccmi3Mjt.s:439    .text:0000000000000124 .L0 
     /tmp/ccmi3Mjt.s:440    .text:0000000000000124 .L0 
     /tmp/ccmi3Mjt.s:443    .text:000000000000012c .L0 
     /tmp/ccmi3Mjt.s:444    .text:000000000000012c .L0 
     /tmp/ccmi3Mjt.s:447    .text:0000000000000134 .L0 
     /tmp/ccmi3Mjt.s:448    .text:0000000000000134 .L0 
     /tmp/ccmi3Mjt.s:451    .text:000000000000013c .L0 
     /tmp/ccmi3Mjt.s:452    .text:0000000000000140 .L0 
     /tmp/ccmi3Mjt.s:454    .text:0000000000000144 .L0 
     /tmp/ccmi3Mjt.s:455    .text:0000000000000144 .L0 
     /tmp/ccmi3Mjt.s:457    .text:0000000000000148 .L0 
GAS LISTING /tmp/ccmi3Mjt.s 			page 19


     /tmp/ccmi3Mjt.s:459    .text:000000000000014c .L0 
     /tmp/ccmi3Mjt.s:469    .bss:0000000000000000 printer
     /tmp/ccmi3Mjt.s:473    .bss:0000000000000008 handle_bleya
     /tmp/ccmi3Mjt.s:466    .bss:0000000000000000 .LANCHOR0
     /tmp/ccmi3Mjt.s:483    .text:000000000000014c .L0 
     /tmp/ccmi3Mjt.s:249    .text._ZN2os14CircularBufferIP3TCBE4initEv:0000000000000050 .L0 
     /tmp/ccmi3Mjt.s:422    .text._Z4initv:0000000000000108 .L0 
     /tmp/ccmi3Mjt.s:93     .text:0000000000000068 .L0 
     /tmp/ccmi3Mjt.s:118    .rodata.str1.8:0000000000000000 .LC0
     /tmp/ccmi3Mjt.s:145    .text:00000000000000b4 .L0 
     /tmp/ccmi3Mjt.s:121    .rodata.str1.8:0000000000000028 .LC1
     /tmp/ccmi3Mjt.s:156    .text:00000000000000d0 .L0 
     /tmp/ccmi3Mjt.s:169    .text:00000000000000e0 .L0 
     /tmp/ccmi3Mjt.s:22     .text:0000000000000010 .L2
     /tmp/ccmi3Mjt.s:159    .text:00000000000000e0 .L9
     /tmp/ccmi3Mjt.s:273    .text._Z4initv:0000000000000018 .L0 
     /tmp/ccmi3Mjt.s:304    .text._Z4initv:000000000000003c .L0 
     /tmp/ccmi3Mjt.s:309    .text._Z4initv:000000000000004c .L0 
     /tmp/ccmi3Mjt.s:314    .text._Z4initv:000000000000005c .L0 
     /tmp/ccmi3Mjt.s:331    .text._Z4initv:0000000000000084 .L0 
     /tmp/ccmi3Mjt.s:343    .text._Z4initv:00000000000000a0 .L0 
     /tmp/ccmi3Mjt.s:349    .text._Z4initv:00000000000000b4 .L0 
     /tmp/ccmi3Mjt.s:350    .text._Z4initv:00000000000000bc .L0 
     /tmp/ccmi3Mjt.s:289    .text._Z4initv:000000000000002c .LEHB0
     /tmp/ccmi3Mjt.s:254    .text._Z4initv:0000000000000000 .LFB52
     /tmp/ccmi3Mjt.s:324    .text._Z4initv:0000000000000078 .LEHE0
     /tmp/ccmi3Mjt.s:326    .text._Z4initv:000000000000007c .LEHB1
     /tmp/ccmi3Mjt.s:329    .text._Z4initv:0000000000000084 .LEHE1
     /tmp/ccmi3Mjt.s:383    .text._Z4initv:00000000000000ec .L15
     /tmp/ccmi3Mjt.s:338    .text._Z4initv:0000000000000098 .LEHB2
     /tmp/ccmi3Mjt.s:353    .text._Z4initv:00000000000000cc .LEHE2
     /tmp/ccmi3Mjt.s:391    .text._Z4initv:0000000000000100 .LEHB3
     /tmp/ccmi3Mjt.s:394    .text._Z4initv:0000000000000108 .LEHE3
     /tmp/ccmi3Mjt.s:2833   .debug_abbrev:0000000000000000 .Ldebug_abbrev0
     /tmp/ccmi3Mjt.s:4745   .debug_str:0000000000000cdd .LASF269
     /tmp/ccmi3Mjt.s:4453   .debug_str:00000000000003ff .LASF270
     /tmp/ccmi3Mjt.s:4473   .debug_str:0000000000000494 .LASF271
     /tmp/ccmi3Mjt.s:4301   .debug_ranges:0000000000000000 .Ldebug_ranges0
     /tmp/ccmi3Mjt.s:4311   .debug_line:0000000000000000 .Ldebug_line0
     /tmp/ccmi3Mjt.s:4509   .debug_str:00000000000005c6 .LASF0
     /tmp/ccmi3Mjt.s:4555   .debug_str:0000000000000750 .LASF1
     /tmp/ccmi3Mjt.s:4677   .debug_str:0000000000000ac6 .LASF2
     /tmp/ccmi3Mjt.s:4689   .debug_str:0000000000000b32 .LASF4
     /tmp/ccmi3Mjt.s:4527   .debug_str:0000000000000664 .LASF3
     /tmp/ccmi3Mjt.s:4337   .debug_str:00000000000000a2 .LASF5
     /tmp/ccmi3Mjt.s:4645   .debug_str:00000000000009f4 .LASF6
     /tmp/ccmi3Mjt.s:4631   .debug_str:000000000000097a .LASF7
     /tmp/ccmi3Mjt.s:4543   .debug_str:0000000000000703 .LASF8
     /tmp/ccmi3Mjt.s:4467   .debug_str:0000000000000457 .LASF9
     /tmp/ccmi3Mjt.s:4481   .debug_str:00000000000004f6 .LASF10
     /tmp/ccmi3Mjt.s:4383   .debug_str:00000000000001ef .LASF11
     /tmp/ccmi3Mjt.s:4449   .debug_str:00000000000003db .LASF12
     /tmp/ccmi3Mjt.s:4403   .debug_str:0000000000000266 .LASF13
     /tmp/ccmi3Mjt.s:4381   .debug_str:00000000000001df .LASF14
     /tmp/ccmi3Mjt.s:4725   .debug_str:0000000000000c75 .LASF15
     /tmp/ccmi3Mjt.s:4433   .debug_str:0000000000000375 .LASF16
     /tmp/ccmi3Mjt.s:4711   .debug_str:0000000000000c03 .LASF17
GAS LISTING /tmp/ccmi3Mjt.s 			page 20


     /tmp/ccmi3Mjt.s:4365   .debug_str:0000000000000181 .LASF33
     /tmp/ccmi3Mjt.s:4375   .debug_str:00000000000001b4 .LASF205
     /tmp/ccmi3Mjt.s:4385   .debug_str:00000000000001fe .LASF18
     /tmp/ccmi3Mjt.s:4553   .debug_str:000000000000074b .LASF19
     /tmp/ccmi3Mjt.s:4313   .debug_str:0000000000000000 .LASF20
     /tmp/ccmi3Mjt.s:4525   .debug_str:0000000000000648 .LASF22
     /tmp/ccmi3Mjt.s:4357   .debug_str:0000000000000148 .LASF21
     /tmp/ccmi3Mjt.s:4425   .debug_str:0000000000000317 .LASF23
     /tmp/ccmi3Mjt.s:4705   .debug_str:0000000000000be0 .LASF24
     /tmp/ccmi3Mjt.s:4781   .debug_str:0000000000000edc .LASF26
     /tmp/ccmi3Mjt.s:4803   .debug_str:0000000000000f81 .LASF28
     /tmp/ccmi3Mjt.s:4395   .debug_str:0000000000000228 .LASF30
     /tmp/ccmi3Mjt.s:4595   .debug_str:0000000000000886 .LASF25
     /tmp/ccmi3Mjt.s:4877   .debug_str:000000000000122e .LASF27
     /tmp/ccmi3Mjt.s:4709   .debug_str:0000000000000bfa .LASF29
     /tmp/ccmi3Mjt.s:4687   .debug_str:0000000000000b19 .LASF31
     /tmp/ccmi3Mjt.s:4349   .debug_str:00000000000000f9 .LASF54
     /tmp/ccmi3Mjt.s:4795   .debug_str:0000000000000f25 .LASF56
     /tmp/ccmi3Mjt.s:4871   .debug_str:00000000000011e7 .LASF272
     /tmp/ccmi3Mjt.s:4565   .debug_str:0000000000000798 .LASF273
     /tmp/ccmi3Mjt.s:4567   .debug_str:00000000000007c2 .LASF113
     /tmp/ccmi3Mjt.s:4585   .debug_str:0000000000000839 .LASF219
     /tmp/ccmi3Mjt.s:4577   .debug_str:00000000000007fb .LASF32
     /tmp/ccmi3Mjt.s:4825   .debug_str:0000000000001044 .LASF34
     /tmp/ccmi3Mjt.s:4437   .debug_str:0000000000000399 .LASF274
     /tmp/ccmi3Mjt.s:4441   .debug_str:00000000000003b2 .LASF35
     /tmp/ccmi3Mjt.s:4743   .debug_str:0000000000000cd0 .LASF36
     /tmp/ccmi3Mjt.s:4409   .debug_str:00000000000002a6 .LASF37
     /tmp/ccmi3Mjt.s:4635   .debug_str:00000000000009b2 .LASF38
     /tmp/ccmi3Mjt.s:4535   .debug_str:00000000000006a9 .LASF39
     /tmp/ccmi3Mjt.s:4747   .debug_str:0000000000000da1 .LASF40
     /tmp/ccmi3Mjt.s:4811   .debug_str:0000000000000fe0 .LASF41
     /tmp/ccmi3Mjt.s:4621   .debug_str:000000000000093e .LASF42
     /tmp/ccmi3Mjt.s:4761   .debug_str:0000000000000e2c .LASF43
     /tmp/ccmi3Mjt.s:4833   .debug_str:0000000000001065 .LASF44
     /tmp/ccmi3Mjt.s:4869   .debug_str:00000000000011ca .LASF45
     /tmp/ccmi3Mjt.s:4493   .debug_str:0000000000000548 .LASF46
     /tmp/ccmi3Mjt.s:4503   .debug_str:0000000000000590 .LASF47
     /tmp/ccmi3Mjt.s:4847   .debug_str:00000000000010fb .LASF48
     /tmp/ccmi3Mjt.s:4355   .debug_str:0000000000000129 .LASF49
     /tmp/ccmi3Mjt.s:4511   .debug_str:00000000000005d3 .LASF50
     /tmp/ccmi3Mjt.s:4329   .debug_str:0000000000000062 .LASF51
     /tmp/ccmi3Mjt.s:4669   .debug_str:0000000000000a92 .LASF275
     /tmp/ccmi3Mjt.s:4791   .debug_str:0000000000000f11 .LASF52
     /tmp/ccmi3Mjt.s:4773   .debug_str:0000000000000e8e .LASF53
     /tmp/ccmi3Mjt.s:4673   .debug_str:0000000000000ab2 .LASF55
     /tmp/ccmi3Mjt.s:4345   .debug_str:00000000000000d6 .LASF57
     /tmp/ccmi3Mjt.s:4651   .debug_str:0000000000000a14 .LASF58
     /tmp/ccmi3Mjt.s:4653   .debug_str:0000000000000a1b .LASF59
     /tmp/ccmi3Mjt.s:4609   .debug_str:00000000000008ec .LASF60
     /tmp/ccmi3Mjt.s:4547   .debug_str:0000000000000725 .LASF61
     /tmp/ccmi3Mjt.s:4835   .debug_str:0000000000001075 .LASF62
     /tmp/ccmi3Mjt.s:4753   .debug_str:0000000000000dd4 .LASF63
     /tmp/ccmi3Mjt.s:4603   .debug_str:00000000000008cf .LASF64
     /tmp/ccmi3Mjt.s:4619   .debug_str:000000000000092a .LASF65
     /tmp/ccmi3Mjt.s:4593   .debug_str:000000000000087e .LASF66
     /tmp/ccmi3Mjt.s:4655   .debug_str:0000000000000a2e .LASF67
GAS LISTING /tmp/ccmi3Mjt.s 			page 21


     /tmp/ccmi3Mjt.s:4713   .debug_str:0000000000000c19 .LASF68
     /tmp/ccmi3Mjt.s:4517   .debug_str:00000000000005ea .LASF69
     /tmp/ccmi3Mjt.s:4721   .debug_str:0000000000000c60 .LASF70
     /tmp/ccmi3Mjt.s:4693   .debug_str:0000000000000b59 .LASF71
     /tmp/ccmi3Mjt.s:4695   .debug_str:0000000000000b6c .LASF72
     /tmp/ccmi3Mjt.s:4389   .debug_str:000000000000020a .LASF73
     /tmp/ccmi3Mjt.s:4423   .debug_str:0000000000000311 .LASF74
     /tmp/ccmi3Mjt.s:4501   .debug_str:000000000000057e .LASF75
     /tmp/ccmi3Mjt.s:4515   .debug_str:00000000000005e4 .LASF76
     /tmp/ccmi3Mjt.s:4411   .debug_str:00000000000002b2 .LASF77
     /tmp/ccmi3Mjt.s:4339   .debug_str:00000000000000a9 .LASF78
     /tmp/ccmi3Mjt.s:4681   .debug_str:0000000000000ae1 .LASF79
     /tmp/ccmi3Mjt.s:4675   .debug_str:0000000000000abb .LASF80
     /tmp/ccmi3Mjt.s:4863   .debug_str:000000000000118d .LASF81
     /tmp/ccmi3Mjt.s:4829   .debug_str:0000000000001053 .LASF82
     /tmp/ccmi3Mjt.s:4843   .debug_str:00000000000010c3 .LASF83
     /tmp/ccmi3Mjt.s:4819   .debug_str:000000000000101f .LASF84
     /tmp/ccmi3Mjt.s:4587   .debug_str:0000000000000846 .LASF85
     /tmp/ccmi3Mjt.s:4611   .debug_str:00000000000008f3 .LASF86
     /tmp/ccmi3Mjt.s:4359   .debug_str:0000000000000152 .LASF87
     /tmp/ccmi3Mjt.s:4451   .debug_str:00000000000003ea .LASF88
     /tmp/ccmi3Mjt.s:4361   .debug_str:000000000000016a .LASF89
     /tmp/ccmi3Mjt.s:4519   .debug_str:00000000000005fe .LASF90
     /tmp/ccmi3Mjt.s:4691   .debug_str:0000000000000b39 .LASF105
     /tmp/ccmi3Mjt.s:4475   .debug_str:00000000000004b2 .LASF107
     /tmp/ccmi3Mjt.s:4551   .debug_str:0000000000000746 .LASF91
     /tmp/ccmi3Mjt.s:4837   .debug_str:000000000000107d .LASF93
     /tmp/ccmi3Mjt.s:4665   .debug_str:0000000000000a72 .LASF92
     /tmp/ccmi3Mjt.s:4809   .debug_str:0000000000000fba .LASF94
     /tmp/ccmi3Mjt.s:4777   .debug_str:0000000000000eb0 .LASF95
     /tmp/ccmi3Mjt.s:4463   .debug_str:0000000000000429 .LASF96
     /tmp/ccmi3Mjt.s:4401   .debug_str:000000000000025f .LASF97
     /tmp/ccmi3Mjt.s:4697   .debug_str:0000000000000b73 .LASF98
     /tmp/ccmi3Mjt.s:4487   .debug_str:000000000000052e .LASF114
     /tmp/ccmi3Mjt.s:4443   .debug_str:00000000000003be .LASF99
     /tmp/ccmi3Mjt.s:4717   .debug_str:0000000000000c46 .LASF100
     /tmp/ccmi3Mjt.s:4605   .debug_str:00000000000008d7 .LASF101
     /tmp/ccmi3Mjt.s:4317   .debug_str:0000000000000013 .LASF102
     /tmp/ccmi3Mjt.s:4319   .debug_str:000000000000001c .LASF103
     /tmp/ccmi3Mjt.s:4633   .debug_str:000000000000098d .LASF104
     /tmp/ccmi3Mjt.s:4759   .debug_str:0000000000000e06 .LASF106
     /tmp/ccmi3Mjt.s:4779   .debug_str:0000000000000eb8 .LASF108
     /tmp/ccmi3Mjt.s:4715   .debug_str:0000000000000c21 .LASF109
     /tmp/ccmi3Mjt.s:4861   .debug_str:0000000000001163 .LASF110
     /tmp/ccmi3Mjt.s:4699   .debug_str:0000000000000b96 .LASF111
     /tmp/ccmi3Mjt.s:4873   .debug_str:00000000000011ed .LASF112
     /tmp/ccmi3Mjt.s:4733   .debug_str:0000000000000ca1 .LASF115
     /tmp/ccmi3Mjt.s:4529   .debug_str:0000000000000676 .LASF116
     /tmp/ccmi3Mjt.s:4431   .debug_str:0000000000000361 .LASF117
     /tmp/ccmi3Mjt.s:4581   .debug_str:0000000000000807 .LASF118
     /tmp/ccmi3Mjt.s:4647   .debug_str:00000000000009fb .LASF119
     /tmp/ccmi3Mjt.s:4617   .debug_str:0000000000000911 .LASF120
     /tmp/ccmi3Mjt.s:4455   .debug_str:000000000000040c .LASF121
     /tmp/ccmi3Mjt.s:4417   .debug_str:00000000000002f5 .LASF122
     /tmp/ccmi3Mjt.s:4549   .debug_str:0000000000000738 .LASF123
     /tmp/ccmi3Mjt.s:4325   .debug_str:000000000000004f .LASF124
     /tmp/ccmi3Mjt.s:4757   .debug_str:0000000000000df7 .LASF125
GAS LISTING /tmp/ccmi3Mjt.s 			page 22


     /tmp/ccmi3Mjt.s:4393   .debug_str:0000000000000222 .LASF126
     /tmp/ccmi3Mjt.s:4821   .debug_str:0000000000001029 .LASF127
     /tmp/ccmi3Mjt.s:4649   .debug_str:0000000000000a0e .LASF128
     /tmp/ccmi3Mjt.s:4573   .debug_str:00000000000007ea .LASF129
     /tmp/ccmi3Mjt.s:4817   .debug_str:0000000000001016 .LASF130
     /tmp/ccmi3Mjt.s:4561   .debug_str:0000000000000774 .LASF131
     /tmp/ccmi3Mjt.s:4541   .debug_str:00000000000006da .LASF132
     /tmp/ccmi3Mjt.s:4739   .debug_str:0000000000000cbb .LASF133
     /tmp/ccmi3Mjt.s:4625   .debug_str:0000000000000953 .LASF134
     /tmp/ccmi3Mjt.s:4707   .debug_str:0000000000000be9 .LASF135
     /tmp/ccmi3Mjt.s:4751   .debug_str:0000000000000db8 .LASF136
     /tmp/ccmi3Mjt.s:4785   .debug_str:0000000000000efa .LASF137
     /tmp/ccmi3Mjt.s:4483   .debug_str:0000000000000504 .LASF138
     /tmp/ccmi3Mjt.s:4797   .debug_str:0000000000000f52 .LASF139
     /tmp/ccmi3Mjt.s:4623   .debug_str:000000000000094d .LASF140
     /tmp/ccmi3Mjt.s:4607   .debug_str:00000000000008dc .LASF141
     /tmp/ccmi3Mjt.s:4767   .debug_str:0000000000000e74 .LASF142
     /tmp/ccmi3Mjt.s:4815   .debug_str:0000000000001004 .LASF143
     /tmp/ccmi3Mjt.s:4775   .debug_str:0000000000000ea3 .LASF144
     /tmp/ccmi3Mjt.s:4865   .debug_str:00000000000011a5 .LASF145
     /tmp/ccmi3Mjt.s:4571   .debug_str:00000000000007db .LASF146
     /tmp/ccmi3Mjt.s:4407   .debug_str:0000000000000281 .LASF147
     /tmp/ccmi3Mjt.s:4559   .debug_str:000000000000076e .LASF148
     /tmp/ccmi3Mjt.s:4671   .debug_str:0000000000000aa2 .LASF149
     /tmp/ccmi3Mjt.s:4397   .debug_str:0000000000000242 .LASF150
     /tmp/ccmi3Mjt.s:4763   .debug_str:0000000000000e48 .LASF151
     /tmp/ccmi3Mjt.s:4439   .debug_str:00000000000003a8 .LASF152
     /tmp/ccmi3Mjt.s:4415   .debug_str:00000000000002dc .LASF153
     /tmp/ccmi3Mjt.s:4867   .debug_str:00000000000011bd .LASF154
     /tmp/ccmi3Mjt.s:4477   .debug_str:00000000000004d2 .LASF155
     /tmp/ccmi3Mjt.s:4323   .debug_str:000000000000003f .LASF156
     /tmp/ccmi3Mjt.s:4703   .debug_str:0000000000000bd3 .LASF157
     /tmp/ccmi3Mjt.s:4371   .debug_str:000000000000019e .LASF158
     /tmp/ccmi3Mjt.s:4461   .debug_str:000000000000041d .LASF159
     /tmp/ccmi3Mjt.s:4601   .debug_str:00000000000008bc .LASF160
     /tmp/ccmi3Mjt.s:4679   .debug_str:0000000000000ad4 .LASF161
     /tmp/ccmi3Mjt.s:4583   .debug_str:000000000000081a .LASF162
     /tmp/ccmi3Mjt.s:4727   .debug_str:0000000000000c81 .LASF163
     /tmp/ccmi3Mjt.s:4769   .debug_str:0000000000000e7a .LASF164
     /tmp/ccmi3Mjt.s:4805   .debug_str:0000000000000f8b .LASF165
     /tmp/ccmi3Mjt.s:4841   .debug_str:00000000000010b8 .LASF166
     /tmp/ccmi3Mjt.s:4807   .debug_str:0000000000000fa3 .LASF167
     /tmp/ccmi3Mjt.s:4639   .debug_str:00000000000009d0 .LASF168
     /tmp/ccmi3Mjt.s:4505   .debug_str:00000000000005a8 .LASF169
     /tmp/ccmi3Mjt.s:4575   .debug_str:00000000000007f1 .LASF170
     /tmp/ccmi3Mjt.s:4855   .debug_str:0000000000001134 .LASF171
     /tmp/ccmi3Mjt.s:4659   .debug_str:0000000000000a52 .LASF172
     /tmp/ccmi3Mjt.s:4599   .debug_str:00000000000008a4 .LASF173
     /tmp/ccmi3Mjt.s:4379   .debug_str:00000000000001d1 .LASF174
     /tmp/ccmi3Mjt.s:4507   .debug_str:00000000000005c0 .LASF175
     /tmp/ccmi3Mjt.s:4499   .debug_str:000000000000056e .LASF176
     /tmp/ccmi3Mjt.s:4353   .debug_str:0000000000000123 .LASF177
     /tmp/ccmi3Mjt.s:4765   .debug_str:0000000000000e64 .LASF178
     /tmp/ccmi3Mjt.s:4615   .debug_str:000000000000090a .LASF179
     /tmp/ccmi3Mjt.s:4377   .debug_str:00000000000001c0 .LASF180
     /tmp/ccmi3Mjt.s:4579   .debug_str:0000000000000800 .LASF181
     /tmp/ccmi3Mjt.s:4447   .debug_str:00000000000003ca .LASF182
GAS LISTING /tmp/ccmi3Mjt.s 			page 23


     /tmp/ccmi3Mjt.s:4333   .debug_str:000000000000008c .LASF183
     /tmp/ccmi3Mjt.s:4875   .debug_str:0000000000001214 .LASF184
     /tmp/ccmi3Mjt.s:4347   .debug_str:00000000000000eb .LASF185
     /tmp/ccmi3Mjt.s:4429   .debug_str:0000000000000348 .LASF186
     /tmp/ccmi3Mjt.s:4485   .debug_str:000000000000051e .LASF187
     /tmp/ccmi3Mjt.s:4683   .debug_str:0000000000000af9 .LASF188
     /tmp/ccmi3Mjt.s:4755   .debug_str:0000000000000de8 .LASF189
     /tmp/ccmi3Mjt.s:4523   .debug_str:000000000000062d .LASF190
     /tmp/ccmi3Mjt.s:4545   .debug_str:0000000000000716 .LASF191
     /tmp/ccmi3Mjt.s:4839   .debug_str:000000000000109e .LASF192
     /tmp/ccmi3Mjt.s:4321   .debug_str:0000000000000031 .LASF193
     /tmp/ccmi3Mjt.s:4741   .debug_str:0000000000000cc8 .LASF194
     /tmp/ccmi3Mjt.s:4787   .debug_str:0000000000000f07 .LASF195
     /tmp/ccmi3Mjt.s:4495   .debug_str:0000000000000553 .LASF196
     /tmp/ccmi3Mjt.s:4859   .debug_str:000000000000115d .LASF197
     /tmp/ccmi3Mjt.s:4419   .debug_str:00000000000002fb .LASF198
     /tmp/ccmi3Mjt.s:4771   .debug_str:0000000000000e86 .LASF199
     /tmp/ccmi3Mjt.s:4813   .debug_str:0000000000000ffd .LASF200
     /tmp/ccmi3Mjt.s:4663   .debug_str:0000000000000a67 .LASF201
     /tmp/ccmi3Mjt.s:4737   .debug_str:0000000000000cb1 .LASF202
     /tmp/ccmi3Mjt.s:4879   .debug_str:0000000000001247 .LASF203
     /tmp/ccmi3Mjt.s:4537   .debug_str:00000000000006cb .LASF204
     /tmp/ccmi3Mjt.s:4731   .debug_str:0000000000000c99 .LASF206
     /tmp/ccmi3Mjt.s:4831   .debug_str:000000000000105d .LASF207
     /tmp/ccmi3Mjt.s:4799   .debug_str:0000000000000f6d .LASF208
     /tmp/ccmi3Mjt.s:4853   .debug_str:000000000000112d .LASF276
     /tmp/ccmi3Mjt.s:4661   .debug_str:0000000000000a5e .LASF209
     /tmp/ccmi3Mjt.s:4315   .debug_str:000000000000000b .LASF210
     /tmp/ccmi3Mjt.s:4827   .debug_str:000000000000104a .LASF211
     /tmp/ccmi3Mjt.s:4749   .debug_str:0000000000000db1 .LASF212
     /tmp/ccmi3Mjt.s:4369   .debug_str:0000000000000195 .LASF213
     /tmp/ccmi3Mjt.s:4465   .debug_str:000000000000044d .LASF214
     /tmp/ccmi3Mjt.s:4719   .debug_str:0000000000000c4b .LASF215
     /tmp/ccmi3Mjt.s:4413   .debug_str:00000000000002c4 .LASF277
     /tmp/ccmi3Mjt.s:4857   .debug_str:0000000000001149 .LASF278
     /tmp/ccmi3Mjt.s:4331   .debug_str:0000000000000073 .LASF216
     /tmp/ccmi3Mjt.s:4427   .debug_str:0000000000000333 .LASF217
     /tmp/ccmi3Mjt.s:4363   .debug_str:000000000000016f .LASF218
     /tmp/ccmi3Mjt.s:4435   .debug_str:000000000000038b .LASF220
     /tmp/ccmi3Mjt.s:4569   .debug_str:00000000000007ce .LASF221
     /tmp/ccmi3Mjt.s:4341   .debug_str:00000000000000b4 .LASF222
     /tmp/ccmi3Mjt.s:4641   .debug_str:00000000000009dc .LASF279
     /tmp/ccmi3Mjt.s:4335   .debug_str:000000000000009a .LASF223
     /tmp/ccmi3Mjt.s:4735   .debug_str:0000000000000ca6 .LASF224
     /tmp/ccmi3Mjt.s:4533   .debug_str:0000000000000694 .LASF225
     /tmp/ccmi3Mjt.s:4667   .debug_str:0000000000000a7b .LASF226
     /tmp/ccmi3Mjt.s:4351   .debug_str:0000000000000102 .LASF227
     /tmp/ccmi3Mjt.s:4563   .debug_str:0000000000000783 .LASF228
     /tmp/ccmi3Mjt.s:4591   .debug_str:0000000000000869 .LASF229
     /tmp/ccmi3Mjt.s:4597   .debug_str:000000000000088f .LASF230
     /tmp/ccmi3Mjt.s:4497   .debug_str:0000000000000558 .LASF231
     /tmp/ccmi3Mjt.s:4531   .debug_str:000000000000067f .LASF232
     /tmp/ccmi3Mjt.s:4845   .debug_str:00000000000010d9 .LASF233
     /tmp/ccmi3Mjt.s:4387   .debug_str:0000000000000203 .LASF234
     /tmp/ccmi3Mjt.s:4391   .debug_str:000000000000021d .LASF235
     /tmp/ccmi3Mjt.s:4849   .debug_str:000000000000110d .LASF237
     /tmp/ccmi3Mjt.s:4783   .debug_str:0000000000000ef5 .LASF236
GAS LISTING /tmp/ccmi3Mjt.s 			page 24


     /tmp/ccmi3Mjt.s:4521   .debug_str:000000000000061f .LASF238
     /tmp/ccmi3Mjt.s:4399   .debug_str:0000000000000251 .LASF239
     /tmp/ccmi3Mjt.s:4327   .debug_str:0000000000000055 .LASF240
     /tmp/ccmi3Mjt.s:4793   .debug_str:0000000000000f1a .LASF241
     /tmp/ccmi3Mjt.s:4489   .debug_str:0000000000000537 .LASF242
     /tmp/ccmi3Mjt.s:203    .text._ZN2os14CircularBufferIP3TCBE4initEv:0000000000000000 .LFB58
     /tmp/ccmi3Mjt.s:247    .text._ZN2os14CircularBufferIP3TCBE4initEv:0000000000000050 .LFE58
     /tmp/ccmi3Mjt.s:4457   .debug_str:0000000000000413 .LASF253
     /tmp/ccmi3Mjt.s:4219   .debug_loc:0000000000000000 .LLST2
     /tmp/ccmi3Mjt.s:231    .text._ZN2os14CircularBufferIP3TCBE4initEv:0000000000000038 .LVL15
     /tmp/ccmi3Mjt.s:4459   .debug_str:0000000000000418 .LASF243
     /tmp/ccmi3Mjt.s:427    .text:0000000000000114 .LFB56
     /tmp/ccmi3Mjt.s:460    .text:000000000000014c .LFE56
     /tmp/ccmi3Mjt.s:4237   .debug_loc:000000000000004c .LLST4
     /tmp/ccmi3Mjt.s:441    .text:000000000000012c .LVL29
     /tmp/ccmi3Mjt.s:445    .text:0000000000000134 .LVL30
     /tmp/ccmi3Mjt.s:449    .text:000000000000013c .LVL31
     /tmp/ccmi3Mjt.s:4627   .debug_str:000000000000096b .LASF280
     /tmp/ccmi3Mjt.s:128    .text:000000000000009c .LFB55
     /tmp/ccmi3Mjt.s:196    .text:0000000000000114 .LFE55
     /tmp/ccmi3Mjt.s:4244   .debug_loc:000000000000006f .LLST1
     /tmp/ccmi3Mjt.s:164    .text:00000000000000e0 .LBB10
     /tmp/ccmi3Mjt.s:174    .text:00000000000000ec .LBE10
     /tmp/ccmi3Mjt.s:165    .text:00000000000000e0 .LBB11
     /tmp/ccmi3Mjt.s:173    .text:00000000000000ec .LBE11
     /tmp/ccmi3Mjt.s:148    .text:00000000000000c4 .LVL8
     /tmp/ccmi3Mjt.s:153    .text:00000000000000d0 .LVL9
     /tmp/ccmi3Mjt.s:158    .text:00000000000000e0 .LVL10
     /tmp/ccmi3Mjt.s:181    .text:00000000000000fc .LVL12
     /tmp/ccmi3Mjt.s:4789   .debug_str:0000000000000f0c .LASF244
     /tmp/ccmi3Mjt.s:4491   .debug_str:000000000000053f .LASF251
     /tmp/ccmi3Mjt.s:77     .text:0000000000000054 .LFB54
     /tmp/ccmi3Mjt.s:114    .text:000000000000009c .LFE54
     /tmp/ccmi3Mjt.s:4557   .debug_str:0000000000000763 .LASF245
     /tmp/ccmi3Mjt.s:96     .text:000000000000007c .LVL4
     /tmp/ccmi3Mjt.s:101    .text:0000000000000088 .LVL5
     /tmp/ccmi3Mjt.s:4469   .debug_str:0000000000000467 .LASF246
     /tmp/ccmi3Mjt.s:4851   .debug_str:000000000000111b .LASF247
     /tmp/ccmi3Mjt.s:37     .text:000000000000001c .LFB53
     /tmp/ccmi3Mjt.s:71     .text:0000000000000054 .LFE53
     /tmp/ccmi3Mjt.s:4258   .debug_loc:00000000000000a8 .LLST0
     /tmp/ccmi3Mjt.s:55     .text:000000000000003c .LVL2
     /tmp/ccmi3Mjt.s:4539   .debug_str:00000000000006d1 .LASF248
     /tmp/ccmi3Mjt.s:396    .text._Z4initv:0000000000000108 .LFE52
     /tmp/ccmi3Mjt.s:4823   .debug_str:0000000000001038 .LASF249
     /tmp/ccmi3Mjt.s:299    .text._Z4initv:000000000000003c .LBB17
     /tmp/ccmi3Mjt.s:318    .text._Z4initv:000000000000006c .LBE17
     /tmp/ccmi3Mjt.s:306    .text._Z4initv:000000000000004c .LVL19
     /tmp/ccmi3Mjt.s:311    .text._Z4initv:000000000000005c .LVL20
     /tmp/ccmi3Mjt.s:316    .text._Z4initv:000000000000006c .LVL21
     /tmp/ccmi3Mjt.s:355    .text._Z4initv:00000000000000cc .LBB19
     /tmp/ccmi3Mjt.s:368    .text._Z4initv:00000000000000d4 .LBE19
     /tmp/ccmi3Mjt.s:4276   .debug_loc:00000000000000f4 .LLST3
     /tmp/ccmi3Mjt.s:293    .text._Z4initv:0000000000000034 .LVL17
     /tmp/ccmi3Mjt.s:297    .text._Z4initv:000000000000003c .LVL18
     /tmp/ccmi3Mjt.s:323    .text._Z4initv:0000000000000078 .LVL22
     /tmp/ccmi3Mjt.s:328    .text._Z4initv:0000000000000084 .LVL23
GAS LISTING /tmp/ccmi3Mjt.s 			page 25


     /tmp/ccmi3Mjt.s:340    .text._Z4initv:00000000000000a0 .LVL24
     /tmp/ccmi3Mjt.s:352    .text._Z4initv:00000000000000cc .LVL25
     /tmp/ccmi3Mjt.s:389    .text._Z4initv:00000000000000fc .LVL27
     /tmp/ccmi3Mjt.s:393    .text._Z4initv:0000000000000108 .LVL28
     /tmp/ccmi3Mjt.s:4367   .debug_str:000000000000018b .LASF250
     /tmp/ccmi3Mjt.s:4421   .debug_str:0000000000000302 .LASF252
     /tmp/ccmi3Mjt.s:10     .text:0000000000000000 .LFB51
     /tmp/ccmi3Mjt.s:31     .text:000000000000001c .LFE51
     /tmp/ccmi3Mjt.s:27     .text:0000000000000018 .LVL0
     /tmp/ccmi3Mjt.s:4685   .debug_str:0000000000000b14 .LASF281
     /tmp/ccmi3Mjt.s:4513   .debug_str:00000000000005d8 .LASF254
     /tmp/ccmi3Mjt.s:4373   .debug_str:00000000000001ae .LASF256
     /tmp/ccmi3Mjt.s:4729   .debug_str:0000000000000c8f .LASF255
     /tmp/ccmi3Mjt.s:4643   .debug_str:00000000000009e4 .LASF257
     /tmp/ccmi3Mjt.s:4405   .debug_str:0000000000000276 .LASF258
     /tmp/ccmi3Mjt.s:4471   .debug_str:0000000000000473 .LASF259
     /tmp/ccmi3Mjt.s:4723   .debug_str:0000000000000c67 .LASF260
     /tmp/ccmi3Mjt.s:4701   .debug_str:0000000000000bbe .LASF261
     /tmp/ccmi3Mjt.s:4613   .debug_str:00000000000008fe .LASF262
     /tmp/ccmi3Mjt.s:4589   .debug_str:000000000000085c .LASF263
     /tmp/ccmi3Mjt.s:4637   .debug_str:00000000000009c7 .LASF264
     /tmp/ccmi3Mjt.s:4445   .debug_str:00000000000003c4 .LASF265
     /tmp/ccmi3Mjt.s:4629   .debug_str:0000000000000973 .LASF266
     /tmp/ccmi3Mjt.s:4801   .debug_str:0000000000000f72 .LASF282
     /tmp/ccmi3Mjt.s:4479   .debug_str:00000000000004de .LASF283
     /tmp/ccmi3Mjt.s:4343   .debug_str:00000000000000c1 .LASF267
     /tmp/ccmi3Mjt.s:4657   .debug_str:0000000000000a42 .LASF268
     /tmp/ccmi3Mjt.s:206    .text._ZN2os14CircularBufferIP3TCBE4initEv:0000000000000000 .LVL13
     /tmp/ccmi3Mjt.s:229    .text._ZN2os14CircularBufferIP3TCBE4initEv:0000000000000030 .LVL14
     /tmp/ccmi3Mjt.s:242    .text._ZN2os14CircularBufferIP3TCBE4initEv:0000000000000048 .LVL16
     /tmp/ccmi3Mjt.s:131    .text:000000000000009c .LVL6
     /tmp/ccmi3Mjt.s:146    .text:00000000000000bc .LVL7
     /tmp/ccmi3Mjt.s:40     .text:000000000000001c .LVL1
     /tmp/ccmi3Mjt.s:66     .text:000000000000004c .LVL3
     /tmp/ccmi3Mjt.s:365    .text._Z4initv:00000000000000d4 .LVL26
     /tmp/ccmi3Mjt.s:484    .debug_info:0000000000000000 .Ldebug_info0
     /tmp/ccmi3Mjt.s:5      .text:0000000000000000 .Ltext0
     /tmp/ccmi3Mjt.s:476    .text:000000000000014c .Letext0
     /tmp/ccmi3Mjt.s:399    .gcc_except_table._Z4initv:0000000000000000 .LLSDA52

UNDEFINED SYMBOLS
_Z15thread_dispatchv
_Z8userMainv
_Z13thread_createPP3TCBPFvPvES2_
_Z11thread_joinP3TCB
_Z5printPKc
_Z5printi
_ZN2IO6OutputE
_Z10time_sleepm
_ZN9Allocator10_mem_allocEm
supervisorTrap
_ZN9Allocator8mem_initEv
_ZN2IO4initEv
_ZN9Scheduler13high_priorityE
_ZN9Scheduler12mid_priorityE
_ZN9Scheduler12low_priorityE
_Znwm
GAS LISTING /tmp/ccmi3Mjt.s 			page 26


_ZN10OwnedMutexC1Ev
_ZN3TCB7runningE
_ZdlPv
_Unwind_Resume
__gxx_personality_v0
