GAS LISTING /tmp/ccDUYufJ.s 			page 1


   1              		.file	"monitor.cpp"
   2              		.option pic
   3              		.option norelax
   4              		.text
   5              	.Ltext0:
   6              		.align	2
   7              		.globl	_ZN12MonitorMutex10relinquishEv
   9              	_ZN12MonitorMutex10relinquishEv:
  10              	.LFB5:
  11              		.file 1 "src/monitor.cpp"
   1:src/monitor.cpp **** #include "../h/monitor.hpp"
   2:src/monitor.cpp **** 
   3:src/monitor.cpp **** int MonitorMutex::relinquish() {
  12              		.loc 1 3 32
  13              		.cfi_startproc
  14              	.LVL0:
  15 0000 130101FF 		addi	sp,sp,-16
  16              		.cfi_def_cfa_offset 16
  17 0004 23348100 		sd	s0,8(sp)
  18              		.cfi_offset 8, -8
  19 0008 13040101 		addi	s0,sp,16
  20              		.cfi_def_cfa 8, 0
  21 000c 93070500 		mv	a5,a0
   4:src/monitor.cpp ****     int ret = this->nesting_count;
  22              		.loc 1 4 5
  23              		.loc 1 4 9 is_stmt 0
  24 0010 03258501 		lw	a0,24(a0)
  25              	.LVL1:
   5:src/monitor.cpp ****     this->nesting_count = 1;
  26              		.loc 1 5 5 is_stmt 1
  27              		.loc 1 5 25 is_stmt 0
  28 0014 13071000 		li	a4,1
  29 0018 23ACE700 		sw	a4,24(a5)
   6:src/monitor.cpp ****     return ret;
  30              		.loc 1 6 5 is_stmt 1
   7:src/monitor.cpp **** }
  31              		.loc 1 7 1 is_stmt 0
  32 001c 03348100 		ld	s0,8(sp)
  33              		.cfi_restore 8
  34              		.cfi_def_cfa 2, 16
  35 0020 13010101 		addi	sp,sp,16
  36              		.cfi_def_cfa_offset 0
  37 0024 67800000 		jr	ra
  38              		.cfi_endproc
  39              	.LFE5:
  41              		.align	2
  42              		.globl	_ZN12MonitorMutex9reacquireEi
  44              	_ZN12MonitorMutex9reacquireEi:
  45              	.LFB6:
   8:src/monitor.cpp **** 
   9:src/monitor.cpp **** void MonitorMutex::reacquire(int count) {
  46              		.loc 1 9 41 is_stmt 1
  47              		.cfi_startproc
  48              	.LVL2:
  49 0028 130101FF 		addi	sp,sp,-16
  50              		.cfi_def_cfa_offset 16
  51 002c 23348100 		sd	s0,8(sp)
GAS LISTING /tmp/ccDUYufJ.s 			page 2


  52              		.cfi_offset 8, -8
  53 0030 13040101 		addi	s0,sp,16
  54              		.cfi_def_cfa 8, 0
  10:src/monitor.cpp ****     this->nesting_count = count;
  55              		.loc 1 10 5
  56              		.loc 1 10 25 is_stmt 0
  57 0034 232CB500 		sw	a1,24(a0)
  11:src/monitor.cpp **** }
  58              		.loc 1 11 1
  59 0038 03348100 		ld	s0,8(sp)
  60              		.cfi_restore 8
  61              		.cfi_def_cfa 2, 16
  62 003c 13010101 		addi	sp,sp,16
  63              		.cfi_def_cfa_offset 0
  64 0040 67800000 		jr	ra
  65              		.cfi_endproc
  66              	.LFE6:
  68              		.align	2
  69              		.globl	_ZN11MonitorLockC2ER12MonitorMutex
  71              	_ZN11MonitorLockC2ER12MonitorMutex:
  72              	.LFB8:
  12:src/monitor.cpp **** 
  13:src/monitor.cpp **** MonitorLock::MonitorLock(MonitorMutex &mutex) : monitorMutex(mutex) {
  73              		.loc 1 13 1 is_stmt 1
  74              		.cfi_startproc
  75              	.LVL3:
  76 0044 130101FF 		addi	sp,sp,-16
  77              		.cfi_def_cfa_offset 16
  78 0048 23341100 		sd	ra,8(sp)
  79 004c 23308100 		sd	s0,0(sp)
  80              		.cfi_offset 1, -8
  81              		.cfi_offset 8, -16
  82 0050 13040101 		addi	s0,sp,16
  83              		.cfi_def_cfa 8, 0
  84              	.LBB2:
  85              		.loc 1 13 67 is_stmt 0
  86 0054 2330B500 		sd	a1,0(a0)
  14:src/monitor.cpp ****     this->monitorMutex.wait();
  87              		.loc 1 14 5 is_stmt 1
  88              		.loc 1 14 29 is_stmt 0
  89 0058 83B70500 		ld	a5,0(a1)
  90 005c 83B70701 		ld	a5,16(a5)
  91              		.loc 1 14 28
  92 0060 13850500 		mv	a0,a1
  93              	.LVL4:
  94 0064 E7800700 		jalr	a5
  95              	.LVL5:
  96              	.LBE2:
  15:src/monitor.cpp **** }
  97              		.loc 1 15 1
  98 0068 83308100 		ld	ra,8(sp)
  99              		.cfi_restore 1
 100 006c 03340100 		ld	s0,0(sp)
 101              		.cfi_restore 8
 102              		.cfi_def_cfa 2, 16
 103 0070 13010101 		addi	sp,sp,16
 104              		.cfi_def_cfa_offset 0
GAS LISTING /tmp/ccDUYufJ.s 			page 3


 105 0074 67800000 		jr	ra
 106              		.cfi_endproc
 107              	.LFE8:
 109              		.globl	_ZN11MonitorLockC1ER12MonitorMutex
 110              		.set	_ZN11MonitorLockC1ER12MonitorMutex,_ZN11MonitorLockC2ER12MonitorMutex
 111              		.align	2
 112              		.globl	_ZN11MonitorLockD2Ev
 114              	_ZN11MonitorLockD2Ev:
 115              	.LFB11:
  16:src/monitor.cpp **** 
  17:src/monitor.cpp **** MonitorLock::~MonitorLock() {
 116              		.loc 1 17 1 is_stmt 1
 117              		.cfi_startproc
 118              		.cfi_personality 0x9b,DW.ref.__gxx_personality_v0
 119              		.cfi_lsda 0x1b,.LLSDA11
 120              	.LVL6:
 121 0078 130101FF 		addi	sp,sp,-16
 122              		.cfi_def_cfa_offset 16
 123 007c 23341100 		sd	ra,8(sp)
 124 0080 23308100 		sd	s0,0(sp)
 125              		.cfi_offset 1, -8
 126              		.cfi_offset 8, -16
 127 0084 13040101 		addi	s0,sp,16
 128              		.cfi_def_cfa 8, 0
 129              	.LBB3:
  18:src/monitor.cpp ****     this->monitorMutex.signal();
 130              		.loc 1 18 5
 131              		.loc 1 18 11 is_stmt 0
 132 0088 03350500 		ld	a0,0(a0)
 133              	.LVL7:
 134              		.loc 1 18 31
 135 008c 83370500 		ld	a5,0(a0)
 136 0090 83B78701 		ld	a5,24(a5)
 137              		.loc 1 18 30
 138 0094 E7800700 		jalr	a5
 139              	.LVL8:
 140              	.LBE3:
  19:src/monitor.cpp **** }
 141              		.loc 1 19 1
 142 0098 83308100 		ld	ra,8(sp)
 143              		.cfi_restore 1
 144 009c 03340100 		ld	s0,0(sp)
 145              		.cfi_restore 8
 146              		.cfi_def_cfa 2, 16
 147 00a0 13010101 		addi	sp,sp,16
 148              		.cfi_def_cfa_offset 0
 149 00a4 67800000 		jr	ra
 150              		.cfi_endproc
 151              	.LFE11:
 152              		.globl	__gxx_personality_v0
 153              		.section	.gcc_except_table,"a",@progbits
 154              	.LLSDA11:
 155 0000 FF       		.byte	0xff
 156 0001 FF       		.byte	0xff
 157 0002 03       		.byte	0x3
 158 0003 00       		.byte	0
 159              		.text
GAS LISTING /tmp/ccDUYufJ.s 			page 4


 161              		.globl	_ZN11MonitorLockD1Ev
 162              		.set	_ZN11MonitorLockD1Ev,_ZN11MonitorLockD2Ev
 163              		.align	2
 164              		.globl	_ZN11ConditionalC2EP7Monitor
 166              	_ZN11ConditionalC2EP7Monitor:
 167              	.LFB14:
  20:src/monitor.cpp **** 
  21:src/monitor.cpp **** Conditional::Conditional(Monitor *monitor) : owner(monitor), count(0), blocker(0) {}
 168              		.loc 1 21 1 is_stmt 1
 169              		.cfi_startproc
 170              	.LVL9:
 171 00a8 130101FF 		addi	sp,sp,-16
 172              		.cfi_def_cfa_offset 16
 173 00ac 23341100 		sd	ra,8(sp)
 174 00b0 23308100 		sd	s0,0(sp)
 175              		.cfi_offset 1, -8
 176              		.cfi_offset 8, -16
 177 00b4 13040101 		addi	s0,sp,16
 178              		.cfi_def_cfa 8, 0
 179              	.LBB4:
 180              		.loc 1 21 81 is_stmt 0
 181 00b8 2330B500 		sd	a1,0(a0)
 182 00bc 23240500 		sw	zero,8(a0)
 183 00c0 93050000 		li	a1,0
 184              	.LVL10:
 185 00c4 13050501 		addi	a0,a0,16
 186              	.LVL11:
 187 00c8 97000000 		call	_ZN9SemaphoreC1Ej@plt
 187      E7800000 
 188              	.LVL12:
 189              	.LBE4:
 190              		.loc 1 21 84
 191 00d0 83308100 		ld	ra,8(sp)
 192              		.cfi_restore 1
 193 00d4 03340100 		ld	s0,0(sp)
 194              		.cfi_restore 8
 195              		.cfi_def_cfa 2, 16
 196 00d8 13010101 		addi	sp,sp,16
 197              		.cfi_def_cfa_offset 0
 198 00dc 67800000 		jr	ra
 199              		.cfi_endproc
 200              	.LFE14:
 202              		.globl	_ZN11ConditionalC1EP7Monitor
 203              		.set	_ZN11ConditionalC1EP7Monitor,_ZN11ConditionalC2EP7Monitor
 204              		.align	2
 205              		.globl	_ZN11Conditional4waitEv
 207              	_ZN11Conditional4waitEv:
 208              	.LFB16:
  22:src/monitor.cpp **** 
  23:src/monitor.cpp **** void Conditional::wait() {
 209              		.loc 1 23 26 is_stmt 1
 210              		.cfi_startproc
 211              	.LVL13:
 212 00e0 130101FE 		addi	sp,sp,-32
 213              		.cfi_def_cfa_offset 32
 214 00e4 233C1100 		sd	ra,24(sp)
 215 00e8 23388100 		sd	s0,16(sp)
GAS LISTING /tmp/ccDUYufJ.s 			page 5


 216 00ec 23349100 		sd	s1,8(sp)
 217 00f0 23302101 		sd	s2,0(sp)
 218              		.cfi_offset 1, -8
 219              		.cfi_offset 8, -16
 220              		.cfi_offset 9, -24
 221              		.cfi_offset 18, -32
 222 00f4 13040102 		addi	s0,sp,32
 223              		.cfi_def_cfa 8, 0
 224 00f8 93040500 		mv	s1,a0
  24:src/monitor.cpp ****     this->count++;
 225              		.loc 1 24 5
 226              		.loc 1 24 11 is_stmt 0
 227 00fc 83278500 		lw	a5,8(a0)
 228              		.loc 1 24 16
 229 0100 9B871700 		addiw	a5,a5,1
 230 0104 2324F500 		sw	a5,8(a0)
  25:src/monitor.cpp ****     int nesting = this->owner->monitorMutex.relinquish();
 231              		.loc 1 25 5 is_stmt 1
 232              		.loc 1 25 55 is_stmt 0
 233 0108 03350500 		ld	a0,0(a0)
 234              	.LVL14:
 235 010c 97000000 		call	_ZN12MonitorMutex10relinquishEv
 235      E7800000 
 236              	.LVL15:
 237 0114 13090500 		mv	s2,a0
 238              	.LVL16:
  26:src/monitor.cpp ****     Semaphore::signal_and_wait(this->owner->monitorMutex, this->blocker);
 239              		.loc 1 26 5 is_stmt 1
 240              		.loc 1 26 31 is_stmt 0
 241 0118 93850401 		addi	a1,s1,16
 242 011c 03B50400 		ld	a0,0(s1)
 243 0120 97000000 		call	_ZN9Semaphore15signal_and_waitERS_S0_@plt
 243      E7800000 
 244              	.LVL17:
  27:src/monitor.cpp ****     this->owner->monitorMutex.reacquire(nesting);
 245              		.loc 1 27 5 is_stmt 1
 246              		.loc 1 27 40 is_stmt 0
 247 0128 93050900 		mv	a1,s2
 248 012c 03B50400 		ld	a0,0(s1)
 249 0130 97000000 		call	_ZN12MonitorMutex9reacquireEi
 249      E7800000 
 250              	.LVL18:
  28:src/monitor.cpp ****     this->owner->monitorMutex.wait();
 251              		.loc 1 28 5 is_stmt 1
 252              		.loc 1 28 35 is_stmt 0
 253 0138 03B50400 		ld	a0,0(s1)
 254 013c 97000000 		call	_ZN10OwnedMutex4waitEv@plt
 254      E7800000 
 255              	.LVL19:
  29:src/monitor.cpp **** }
 256              		.loc 1 29 1
 257 0144 83308101 		ld	ra,24(sp)
 258              		.cfi_restore 1
 259 0148 03340101 		ld	s0,16(sp)
 260              		.cfi_restore 8
 261              		.cfi_def_cfa 2, 32
 262 014c 83348100 		ld	s1,8(sp)
GAS LISTING /tmp/ccDUYufJ.s 			page 6


 263              		.cfi_restore 9
 264              	.LVL20:
 265 0150 03390100 		ld	s2,0(sp)
 266              		.cfi_restore 18
 267              	.LVL21:
 268 0154 13010102 		addi	sp,sp,32
 269              		.cfi_def_cfa_offset 0
 270 0158 67800000 		jr	ra
 271              		.cfi_endproc
 272              	.LFE16:
 274              		.align	2
 275              		.globl	_ZN11Conditional6signalEv
 277              	_ZN11Conditional6signalEv:
 278              	.LFB17:
  30:src/monitor.cpp **** 
  31:src/monitor.cpp **** void Conditional::signal() {
 279              		.loc 1 31 28 is_stmt 1
 280              		.cfi_startproc
 281              	.LVL22:
  32:src/monitor.cpp ****     if (this->count == 0) return;
 282              		.loc 1 32 5
 283              		.loc 1 32 15 is_stmt 0
 284 015c 83278500 		lw	a5,8(a0)
 285              		.loc 1 32 5
 286 0160 63940700 		bnez	a5,.L19
 287 0164 67800000 		ret
 288              	.L19:
  31:src/monitor.cpp ****     if (this->count == 0) return;
 289              		.loc 1 31 28
 290 0168 130101FE 		addi	sp,sp,-32
 291              		.cfi_def_cfa_offset 32
 292 016c 233C1100 		sd	ra,24(sp)
 293 0170 23388100 		sd	s0,16(sp)
 294 0174 23349100 		sd	s1,8(sp)
 295              		.cfi_offset 1, -8
 296              		.cfi_offset 8, -16
 297              		.cfi_offset 9, -24
 298 0178 13040102 		addi	s0,sp,32
 299              		.cfi_def_cfa 8, 0
 300 017c 93040500 		mv	s1,a0
  33:src/monitor.cpp ****     this->blocker.signal();
 301              		.loc 1 33 5 is_stmt 1
 302              		.loc 1 33 25 is_stmt 0
 303 0180 13050501 		addi	a0,a0,16
 304              	.LVL23:
 305 0184 97000000 		call	_ZN9Semaphore6signalEv@plt
 305      E7800000 
 306              	.LVL24:
  34:src/monitor.cpp ****     this->count--;
 307              		.loc 1 34 5 is_stmt 1
 308              		.loc 1 34 11 is_stmt 0
 309 018c 83A78400 		lw	a5,8(s1)
 310              		.loc 1 34 16
 311 0190 9B87F7FF 		addiw	a5,a5,-1
 312 0194 23A4F400 		sw	a5,8(s1)
  35:src/monitor.cpp **** }
 313              		.loc 1 35 1
GAS LISTING /tmp/ccDUYufJ.s 			page 7


 314 0198 83308101 		ld	ra,24(sp)
 315              		.cfi_restore 1
 316 019c 03340101 		ld	s0,16(sp)
 317              		.cfi_restore 8
 318              		.cfi_def_cfa 2, 32
 319 01a0 83348100 		ld	s1,8(sp)
 320              		.cfi_restore 9
 321              	.LVL25:
 322 01a4 13010102 		addi	sp,sp,32
 323              		.cfi_def_cfa_offset 0
 324 01a8 67800000 		jr	ra
 325              		.cfi_endproc
 326              	.LFE17:
 328              		.align	2
 329              		.globl	_ZN11Conditional9signalAllEv
 331              	_ZN11Conditional9signalAllEv:
 332              	.LFB18:
  36:src/monitor.cpp **** 
  37:src/monitor.cpp **** void Conditional::signalAll() {
 333              		.loc 1 37 31 is_stmt 1
 334              		.cfi_startproc
 335              	.LVL26:
 336 01ac 130101FE 		addi	sp,sp,-32
 337              		.cfi_def_cfa_offset 32
 338 01b0 233C1100 		sd	ra,24(sp)
 339 01b4 23388100 		sd	s0,16(sp)
 340 01b8 23349100 		sd	s1,8(sp)
 341 01bc 23302101 		sd	s2,0(sp)
 342              		.cfi_offset 1, -8
 343              		.cfi_offset 8, -16
 344              		.cfi_offset 9, -24
 345              		.cfi_offset 18, -32
 346 01c0 13040102 		addi	s0,sp,32
 347              		.cfi_def_cfa 8, 0
 348 01c4 13090500 		mv	s2,a0
  38:src/monitor.cpp ****     for (unsigned int i = 0; i < this->count; i++)
 349              		.loc 1 38 5
 350              	.LVL27:
 351              	.LBB5:
 352              		.loc 1 38 23 is_stmt 0
 353 01c8 93040000 		li	s1,0
 354              	.LVL28:
 355              	.L22:
 356              		.loc 1 38 32 is_stmt 1 discriminator 3
 357              		.loc 1 38 40 is_stmt 0 discriminator 3
 358 01cc 83278900 		lw	a5,8(s2)
 359              		.loc 1 38 32 discriminator 3
 360 01d0 63FCF400 		bleu	a5,s1,.L21
  39:src/monitor.cpp ****         this->blocker.signal();
 361              		.loc 1 39 9 is_stmt 1 discriminator 2
 362              		.loc 1 39 29 is_stmt 0 discriminator 2
 363 01d4 13050901 		addi	a0,s2,16
 364 01d8 97000000 		call	_ZN9Semaphore6signalEv@plt
 364      E7800000 
 365              	.LVL29:
  38:src/monitor.cpp ****     for (unsigned int i = 0; i < this->count; i++)
 366              		.loc 1 38 5 is_stmt 1 discriminator 2
GAS LISTING /tmp/ccDUYufJ.s 			page 8


 367 01e0 9B841400 		addiw	s1,s1,1
 368              	.LVL30:
 369 01e4 6FF09FFE 		j	.L22
 370              	.LVL31:
 371              	.L21:
 372              	.LBE5:
  40:src/monitor.cpp ****     this->count = 0;
 373              		.loc 1 40 5
 374              		.loc 1 40 17 is_stmt 0
 375 01e8 23240900 		sw	zero,8(s2)
  41:src/monitor.cpp **** }...
 376              		.loc 1 41 1
 377 01ec 83308101 		ld	ra,24(sp)
 378              		.cfi_restore 1
 379 01f0 03340101 		ld	s0,16(sp)
 380              		.cfi_restore 8
 381              		.cfi_def_cfa 2, 32
 382 01f4 83348100 		ld	s1,8(sp)
 383              		.cfi_restore 9
 384              	.LVL32:
 385 01f8 03390100 		ld	s2,0(sp)
 386              		.cfi_restore 18
 387              	.LVL33:
 388 01fc 13010102 		addi	sp,sp,32
 389              		.cfi_def_cfa_offset 0
 390 0200 67800000 		jr	ra
 391              		.cfi_endproc
 392              	.LFE18:
 394              	.Letext0:
 395              		.file 2 "src/../h/../lib/hw.h"
 396              		.file 3 "src/../h/monitor.hpp"
 397              		.file 4 "src/../h/syscall_cpp.hpp"
 398              		.file 5 "src/../h/syscall_c.hpp"
 1995              		.align	3
 1998              	DW.ref.__gxx_personality_v0:
 1999 0000 00000000 		.dword	__gxx_personality_v0
 1999      00000000 
 2000              		.ident	"GCC: (Ubuntu 9.4.0-1ubuntu1~20.04) 9.4.0"
 2001              		.section	.note.GNU-stack,"",@progbits
GAS LISTING /tmp/ccDUYufJ.s 			page 9

