GAS LISTING /tmp/ccDUYufJ.s 			page 1


   1              		.file	"monitor.cpp"
   2              		.option pic
   3              		.option norelax
   4              		.text
   5              	.Ltext0:
   6              		.align	2
   7              		.globl	_ZN12MonitorMutex10relinquishEv
   9              	_ZN12MonitorMutex10relinquishEv:
  10              	.LFB5:
  11              		.file 1 "src/monitor.cpp"
   1:src/monitor.cpp **** #include "../h/monitor.hpp"
   2:src/monitor.cpp **** 
   3:src/monitor.cpp **** int MonitorMutex::relinquish() {
  12              		.loc 1 3 32
  13              		.cfi_startproc
  14              	.LVL0:
  15 0000 130101FF 		addi	sp,sp,-16
  16              		.cfi_def_cfa_offset 16
  17 0004 23348100 		sd	s0,8(sp)
  18              		.cfi_offset 8, -8
  19 0008 13040101 		addi	s0,sp,16
  20              		.cfi_def_cfa 8, 0
  21 000c 93070500 		mv	a5,a0
   4:src/monitor.cpp ****     int ret = this->nesting_count;
  22              		.loc 1 4 5
  23              		.loc 1 4 9 is_stmt 0
  24 0010 03258501 		lw	a0,24(a0)
  25              	.LVL1:
   5:src/monitor.cpp ****     this->nesting_count = 1;
  26              		.loc 1 5 5 is_stmt 1
  27              		.loc 1 5 25 is_stmt 0
  28 0014 13071000 		li	a4,1
  29 0018 23ACE700 		sw	a4,24(a5)
   6:src/monitor.cpp ****     return ret;
  30              		.loc 1 6 5 is_stmt 1
   7:src/monitor.cpp **** }
  31              		.loc 1 7 1 is_stmt 0
  32 001c 03348100 		ld	s0,8(sp)
  33              		.cfi_restore 8
  34              		.cfi_def_cfa 2, 16
  35 0020 13010101 		addi	sp,sp,16
  36              		.cfi_def_cfa_offset 0
  37 0024 67800000 		jr	ra
  38              		.cfi_endproc
  39              	.LFE5:
  41              		.align	2
  42              		.globl	_ZN12MonitorMutex9reacquireEi
  44              	_ZN12MonitorMutex9reacquireEi:
  45              	.LFB6:
   8:src/monitor.cpp **** 
   9:src/monitor.cpp **** void MonitorMutex::reacquire(int count) {
  46              		.loc 1 9 41 is_stmt 1
  47              		.cfi_startproc
  48              	.LVL2:
  49 0028 130101FF 		addi	sp,sp,-16
  50              		.cfi_def_cfa_offset 16
  51 002c 23348100 		sd	s0,8(sp)
GAS LISTING /tmp/ccDUYufJ.s 			page 2


  52              		.cfi_offset 8, -8
  53 0030 13040101 		addi	s0,sp,16
  54              		.cfi_def_cfa 8, 0
  10:src/monitor.cpp ****     this->nesting_count = count;
  55              		.loc 1 10 5
  56              		.loc 1 10 25 is_stmt 0
  57 0034 232CB500 		sw	a1,24(a0)
  11:src/monitor.cpp **** }
  58              		.loc 1 11 1
  59 0038 03348100 		ld	s0,8(sp)
  60              		.cfi_restore 8
  61              		.cfi_def_cfa 2, 16
  62 003c 13010101 		addi	sp,sp,16
  63              		.cfi_def_cfa_offset 0
  64 0040 67800000 		jr	ra
  65              		.cfi_endproc
  66              	.LFE6:
  68              		.align	2
  69              		.globl	_ZN11MonitorLockC2ER12MonitorMutex
  71              	_ZN11MonitorLockC2ER12MonitorMutex:
  72              	.LFB8:
  12:src/monitor.cpp **** 
  13:src/monitor.cpp **** MonitorLock::MonitorLock(MonitorMutex &mutex) : monitorMutex(mutex) {
  73              		.loc 1 13 1 is_stmt 1
  74              		.cfi_startproc
  75              	.LVL3:
  76 0044 130101FF 		addi	sp,sp,-16
  77              		.cfi_def_cfa_offset 16
  78 0048 23341100 		sd	ra,8(sp)
  79 004c 23308100 		sd	s0,0(sp)
  80              		.cfi_offset 1, -8
  81              		.cfi_offset 8, -16
  82 0050 13040101 		addi	s0,sp,16
  83              		.cfi_def_cfa 8, 0
  84              	.LBB2:
  85              		.loc 1 13 67 is_stmt 0
  86 0054 2330B500 		sd	a1,0(a0)
  14:src/monitor.cpp ****     this->monitorMutex.wait();
  87              		.loc 1 14 5 is_stmt 1
  88              		.loc 1 14 29 is_stmt 0
  89 0058 83B70500 		ld	a5,0(a1)
  90 005c 83B70701 		ld	a5,16(a5)
  91              		.loc 1 14 28
  92 0060 13850500 		mv	a0,a1
  93              	.LVL4:
  94 0064 E7800700 		jalr	a5
  95              	.LVL5:
  96              	.LBE2:
  15:src/monitor.cpp **** }
  97              		.loc 1 15 1
  98 0068 83308100 		ld	ra,8(sp)
  99              		.cfi_restore 1
 100 006c 03340100 		ld	s0,0(sp)
 101              		.cfi_restore 8
 102              		.cfi_def_cfa 2, 16
 103 0070 13010101 		addi	sp,sp,16
 104              		.cfi_def_cfa_offset 0
GAS LISTING /tmp/ccDUYufJ.s 			page 3


 105 0074 67800000 		jr	ra
 106              		.cfi_endproc
 107              	.LFE8:
 109              		.globl	_ZN11MonitorLockC1ER12MonitorMutex
 110              		.set	_ZN11MonitorLockC1ER12MonitorMutex,_ZN11MonitorLockC2ER12MonitorMutex
 111              		.align	2
 112              		.globl	_ZN11MonitorLockD2Ev
 114              	_ZN11MonitorLockD2Ev:
 115              	.LFB11:
  16:src/monitor.cpp **** 
  17:src/monitor.cpp **** MonitorLock::~MonitorLock() {
 116              		.loc 1 17 1 is_stmt 1
 117              		.cfi_startproc
 118              		.cfi_personality 0x9b,DW.ref.__gxx_personality_v0
 119              		.cfi_lsda 0x1b,.LLSDA11
 120              	.LVL6:
 121 0078 130101FF 		addi	sp,sp,-16
 122              		.cfi_def_cfa_offset 16
 123 007c 23341100 		sd	ra,8(sp)
 124 0080 23308100 		sd	s0,0(sp)
 125              		.cfi_offset 1, -8
 126              		.cfi_offset 8, -16
 127 0084 13040101 		addi	s0,sp,16
 128              		.cfi_def_cfa 8, 0
 129              	.LBB3:
  18:src/monitor.cpp ****     this->monitorMutex.signal();
 130              		.loc 1 18 5
 131              		.loc 1 18 11 is_stmt 0
 132 0088 03350500 		ld	a0,0(a0)
 133              	.LVL7:
 134              		.loc 1 18 31
 135 008c 83370500 		ld	a5,0(a0)
 136 0090 83B78701 		ld	a5,24(a5)
 137              		.loc 1 18 30
 138 0094 E7800700 		jalr	a5
 139              	.LVL8:
 140              	.LBE3:
  19:src/monitor.cpp **** }
 141              		.loc 1 19 1
 142 0098 83308100 		ld	ra,8(sp)
 143              		.cfi_restore 1
 144 009c 03340100 		ld	s0,0(sp)
 145              		.cfi_restore 8
 146              		.cfi_def_cfa 2, 16
 147 00a0 13010101 		addi	sp,sp,16
 148              		.cfi_def_cfa_offset 0
 149 00a4 67800000 		jr	ra
 150              		.cfi_endproc
 151              	.LFE11:
 152              		.globl	__gxx_personality_v0
 153              		.section	.gcc_except_table,"a",@progbits
 154              	.LLSDA11:
 155 0000 FF       		.byte	0xff
 156 0001 FF       		.byte	0xff
 157 0002 03       		.byte	0x3
 158 0003 00       		.byte	0
 159              		.text
GAS LISTING /tmp/ccDUYufJ.s 			page 4


 161              		.globl	_ZN11MonitorLockD1Ev
 162              		.set	_ZN11MonitorLockD1Ev,_ZN11MonitorLockD2Ev
 163              		.align	2
 164              		.globl	_ZN11ConditionalC2EP7Monitor
 166              	_ZN11ConditionalC2EP7Monitor:
 167              	.LFB14:
  20:src/monitor.cpp **** 
  21:src/monitor.cpp **** Conditional::Conditional(Monitor *monitor) : owner(monitor), count(0), blocker(0) {}
 168              		.loc 1 21 1 is_stmt 1
 169              		.cfi_startproc
 170              	.LVL9:
 171 00a8 130101FF 		addi	sp,sp,-16
 172              		.cfi_def_cfa_offset 16
 173 00ac 23341100 		sd	ra,8(sp)
 174 00b0 23308100 		sd	s0,0(sp)
 175              		.cfi_offset 1, -8
 176              		.cfi_offset 8, -16
 177 00b4 13040101 		addi	s0,sp,16
 178              		.cfi_def_cfa 8, 0
 179              	.LBB4:
 180              		.loc 1 21 81 is_stmt 0
 181 00b8 2330B500 		sd	a1,0(a0)
 182 00bc 23240500 		sw	zero,8(a0)
 183 00c0 93050000 		li	a1,0
 184              	.LVL10:
 185 00c4 13050501 		addi	a0,a0,16
 186              	.LVL11:
 187 00c8 97000000 		call	_ZN9SemaphoreC1Ej@plt
 187      E7800000 
 188              	.LVL12:
 189              	.LBE4:
 190              		.loc 1 21 84
 191 00d0 83308100 		ld	ra,8(sp)
 192              		.cfi_restore 1
 193 00d4 03340100 		ld	s0,0(sp)
 194              		.cfi_restore 8
 195              		.cfi_def_cfa 2, 16
 196 00d8 13010101 		addi	sp,sp,16
 197              		.cfi_def_cfa_offset 0
 198 00dc 67800000 		jr	ra
 199              		.cfi_endproc
 200              	.LFE14:
 202              		.globl	_ZN11ConditionalC1EP7Monitor
 203              		.set	_ZN11ConditionalC1EP7Monitor,_ZN11ConditionalC2EP7Monitor
 204              		.align	2
 205              		.globl	_ZN11Conditional4waitEv
 207              	_ZN11Conditional4waitEv:
 208              	.LFB16:
  22:src/monitor.cpp **** 
  23:src/monitor.cpp **** void Conditional::wait() {
 209              		.loc 1 23 26 is_stmt 1
 210              		.cfi_startproc
 211              	.LVL13:
 212 00e0 130101FE 		addi	sp,sp,-32
 213              		.cfi_def_cfa_offset 32
 214 00e4 233C1100 		sd	ra,24(sp)
 215 00e8 23388100 		sd	s0,16(sp)
GAS LISTING /tmp/ccDUYufJ.s 			page 5


 216 00ec 23349100 		sd	s1,8(sp)
 217 00f0 23302101 		sd	s2,0(sp)
 218              		.cfi_offset 1, -8
 219              		.cfi_offset 8, -16
 220              		.cfi_offset 9, -24
 221              		.cfi_offset 18, -32
 222 00f4 13040102 		addi	s0,sp,32
 223              		.cfi_def_cfa 8, 0
 224 00f8 93040500 		mv	s1,a0
  24:src/monitor.cpp ****     this->count++;
 225              		.loc 1 24 5
 226              		.loc 1 24 11 is_stmt 0
 227 00fc 83278500 		lw	a5,8(a0)
 228              		.loc 1 24 16
 229 0100 9B871700 		addiw	a5,a5,1
 230 0104 2324F500 		sw	a5,8(a0)
  25:src/monitor.cpp ****     int nesting = this->owner->monitorMutex.relinquish();
 231              		.loc 1 25 5 is_stmt 1
 232              		.loc 1 25 55 is_stmt 0
 233 0108 03350500 		ld	a0,0(a0)
 234              	.LVL14:
 235 010c 97000000 		call	_ZN12MonitorMutex10relinquishEv
 235      E7800000 
 236              	.LVL15:
 237 0114 13090500 		mv	s2,a0
 238              	.LVL16:
  26:src/monitor.cpp ****     Semaphore::signal_and_wait(this->owner->monitorMutex, this->blocker);
 239              		.loc 1 26 5 is_stmt 1
 240              		.loc 1 26 31 is_stmt 0
 241 0118 93850401 		addi	a1,s1,16
 242 011c 03B50400 		ld	a0,0(s1)
 243 0120 97000000 		call	_ZN9Semaphore15signal_and_waitERS_S0_@plt
 243      E7800000 
 244              	.LVL17:
  27:src/monitor.cpp ****     this->owner->monitorMutex.reacquire(nesting);
 245              		.loc 1 27 5 is_stmt 1
 246              		.loc 1 27 40 is_stmt 0
 247 0128 93050900 		mv	a1,s2
 248 012c 03B50400 		ld	a0,0(s1)
 249 0130 97000000 		call	_ZN12MonitorMutex9reacquireEi
 249      E7800000 
 250              	.LVL18:
  28:src/monitor.cpp ****     this->owner->monitorMutex.wait();
 251              		.loc 1 28 5 is_stmt 1
 252              		.loc 1 28 35 is_stmt 0
 253 0138 03B50400 		ld	a0,0(s1)
 254 013c 97000000 		call	_ZN10OwnedMutex4waitEv@plt
 254      E7800000 
 255              	.LVL19:
  29:src/monitor.cpp **** }
 256              		.loc 1 29 1
 257 0144 83308101 		ld	ra,24(sp)
 258              		.cfi_restore 1
 259 0148 03340101 		ld	s0,16(sp)
 260              		.cfi_restore 8
 261              		.cfi_def_cfa 2, 32
 262 014c 83348100 		ld	s1,8(sp)
GAS LISTING /tmp/ccDUYufJ.s 			page 6


 263              		.cfi_restore 9
 264              	.LVL20:
 265 0150 03390100 		ld	s2,0(sp)
 266              		.cfi_restore 18
 267              	.LVL21:
 268 0154 13010102 		addi	sp,sp,32
 269              		.cfi_def_cfa_offset 0
 270 0158 67800000 		jr	ra
 271              		.cfi_endproc
 272              	.LFE16:
 274              		.align	2
 275              		.globl	_ZN11Conditional6signalEv
 277              	_ZN11Conditional6signalEv:
 278              	.LFB17:
  30:src/monitor.cpp **** 
  31:src/monitor.cpp **** void Conditional::signal() {
 279              		.loc 1 31 28 is_stmt 1
 280              		.cfi_startproc
 281              	.LVL22:
  32:src/monitor.cpp ****     if (this->count == 0) return;
 282              		.loc 1 32 5
 283              		.loc 1 32 15 is_stmt 0
 284 015c 83278500 		lw	a5,8(a0)
 285              		.loc 1 32 5
 286 0160 63940700 		bnez	a5,.L19
 287 0164 67800000 		ret
 288              	.L19:
  31:src/monitor.cpp ****     if (this->count == 0) return;
 289              		.loc 1 31 28
 290 0168 130101FE 		addi	sp,sp,-32
 291              		.cfi_def_cfa_offset 32
 292 016c 233C1100 		sd	ra,24(sp)
 293 0170 23388100 		sd	s0,16(sp)
 294 0174 23349100 		sd	s1,8(sp)
 295              		.cfi_offset 1, -8
 296              		.cfi_offset 8, -16
 297              		.cfi_offset 9, -24
 298 0178 13040102 		addi	s0,sp,32
 299              		.cfi_def_cfa 8, 0
 300 017c 93040500 		mv	s1,a0
  33:src/monitor.cpp ****     this->blocker.signal();
 301              		.loc 1 33 5 is_stmt 1
 302              		.loc 1 33 25 is_stmt 0
 303 0180 13050501 		addi	a0,a0,16
 304              	.LVL23:
 305 0184 97000000 		call	_ZN9Semaphore6signalEv@plt
 305      E7800000 
 306              	.LVL24:
  34:src/monitor.cpp ****     this->count--;
 307              		.loc 1 34 5 is_stmt 1
 308              		.loc 1 34 11 is_stmt 0
 309 018c 83A78400 		lw	a5,8(s1)
 310              		.loc 1 34 16
 311 0190 9B87F7FF 		addiw	a5,a5,-1
 312 0194 23A4F400 		sw	a5,8(s1)
  35:src/monitor.cpp **** }
 313              		.loc 1 35 1
GAS LISTING /tmp/ccDUYufJ.s 			page 7


 314 0198 83308101 		ld	ra,24(sp)
 315              		.cfi_restore 1
 316 019c 03340101 		ld	s0,16(sp)
 317              		.cfi_restore 8
 318              		.cfi_def_cfa 2, 32
 319 01a0 83348100 		ld	s1,8(sp)
 320              		.cfi_restore 9
 321              	.LVL25:
 322 01a4 13010102 		addi	sp,sp,32
 323              		.cfi_def_cfa_offset 0
 324 01a8 67800000 		jr	ra
 325              		.cfi_endproc
 326              	.LFE17:
 328              		.align	2
 329              		.globl	_ZN11Conditional9signalAllEv
 331              	_ZN11Conditional9signalAllEv:
 332              	.LFB18:
  36:src/monitor.cpp **** 
  37:src/monitor.cpp **** void Conditional::signalAll() {
 333              		.loc 1 37 31 is_stmt 1
 334              		.cfi_startproc
 335              	.LVL26:
 336 01ac 130101FE 		addi	sp,sp,-32
 337              		.cfi_def_cfa_offset 32
 338 01b0 233C1100 		sd	ra,24(sp)
 339 01b4 23388100 		sd	s0,16(sp)
 340 01b8 23349100 		sd	s1,8(sp)
 341 01bc 23302101 		sd	s2,0(sp)
 342              		.cfi_offset 1, -8
 343              		.cfi_offset 8, -16
 344              		.cfi_offset 9, -24
 345              		.cfi_offset 18, -32
 346 01c0 13040102 		addi	s0,sp,32
 347              		.cfi_def_cfa 8, 0
 348 01c4 13090500 		mv	s2,a0
  38:src/monitor.cpp ****     for (unsigned int i = 0; i < this->count; i++)
 349              		.loc 1 38 5
 350              	.LVL27:
 351              	.LBB5:
 352              		.loc 1 38 23 is_stmt 0
 353 01c8 93040000 		li	s1,0
 354              	.LVL28:
 355              	.L22:
 356              		.loc 1 38 32 is_stmt 1 discriminator 3
 357              		.loc 1 38 40 is_stmt 0 discriminator 3
 358 01cc 83278900 		lw	a5,8(s2)
 359              		.loc 1 38 32 discriminator 3
 360 01d0 63FCF400 		bleu	a5,s1,.L21
  39:src/monitor.cpp ****         this->blocker.signal();
 361              		.loc 1 39 9 is_stmt 1 discriminator 2
 362              		.loc 1 39 29 is_stmt 0 discriminator 2
 363 01d4 13050901 		addi	a0,s2,16
 364 01d8 97000000 		call	_ZN9Semaphore6signalEv@plt
 364      E7800000 
 365              	.LVL29:
  38:src/monitor.cpp ****     for (unsigned int i = 0; i < this->count; i++)
 366              		.loc 1 38 5 is_stmt 1 discriminator 2
GAS LISTING /tmp/ccDUYufJ.s 			page 8


 367 01e0 9B841400 		addiw	s1,s1,1
 368              	.LVL30:
 369 01e4 6FF09FFE 		j	.L22
 370              	.LVL31:
 371              	.L21:
 372              	.LBE5:
  40:src/monitor.cpp ****     this->count = 0;
 373              		.loc 1 40 5
 374              		.loc 1 40 17 is_stmt 0
 375 01e8 23240900 		sw	zero,8(s2)
  41:src/monitor.cpp **** }...
 376              		.loc 1 41 1
 377 01ec 83308101 		ld	ra,24(sp)
 378              		.cfi_restore 1
 379 01f0 03340101 		ld	s0,16(sp)
 380              		.cfi_restore 8
 381              		.cfi_def_cfa 2, 32
 382 01f4 83348100 		ld	s1,8(sp)
 383              		.cfi_restore 9
 384              	.LVL32:
 385 01f8 03390100 		ld	s2,0(sp)
 386              		.cfi_restore 18
 387              	.LVL33:
 388 01fc 13010102 		addi	sp,sp,32
 389              		.cfi_def_cfa_offset 0
 390 0200 67800000 		jr	ra
 391              		.cfi_endproc
 392              	.LFE18:
 394              	.Letext0:
 395              		.file 2 "src/../h/../lib/hw.h"
 396              		.file 3 "src/../h/monitor.hpp"
 397              		.file 4 "src/../h/syscall_cpp.hpp"
 398              		.file 5 "src/../h/syscall_c.hpp"
 1995              		.align	3
 1998              	DW.ref.__gxx_personality_v0:
 1999 0000 00000000 		.dword	__gxx_personality_v0
 1999      00000000 
 2000              		.ident	"GCC: (Ubuntu 9.4.0-1ubuntu1~20.04) 9.4.0"
 2001              		.section	.note.GNU-stack,"",@progbits
GAS LISTING /tmp/ccDUYufJ.s 			page 9


DEFINED SYMBOLS
                            *ABS*:0000000000000000 monitor.cpp
     /tmp/ccDUYufJ.s:9      .text:0000000000000000 _ZN12MonitorMutex10relinquishEv
     /tmp/ccDUYufJ.s:13     .text:0000000000000000 .L0 
     /tmp/ccDUYufJ.s:15     .text:0000000000000000 .L0 
     /tmp/ccDUYufJ.s:16     .text:0000000000000004 .L0 
     /tmp/ccDUYufJ.s:18     .text:0000000000000008 .L0 
     /tmp/ccDUYufJ.s:20     .text:000000000000000c .L0 
     /tmp/ccDUYufJ.s:23     .text:0000000000000010 .L0 
     /tmp/ccDUYufJ.s:24     .text:0000000000000010 .L0 
     /tmp/ccDUYufJ.s:27     .text:0000000000000014 .L0 
     /tmp/ccDUYufJ.s:28     .text:0000000000000014 .L0 
     /tmp/ccDUYufJ.s:31     .text:000000000000001c .L0 
     /tmp/ccDUYufJ.s:32     .text:000000000000001c .L0 
     /tmp/ccDUYufJ.s:33     .text:0000000000000020 .L0 
     /tmp/ccDUYufJ.s:34     .text:0000000000000020 .L0 
     /tmp/ccDUYufJ.s:36     .text:0000000000000024 .L0 
     /tmp/ccDUYufJ.s:38     .text:0000000000000028 .L0 
     /tmp/ccDUYufJ.s:44     .text:0000000000000028 _ZN12MonitorMutex9reacquireEi
     /tmp/ccDUYufJ.s:47     .text:0000000000000028 .L0 
     /tmp/ccDUYufJ.s:49     .text:0000000000000028 .L0 
     /tmp/ccDUYufJ.s:50     .text:000000000000002c .L0 
     /tmp/ccDUYufJ.s:52     .text:0000000000000030 .L0 
     /tmp/ccDUYufJ.s:54     .text:0000000000000034 .L0 
     /tmp/ccDUYufJ.s:56     .text:0000000000000034 .L0 
     /tmp/ccDUYufJ.s:57     .text:0000000000000034 .L0 
     /tmp/ccDUYufJ.s:59     .text:0000000000000038 .L0 
     /tmp/ccDUYufJ.s:60     .text:000000000000003c .L0 
     /tmp/ccDUYufJ.s:61     .text:000000000000003c .L0 
     /tmp/ccDUYufJ.s:63     .text:0000000000000040 .L0 
     /tmp/ccDUYufJ.s:65     .text:0000000000000044 .L0 
     /tmp/ccDUYufJ.s:71     .text:0000000000000044 _ZN11MonitorLockC2ER12MonitorMutex
     /tmp/ccDUYufJ.s:74     .text:0000000000000044 .L0 
     /tmp/ccDUYufJ.s:76     .text:0000000000000044 .L0 
     /tmp/ccDUYufJ.s:77     .text:0000000000000048 .L0 
     /tmp/ccDUYufJ.s:80     .text:0000000000000050 .L0 
     /tmp/ccDUYufJ.s:81     .text:0000000000000050 .L0 
     /tmp/ccDUYufJ.s:83     .text:0000000000000054 .L0 
     /tmp/ccDUYufJ.s:86     .text:0000000000000054 .L0 
     /tmp/ccDUYufJ.s:88     .text:0000000000000058 .L0 
     /tmp/ccDUYufJ.s:89     .text:0000000000000058 .L0 
     /tmp/ccDUYufJ.s:92     .text:0000000000000060 .L0 
     /tmp/ccDUYufJ.s:98     .text:0000000000000068 .L0 
     /tmp/ccDUYufJ.s:99     .text:000000000000006c .L0 
     /tmp/ccDUYufJ.s:101    .text:0000000000000070 .L0 
     /tmp/ccDUYufJ.s:102    .text:0000000000000070 .L0 
     /tmp/ccDUYufJ.s:104    .text:0000000000000074 .L0 
     /tmp/ccDUYufJ.s:106    .text:0000000000000078 .L0 
     /tmp/ccDUYufJ.s:71     .text:0000000000000044 _ZN11MonitorLockC1ER12MonitorMutex
     /tmp/ccDUYufJ.s:114    .text:0000000000000078 _ZN11MonitorLockD2Ev
     /tmp/ccDUYufJ.s:117    .text:0000000000000078 .L0 
     /tmp/ccDUYufJ.s:1998   .data.rel.local.DW.ref.__gxx_personality_v0:0000000000000000 DW.ref.__gxx_personality_v0
     /tmp/ccDUYufJ.s:121    .text:0000000000000078 .L0 
     /tmp/ccDUYufJ.s:122    .text:000000000000007c .L0 
     /tmp/ccDUYufJ.s:125    .text:0000000000000084 .L0 
     /tmp/ccDUYufJ.s:126    .text:0000000000000084 .L0 
     /tmp/ccDUYufJ.s:128    .text:0000000000000088 .L0 
GAS LISTING /tmp/ccDUYufJ.s 			page 10


     /tmp/ccDUYufJ.s:131    .text:0000000000000088 .L0 
     /tmp/ccDUYufJ.s:132    .text:0000000000000088 .L0 
     /tmp/ccDUYufJ.s:135    .text:000000000000008c .L0 
     /tmp/ccDUYufJ.s:138    .text:0000000000000094 .L0 
     /tmp/ccDUYufJ.s:142    .text:0000000000000098 .L0 
     /tmp/ccDUYufJ.s:143    .text:000000000000009c .L0 
     /tmp/ccDUYufJ.s:145    .text:00000000000000a0 .L0 
     /tmp/ccDUYufJ.s:146    .text:00000000000000a0 .L0 
     /tmp/ccDUYufJ.s:148    .text:00000000000000a4 .L0 
     /tmp/ccDUYufJ.s:150    .text:00000000000000a8 .L0 
     /tmp/ccDUYufJ.s:114    .text:0000000000000078 _ZN11MonitorLockD1Ev
     /tmp/ccDUYufJ.s:166    .text:00000000000000a8 _ZN11ConditionalC2EP7Monitor
     /tmp/ccDUYufJ.s:169    .text:00000000000000a8 .L0 
     /tmp/ccDUYufJ.s:171    .text:00000000000000a8 .L0 
     /tmp/ccDUYufJ.s:172    .text:00000000000000ac .L0 
     /tmp/ccDUYufJ.s:175    .text:00000000000000b4 .L0 
     /tmp/ccDUYufJ.s:176    .text:00000000000000b4 .L0 
     /tmp/ccDUYufJ.s:178    .text:00000000000000b8 .L0 
     /tmp/ccDUYufJ.s:181    .text:00000000000000b8 .L0 
     /tmp/ccDUYufJ.s:191    .text:00000000000000d0 .L0 
     /tmp/ccDUYufJ.s:192    .text:00000000000000d4 .L0 
     /tmp/ccDUYufJ.s:194    .text:00000000000000d8 .L0 
     /tmp/ccDUYufJ.s:195    .text:00000000000000d8 .L0 
     /tmp/ccDUYufJ.s:197    .text:00000000000000dc .L0 
     /tmp/ccDUYufJ.s:199    .text:00000000000000e0 .L0 
     /tmp/ccDUYufJ.s:166    .text:00000000000000a8 _ZN11ConditionalC1EP7Monitor
     /tmp/ccDUYufJ.s:207    .text:00000000000000e0 _ZN11Conditional4waitEv
     /tmp/ccDUYufJ.s:210    .text:00000000000000e0 .L0 
     /tmp/ccDUYufJ.s:212    .text:00000000000000e0 .L0 
     /tmp/ccDUYufJ.s:213    .text:00000000000000e4 .L0 
     /tmp/ccDUYufJ.s:218    .text:00000000000000f4 .L0 
     /tmp/ccDUYufJ.s:219    .text:00000000000000f4 .L0 
     /tmp/ccDUYufJ.s:220    .text:00000000000000f4 .L0 
     /tmp/ccDUYufJ.s:221    .text:00000000000000f4 .L0 
     /tmp/ccDUYufJ.s:223    .text:00000000000000f8 .L0 
     /tmp/ccDUYufJ.s:226    .text:00000000000000fc .L0 
     /tmp/ccDUYufJ.s:227    .text:00000000000000fc .L0 
     /tmp/ccDUYufJ.s:229    .text:0000000000000100 .L0 
     /tmp/ccDUYufJ.s:232    .text:0000000000000108 .L0 
     /tmp/ccDUYufJ.s:233    .text:0000000000000108 .L0 
     /tmp/ccDUYufJ.s:240    .text:0000000000000118 .L0 
     /tmp/ccDUYufJ.s:241    .text:0000000000000118 .L0 
     /tmp/ccDUYufJ.s:246    .text:0000000000000128 .L0 
     /tmp/ccDUYufJ.s:247    .text:0000000000000128 .L0 
     /tmp/ccDUYufJ.s:252    .text:0000000000000138 .L0 
     /tmp/ccDUYufJ.s:253    .text:0000000000000138 .L0 
     /tmp/ccDUYufJ.s:257    .text:0000000000000144 .L0 
     /tmp/ccDUYufJ.s:258    .text:0000000000000148 .L0 
     /tmp/ccDUYufJ.s:260    .text:000000000000014c .L0 
     /tmp/ccDUYufJ.s:261    .text:000000000000014c .L0 
     /tmp/ccDUYufJ.s:263    .text:0000000000000150 .L0 
     /tmp/ccDUYufJ.s:266    .text:0000000000000154 .L0 
     /tmp/ccDUYufJ.s:269    .text:0000000000000158 .L0 
     /tmp/ccDUYufJ.s:271    .text:000000000000015c .L0 
     /tmp/ccDUYufJ.s:277    .text:000000000000015c _ZN11Conditional6signalEv
     /tmp/ccDUYufJ.s:280    .text:000000000000015c .L0 
     /tmp/ccDUYufJ.s:282    .text:000000000000015c .L0 
GAS LISTING /tmp/ccDUYufJ.s 			page 11


     /tmp/ccDUYufJ.s:283    .text:000000000000015c .L0 
     /tmp/ccDUYufJ.s:284    .text:000000000000015c .L0 
     /tmp/ccDUYufJ.s:286    .text:0000000000000160 .L0 
     /tmp/ccDUYufJ.s:290    .text:0000000000000168 .L0 
     /tmp/ccDUYufJ.s:291    .text:000000000000016c .L0 
     /tmp/ccDUYufJ.s:295    .text:0000000000000178 .L0 
     /tmp/ccDUYufJ.s:296    .text:0000000000000178 .L0 
     /tmp/ccDUYufJ.s:297    .text:0000000000000178 .L0 
     /tmp/ccDUYufJ.s:299    .text:000000000000017c .L0 
     /tmp/ccDUYufJ.s:302    .text:0000000000000180 .L0 
     /tmp/ccDUYufJ.s:303    .text:0000000000000180 .L0 
     /tmp/ccDUYufJ.s:308    .text:000000000000018c .L0 
     /tmp/ccDUYufJ.s:309    .text:000000000000018c .L0 
     /tmp/ccDUYufJ.s:311    .text:0000000000000190 .L0 
     /tmp/ccDUYufJ.s:314    .text:0000000000000198 .L0 
     /tmp/ccDUYufJ.s:315    .text:000000000000019c .L0 
     /tmp/ccDUYufJ.s:317    .text:00000000000001a0 .L0 
     /tmp/ccDUYufJ.s:318    .text:00000000000001a0 .L0 
     /tmp/ccDUYufJ.s:320    .text:00000000000001a4 .L0 
     /tmp/ccDUYufJ.s:323    .text:00000000000001a8 .L0 
     /tmp/ccDUYufJ.s:325    .text:00000000000001ac .L0 
     /tmp/ccDUYufJ.s:331    .text:00000000000001ac _ZN11Conditional9signalAllEv
     /tmp/ccDUYufJ.s:334    .text:00000000000001ac .L0 
     /tmp/ccDUYufJ.s:336    .text:00000000000001ac .L0 
     /tmp/ccDUYufJ.s:337    .text:00000000000001b0 .L0 
     /tmp/ccDUYufJ.s:342    .text:00000000000001c0 .L0 
     /tmp/ccDUYufJ.s:343    .text:00000000000001c0 .L0 
     /tmp/ccDUYufJ.s:344    .text:00000000000001c0 .L0 
     /tmp/ccDUYufJ.s:345    .text:00000000000001c0 .L0 
     /tmp/ccDUYufJ.s:347    .text:00000000000001c4 .L0 
     /tmp/ccDUYufJ.s:352    .text:00000000000001c8 .L0 
     /tmp/ccDUYufJ.s:353    .text:00000000000001c8 .L0 
     /tmp/ccDUYufJ.s:357    .text:00000000000001cc .L0 
     /tmp/ccDUYufJ.s:358    .text:00000000000001cc .L0 
     /tmp/ccDUYufJ.s:360    .text:00000000000001d0 .L0 
     /tmp/ccDUYufJ.s:362    .text:00000000000001d4 .L0 
     /tmp/ccDUYufJ.s:363    .text:00000000000001d4 .L0 
     /tmp/ccDUYufJ.s:367    .text:00000000000001e0 .L0 
     /tmp/ccDUYufJ.s:374    .text:00000000000001e8 .L0 
     /tmp/ccDUYufJ.s:375    .text:00000000000001e8 .L0 
     /tmp/ccDUYufJ.s:377    .text:00000000000001ec .L0 
     /tmp/ccDUYufJ.s:378    .text:00000000000001f0 .L0 
     /tmp/ccDUYufJ.s:380    .text:00000000000001f4 .L0 
     /tmp/ccDUYufJ.s:381    .text:00000000000001f4 .L0 
     /tmp/ccDUYufJ.s:383    .text:00000000000001f8 .L0 
     /tmp/ccDUYufJ.s:386    .text:00000000000001fc .L0 
     /tmp/ccDUYufJ.s:389    .text:0000000000000200 .L0 
     /tmp/ccDUYufJ.s:391    .text:0000000000000204 .L0 
     /tmp/ccDUYufJ.s:399    .text:0000000000000204 .L0 
     /tmp/ccDUYufJ.s:288    .text:0000000000000168 .L19
     /tmp/ccDUYufJ.s:371    .text:00000000000001e8 .L21
     /tmp/ccDUYufJ.s:355    .text:00000000000001cc .L22
     /tmp/ccDUYufJ.s:1022   .debug_abbrev:0000000000000000 .Ldebug_abbrev0
     /tmp/ccDUYufJ.s:1978   .debug_str:0000000000000311 .LASF52
     /tmp/ccDUYufJ.s:1896   .debug_str:000000000000005e .LASF53
     /tmp/ccDUYufJ.s:1920   .debug_str:0000000000000124 .LASF54
     /tmp/ccDUYufJ.s:5      .text:0000000000000000 .Ltext0
GAS LISTING /tmp/ccDUYufJ.s 			page 12


     /tmp/ccDUYufJ.s:394    .text:0000000000000204 .Letext0
     /tmp/ccDUYufJ.s:1880   .debug_line:0000000000000000 .Ldebug_line0
     /tmp/ccDUYufJ.s:1944   .debug_str:00000000000001ee .LASF0
     /tmp/ccDUYufJ.s:1950   .debug_str:000000000000021e .LASF1
     /tmp/ccDUYufJ.s:1938   .debug_str:00000000000001c7 .LASF2
     /tmp/ccDUYufJ.s:1934   .debug_str:00000000000001b6 .LASF4
     /tmp/ccDUYufJ.s:1972   .debug_str:00000000000002d6 .LASF3
     /tmp/ccDUYufJ.s:1894   .debug_str:0000000000000057 .LASF5
     /tmp/ccDUYufJ.s:1952   .debug_str:0000000000000231 .LASF6
     /tmp/ccDUYufJ.s:1942   .debug_str:00000000000001db .LASF7
     /tmp/ccDUYufJ.s:1984   .debug_str:0000000000000407 .LASF8
     /tmp/ccDUYufJ.s:1928   .debug_str:000000000000017a .LASF9
     /tmp/ccDUYufJ.s:1960   .debug_str:000000000000026d .LASF10
     /tmp/ccDUYufJ.s:1980   .debug_str:00000000000003d5 .LASF11
     /tmp/ccDUYufJ.s:1898   .debug_str:000000000000006e .LASF12
     /tmp/ccDUYufJ.s:1888   .debug_str:000000000000002a .LASF13
     /tmp/ccDUYufJ.s:1902   .debug_str:000000000000008b .LASF14
     /tmp/ccDUYufJ.s:1970   .debug_str:00000000000002c0 .LASF15
     /tmp/ccDUYufJ.s:1910   .debug_str:00000000000000c7 .LASF16
     /tmp/ccDUYufJ.s:1954   .debug_str:0000000000000244 .LASF17
     /tmp/ccDUYufJ.s:1906   .debug_str:00000000000000b1 .LASF24
     /tmp/ccDUYufJ.s:1982   .debug_str:00000000000003e4 .LASF27
     /tmp/ccDUYufJ.s:1900   .debug_str:000000000000007e .LASF18
     /tmp/ccDUYufJ.s:1914   .debug_str:00000000000000ed .LASF20
     /tmp/ccDUYufJ.s:1986   .debug_str:0000000000000417 .LASF35
     /tmp/ccDUYufJ.s:1926   .debug_str:000000000000016d .LASF39
     /tmp/ccDUYufJ.s:1882   .debug_str:0000000000000000 .LASF19
     /tmp/ccDUYufJ.s:1966   .debug_str:000000000000028b .LASF21
     /tmp/ccDUYufJ.s:1924   .debug_str:0000000000000162 .LASF22
     /tmp/ccDUYufJ.s:1922   .debug_str:0000000000000142 .LASF23
     /tmp/ccDUYufJ.s:1990   .debug_str:0000000000000430 .LASF25
     /tmp/ccDUYufJ.s:1988   .debug_str:0000000000000424 .LASF26
     /tmp/ccDUYufJ.s:1946   .debug_str:00000000000001fb .LASF28
     /tmp/ccDUYufJ.s:1918   .debug_str:000000000000011f .LASF29
     /tmp/ccDUYufJ.s:1886   .debug_str:0000000000000012 .LASF30
     /tmp/ccDUYufJ.s:1956   .debug_str:0000000000000249 .LASF31
     /tmp/ccDUYufJ.s:1904   .debug_str:0000000000000097 .LASF32
     /tmp/ccDUYufJ.s:1908   .debug_str:00000000000000bd .LASF33
     /tmp/ccDUYufJ.s:1958   .debug_str:0000000000000250 .LASF34
     /tmp/ccDUYufJ.s:1940   .debug_str:00000000000001d5 .LASF36
     /tmp/ccDUYufJ.s:1976   .debug_str:000000000000030b .LASF37
     /tmp/ccDUYufJ.s:1892   .debug_str:000000000000004f .LASF38
     /tmp/ccDUYufJ.s:1936   .debug_str:00000000000001bd .LASF40
     /tmp/ccDUYufJ.s:1968   .debug_str:00000000000002a9 .LASF41
     /tmp/ccDUYufJ.s:1932   .debug_str:0000000000000190 .LASF42
     /tmp/ccDUYufJ.s:1912   .debug_str:00000000000000dd .LASF43
     /tmp/ccDUYufJ.s:332    .text:00000000000001ac .LFB18
     /tmp/ccDUYufJ.s:392    .text:0000000000000204 .LFE18
     /tmp/ccDUYufJ.s:1964   .debug_str:0000000000000286 .LASF44
     /tmp/ccDUYufJ.s:1693   .debug_loc:0000000000000000 .LLST9
     /tmp/ccDUYufJ.s:351    .text:00000000000001c8 .LBB5
     /tmp/ccDUYufJ.s:372    .text:00000000000001e8 .LBE5
     /tmp/ccDUYufJ.s:1711   .debug_loc:000000000000004c .LLST10
     /tmp/ccDUYufJ.s:365    .text:00000000000001e0 .LVL29
     /tmp/ccDUYufJ.s:278    .text:000000000000015c .LFB17
     /tmp/ccDUYufJ.s:326    .text:00000000000001ac .LFE17
     /tmp/ccDUYufJ.s:1727   .debug_loc:0000000000000096 .LLST8
GAS LISTING /tmp/ccDUYufJ.s 			page 13


     /tmp/ccDUYufJ.s:306    .text:000000000000018c .LVL24
     /tmp/ccDUYufJ.s:208    .text:00000000000000e0 .LFB16
     /tmp/ccDUYufJ.s:272    .text:000000000000015c .LFE16
     /tmp/ccDUYufJ.s:1745   .debug_loc:00000000000000e2 .LLST6
     /tmp/ccDUYufJ.s:1884   .debug_str:000000000000000a .LASF45
     /tmp/ccDUYufJ.s:1763   .debug_loc:000000000000012e .LLST7
     /tmp/ccDUYufJ.s:236    .text:0000000000000114 .LVL15
     /tmp/ccDUYufJ.s:244    .text:0000000000000128 .LVL17
     /tmp/ccDUYufJ.s:250    .text:0000000000000138 .LVL18
     /tmp/ccDUYufJ.s:255    .text:0000000000000144 .LVL19
     /tmp/ccDUYufJ.s:1930   .debug_str:0000000000000188 .LASF49
     /tmp/ccDUYufJ.s:1916   .debug_str:0000000000000102 .LASF47
     /tmp/ccDUYufJ.s:167    .text:00000000000000a8 .LFB14
     /tmp/ccDUYufJ.s:200    .text:00000000000000e0 .LFE14
     /tmp/ccDUYufJ.s:1770   .debug_loc:0000000000000151 .LLST4
     /tmp/ccDUYufJ.s:1790   .debug_loc:000000000000019f .LLST5
     /tmp/ccDUYufJ.s:188    .text:00000000000000d0 .LVL12
     /tmp/ccDUYufJ.s:1962   .debug_str:000000000000027c .LASF46
     /tmp/ccDUYufJ.s:1890   .debug_str:000000000000003a .LASF48
     /tmp/ccDUYufJ.s:115    .text:0000000000000078 .LFB11
     /tmp/ccDUYufJ.s:151    .text:00000000000000a8 .LFE11
     /tmp/ccDUYufJ.s:1814   .debug_loc:0000000000000200 .LLST3
     /tmp/ccDUYufJ.s:1948   .debug_str:0000000000000218 .LASF50
     /tmp/ccDUYufJ.s:1974   .debug_str:00000000000002e8 .LASF51
     /tmp/ccDUYufJ.s:72     .text:0000000000000044 .LFB8
     /tmp/ccDUYufJ.s:107    .text:0000000000000078 .LFE8
     /tmp/ccDUYufJ.s:1828   .debug_loc:0000000000000239 .LLST1
     /tmp/ccDUYufJ.s:1842   .debug_loc:0000000000000272 .LLST2
     /tmp/ccDUYufJ.s:95     .text:0000000000000068 .LVL5
     /tmp/ccDUYufJ.s:45     .text:0000000000000028 .LFB6
     /tmp/ccDUYufJ.s:66     .text:0000000000000044 .LFE6
     /tmp/ccDUYufJ.s:10     .text:0000000000000000 .LFB5
     /tmp/ccDUYufJ.s:39     .text:0000000000000028 .LFE5
     /tmp/ccDUYufJ.s:1856   .debug_loc:00000000000002ab .LLST0
     /tmp/ccDUYufJ.s:335    .text:00000000000001ac .LVL26
     /tmp/ccDUYufJ.s:354    .text:00000000000001cc .LVL28
     /tmp/ccDUYufJ.s:387    .text:00000000000001fc .LVL33
     /tmp/ccDUYufJ.s:350    .text:00000000000001c8 .LVL27
     /tmp/ccDUYufJ.s:368    .text:00000000000001e4 .LVL30
     /tmp/ccDUYufJ.s:370    .text:00000000000001e8 .LVL31
     /tmp/ccDUYufJ.s:384    .text:00000000000001f8 .LVL32
     /tmp/ccDUYufJ.s:281    .text:000000000000015c .LVL22
     /tmp/ccDUYufJ.s:304    .text:0000000000000184 .LVL23
     /tmp/ccDUYufJ.s:321    .text:00000000000001a4 .LVL25
     /tmp/ccDUYufJ.s:211    .text:00000000000000e0 .LVL13
     /tmp/ccDUYufJ.s:234    .text:000000000000010c .LVL14
     /tmp/ccDUYufJ.s:264    .text:0000000000000150 .LVL20
     /tmp/ccDUYufJ.s:238    .text:0000000000000118 .LVL16
     /tmp/ccDUYufJ.s:267    .text:0000000000000154 .LVL21
     /tmp/ccDUYufJ.s:170    .text:00000000000000a8 .LVL9
     /tmp/ccDUYufJ.s:186    .text:00000000000000c8 .LVL11
     /tmp/ccDUYufJ.s:184    .text:00000000000000c4 .LVL10
     /tmp/ccDUYufJ.s:120    .text:0000000000000078 .LVL6
     /tmp/ccDUYufJ.s:133    .text:000000000000008c .LVL7
     /tmp/ccDUYufJ.s:75     .text:0000000000000044 .LVL3
     /tmp/ccDUYufJ.s:93     .text:0000000000000064 .LVL4
     /tmp/ccDUYufJ.s:14     .text:0000000000000000 .LVL0
GAS LISTING /tmp/ccDUYufJ.s 			page 14


     /tmp/ccDUYufJ.s:25     .text:0000000000000014 .LVL1
     /tmp/ccDUYufJ.s:400    .debug_info:0000000000000000 .Ldebug_info0
     /tmp/ccDUYufJ.s:154    .gcc_except_table:0000000000000000 .LLSDA11

UNDEFINED SYMBOLS
__gxx_personality_v0
_ZN9SemaphoreC1Ej
_ZN9Semaphore15signal_and_waitERS_S0_
_ZN10OwnedMutex4waitEv
_ZN9Semaphore6signalEv
