GAS LISTING /tmp/cclWgKMm.s 			page 1


   1              		.file	"riscv.cpp"
   2              		.option pic
   3              		.option norelax
   4              		.text
   5              	.Ltext0:
   6              		.section	.rodata.str1.8,"aMS",@progbits,1
   7              		.align	3
   8              	.LC0:
   9 0000 0A00     		.string	"\n"
  10 0002 00000000 		.align	3
  10      0000
  11              	.LC1:
  12 0008 73657063 		.string	"sepc:   "
  12      3A202020 
  12      00
  13 0011 00000000 		.align	3
  13      000000
  14              	.LC2:
  15 0018 745F6964 		.string	"t_id:   "
  15      3A202020 
  15      00
  16              		.text
  17              		.align	2
  18              		.globl	_ZN5riscv15handleExceptionERKN3stm6stringE
  20              	_ZN5riscv15handleExceptionERKN3stm6stringE:
  21              	.LFB64:
  22              		.file 1 "src/riscv.cpp"
   1:src/riscv.cpp **** #include "../lib/hw.h"
   2:src/riscv.cpp **** #include "../h/c_thread.hpp"
   3:src/riscv.cpp **** #include "../h/c_semaphore.hpp"
   4:src/riscv.cpp **** #include "../h/riscv.hpp"
   5:src/riscv.cpp **** #include "../h/c_console.hpp"
   6:src/riscv.cpp **** #include "../h/c_sleep.hpp"
   7:src/riscv.cpp **** #include "../h/scheduler.hpp"
   8:src/riscv.cpp **** #include "../h/iostream.hpp"
   9:src/riscv.cpp **** 
  10:src/riscv.cpp **** riscv::syscall_f riscv::syscall_table[SYSCALL_COUNT] = {
  11:src/riscv.cpp ****         reinterpret_cast<riscv::syscall_f>(Allocator::_mem_alloc),
  12:src/riscv.cpp ****         reinterpret_cast<riscv::syscall_f>(Allocator::_mem_free),
  13:src/riscv.cpp ****         reinterpret_cast<riscv::syscall_f>(TCB::_thread_create),
  14:src/riscv.cpp ****         reinterpret_cast<riscv::syscall_f>(TCB::_thread_exit),
  15:src/riscv.cpp ****         reinterpret_cast<riscv::syscall_f>(TCB::_thread_dispatch),
  16:src/riscv.cpp ****         reinterpret_cast<riscv::syscall_f>(TCB::_thread_join),
  17:src/riscv.cpp ****         reinterpret_cast<riscv::syscall_f>(TCB::_thread_join_time),
  18:src/riscv.cpp ****         reinterpret_cast<riscv::syscall_f>(TCB::_fork),
  19:src/riscv.cpp ****         reinterpret_cast<riscv::syscall_f>(TCB::_kill),
  20:src/riscv.cpp ****         reinterpret_cast<riscv::syscall_f>(Sem::_sem_open),
  21:src/riscv.cpp ****         reinterpret_cast<riscv::syscall_f>(Sem::_sem_close),
  22:src/riscv.cpp ****         reinterpret_cast<riscv::syscall_f>(Sem::_sem_wait),
  23:src/riscv.cpp ****         reinterpret_cast<riscv::syscall_f>(Sem::_sem_signal),
  24:src/riscv.cpp ****         reinterpret_cast<riscv::syscall_f>(Sem::_sem_signal_all),
  25:src/riscv.cpp ****         reinterpret_cast<riscv::syscall_f>(Sem::_sem_signal_wait),
  26:src/riscv.cpp ****         reinterpret_cast<riscv::syscall_f>(Cradle::_time_sleep),
  27:src/riscv.cpp ****         reinterpret_cast<riscv::syscall_f>(Cradle::_thread_wake),
  28:src/riscv.cpp ****         reinterpret_cast<riscv::syscall_f>(IO::_getc),
  29:src/riscv.cpp ****         reinterpret_cast<riscv::syscall_f>(IO::_putc)
  30:src/riscv.cpp **** };
GAS LISTING /tmp/cclWgKMm.s 			page 2


  31:src/riscv.cpp **** 
  32:src/riscv.cpp **** void riscv::handleException(const stm::string &message) {
  23              		.loc 1 32 57
  24              		.cfi_startproc
  25              	.LVL0:
  26 0000 130101FD 		addi	sp,sp,-48
  27              		.cfi_def_cfa_offset 48
  28 0004 23341102 		sd	ra,40(sp)
  29 0008 23308102 		sd	s0,32(sp)
  30 000c 233C9100 		sd	s1,24(sp)
  31              		.cfi_offset 1, -8
  32              		.cfi_offset 8, -16
  33              		.cfi_offset 9, -24
  34 0010 13040103 		addi	s0,sp,48
  35              		.cfi_def_cfa 8, 0
  36 0014 93040500 		mv	s1,a0
  33:src/riscv.cpp ****     stm::cout << "\n" << message << "\n";
  37              		.loc 1 33 5
  38              		.loc 1 33 18 is_stmt 0
  39 0018 97050000 		lla	a1,.LC0
  39      93850500 
  40 0020 17050000 		la	a0,_ZN3stm4coutE
  40      03350500 
  41              	.LVL1:
  42 0028 97000000 		call	_ZNK3stm7istreamlsEPKc@plt
  42      E7800000 
  43              	.LVL2:
  44              		.loc 1 33 26
  45 0030 93850400 		mv	a1,s1
  46 0034 97000000 		call	_ZNK3stm7istreamlsERKNS_6stringE@plt
  46      E7800000 
  47              	.LVL3:
  48              		.loc 1 33 37
  49 003c 97050000 		lla	a1,.LC0
  49      93850500 
  50 0044 97000000 		call	_ZNK3stm7istreamlsEPKc@plt
  50      E7800000 
  51              	.LVL4:
  34:src/riscv.cpp ****     stm::cout << "sepc:   ";
  52              		.loc 1 34 5 is_stmt 1
  53              		.loc 1 34 18 is_stmt 0
  54 004c 97050000 		lla	a1,.LC1
  54      93850500 
  55 0054 17050000 		la	a0,_ZN3stm4coutE
  55      03350500 
  56 005c 97000000 		call	_ZNK3stm7istreamlsEPKc@plt
  56      E7800000 
  57              	.LVL5:
  35:src/riscv.cpp ****     print_h(r_sepc());
  58              		.loc 1 35 5 is_stmt 1
  59              	.LBB86:
  60              	.LBB87:
  61              		.file 2 "src/../h/riscv.hpp"
   1:src/../h/riscv.hpp **** #ifndef PROJECT_BASE_RISCV_HPP
   2:src/../h/riscv.hpp **** #define PROJECT_BASE_RISCV_HPP
   3:src/../h/riscv.hpp **** 
   4:src/../h/riscv.hpp **** #include "../lib/hw.h"
GAS LISTING /tmp/cclWgKMm.s 			page 3


   5:src/../h/riscv.hpp **** #include "string.hpp"
   6:src/../h/riscv.hpp **** 
   7:src/../h/riscv.hpp **** extern "C" void supervisorTrap();
   8:src/../h/riscv.hpp **** 
   9:src/../h/riscv.hpp **** class riscv {
  10:src/../h/riscv.hpp **** public:
  11:src/../h/riscv.hpp **** 
  12:src/../h/riscv.hpp ****     static void handleSupervisorTrap(uint64, uint64, uint64, uint64, uint64);
  13:src/../h/riscv.hpp **** 
  14:src/../h/riscv.hpp ****     static void handleTimerTrap();
  15:src/../h/riscv.hpp **** 
  16:src/../h/riscv.hpp ****     static void handleReadTrap();
  17:src/../h/riscv.hpp **** 
  18:src/../h/riscv.hpp ****     static void handleWriteTrap();
  19:src/../h/riscv.hpp **** 
  20:src/../h/riscv.hpp ****     static void handleConsoleTrap();
  21:src/../h/riscv.hpp **** 
  22:src/../h/riscv.hpp ****     static void handleException(const stm::string &message);
  23:src/../h/riscv.hpp **** 
  24:src/../h/riscv.hpp ****     static void popSppSpie();
  25:src/../h/riscv.hpp **** 
  26:src/../h/riscv.hpp ****     static int setjump();
  27:src/../h/riscv.hpp **** 
  28:src/../h/riscv.hpp ****     static void longjump();
  29:src/../h/riscv.hpp **** 
  30:src/../h/riscv.hpp ****     static uint64 r_sp();
  31:src/../h/riscv.hpp **** 
  32:src/../h/riscv.hpp ****     // read register scause
  33:src/../h/riscv.hpp ****     static uint64 r_scause();
  34:src/../h/riscv.hpp **** 
  35:src/../h/riscv.hpp ****     // write register scause
  36:src/../h/riscv.hpp ****     static void w_scause(uint64 scause);
  37:src/../h/riscv.hpp **** 
  38:src/../h/riscv.hpp ****     // read register sepc
  39:src/../h/riscv.hpp ****     static uint64 r_sepc();
  40:src/../h/riscv.hpp **** 
  41:src/../h/riscv.hpp ****     // write register sepc
  42:src/../h/riscv.hpp ****     static void w_sepc(uint64 sepc);
  43:src/../h/riscv.hpp **** 
  44:src/../h/riscv.hpp ****     // read register stvec
  45:src/../h/riscv.hpp ****     static uint64 r_stvec();
  46:src/../h/riscv.hpp **** 
  47:src/../h/riscv.hpp ****     // write register stvec
  48:src/../h/riscv.hpp ****     static void w_stvec(uint64 stvec);
  49:src/../h/riscv.hpp **** 
  50:src/../h/riscv.hpp ****     // read register stval
  51:src/../h/riscv.hpp ****     static uint64 r_stval();
  52:src/../h/riscv.hpp **** 
  53:src/../h/riscv.hpp ****     // write register stval
  54:src/../h/riscv.hpp ****     static void w_stval(uint64 stval);
  55:src/../h/riscv.hpp **** 
  56:src/../h/riscv.hpp ****     enum BitMaskSip {
  57:src/../h/riscv.hpp ****         SIP_SSIE = (1 << 1),
  58:src/../h/riscv.hpp ****         SIP_STIE = (1 << 5),
  59:src/../h/riscv.hpp ****         SIP_SEIE = (1 << 9),
  60:src/../h/riscv.hpp ****     };
  61:src/../h/riscv.hpp **** 
GAS LISTING /tmp/cclWgKMm.s 			page 4


  62:src/../h/riscv.hpp ****     // mask set register sip
  63:src/../h/riscv.hpp ****     static void ms_sip(uint64 mask);
  64:src/../h/riscv.hpp **** 
  65:src/../h/riscv.hpp ****     // mask clear register sip
  66:src/../h/riscv.hpp ****     static void mc_sip(uint64 mask);
  67:src/../h/riscv.hpp **** 
  68:src/../h/riscv.hpp ****     // read register sip
  69:src/../h/riscv.hpp ****     static uint64 r_sip();
  70:src/../h/riscv.hpp **** 
  71:src/../h/riscv.hpp ****     // write register sip
  72:src/../h/riscv.hpp ****     static void w_sip(uint64 sip);
  73:src/../h/riscv.hpp **** 
  74:src/../h/riscv.hpp ****     enum BitMaskSstatus {
  75:src/../h/riscv.hpp ****         SSTATUS_SIE = (1 << 1),
  76:src/../h/riscv.hpp ****         SSTATUS_SPIE = (1 << 5),
  77:src/../h/riscv.hpp ****         SSTATUS_SPP = (1 << 8),
  78:src/../h/riscv.hpp ****     };
  79:src/../h/riscv.hpp **** 
  80:src/../h/riscv.hpp ****     // mask set register sstatus
  81:src/../h/riscv.hpp ****     static void ms_sstatus(uint64 mask);
  82:src/../h/riscv.hpp **** 
  83:src/../h/riscv.hpp ****     // mask clear register sstatus
  84:src/../h/riscv.hpp ****     static void mc_sstatus(uint64 mask);
  85:src/../h/riscv.hpp **** 
  86:src/../h/riscv.hpp ****     // read register sstatus
  87:src/../h/riscv.hpp ****     static uint64 r_sstatus();
  88:src/../h/riscv.hpp **** 
  89:src/../h/riscv.hpp ****     // write register sstatus
  90:src/../h/riscv.hpp ****     static void w_sstatus(uint64 sstatus);
  91:src/../h/riscv.hpp **** 
  92:src/../h/riscv.hpp ****     static uint64 r_sscratch();
  93:src/../h/riscv.hpp **** 
  94:src/../h/riscv.hpp **** private:
  95:src/../h/riscv.hpp **** 
  96:src/../h/riscv.hpp ****     enum Scause {
  97:src/../h/riscv.hpp ****         ILLEGAL_INSTRUCTION = 2,
  98:src/../h/riscv.hpp ****     };
  99:src/../h/riscv.hpp **** 
 100:src/../h/riscv.hpp ****     typedef uint64 (*syscall_f)(uint64, uint64, uint64, uint64);
 101:src/../h/riscv.hpp **** 
 102:src/../h/riscv.hpp ****     static syscall_f syscall_table[SYSCALL_COUNT];
 103:src/../h/riscv.hpp **** };
 104:src/../h/riscv.hpp **** 
 105:src/../h/riscv.hpp **** inline uint64 riscv::r_sscratch() {
 106:src/../h/riscv.hpp ****     uint64 volatile sscratch;
 107:src/../h/riscv.hpp ****     __asm__ volatile ("csrr %[scause], scause" : [scause] "=r"(sscratch));
 108:src/../h/riscv.hpp ****     return sscratch;
 109:src/../h/riscv.hpp **** }
 110:src/../h/riscv.hpp **** 
 111:src/../h/riscv.hpp **** inline uint64 riscv::r_scause() {
 112:src/../h/riscv.hpp ****     uint64 volatile scause;
 113:src/../h/riscv.hpp ****     __asm__ volatile ("csrr %[scause], scause" : [scause] "=r"(scause));
 114:src/../h/riscv.hpp ****     return scause;
 115:src/../h/riscv.hpp **** }
 116:src/../h/riscv.hpp **** 
 117:src/../h/riscv.hpp **** inline void riscv::w_scause(uint64 scause) {
 118:src/../h/riscv.hpp ****     __asm__ volatile ("csrw scause, %[scause]" : : [scause] "r"(scause));
GAS LISTING /tmp/cclWgKMm.s 			page 5


 119:src/../h/riscv.hpp **** }
 120:src/../h/riscv.hpp **** 
 121:src/../h/riscv.hpp **** inline uint64 riscv::r_sepc() {
 122:src/../h/riscv.hpp ****     uint64 volatile sepc;
  62              		.loc 2 122 5
 123:src/../h/riscv.hpp ****     __asm__ volatile ("csrr %[sepc], sepc" : [sepc] "=r"(sepc));
  63              		.loc 2 123 5
  64              		.loc 2 123 64 is_stmt 0
  65              	#APP
  66              	# 123 "src/../h/riscv.hpp" 1
 124              	    return sepc;
  67              		csrr a5, sepc
  68              	# 0 "" 2
  69              	#NO_APP
  70 0068 233CF4FC 		sd	a5,-40(s0)
  71              		.loc 2 124 5 is_stmt 1
  72              		.loc 2 124 12 is_stmt 0
  73 006c 033584FD 		ld	a0,-40(s0)
  74              	.LBE87:
  75              	.LBE86:
  76              		.loc 1 35 12
  77 0070 97000000 		call	_Z7print_hm@plt
  77      E7800000 
  78              	.LVL6:
  36:src/riscv.cpp ****     stm::cout << "\n";
  79              		.loc 1 36 5 is_stmt 1
  80              		.loc 1 36 18 is_stmt 0
  81 0078 97050000 		lla	a1,.LC0
  81      93850500 
  82 0080 17050000 		la	a0,_ZN3stm4coutE
  82      03350500 
  83 0088 97000000 		call	_ZNK3stm7istreamlsEPKc@plt
  83      E7800000 
  84              	.LVL7:
  37:src/riscv.cpp ****     stm::cout << "t_id:   " << TCB::running->get_t_id() << "\n";
  85              		.loc 1 37 5 is_stmt 1
  86              		.loc 1 37 18 is_stmt 0
  87 0090 97050000 		lla	a1,.LC2
  87      93850500 
  88 0098 17050000 		la	a0,_ZN3stm4coutE
  88      03350500 
  89 00a0 97000000 		call	_ZNK3stm7istreamlsEPKc@plt
  89      E7800000 
  90              	.LVL8:
  91              		.loc 1 37 55
  92 00a8 97070000 		la	a5,_ZN3TCB7runningE
  92      83B70700 
  93 00b0 83B70700 		ld	a5,0(a5)
  94              	.LVL9:
  95              	.LBB88:
  96              	.LBB89:
  97              		.file 3 "src/../h/c_thread.hpp"
   1:src/../h/c_thread.hpp **** #ifndef PROJECT_BASE_C_THREAD_HPP
   2:src/../h/c_thread.hpp **** #define PROJECT_BASE_C_THREAD_HPP
   3:src/../h/c_thread.hpp **** 
   4:src/../h/c_thread.hpp **** #include "syscall_c.hpp"
   5:src/../h/c_thread.hpp **** #include "../lib/hw.h"
GAS LISTING /tmp/cclWgKMm.s 			page 6


   6:src/../h/c_thread.hpp **** #include "circular_buffer.hpp"
   7:src/../h/c_thread.hpp **** 
   8:src/../h/c_thread.hpp **** using run_t = void (*)(void *);
   9:src/../h/c_thread.hpp **** 
  10:src/../h/c_thread.hpp **** struct Context {
  11:src/../h/c_thread.hpp ****     uint64 ra;
  12:src/../h/c_thread.hpp ****     uint64 sp;
  13:src/../h/c_thread.hpp ****     uint64 sstatus;
  14:src/../h/c_thread.hpp ****     uint64 sepc;
  15:src/../h/c_thread.hpp **** };
  16:src/../h/c_thread.hpp **** 
  17:src/../h/c_thread.hpp **** enum Status {
  18:src/../h/c_thread.hpp ****     RUNNABLE, BLOCKED, SLEEPING, JOINED, FINISHED
  19:src/../h/c_thread.hpp **** };
  20:src/../h/c_thread.hpp **** 
  21:src/../h/c_thread.hpp **** class TCB final {
  22:src/../h/c_thread.hpp **** public:
  23:src/../h/c_thread.hpp ****     static int _thread_create(thread_t *, void(*)(void *), void *, char *);
  24:src/../h/c_thread.hpp **** 
  25:src/../h/c_thread.hpp ****     static void _thread_exit();
  26:src/../h/c_thread.hpp **** 
  27:src/../h/c_thread.hpp ****     static void _thread_dispatch();
  28:src/../h/c_thread.hpp **** 
  29:src/../h/c_thread.hpp ****     static void _thread_join(thread_t);
  30:src/../h/c_thread.hpp **** 
  31:src/../h/c_thread.hpp ****     static void _thread_join_time(thread_t, time_t);
  32:src/../h/c_thread.hpp **** 
  33:src/../h/c_thread.hpp ****     static int _fork();
  34:src/../h/c_thread.hpp **** 
  35:src/../h/c_thread.hpp ****     static int _kill(TCB *);
  36:src/../h/c_thread.hpp **** 
  37:src/../h/c_thread.hpp ****     static void thread_start();
  38:src/../h/c_thread.hpp **** 
  39:src/../h/c_thread.hpp ****     static void fork_wrapper();
  40:src/../h/c_thread.hpp **** 
  41:src/../h/c_thread.hpp ****     static void context_switch(Context *, Context *);
  42:src/../h/c_thread.hpp **** 
  43:src/../h/c_thread.hpp ****     static void context_inherit(Context *);
  44:src/../h/c_thread.hpp **** 
  45:src/../h/c_thread.hpp ****     static TCB *destroy_thread(TCB *);
  46:src/../h/c_thread.hpp **** 
  47:src/../h/c_thread.hpp ****     static void duplicate(TCB *, TCB *);
  48:src/../h/c_thread.hpp **** 
  49:src/../h/c_thread.hpp ****     TCB(run_t, void *, void *, Context);
  50:src/../h/c_thread.hpp **** 
  51:src/../h/c_thread.hpp ****     TCB(TCB &);
  52:src/../h/c_thread.hpp **** 
  53:src/../h/c_thread.hpp ****     bool is_runnable() const { return this->status == RUNNABLE; }
  54:src/../h/c_thread.hpp **** 
  55:src/../h/c_thread.hpp ****     bool is_blocked() const { return this->status == BLOCKED; }
  56:src/../h/c_thread.hpp **** 
  57:src/../h/c_thread.hpp ****     bool is_sleeping() const { return this->status == SLEEPING; }
  58:src/../h/c_thread.hpp **** 
  59:src/../h/c_thread.hpp ****     bool is_joined() const { return this->status == JOINED; }
  60:src/../h/c_thread.hpp **** 
  61:src/../h/c_thread.hpp ****     bool is_finished() const { return this->status == FINISHED; }
  62:src/../h/c_thread.hpp **** 
GAS LISTING /tmp/cclWgKMm.s 			page 7


  63:src/../h/c_thread.hpp ****     void run() { this->status = RUNNABLE; }
  64:src/../h/c_thread.hpp **** 
  65:src/../h/c_thread.hpp ****     void block() { this->status = BLOCKED; }
  66:src/../h/c_thread.hpp **** 
  67:src/../h/c_thread.hpp ****     void sleep() { this->status = SLEEPING; }
  68:src/../h/c_thread.hpp **** 
  69:src/../h/c_thread.hpp ****     void enjoin() { this->status = JOINED; }
  70:src/../h/c_thread.hpp **** 
  71:src/../h/c_thread.hpp ****     void finish() { this->status = FINISHED; }
  72:src/../h/c_thread.hpp **** 
  73:src/../h/c_thread.hpp ****     bool was_preempted() const { return this->preempted; }
  74:src/../h/c_thread.hpp **** 
  75:src/../h/c_thread.hpp ****     void set_preempted() { this->preempted = true; }
  76:src/../h/c_thread.hpp **** 
  77:src/../h/c_thread.hpp ****     void reset_preempted() { this->preempted = false; }
  78:src/../h/c_thread.hpp **** 
  79:src/../h/c_thread.hpp ****     time_t get_time_slice() const { return this->time_slice; }
  80:src/../h/c_thread.hpp **** 
  81:src/../h/c_thread.hpp ****     void set_time_slice(time_t time) { this->time_slice = time; }
  82:src/../h/c_thread.hpp **** 
  83:src/../h/c_thread.hpp ****     int get_t_id() { return this->t_id; }
  98              		.loc 3 83 22 is_stmt 1
  99              	.LBE89:
 100              	.LBE88:
 101              		.loc 1 37 55 is_stmt 0
 102 00b4 83A58700 		lw	a1,8(a5)
 103 00b8 97000000 		call	_ZNK3stm7istreamlsEi@plt
 103      E7800000 
 104              	.LVL10:
 105              		.loc 1 37 60
 106 00c0 97050000 		lla	a1,.LC0
 106      93850500 
 107 00c8 97000000 		call	_ZNK3stm7istreamlsEPKc@plt
 107      E7800000 
 108              	.LVL11:
  38:src/riscv.cpp ****     TCB::_thread_exit();
 109              		.loc 1 38 5 is_stmt 1
 110              		.loc 1 38 22 is_stmt 0
 111 00d0 97000000 		call	_ZN3TCB12_thread_exitEv@plt
 111      E7800000 
 112              	.LVL12:
  39:src/riscv.cpp **** }
 113              		.loc 1 39 1
 114 00d8 83308102 		ld	ra,40(sp)
 115              		.cfi_restore 1
 116 00dc 03340102 		ld	s0,32(sp)
 117              		.cfi_restore 8
 118              		.cfi_def_cfa 2, 48
 119 00e0 83348101 		ld	s1,24(sp)
 120              		.cfi_restore 9
 121              	.LVL13:
 122 00e4 13010103 		addi	sp,sp,48
 123              		.cfi_def_cfa_offset 0
 124 00e8 67800000 		jr	ra
 125              		.cfi_endproc
 126              	.LFE64:
 128              		.section	.rodata.str1.8
GAS LISTING /tmp/cclWgKMm.s 			page 8


 129 0021 00000000 		.align	3
 129      000000
 130              	.LC3:
 131 0028 496C6C65 		.string	"Illegal instruction"
 131      67616C20 
 131      696E7374 
 131      72756374 
 131      696F6E00 
 132              		.text
 133              		.align	2
 134              		.globl	_ZN5riscv20handleSupervisorTrapEmmmmm
 136              	_ZN5riscv20handleSupervisorTrapEmmmmm:
 137              	.LFB65:
  40:src/riscv.cpp **** 
  41:src/riscv.cpp **** void riscv::handleSupervisorTrap(uint64 code, uint64 arg1, uint64 arg2, uint64 arg3, uint64 arg4) {
 138              		.loc 1 41 99 is_stmt 1
 139              		.cfi_startproc
 140              		.cfi_personality 0x9b,DW.ref.__gxx_personality_v0
 141              		.cfi_lsda 0x1b,.LLSDA65
 142              	.LVL14:
 143 00ec 130101F8 		addi	sp,sp,-128
 144              		.cfi_def_cfa_offset 128
 145 00f0 233C1106 		sd	ra,120(sp)
 146 00f4 23388106 		sd	s0,112(sp)
 147 00f8 23349106 		sd	s1,104(sp)
 148              		.cfi_offset 1, -8
 149              		.cfi_offset 8, -16
 150              		.cfi_offset 9, -24
 151 00fc 13040108 		addi	s0,sp,128
 152              		.cfi_def_cfa 8, 0
 153 0100 93070500 		mv	a5,a0
 154 0104 13850500 		mv	a0,a1
 155              	.LVL15:
 156 0108 93050600 		mv	a1,a2
 157              	.LVL16:
 158 010c 13860600 		mv	a2,a3
 159              	.LVL17:
 160 0110 93060700 		mv	a3,a4
 161              	.LVL18:
  42:src/riscv.cpp ****     uint64 volatile sstatus = r_sstatus();
 162              		.loc 1 42 5
 163              	.LBB90:
 164              	.LBB91:
 125:src/../h/riscv.hpp **** }
 126:src/../h/riscv.hpp **** 
 127:src/../h/riscv.hpp **** inline void riscv::w_sepc(uint64 sepc) {
 128:src/../h/riscv.hpp ****     __asm__ volatile ("csrw sepc, %[sepc]" : : [sepc] "r"(sepc));
 129:src/../h/riscv.hpp **** }
 130:src/../h/riscv.hpp **** 
 131:src/../h/riscv.hpp **** inline uint64 riscv::r_stvec() {
 132:src/../h/riscv.hpp ****     uint64 volatile stvec;
 133:src/../h/riscv.hpp ****     __asm__ volatile ("csrr %[stvec], stvec" : [stvec] "=r"(stvec));
 134:src/../h/riscv.hpp ****     return stvec;
 135:src/../h/riscv.hpp **** }
 136:src/../h/riscv.hpp **** 
 137:src/../h/riscv.hpp **** inline void riscv::w_stvec(uint64 stvec) {
 138:src/../h/riscv.hpp ****     __asm__ volatile ("csrw stvec, %[stvec]" : : [stvec] "r"(stvec));
GAS LISTING /tmp/cclWgKMm.s 			page 9


 139:src/../h/riscv.hpp **** }
 140:src/../h/riscv.hpp **** 
 141:src/../h/riscv.hpp **** inline uint64 riscv::r_stval() {
 142:src/../h/riscv.hpp ****     uint64 volatile stval;
 143:src/../h/riscv.hpp ****     __asm__ volatile ("csrr %[stval], stval" : [stval] "=r"(stval));
 144:src/../h/riscv.hpp ****     return stval;
 145:src/../h/riscv.hpp **** }
 146:src/../h/riscv.hpp **** 
 147:src/../h/riscv.hpp **** inline void riscv::w_stval(uint64 stval) {
 148:src/../h/riscv.hpp ****     __asm__ volatile ("csrw stval, %[stval]" : : [stval] "r"(stval));
 149:src/../h/riscv.hpp **** }
 150:src/../h/riscv.hpp **** 
 151:src/../h/riscv.hpp **** inline void riscv::ms_sip(uint64 mask) {
 152:src/../h/riscv.hpp ****     __asm__ volatile ("csrs sip, %[mask]" : : [mask] "r"(mask));
 153:src/../h/riscv.hpp **** }
 154:src/../h/riscv.hpp **** 
 155:src/../h/riscv.hpp **** inline void riscv::mc_sip(uint64 mask) {
 156:src/../h/riscv.hpp ****     __asm__ volatile ("csrc sip, %[mask]" : : [mask] "r"(mask));
 157:src/../h/riscv.hpp **** }
 158:src/../h/riscv.hpp **** 
 159:src/../h/riscv.hpp **** inline uint64 riscv::r_sip() {
 160:src/../h/riscv.hpp ****     uint64 volatile sip;
 161:src/../h/riscv.hpp ****     __asm__ volatile ("csrr %[sip], sip" : [sip] "=r"(sip));
 162:src/../h/riscv.hpp ****     return sip;
 163:src/../h/riscv.hpp **** }
 164:src/../h/riscv.hpp **** 
 165:src/../h/riscv.hpp **** inline void riscv::w_sip(uint64 sip) {
 166:src/../h/riscv.hpp ****     __asm__ volatile ("csrw sip, %[sip]" : : [sip] "r"(sip));
 167:src/../h/riscv.hpp **** }
 168:src/../h/riscv.hpp **** 
 169:src/../h/riscv.hpp **** inline void riscv::ms_sstatus(uint64 mask) {
 170:src/../h/riscv.hpp ****     __asm__ volatile ("csrs sstatus, %[mask]" : : [mask] "r"(mask));
 171:src/../h/riscv.hpp **** }
 172:src/../h/riscv.hpp **** 
 173:src/../h/riscv.hpp **** inline void riscv::mc_sstatus(uint64 mask) {
 174:src/../h/riscv.hpp ****     __asm__ volatile ("csrc sstatus, %[mask]" : : [mask] "r"(mask));
 175:src/../h/riscv.hpp **** }
 176:src/../h/riscv.hpp **** 
 177:src/../h/riscv.hpp **** inline uint64 riscv::r_sstatus() {
 178:src/../h/riscv.hpp ****     uint64 volatile sstatus;
 165              		.loc 2 178 5
 179:src/../h/riscv.hpp ****     __asm__ volatile ("csrr %[sstatus], sstatus" : [sstatus] "=r"(sstatus));
 166              		.loc 2 179 5
 167              		.loc 2 179 76 is_stmt 0
 168              	#APP
 169              	# 179 "src/../h/riscv.hpp" 1
 180              	    return sstatus;
 170              		csrr a4, sstatus
 171              	# 0 "" 2
 172              	.LVL19:
 173              	#NO_APP
 174 0118 233CE4F8 		sd	a4,-104(s0)
 175              		.loc 2 180 5 is_stmt 1
 176              		.loc 2 180 12 is_stmt 0
 177 011c 033784F9 		ld	a4,-104(s0)
 178              	.LBE91:
 179              	.LBE90:
GAS LISTING /tmp/cclWgKMm.s 			page 10


 180              		.loc 1 42 41
 181 0120 233CE4FC 		sd	a4,-40(s0)
  43:src/riscv.cpp ****     uint64 volatile sepc = r_sepc();
 182              		.loc 1 43 5 is_stmt 1
 183              	.LBB92:
 184              	.LBB93:
 122:src/../h/riscv.hpp ****     __asm__ volatile ("csrr %[sepc], sepc" : [sepc] "=r"(sepc));
 185              		.loc 2 122 5
 123:src/../h/riscv.hpp ****     return sepc;
 186              		.loc 2 123 5
 123:src/../h/riscv.hpp ****     return sepc;
 187              		.loc 2 123 64 is_stmt 0
 188              	#APP
 189              	# 123 "src/../h/riscv.hpp" 1
 190              		csrr a4, sepc
 191              	# 0 "" 2
 192              	#NO_APP
 193 0128 2338E4F8 		sd	a4,-112(s0)
 124:src/../h/riscv.hpp **** }
 194              		.loc 2 124 5 is_stmt 1
 124:src/../h/riscv.hpp **** }
 195              		.loc 2 124 12 is_stmt 0
 196 012c 033704F9 		ld	a4,-112(s0)
 197              	.LBE93:
 198              	.LBE92:
 199              		.loc 1 43 35
 200 0130 2338E4FC 		sd	a4,-48(s0)
  44:src/riscv.cpp ****     if (r_scause() == ILLEGAL_INSTRUCTION) {
 201              		.loc 1 44 5 is_stmt 1
 202              	.LBB94:
 203              	.LBB95:
 112:src/../h/riscv.hpp ****     __asm__ volatile ("csrr %[scause], scause" : [scause] "=r"(scause));
 204              		.loc 2 112 5
 113:src/../h/riscv.hpp ****     return scause;
 205              		.loc 2 113 5
 113:src/../h/riscv.hpp ****     return scause;
 206              		.loc 2 113 72 is_stmt 0
 207              	#APP
 208              	# 113 "src/../h/riscv.hpp" 1
 209              		csrr a4, scause
 210              	# 0 "" 2
 211              	#NO_APP
 212 0138 2334E4F8 		sd	a4,-120(s0)
 114:src/../h/riscv.hpp **** }
 213              		.loc 2 114 5 is_stmt 1
 114:src/../h/riscv.hpp **** }
 214              		.loc 2 114 12 is_stmt 0
 215 013c 033884F8 		ld	a6,-120(s0)
 216              	.LBE95:
 217              	.LBE94:
 218              		.loc 1 44 5
 219 0140 13072000 		li	a4,2
 220 0144 6302E804 		beq	a6,a4,.L12
  45:src/riscv.cpp ****         handleException("Illegal instruction");
  46:src/riscv.cpp ****     } else {
  47:src/riscv.cpp ****         syscall_table[code](arg1, arg2, arg3, arg4);
 221              		.loc 1 47 9 is_stmt 1
GAS LISTING /tmp/cclWgKMm.s 			page 11


 222              		.loc 1 47 27 is_stmt 0
 223 0148 93973700 		slli	a5,a5,3
 224              	.LVL20:
 225 014c 17070000 		lla	a4,.LANCHOR0
 225      13070700 
 226 0154 B307F700 		add	a5,a4,a5
 227 0158 83B70700 		ld	a5,0(a5)
 228              	.LEHB0:
 229              		.loc 1 47 28
 230 015c E7800700 		jalr	a5
 231              	.LVL21:
 232              	.L6:
  48:src/riscv.cpp **** //        if (setjump()) {
  49:src/riscv.cpp **** //            print("here");
  50:src/riscv.cpp **** //            longjump();
  51:src/riscv.cpp **** //        }
  52:src/riscv.cpp ****     }
  53:src/riscv.cpp ****     w_sepc(sepc + 4);
 233              		.loc 1 53 5 is_stmt 1
 234              		.loc 1 53 12 is_stmt 0
 235 0160 833704FD 		ld	a5,-48(s0)
 236              		.loc 1 53 11
 237 0164 93874700 		addi	a5,a5,4
 238              	.LVL22:
 239              	.LBB96:
 240              	.LBB97:
 128:src/../h/riscv.hpp **** }
 241              		.loc 2 128 5 is_stmt 1
 128:src/../h/riscv.hpp **** }
 242              		.loc 2 128 65 is_stmt 0
 243              	#APP
 244              	# 128 "src/../h/riscv.hpp" 1
 245              		csrw sepc, a5
 246              	# 0 "" 2
 247              	.LVL23:
 248              	#NO_APP
 249              	.LBE97:
 250              	.LBE96:
  54:src/riscv.cpp ****     w_sstatus(sstatus);
 251              		.loc 1 54 5 is_stmt 1
 252              		.loc 1 54 14 is_stmt 0
 253 016c 833784FD 		ld	a5,-40(s0)
 254              	.LVL24:
 255              	.LBB98:
 256              	.LBB99:
 181:src/../h/riscv.hpp **** }
 182:src/../h/riscv.hpp **** 
 183:src/../h/riscv.hpp **** inline void riscv::w_sstatus(uint64 sstatus) {
 184:src/../h/riscv.hpp ****     __asm__ volatile ("csrw sstatus, %[sstatus]" : : [sstatus] "r"(sstatus));
 257              		.loc 2 184 5 is_stmt 1
 258              		.loc 2 184 77 is_stmt 0
 259              	#APP
 260              	# 184 "src/../h/riscv.hpp" 1
 185              	}
 261              		csrw sstatus, a5
 262              	# 0 "" 2
 263              	.LVL25:
GAS LISTING /tmp/cclWgKMm.s 			page 12


 264              	#NO_APP
 265              	.LBE99:
 266              	.LBE98:
  55:src/riscv.cpp **** }
 267              		.loc 1 55 1
 268 0174 83308107 		ld	ra,120(sp)
 269              		.cfi_remember_state
 270              		.cfi_restore 1
 271 0178 03340107 		ld	s0,112(sp)
 272              		.cfi_restore 8
 273              		.cfi_def_cfa 2, 128
 274 017c 83348106 		ld	s1,104(sp)
 275              		.cfi_restore 9
 276 0180 13010108 		addi	sp,sp,128
 277              		.cfi_def_cfa_offset 0
 278 0184 67800000 		jr	ra
 279              	.LVL26:
 280              	.L12:
 281              		.cfi_restore_state
  45:src/riscv.cpp ****     } else {
 282              		.loc 1 45 9 is_stmt 1
  45:src/riscv.cpp ****     } else {
 283              		.loc 1 45 24 is_stmt 0
 284 0188 97050000 		lla	a1,.LC3
 284      93850500 
 285              	.LVL27:
 286 0190 930404FA 		addi	s1,s0,-96
 287 0194 13850400 		mv	a0,s1
 288              	.LVL28:
 289 0198 97000000 		call	_ZN3stm6stringC1EPKc@plt
 289      E7800000 
 290              	.LVL29:
 291              	.LEHE0:
 292 01a0 13850400 		mv	a0,s1
 293              	.LEHB1:
 294 01a4 97000000 		call	_ZN5riscv15handleExceptionERKN3stm6stringE
 294      E7800000 
 295              	.LVL30:
 296              	.LEHE1:
 297              		.file 4 "src/../h/string.hpp"
   1:src/../h/string.hpp **** #ifndef PROJECT_BASE_STRING_HPP
   2:src/../h/string.hpp **** #define PROJECT_BASE_STRING_HPP
   3:src/../h/string.hpp **** 
   4:src/../h/string.hpp **** 
   5:src/../h/string.hpp **** #include "../lib/hw.h"
   6:src/../h/string.hpp **** 
   7:src/../h/string.hpp **** namespace stm {
   8:src/../h/string.hpp **** 
   9:src/../h/string.hpp ****     int strlen(const char *string);
  10:src/../h/string.hpp **** 
  11:src/../h/string.hpp ****     char *strcpy(const char *src, char *dst);
  12:src/../h/string.hpp **** 
  13:src/../h/string.hpp ****     void strncpy(char *src, char *dst, int max_len);
  14:src/../h/string.hpp **** 
  15:src/../h/string.hpp ****     char *strcat(const char *base, const char *tail);
  16:src/../h/string.hpp **** 
  17:src/../h/string.hpp ****     int strcmp(const char *str1, const char *str2);
GAS LISTING /tmp/cclWgKMm.s 			page 13


  18:src/../h/string.hpp **** 
  19:src/../h/string.hpp ****     char *ntos(long long number, char *buffer, int radix);
  20:src/../h/string.hpp **** 
  21:src/../h/string.hpp ****     char *utos(uint64 number, char *buffer, int radix);
  22:src/../h/string.hpp **** 
  23:src/../h/string.hpp ****     class string;
  24:src/../h/string.hpp **** 
  25:src/../h/string.hpp ****     string &operator+(const string &string1, const string &string2);
  26:src/../h/string.hpp **** 
  27:src/../h/string.hpp ****     bool operator==(const string &string1, const string &string2);
  28:src/../h/string.hpp **** 
  29:src/../h/string.hpp ****     bool operator<(const string &string1, const string &string2);
  30:src/../h/string.hpp **** 
  31:src/../h/string.hpp ****     bool operator!=(const string &string1, const string &string2);
  32:src/../h/string.hpp **** 
  33:src/../h/string.hpp ****     bool operator>(const string &string1, const string &string2);
  34:src/../h/string.hpp **** 
  35:src/../h/string.hpp ****     bool operator<=(const string &string1, const string &string2);
  36:src/../h/string.hpp **** 
  37:src/../h/string.hpp ****     bool operator>=(const string &string1, const string &string2);
  38:src/../h/string.hpp **** 
  39:src/../h/string.hpp ****     class string final {
  40:src/../h/string.hpp ****     public:
  41:src/../h/string.hpp ****         string() = default;
  42:src/../h/string.hpp **** 
  43:src/../h/string.hpp ****         string(const char *);
  44:src/../h/string.hpp **** 
  45:src/../h/string.hpp ****         string(char);
  46:src/../h/string.hpp **** 
  47:src/../h/string.hpp ****         explicit string(long long);
  48:src/../h/string.hpp **** 
  49:src/../h/string.hpp ****         explicit string(int);
  50:src/../h/string.hpp **** 
  51:src/../h/string.hpp ****         explicit string(uint64);
  52:src/../h/string.hpp **** 
  53:src/../h/string.hpp ****         string(const string &string) { this->copy(string); }
  54:src/../h/string.hpp **** 
  55:src/../h/string.hpp ****         string(string &&string) { this->move(string); }
  56:src/../h/string.hpp **** 
  57:src/../h/string.hpp ****         string &operator=(const string &);
  58:src/../h/string.hpp **** 
  59:src/../h/string.hpp ****         string &operator=(string &&) noexcept;
  60:src/../h/string.hpp **** 
  61:src/../h/string.hpp ****         int length() const { return this->size; }
  62:src/../h/string.hpp **** 
  63:src/../h/string.hpp ****         char &operator[](int i) {
  64:src/../h/string.hpp ****             return this->actual_string[i];
  65:src/../h/string.hpp ****         }
  66:src/../h/string.hpp **** 
  67:src/../h/string.hpp ****         const char &operator[](int i) const{
  68:src/../h/string.hpp ****             return this->actual_string[i];
  69:src/../h/string.hpp ****         }
  70:src/../h/string.hpp **** 
  71:src/../h/string.hpp ****         friend string &operator+(const string &string1, const string &string2);
  72:src/../h/string.hpp **** 
  73:src/../h/string.hpp ****         string &operator+=(const string &string);
  74:src/../h/string.hpp **** 
GAS LISTING /tmp/cclWgKMm.s 			page 14


  75:src/../h/string.hpp ****         friend bool operator==(const string &string1, const string &string2);
  76:src/../h/string.hpp **** 
  77:src/../h/string.hpp ****         friend bool operator<(const string &string1, const string &string2);
  78:src/../h/string.hpp **** 
  79:src/../h/string.hpp ****         friend bool operator!=(const string &string1, const string &string2) { return !(string1 == 
  80:src/../h/string.hpp **** 
  81:src/../h/string.hpp ****         friend bool operator>(const string &string1, const string &string2) {
  82:src/../h/string.hpp ****             return string1 != string2 && !(string1 < string2);
  83:src/../h/string.hpp ****         }
  84:src/../h/string.hpp **** 
  85:src/../h/string.hpp ****         friend bool operator<=(const string &string1, const string &string2) { return !(string1 > s
  86:src/../h/string.hpp **** 
  87:src/../h/string.hpp ****         friend bool operator>=(const string &string1, const string &string2) { return !(string1 < s
  88:src/../h/string.hpp **** 
  89:src/../h/string.hpp ****         ~string() { this->unexist(); }
 298              		.loc 4 89 21 is_stmt 1
 299              	.LBB100:
 300              	.LBB101:
 301              	.LBB102:
  90:src/../h/string.hpp **** 
  91:src/../h/string.hpp ****     private:
  92:src/../h/string.hpp ****         void copy(const string &);
  93:src/../h/string.hpp **** 
  94:src/../h/string.hpp ****         void move(string &);
  95:src/../h/string.hpp **** 
  96:src/../h/string.hpp ****         void unexist() { delete[] this->actual_string; }
 302              		.loc 4 96 26
 303              		.loc 4 96 41 is_stmt 0
 304 01ac 033584FA 		ld	a0,-88(s0)
 305              		.loc 4 96 54
 306 01b0 E30805FA 		beqz	a0,.L6
 307              		.loc 4 96 41
 308 01b4 97000000 		call	_ZdaPv@plt
 308      E7800000 
 309              	.LVL31:
 310 01bc 6FF05FFA 		j	.L6
 311              	.L9:
 312 01c0 93040500 		mv	s1,a0
 313              	.LVL32:
 314              	.LBE102:
 315              	.LBE101:
 316              	.LBE100:
  89:src/../h/string.hpp **** 
 317              		.loc 4 89 21 is_stmt 1
 318              	.LBB103:
 319              	.LBB104:
 320              	.LBB105:
 321              		.loc 4 96 26
 322              		.loc 4 96 41 is_stmt 0
 323 01c4 033584FA 		ld	a0,-88(s0)
 324              		.loc 4 96 54
 325 01c8 63060500 		beqz	a0,.L8
 326              		.loc 4 96 41
 327 01cc 97000000 		call	_ZdaPv@plt
 327      E7800000 
 328              	.LVL33:
 329              	.L8:
GAS LISTING /tmp/cclWgKMm.s 			page 15


 330 01d4 13850400 		mv	a0,s1
 331              	.LEHB2:
 332 01d8 97000000 		call	_Unwind_Resume@plt
 332      E7800000 
 333              	.LVL34:
 334              	.LEHE2:
 335              	.LBE105:
 336              	.LBE104:
 337              	.LBE103:
 338              		.cfi_endproc
 339              	.LFE65:
 340              		.globl	__gxx_personality_v0
 341              		.section	.gcc_except_table,"a",@progbits
 342              	.LLSDA65:
 343 0000 FF       		.byte	0xff
 344 0001 FF       		.byte	0xff
 345 0002 03       		.byte	0x3
 346 0003 27       		.byte	0x27
 347 0004 00000000 		.4byte	.LEHB0-.LFB65
 348 0008 00000000 		.4byte	.LEHE0-.LEHB0
 349 000c 00000000 		.4byte	0
 350 0010 00       		.byte	0
 351 0011 00000000 		.4byte	.LEHB1-.LFB65
 352 0015 00000000 		.4byte	.LEHE1-.LEHB1
 353 0019 00000000 		.4byte	.L9-.LFB65
 354 001d 00       		.byte	0
 355 001e 00000000 		.4byte	.LEHB2-.LFB65
 356 0022 00000000 		.4byte	.LEHE2-.LEHB2
 357 0026 00000000 		.4byte	0
 358 002a 00       		.byte	0
 359              		.text
 361              		.align	2
 362              		.globl	_ZN5riscv15handleTimerTrapEv
 364              	_ZN5riscv15handleTimerTrapEv:
 365              	.LFB66:
  56:src/riscv.cpp **** 
  57:src/riscv.cpp **** void riscv::handleTimerTrap() {
 366              		.loc 1 57 31 is_stmt 1
 367              		.cfi_startproc
 368 01e0 130101FD 		addi	sp,sp,-48
 369              		.cfi_def_cfa_offset 48
 370 01e4 23341102 		sd	ra,40(sp)
 371 01e8 23308102 		sd	s0,32(sp)
 372              		.cfi_offset 1, -8
 373              		.cfi_offset 8, -16
 374 01ec 13040103 		addi	s0,sp,48
 375              		.cfi_def_cfa 8, 0
  58:src/riscv.cpp ****     uint64 volatile sstatus = r_sstatus();
 376              		.loc 1 58 5
 377              	.LBB106:
 378              	.LBB107:
 178:src/../h/riscv.hpp ****     __asm__ volatile ("csrr %[sstatus], sstatus" : [sstatus] "=r"(sstatus));
 379              		.loc 2 178 5
 179:src/../h/riscv.hpp ****     return sstatus;
 380              		.loc 2 179 5
 179:src/../h/riscv.hpp ****     return sstatus;
 381              		.loc 2 179 76 is_stmt 0
GAS LISTING /tmp/cclWgKMm.s 			page 16


 382              	#APP
 383              	# 179 "src/../h/riscv.hpp" 1
 384              		csrr a5, sstatus
 385              	# 0 "" 2
 386              	#NO_APP
 387 01f4 233CF4FC 		sd	a5,-40(s0)
 180:src/../h/riscv.hpp **** }
 388              		.loc 2 180 5 is_stmt 1
 180:src/../h/riscv.hpp **** }
 389              		.loc 2 180 12 is_stmt 0
 390 01f8 833784FD 		ld	a5,-40(s0)
 391              	.LBE107:
 392              	.LBE106:
 393              		.loc 1 58 41
 394 01fc 2334F4FE 		sd	a5,-24(s0)
  59:src/riscv.cpp ****     uint64 volatile sepc = r_sepc();
 395              		.loc 1 59 5 is_stmt 1
 396              	.LBB108:
 397              	.LBB109:
 122:src/../h/riscv.hpp ****     __asm__ volatile ("csrr %[sepc], sepc" : [sepc] "=r"(sepc));
 398              		.loc 2 122 5
 123:src/../h/riscv.hpp ****     return sepc;
 399              		.loc 2 123 5
 123:src/../h/riscv.hpp ****     return sepc;
 400              		.loc 2 123 64 is_stmt 0
 401              	#APP
 402              	# 123 "src/../h/riscv.hpp" 1
 403              		csrr a5, sepc
 404              	# 0 "" 2
 405              	#NO_APP
 406 0204 2338F4FC 		sd	a5,-48(s0)
 124:src/../h/riscv.hpp **** }
 407              		.loc 2 124 5 is_stmt 1
 124:src/../h/riscv.hpp **** }
 408              		.loc 2 124 12 is_stmt 0
 409 0208 833704FD 		ld	a5,-48(s0)
 410              	.LBE109:
 411              	.LBE108:
 412              		.loc 1 59 35
 413 020c 2330F4FE 		sd	a5,-32(s0)
 414              	.L15:
  60:src/riscv.cpp ****     while ((*((char *) CONSOLE_STATUS) & CONSOLE_TX_STATUS_BIT) && !IO::Output.is_empty()) {
 415              		.loc 1 60 5 is_stmt 1
 416              		.loc 1 60 65
 417              		.loc 1 60 13 is_stmt 0
 418 0210 97070000 		la	a5,CONSOLE_STATUS
 418      83B70700 
 419 0218 83B70700 		ld	a5,0(a5)
 420 021c 83C70700 		lbu	a5,0(a5)
 421              		.loc 1 60 65
 422 0220 93F70702 		andi	a5,a5,32
 423 0224 638C0702 		beqz	a5,.L14
 424              	.LVL35:
 425              		.file 5 "src/../h/c_console.hpp"
   1:src/../h/c_console.hpp **** #ifndef PROJECT_BASE_C_CONSOLE_HPP
   2:src/../h/c_console.hpp **** #define PROJECT_BASE_C_CONSOLE_HPP
   3:src/../h/c_console.hpp **** 
GAS LISTING /tmp/cclWgKMm.s 			page 17


   4:src/../h/c_console.hpp **** #include "circular_buffer.hpp"
   5:src/../h/c_console.hpp **** #include "riscv.hpp"
   6:src/../h/c_console.hpp **** 
   7:src/../h/c_console.hpp **** class Sem;
   8:src/../h/c_console.hpp **** 
   9:src/../h/c_console.hpp **** class IOBuffer final {
  10:src/../h/c_console.hpp **** public:
  11:src/../h/c_console.hpp ****     void init();
  12:src/../h/c_console.hpp **** 
  13:src/../h/c_console.hpp ****     void put(char c);
  14:src/../h/c_console.hpp **** 
  15:src/../h/c_console.hpp ****     char get();
  16:src/../h/c_console.hpp **** 
  17:src/../h/c_console.hpp ****     bool is_empty() const { return this->buffer.is_empty(); }
 426              		.loc 5 17 29 is_stmt 1
 427              	.LBB110:
 428              	.LBB111:
 429              	.LBB112:
 430              		.file 6 "src/../h/circular_buffer.hpp"
   1:src/../h/circular_buffer.hpp **** #ifndef PROJECT_BASE_CIRCULAR_BUFFER_HPP
   2:src/../h/circular_buffer.hpp **** #define PROJECT_BASE_CIRCULAR_BUFFER_HPP
   3:src/../h/circular_buffer.hpp **** 
   4:src/../h/circular_buffer.hpp **** #include "syscall_c.hpp"
   5:src/../h/circular_buffer.hpp **** #include "c_memory.hpp"
   6:src/../h/circular_buffer.hpp **** 
   7:src/../h/circular_buffer.hpp **** namespace stm {
   8:src/../h/circular_buffer.hpp ****     template<typename T>
   9:src/../h/circular_buffer.hpp ****     class CircularBuffer {
  10:src/../h/circular_buffer.hpp ****     public:
  11:src/../h/circular_buffer.hpp **** 
  12:src/../h/circular_buffer.hpp ****         void init();
  13:src/../h/circular_buffer.hpp **** 
  14:src/../h/circular_buffer.hpp ****         void put(T);
  15:src/../h/circular_buffer.hpp **** 
  16:src/../h/circular_buffer.hpp ****         T get();
  17:src/../h/circular_buffer.hpp **** 
  18:src/../h/circular_buffer.hpp ****         T &peek();
  19:src/../h/circular_buffer.hpp **** 
  20:src/../h/circular_buffer.hpp ****         inline bool is_empty() const { return this->size == 0; }
 431              		.loc 6 20 53 is_stmt 0
 432 0228 97070000 		la	a5,_ZN2IO6OutputE
 432      83B70700 
 433 0230 83A70701 		lw	a5,16(a5)
 434              	.LVL36:
 435              	.LBE112:
 436              	.LBE111:
 437              	.LBE110:
 438              		.loc 1 60 65
 439 0234 63840702 		beqz	a5,.L14
 440              	.LBB113:
  61:src/riscv.cpp ****         char c = IO::Output.get();
 441              		.loc 1 61 9 is_stmt 1
 442              		.loc 1 61 32 is_stmt 0
 443 0238 17050000 		la	a0,_ZN2IO6OutputE
 443      03350500 
 444 0240 97000000 		call	_ZN8IOBuffer3getEv@plt
 444      E7800000 
GAS LISTING /tmp/cclWgKMm.s 			page 18


 445              	.LVL37:
  62:src/riscv.cpp ****         *(volatile char *) CONSOLE_TX_DATA = c;
 446              		.loc 1 62 9 is_stmt 1
 447 0248 97070000 		la	a5,CONSOLE_TX_DATA
 447      83B70700 
 448 0250 83B70700 		ld	a5,0(a5)
 449              		.loc 1 62 44 is_stmt 0
 450 0254 2380A700 		sb	a0,0(a5)
 451              	.LBE113:
  60:src/riscv.cpp ****         char c = IO::Output.get();
 452              		.loc 1 60 5
 453 0258 6FF09FFB 		j	.L15
 454              	.LVL38:
 455              	.L14:
  63:src/riscv.cpp ****     }
  64:src/riscv.cpp ****     mc_sip(SIP_SSIE);
 456              		.loc 1 64 5 is_stmt 1 discriminator 4
 457              	.LBB114:
 458              	.LBB115:
 156:src/../h/riscv.hpp **** }
 459              		.loc 2 156 5 discriminator 4
 156:src/../h/riscv.hpp **** }
 460              		.loc 2 156 64 is_stmt 0 discriminator 4
 461 025c 93072000 		li	a5,2
 462              	#APP
 463              	# 156 "src/../h/riscv.hpp" 1
 464              		csrc sip, a5
 465              	# 0 "" 2
 466              	.LVL39:
 467              	#NO_APP
 468              	.LBE115:
 469              	.LBE114:
  65:src/riscv.cpp ****     Cradle::update();
 470              		.loc 1 65 5 is_stmt 1 discriminator 4
 471              		.loc 1 65 19 is_stmt 0 discriminator 4
 472 0264 97000000 		call	_ZN6Cradle6updateEv@plt
 472      E7800000 
 473              	.LVL40:
  66:src/riscv.cpp ****     TCB::timer_counter++;
 474              		.loc 1 66 5 is_stmt 1 discriminator 4
 475              		.loc 1 66 23 is_stmt 0 discriminator 4
 476 026c 17070000 		la	a4,_ZN3TCB13timer_counterE
 476      03370700 
 477 0274 83370700 		ld	a5,0(a4)
 478 0278 93871700 		addi	a5,a5,1
 479 027c 2330F700 		sd	a5,0(a4)
  67:src/riscv.cpp ****     if ((time_t) TCB::timer_counter >= TCB::running->get_time_slice() && !Scheduler::is_empty()) {
 480              		.loc 1 67 5 is_stmt 1 discriminator 4
 481              		.loc 1 67 68 is_stmt 0 discriminator 4
 482 0280 17070000 		la	a4,_ZN3TCB7runningE
 482      03370700 
 483 0288 03370700 		ld	a4,0(a4)
 484              	.LVL41:
 485              	.LBB116:
 486              	.LBB117:
  79:src/../h/c_thread.hpp **** 
 487              		.loc 3 79 37 is_stmt 1 discriminator 4
GAS LISTING /tmp/cclWgKMm.s 			page 19


  79:src/../h/c_thread.hpp **** 
 488              		.loc 3 79 50 is_stmt 0 discriminator 4
 489 028c 83368705 		ld	a3,88(a4)
 490              	.LVL42:
 491              	.LBE117:
 492              	.LBE116:
 493              		.loc 1 67 71 discriminator 4
 494 0290 63E8D704 		bltu	a5,a3,.L16
 495              	.LBB118:
 496              	.LBB119:
 497              		.file 7 "src/../h/scheduler.hpp"
   1:src/../h/scheduler.hpp **** #ifndef PROJECT_BASE_SCHEDULER_HPP
   2:src/../h/scheduler.hpp **** #define PROJECT_BASE_SCHEDULER_HPP
   3:src/../h/scheduler.hpp **** 
   4:src/../h/scheduler.hpp **** #include "circular_buffer.hpp"
   5:src/../h/scheduler.hpp **** #include "syscall_c.hpp"
   6:src/../h/scheduler.hpp **** 
   7:src/../h/scheduler.hpp **** class Scheduler final {
   8:src/../h/scheduler.hpp **** public:
   9:src/../h/scheduler.hpp **** 
  10:src/../h/scheduler.hpp ****     static void init() { high_priority.init(); mid_priority.init(); low_priority.init(); }
  11:src/../h/scheduler.hpp **** 
  12:src/../h/scheduler.hpp ****     static void put(TCB *thread);
  13:src/../h/scheduler.hpp **** 
  14:src/../h/scheduler.hpp ****     static TCB *get();
  15:src/../h/scheduler.hpp **** 
  16:src/../h/scheduler.hpp ****     static inline bool is_empty() {
  17:src/../h/scheduler.hpp ****         return high_priority.is_empty() && mid_priority.is_empty() && low_priority.is_empty();
 498              		.loc 7 17 9 is_stmt 1
 499              	.LVL43:
 500              	.LBB120:
 501              	.LBB121:
 502              		.loc 6 20 53 is_stmt 0
 503 0294 97070000 		la	a5,_ZN9Scheduler13high_priorityE
 503      83B70700 
 504 029c 83A70701 		lw	a5,16(a5)
 505              	.LVL44:
 506              	.LBE121:
 507              	.LBE120:
 508              		.loc 7 17 68
 509 02a0 63920702 		bnez	a5,.L17
 510              	.LVL45:
 511              	.LBB122:
 512              	.LBB123:
 513              		.loc 6 20 53
 514 02a4 97070000 		la	a5,_ZN9Scheduler12mid_priorityE
 514      83B70700 
 515 02ac 83A70701 		lw	a5,16(a5)
 516              	.LVL46:
 517              	.LBE123:
 518              	.LBE122:
 519              		.loc 7 17 41
 520 02b0 639A0700 		bnez	a5,.L17
 521              	.LVL47:
 522              	.LBB124:
 523              	.LBB125:
 524              		.loc 6 20 53
GAS LISTING /tmp/cclWgKMm.s 			page 20


 525 02b4 97070000 		la	a5,_ZN9Scheduler12low_priorityE
 525      83B70700 
 526 02bc 83A70701 		lw	a5,16(a5)
 527              	.LVL48:
 528              	.LBE125:
 529              	.LBE124:
 530              		.loc 7 17 68
 531 02c0 63800702 		beqz	a5,.L16
 532              	.L17:
 533              	.LBE119:
 534              	.LBE118:
  68:src/riscv.cpp ****         TCB::timer_counter = 0;
 535              		.loc 1 68 9 is_stmt 1
 536              		.loc 1 68 28 is_stmt 0
 537 02c4 97070000 		la	a5,_ZN3TCB13timer_counterE
 537      83B70700 
 538 02cc 23B00700 		sd	zero,0(a5)
  69:src/riscv.cpp ****         TCB::running->set_preempted();
 539              		.loc 1 69 9 is_stmt 1
 540              	.LVL49:
 541              	.LBB126:
 542              	.LBB127:
  75:src/../h/c_thread.hpp **** 
 543              		.loc 3 75 28
  75:src/../h/c_thread.hpp **** 
 544              		.loc 3 75 44 is_stmt 0
 545 02d0 93071000 		li	a5,1
 546 02d4 2300F706 		sb	a5,96(a4)
 547              	.LVL50:
 548              	.LBE127:
 549              	.LBE126:
  70:src/riscv.cpp ****         TCB::_thread_dispatch();
 550              		.loc 1 70 9 is_stmt 1
 551              		.loc 1 70 30 is_stmt 0
 552 02d8 97000000 		call	_ZN3TCB16_thread_dispatchEv@plt
 552      E7800000 
 553              	.LVL51:
 554              	.L16:
  71:src/riscv.cpp ****     }
  72:src/riscv.cpp ****     w_sepc(sepc);
 555              		.loc 1 72 5 is_stmt 1
 556              		.loc 1 72 11 is_stmt 0
 557 02e0 833704FE 		ld	a5,-32(s0)
 558              	.LVL52:
 559              	.LBB128:
 560              	.LBB129:
 128:src/../h/riscv.hpp **** }
 561              		.loc 2 128 5 is_stmt 1
 128:src/../h/riscv.hpp **** }
 562              		.loc 2 128 65 is_stmt 0
 563              	#APP
 564              	# 128 "src/../h/riscv.hpp" 1
 565              		csrw sepc, a5
 566              	# 0 "" 2
 567              	.LVL53:
 568              	#NO_APP
 569              	.LBE129:
GAS LISTING /tmp/cclWgKMm.s 			page 21


 570              	.LBE128:
  73:src/riscv.cpp ****     w_sstatus(sstatus);
 571              		.loc 1 73 5 is_stmt 1
 572              		.loc 1 73 14 is_stmt 0
 573 02e8 833784FE 		ld	a5,-24(s0)
 574              	.LVL54:
 575              	.LBB130:
 576              	.LBB131:
 184:src/../h/riscv.hpp **** }
 577              		.loc 2 184 5 is_stmt 1
 184:src/../h/riscv.hpp **** }
 578              		.loc 2 184 77 is_stmt 0
 579              	#APP
 580              	# 184 "src/../h/riscv.hpp" 1
 581              		csrw sstatus, a5
 582              	# 0 "" 2
 583              	.LVL55:
 584              	#NO_APP
 585              	.LBE131:
 586              	.LBE130:
  74:src/riscv.cpp **** }
 587              		.loc 1 74 1
 588 02f0 83308102 		ld	ra,40(sp)
 589              		.cfi_restore 1
 590 02f4 03340102 		ld	s0,32(sp)
 591              		.cfi_restore 8
 592              		.cfi_def_cfa 2, 48
 593 02f8 13010103 		addi	sp,sp,48
 594              		.cfi_def_cfa_offset 0
 595 02fc 67800000 		jr	ra
 596              		.cfi_endproc
 597              	.LFE66:
 599              		.align	2
 600              		.globl	_ZN5riscv17handleConsoleTrapEv
 602              	_ZN5riscv17handleConsoleTrapEv:
 603              	.LFB67:
  75:src/riscv.cpp **** 
  76:src/riscv.cpp **** void riscv::handleConsoleTrap() {
 604              		.loc 1 76 33 is_stmt 1
 605              		.cfi_startproc
 606 0300 130101FE 		addi	sp,sp,-32
 607              		.cfi_def_cfa_offset 32
 608 0304 233C1100 		sd	ra,24(sp)
 609 0308 23388100 		sd	s0,16(sp)
 610              		.cfi_offset 1, -8
 611              		.cfi_offset 8, -16
 612 030c 13040102 		addi	s0,sp,32
 613              		.cfi_def_cfa 8, 0
  77:src/riscv.cpp ****     if (plic_claim() == CONSOLE_IRQ) {
 614              		.loc 1 77 5
 615              	.LBB132:
 616              		.loc 1 77 19 is_stmt 0
 617 0310 97000000 		call	plic_claim@plt
 617      E7800000 
 618              	.LVL56:
 619              		.loc 1 77 5
 620 0318 9307A000 		li	a5,10
GAS LISTING /tmp/cclWgKMm.s 			page 22


 621 031c 630AF500 		beq	a0,a5,.L23
 622              	.L19:
 623              	.LBE132:
  78:src/riscv.cpp ****         if ((*((char *) CONSOLE_STATUS) & CONSOLE_RX_STATUS_BIT)) {
  79:src/riscv.cpp ****             volatile char c = *(char *) CONSOLE_RX_DATA;
  80:src/riscv.cpp ****             IO::Input.put(c);
  81:src/riscv.cpp ****         }
  82:src/riscv.cpp ****         plic_complete(CONSOLE_IRQ);
  83:src/riscv.cpp ****     }
  84:src/riscv.cpp **** }
 624              		.loc 1 84 1
 625 0320 83308101 		ld	ra,24(sp)
 626              		.cfi_remember_state
 627              		.cfi_restore 1
 628 0324 03340101 		ld	s0,16(sp)
 629              		.cfi_restore 8
 630              		.cfi_def_cfa 2, 32
 631 0328 13010102 		addi	sp,sp,32
 632              		.cfi_def_cfa_offset 0
 633 032c 67800000 		jr	ra
 634              	.L23:
 635              		.cfi_restore_state
 636              	.LBB138:
 637              	.LBB133:
  78:src/riscv.cpp ****         if ((*((char *) CONSOLE_STATUS) & CONSOLE_RX_STATUS_BIT)) {
 638              		.loc 1 78 9 is_stmt 1
 639              	.LBB134:
  78:src/riscv.cpp ****         if ((*((char *) CONSOLE_STATUS) & CONSOLE_RX_STATUS_BIT)) {
 640              		.loc 1 78 14 is_stmt 0
 641 0330 97070000 		la	a5,CONSOLE_STATUS
 641      83B70700 
 642 0338 83B70700 		ld	a5,0(a5)
 643 033c 83C70700 		lbu	a5,0(a5)
  78:src/riscv.cpp ****         if ((*((char *) CONSOLE_STATUS) & CONSOLE_RX_STATUS_BIT)) {
 644              		.loc 1 78 9
 645 0340 93F71700 		andi	a5,a5,1
 646 0344 639A0700 		bnez	a5,.L24
 647              	.L21:
 648              	.LBE134:
  82:src/riscv.cpp ****     }
 649              		.loc 1 82 9 is_stmt 1
  82:src/riscv.cpp ****     }
 650              		.loc 1 82 22 is_stmt 0
 651 0348 1305A000 		li	a0,10
 652 034c 97000000 		call	plic_complete@plt
 652      E7800000 
 653              	.LVL57:
 654              	.LBE133:
 655              	.LBE138:
 656              		.loc 1 84 1
 657 0354 6FF0DFFC 		j	.L19
 658              	.L24:
 659              	.LBB139:
 660              	.LBB137:
 661              	.LBB136:
 662              	.LBB135:
  79:src/riscv.cpp ****             IO::Input.put(c);
GAS LISTING /tmp/cclWgKMm.s 			page 23


 663              		.loc 1 79 13 is_stmt 1
  79:src/riscv.cpp ****             IO::Input.put(c);
 664              		.loc 1 79 31 is_stmt 0
 665 0358 97070000 		la	a5,CONSOLE_RX_DATA
 665      83B70700 
 666 0360 83B70700 		ld	a5,0(a5)
 667 0364 83C70700 		lbu	a5,0(a5)
  79:src/riscv.cpp ****             IO::Input.put(c);
 668              		.loc 1 79 27
 669 0368 A307F4FE 		sb	a5,-17(s0)
  80:src/riscv.cpp ****         }
 670              		.loc 1 80 13 is_stmt 1
  80:src/riscv.cpp ****         }
 671              		.loc 1 80 26 is_stmt 0
 672 036c 8345F4FE 		lbu	a1,-17(s0)
 673 0370 93F5F50F 		andi	a1,a1,0xff
 674 0374 17050000 		la	a0,_ZN2IO5InputE
 674      03350500 
 675 037c 97000000 		call	_ZN8IOBuffer3putEc@plt
 675      E7800000 
 676              	.LVL58:
 677              	.LBE135:
 678 0384 6FF05FFC 		j	.L21
 679              	.LBE136:
 680              	.LBE137:
 681              	.LBE139:
 682              		.cfi_endproc
 683              	.LFE67:
 685              		.align	2
 686              		.globl	_ZN5riscv10popSppSpieEv
 688              	_ZN5riscv10popSppSpieEv:
 689              	.LFB68:
  85:src/riscv.cpp **** 
  86:src/riscv.cpp **** void riscv::popSppSpie() {
 690              		.loc 1 86 26 is_stmt 1
 691              		.cfi_startproc
 692 0388 130101FF 		addi	sp,sp,-16
 693              		.cfi_def_cfa_offset 16
 694 038c 23348100 		sd	s0,8(sp)
 695              		.cfi_offset 8, -8
 696 0390 13040101 		addi	s0,sp,16
 697              		.cfi_def_cfa 8, 0
  87:src/riscv.cpp ****     riscv::mc_sstatus(riscv::SSTATUS_SPP);
 698              		.loc 1 87 5
 699              	.LVL59:
 700              	.LBB140:
 701              	.LBB141:
 174:src/../h/riscv.hpp **** }
 702              		.loc 2 174 5
 174:src/../h/riscv.hpp **** }
 703              		.loc 2 174 68 is_stmt 0
 704 0394 93070010 		li	a5,256
 705              	#APP
 706              	# 174 "src/../h/riscv.hpp" 1
 707              		csrc sstatus, a5
 708              	# 0 "" 2
 709              	.LVL60:
GAS LISTING /tmp/cclWgKMm.s 			page 24


 710              	#NO_APP
 711              	.LBE141:
 712              	.LBE140:
  88:src/riscv.cpp ****     __asm__ volatile("csrw sepc, ra");
 713              		.loc 1 88 5 is_stmt 1
 714              		.loc 1 88 38 is_stmt 0
 715              	#APP
 716              	# 88 "src/riscv.cpp" 1
  89              	    __asm__ volatile("sret");
 717              		csrw sepc, ra
 718              	# 0 "" 2
 719              		.loc 1 89 5 is_stmt 1
 720              		.loc 1 89 29 is_stmt 0
 721              	# 89 "src/riscv.cpp" 1
  90              	}
 722              		sret
 723              	# 0 "" 2
 724              		.loc 1 90 1
 725              	#NO_APP
 726 03a4 03348100 		ld	s0,8(sp)
 727              		.cfi_restore 8
 728              		.cfi_def_cfa 2, 16
 729 03a8 13010101 		addi	sp,sp,16
 730              		.cfi_def_cfa_offset 0
 731 03ac 67800000 		jr	ra
 732              		.cfi_endproc
 733              	.LFE68:
 735              		.section	.rodata.str1.8
 736 003c 00000000 		.align	3
 737              	.LC4:
 738 0040 496C6C65 		.string	"Illegal read address"
 738      67616C20 
 738      72656164 
 738      20616464 
 738      72657373 
 739              		.text
 740              		.align	2
 741              		.globl	_ZN5riscv14handleReadTrapEv
 743              	_ZN5riscv14handleReadTrapEv:
 744              	.LFB69:
  91:src/riscv.cpp **** 
  92:src/riscv.cpp **** void riscv::handleReadTrap() {
 745              		.loc 1 92 30 is_stmt 1
 746              		.cfi_startproc
 747              		.cfi_personality 0x9b,DW.ref.__gxx_personality_v0
 748              		.cfi_lsda 0x1b,.LLSDA69
 749 03b0 130101FB 		addi	sp,sp,-80
 750              		.cfi_def_cfa_offset 80
 751 03b4 23341104 		sd	ra,72(sp)
 752 03b8 23308104 		sd	s0,64(sp)
 753 03bc 233C9102 		sd	s1,56(sp)
 754              		.cfi_offset 1, -8
 755              		.cfi_offset 8, -16
 756              		.cfi_offset 9, -24
 757 03c0 13040105 		addi	s0,sp,80
 758              		.cfi_def_cfa 8, 0
  93:src/riscv.cpp ****     handleException("Illegal read address");
GAS LISTING /tmp/cclWgKMm.s 			page 25


 759              		.loc 1 93 5
 760              		.loc 1 93 20 is_stmt 0
 761 03c4 97050000 		lla	a1,.LC4
 761      93850500 
 762 03cc 930404FB 		addi	s1,s0,-80
 763 03d0 13850400 		mv	a0,s1
 764              	.LEHB3:
 765 03d4 97000000 		call	_ZN3stm6stringC1EPKc@plt
 765      E7800000 
 766              	.LVL61:
 767              	.LEHE3:
 768 03dc 13850400 		mv	a0,s1
 769              	.LEHB4:
 770 03e0 97000000 		call	_ZN5riscv15handleExceptionERKN3stm6stringE
 770      E7800000 
 771              	.LVL62:
 772              	.LEHE4:
  89:src/../h/string.hpp **** 
 773              		.loc 4 89 21 is_stmt 1
 774              	.LBB142:
 775              	.LBB143:
 776              	.LBB144:
 777              		.loc 4 96 26
 778              		.loc 4 96 41 is_stmt 0
 779 03e8 033584FB 		ld	a0,-72(s0)
 780              		.loc 4 96 54
 781 03ec 63060500 		beqz	a0,.L27
 782              		.loc 4 96 41
 783 03f0 97000000 		call	_ZdaPv@plt
 783      E7800000 
 784              	.LVL63:
 785              	.L27:
 786              	.LBE144:
 787              	.LBE143:
 788              	.LBE142:
  94:src/riscv.cpp **** }
 789              		.loc 1 94 1
 790 03f8 83308104 		ld	ra,72(sp)
 791              		.cfi_remember_state
 792              		.cfi_restore 1
 793 03fc 03340104 		ld	s0,64(sp)
 794              		.cfi_restore 8
 795              		.cfi_def_cfa 2, 80
 796 0400 83348103 		ld	s1,56(sp)
 797              		.cfi_restore 9
 798 0404 13010105 		addi	sp,sp,80
 799              		.cfi_def_cfa_offset 0
 800 0408 67800000 		jr	ra
 801              	.L31:
 802              		.cfi_restore_state
 803 040c 93040500 		mv	s1,a0
 804              	.LVL64:
  89:src/../h/string.hpp **** 
 805              		.loc 4 89 21 is_stmt 1
 806              	.LBB145:
 807              	.LBB146:
 808              	.LBB147:
GAS LISTING /tmp/cclWgKMm.s 			page 26


 809              		.loc 4 96 26
 810              		.loc 4 96 41 is_stmt 0
 811 0410 033584FB 		ld	a0,-72(s0)
 812              		.loc 4 96 54
 813 0414 63060500 		beqz	a0,.L30
 814              		.loc 4 96 41
 815 0418 97000000 		call	_ZdaPv@plt
 815      E7800000 
 816              	.LVL65:
 817              	.L30:
 818 0420 13850400 		mv	a0,s1
 819              	.LEHB5:
 820 0424 97000000 		call	_Unwind_Resume@plt
 820      E7800000 
 821              	.LVL66:
 822              	.LEHE5:
 823              	.LBE147:
 824              	.LBE146:
 825              	.LBE145:
 826              		.cfi_endproc
 827              	.LFE69:
 828              		.section	.gcc_except_table
 829              	.LLSDA69:
 830 002b FF       		.byte	0xff
 831 002c FF       		.byte	0xff
 832 002d 03       		.byte	0x3
 833 002e 27       		.byte	0x27
 834 002f 00000000 		.4byte	.LEHB3-.LFB69
 835 0033 00000000 		.4byte	.LEHE3-.LEHB3
 836 0037 00000000 		.4byte	0
 837 003b 00       		.byte	0
 838 003c 00000000 		.4byte	.LEHB4-.LFB69
 839 0040 00000000 		.4byte	.LEHE4-.LEHB4
 840 0044 00000000 		.4byte	.L31-.LFB69
 841 0048 00       		.byte	0
 842 0049 00000000 		.4byte	.LEHB5-.LFB69
 843 004d 00000000 		.4byte	.LEHE5-.LEHB5
 844 0051 00000000 		.4byte	0
 845 0055 00       		.byte	0
 846              		.text
 848              		.section	.rodata.str1.8
 849 0055 000000   		.align	3
 850              	.LC5:
 851 0058 496C6C65 		.string	"Illegal write address"
 851      67616C20 
 851      77726974 
 851      65206164 
 851      64726573 
 852              		.text
 853              		.align	2
 854              		.globl	_ZN5riscv15handleWriteTrapEv
 856              	_ZN5riscv15handleWriteTrapEv:
 857              	.LFB70:
  95:src/riscv.cpp **** 
  96:src/riscv.cpp **** void riscv::handleWriteTrap() {
 858              		.loc 1 96 31 is_stmt 1
 859              		.cfi_startproc
GAS LISTING /tmp/cclWgKMm.s 			page 27


 860              		.cfi_personality 0x9b,DW.ref.__gxx_personality_v0
 861              		.cfi_lsda 0x1b,.LLSDA70
 862 042c 130101FB 		addi	sp,sp,-80
 863              		.cfi_def_cfa_offset 80
 864 0430 23341104 		sd	ra,72(sp)
 865 0434 23308104 		sd	s0,64(sp)
 866 0438 233C9102 		sd	s1,56(sp)
 867              		.cfi_offset 1, -8
 868              		.cfi_offset 8, -16
 869              		.cfi_offset 9, -24
 870 043c 13040105 		addi	s0,sp,80
 871              		.cfi_def_cfa 8, 0
  97:src/riscv.cpp ****     handleException("Illegal write address");
 872              		.loc 1 97 5
 873              		.loc 1 97 20 is_stmt 0
 874 0440 97050000 		lla	a1,.LC5
 874      93850500 
 875 0448 930404FB 		addi	s1,s0,-80
 876 044c 13850400 		mv	a0,s1
 877              	.LEHB6:
 878 0450 97000000 		call	_ZN3stm6stringC1EPKc@plt
 878      E7800000 
 879              	.LVL67:
 880              	.LEHE6:
 881 0458 13850400 		mv	a0,s1
 882              	.LEHB7:
 883 045c 97000000 		call	_ZN5riscv15handleExceptionERKN3stm6stringE
 883      E7800000 
 884              	.LVL68:
 885              	.LEHE7:
  89:src/../h/string.hpp **** 
 886              		.loc 4 89 21 is_stmt 1
 887              	.LBB148:
 888              	.LBB149:
 889              	.LBB150:
 890              		.loc 4 96 26
 891              		.loc 4 96 41 is_stmt 0
 892 0464 033584FB 		ld	a0,-72(s0)
 893              		.loc 4 96 54
 894 0468 63060500 		beqz	a0,.L33
 895              		.loc 4 96 41
 896 046c 97000000 		call	_ZdaPv@plt
 896      E7800000 
 897              	.LVL69:
 898              	.L33:
 899              	.LBE150:
 900              	.LBE149:
 901              	.LBE148:
  98:src/riscv.cpp **** }...
 902              		.loc 1 98 1
 903 0474 83308104 		ld	ra,72(sp)
 904              		.cfi_remember_state
 905              		.cfi_restore 1
 906 0478 03340104 		ld	s0,64(sp)
 907              		.cfi_restore 8
 908              		.cfi_def_cfa 2, 80
 909 047c 83348103 		ld	s1,56(sp)
GAS LISTING /tmp/cclWgKMm.s 			page 28


 910              		.cfi_restore 9
 911 0480 13010105 		addi	sp,sp,80
 912              		.cfi_def_cfa_offset 0
 913 0484 67800000 		jr	ra
 914              	.L37:
 915              		.cfi_restore_state
 916 0488 93040500 		mv	s1,a0
 917              	.LVL70:
  89:src/../h/string.hpp **** 
 918              		.loc 4 89 21 is_stmt 1
 919              	.LBB151:
 920              	.LBB152:
 921              	.LBB153:
 922              		.loc 4 96 26
 923              		.loc 4 96 41 is_stmt 0
 924 048c 033584FB 		ld	a0,-72(s0)
 925              		.loc 4 96 54
 926 0490 63060500 		beqz	a0,.L36
 927              		.loc 4 96 41
 928 0494 97000000 		call	_ZdaPv@plt
 928      E7800000 
 929              	.LVL71:
 930              	.L36:
 931 049c 13850400 		mv	a0,s1
 932              	.LEHB8:
 933 04a0 97000000 		call	_Unwind_Resume@plt
 933      E7800000 
 934              	.LVL72:
 935              	.LEHE8:
 936              	.LBE153:
 937              	.LBE152:
 938              	.LBE151:
 939              		.cfi_endproc
 940              	.LFE70:
 941              		.section	.gcc_except_table
 942              	.LLSDA70:
 943 0056 FF       		.byte	0xff
 944 0057 FF       		.byte	0xff
 945 0058 03       		.byte	0x3
 946 0059 27       		.byte	0x27
 947 005a 00000000 		.4byte	.LEHB6-.LFB70
 948 005e 00000000 		.4byte	.LEHE6-.LEHB6
 949 0062 00000000 		.4byte	0
 950 0066 00       		.byte	0
 951 0067 00000000 		.4byte	.LEHB7-.LFB70
 952 006b 00000000 		.4byte	.LEHE7-.LEHB7
 953 006f 00000000 		.4byte	.L37-.LFB70
 954 0073 00       		.byte	0
 955 0074 00000000 		.4byte	.LEHB8-.LFB70
 956 0078 00000000 		.4byte	.LEHE8-.LEHB8
 957 007c 00000000 		.4byte	0
 958 0080 00       		.byte	0
 959              		.text
 961              		.globl	_ZN5riscv13syscall_tableE
 962              		.section	.data.rel,"aw"
 963              		.align	3
 964              		.set	.LANCHOR0,. + 0
GAS LISTING /tmp/cclWgKMm.s 			page 29


 967              	_ZN5riscv13syscall_tableE:
 968 0000 00000000 		.dword	_ZN9Allocator10_mem_allocEm
 968      00000000 
 969 0008 00000000 		.dword	_ZN9Allocator9_mem_freeEPKv
 969      00000000 
 970 0010 00000000 		.dword	_ZN3TCB14_thread_createEPPS_PFvPvES2_Pc
 970      00000000 
 971 0018 00000000 		.dword	_ZN3TCB12_thread_exitEv
 971      00000000 
 972 0020 00000000 		.dword	_ZN3TCB16_thread_dispatchEv
 972      00000000 
 973 0028 00000000 		.dword	_ZN3TCB12_thread_joinEPS_
 973      00000000 
 974 0030 00000000 		.dword	_ZN3TCB17_thread_join_timeEPS_m
 974      00000000 
 975 0038 00000000 		.dword	_ZN3TCB5_forkEv
 975      00000000 
 976 0040 00000000 		.dword	_ZN3TCB5_killEPS_
 976      00000000 
 977 0048 00000000 		.dword	_ZN3Sem9_sem_openEPPS_j
 977      00000000 
 978 0050 00000000 		.dword	_ZN3Sem10_sem_closeEPS_
 978      00000000 
 979 0058 00000000 		.dword	_ZN3Sem9_sem_waitEPS_
 979      00000000 
 980 0060 00000000 		.dword	_ZN3Sem11_sem_signalEPS_
 980      00000000 
 981 0068 00000000 		.dword	_ZN3Sem15_sem_signal_allEPS_
 981      00000000 
 982 0070 00000000 		.dword	_ZN3Sem16_sem_signal_waitEPS_S0_
 982      00000000 
 983 0078 00000000 		.dword	_ZN6Cradle11_time_sleepEm
 983      00000000 
 984 0080 00000000 		.dword	_ZN6Cradle12_thread_wakeEP3TCB
 984      00000000 
 985 0088 00000000 		.dword	_ZN2IO5_getcEv
 985      00000000 
 986 0090 00000000 		.dword	_ZN2IO5_putcEc
 986      00000000 
 987              		.text
 988              	.Letext0:
 989              		.file 8 "src/../lib/hw.h"
 990              		.file 9 "src/../h/syscall_c.hpp"
 991              		.file 10 "src/../h/c_semaphore.hpp"
 992              		.file 11 "src/../h/iostream.hpp"
 993              		.file 12 "src/../h/c_sleep.hpp"
 6773              		.align	3
 6776              	DW.ref.__gxx_personality_v0:
 6777 0000 00000000 		.dword	__gxx_personality_v0
 6777      00000000 
 6778              		.ident	"GCC: (Ubuntu 9.4.0-1ubuntu1~20.04) 9.4.0"
 6779              		.section	.note.GNU-stack,"",@progbits
GAS LISTING /tmp/cclWgKMm.s 			page 30

