GAS LISTING /tmp/ccuNIiLd.s 			page 1


   1              		.file	"riscv.cpp"
   2              		.option pic
   3              		.option norelax
   4              		.text
   5              	.Ltext0:
   6              		.section	.rodata.str1.8,"aMS",@progbits,1
   7              		.align	3
   8              	.LC0:
   9 0000 0A496C6C 		.string	"\nIllegal Instruction\n"
   9      6567616C 
   9      20496E73 
   9      74727563 
   9      74696F6E 
  10              		.text
  11              		.align	2
  12              		.globl	_ZN5Riscv20handleSupervisorTrapEmmmmm
  14              	_ZN5Riscv20handleSupervisorTrapEmmmmm:
  15              	.LFB45:
  16              		.file 1 "src/riscv.cpp"
   1:src/riscv.cpp **** #include "../lib/hw.h"
   2:src/riscv.cpp **** #include "../h/c_thread.hpp"
   3:src/riscv.cpp **** #include "../h/c_semaphore.hpp"
   4:src/riscv.cpp **** #include "../h/riscv.hpp"
   5:src/riscv.cpp **** #include "../h/c_console.hpp"
   6:src/riscv.cpp **** #include "../h/c_sleep.hpp"
   7:src/riscv.cpp **** #include "../h/scheduler.hpp"
   8:src/riscv.cpp **** 
   9:src/riscv.cpp **** Riscv::syscall_f Riscv::syscall_table[SYSCALL_COUNT] = {
  10:src/riscv.cpp ****         reinterpret_cast<Riscv::syscall_f>(Allocator::_mem_alloc),
  11:src/riscv.cpp ****         reinterpret_cast<Riscv::syscall_f>(Allocator::_mem_free),
  12:src/riscv.cpp ****         reinterpret_cast<Riscv::syscall_f>(TCB::_thread_create),
  13:src/riscv.cpp ****         reinterpret_cast<Riscv::syscall_f>(TCB::_thread_exit),
  14:src/riscv.cpp ****         reinterpret_cast<Riscv::syscall_f>(TCB::_thread_dispatch),
  15:src/riscv.cpp ****         reinterpret_cast<Riscv::syscall_f>(TCB::_thread_join),
  16:src/riscv.cpp ****         reinterpret_cast<Riscv::syscall_f>(TCB::_thread_join_time),
  17:src/riscv.cpp ****         reinterpret_cast<Riscv::syscall_f>(TCB::_fork),
  18:src/riscv.cpp ****         reinterpret_cast<Riscv::syscall_f>(TCB::_kill),
  19:src/riscv.cpp ****         reinterpret_cast<Riscv::syscall_f>(Sem::_sem_open),
  20:src/riscv.cpp ****         reinterpret_cast<Riscv::syscall_f>(Sem::_sem_close),
  21:src/riscv.cpp ****         reinterpret_cast<Riscv::syscall_f>(Sem::_sem_wait),
  22:src/riscv.cpp ****         reinterpret_cast<Riscv::syscall_f>(Sem::_sem_signal),
  23:src/riscv.cpp ****         reinterpret_cast<Riscv::syscall_f>(Sem::_sem_signal_all),
  24:src/riscv.cpp ****         reinterpret_cast<Riscv::syscall_f>(Sem::_sem_signal_wait),
  25:src/riscv.cpp ****         reinterpret_cast<Riscv::syscall_f>(Cradle::_time_sleep),
  26:src/riscv.cpp ****         reinterpret_cast<Riscv::syscall_f>(Cradle::_thread_wake),
  27:src/riscv.cpp ****         reinterpret_cast<Riscv::syscall_f>(IO::_getc),
  28:src/riscv.cpp ****         reinterpret_cast<Riscv::syscall_f>(IO::_putc)
  29:src/riscv.cpp **** };
  30:src/riscv.cpp **** 
  31:src/riscv.cpp **** void Riscv::handleSupervisorTrap(uint64 code, uint64 arg1, uint64 arg2, uint64 arg3, uint64 arg4) {
  17              		.loc 1 31 99
  18              		.cfi_startproc
  19              	.LVL0:
  20 0000 130101F9 		addi	sp,sp,-112
  21              		.cfi_def_cfa_offset 112
  22 0004 23341106 		sd	ra,104(sp)
  23 0008 23308106 		sd	s0,96(sp)
GAS LISTING /tmp/ccuNIiLd.s 			page 2


  24 000c 233C9104 		sd	s1,88(sp)
  25 0010 23382105 		sd	s2,80(sp)
  26 0014 23343105 		sd	s3,72(sp)
  27 0018 23304105 		sd	s4,64(sp)
  28 001c 233C5103 		sd	s5,56(sp)
  29 0020 23386103 		sd	s6,48(sp)
  30 0024 23347103 		sd	s7,40(sp)
  31              		.cfi_offset 1, -8
  32              		.cfi_offset 8, -16
  33              		.cfi_offset 9, -24
  34              		.cfi_offset 18, -32
  35              		.cfi_offset 19, -40
  36              		.cfi_offset 20, -48
  37              		.cfi_offset 21, -56
  38              		.cfi_offset 22, -64
  39              		.cfi_offset 23, -72
  40 0028 13040107 		addi	s0,sp,112
  41              		.cfi_def_cfa 8, 0
  42 002c 93040500 		mv	s1,a0
  43 0030 93890500 		mv	s3,a1
  44 0034 130A0600 		mv	s4,a2
  45 0038 938A0600 		mv	s5,a3
  46 003c 130B0700 		mv	s6,a4
  32:src/riscv.cpp ****     uint64 sstatus = r_sstatus();
  47              		.loc 1 32 5
  48              	.LBB68:
  49              	.LBB69:
  50              		.file 2 "src/../h/riscv.hpp"
   1:src/../h/riscv.hpp **** #ifndef PROJECT_BASE_RISCV_HPP
   2:src/../h/riscv.hpp **** #define PROJECT_BASE_RISCV_HPP
   3:src/../h/riscv.hpp **** 
   4:src/../h/riscv.hpp **** #include "../lib/hw.h"
   5:src/../h/riscv.hpp **** 
   6:src/../h/riscv.hpp **** extern "C" void supervisorTrap();
   7:src/../h/riscv.hpp **** 
   8:src/../h/riscv.hpp **** class Riscv {
   9:src/../h/riscv.hpp **** public:
  10:src/../h/riscv.hpp **** 
  11:src/../h/riscv.hpp ****     static void handleSupervisorTrap(uint64, uint64, uint64, uint64, uint64);
  12:src/../h/riscv.hpp **** 
  13:src/../h/riscv.hpp ****     static void handleTimerTrap();
  14:src/../h/riscv.hpp **** 
  15:src/../h/riscv.hpp ****     static void handleReadTrap();
  16:src/../h/riscv.hpp **** 
  17:src/../h/riscv.hpp ****     static void handleWriteTrap();
  18:src/../h/riscv.hpp **** 
  19:src/../h/riscv.hpp ****     static void popSppSpie();
  20:src/../h/riscv.hpp **** 
  21:src/../h/riscv.hpp ****     static void handleConsoleTrap();
  22:src/../h/riscv.hpp **** 
  23:src/../h/riscv.hpp ****     static void push();
  24:src/../h/riscv.hpp **** 
  25:src/../h/riscv.hpp ****     static void pop();
  26:src/../h/riscv.hpp **** 
  27:src/../h/riscv.hpp ****     // read register scause
  28:src/../h/riscv.hpp ****     static uint64 r_scause();
  29:src/../h/riscv.hpp **** 
GAS LISTING /tmp/ccuNIiLd.s 			page 3


  30:src/../h/riscv.hpp ****     // write register scause
  31:src/../h/riscv.hpp ****     static void w_scause(uint64 scause);
  32:src/../h/riscv.hpp **** 
  33:src/../h/riscv.hpp ****     // read register sepc
  34:src/../h/riscv.hpp ****     static uint64 r_sepc();
  35:src/../h/riscv.hpp **** 
  36:src/../h/riscv.hpp ****     // write register sepc
  37:src/../h/riscv.hpp ****     static void w_sepc(uint64 sepc);
  38:src/../h/riscv.hpp **** 
  39:src/../h/riscv.hpp ****     // read register stvec
  40:src/../h/riscv.hpp ****     static uint64 r_stvec();
  41:src/../h/riscv.hpp **** 
  42:src/../h/riscv.hpp ****     // write register stvec
  43:src/../h/riscv.hpp ****     static void w_stvec(uint64 stvec);
  44:src/../h/riscv.hpp **** 
  45:src/../h/riscv.hpp ****     // read register stval
  46:src/../h/riscv.hpp ****     static uint64 r_stval();
  47:src/../h/riscv.hpp **** 
  48:src/../h/riscv.hpp ****     // write register stval
  49:src/../h/riscv.hpp ****     static void w_stval(uint64 stval);
  50:src/../h/riscv.hpp **** 
  51:src/../h/riscv.hpp ****     enum BitMaskSip {
  52:src/../h/riscv.hpp ****         SIP_SSIE = (1 << 1),
  53:src/../h/riscv.hpp ****         SIP_STIE = (1 << 5),
  54:src/../h/riscv.hpp ****         SIP_SEIE = (1 << 9),
  55:src/../h/riscv.hpp ****     };
  56:src/../h/riscv.hpp **** 
  57:src/../h/riscv.hpp ****     // mask set register sip
  58:src/../h/riscv.hpp ****     static void ms_sip(uint64 mask);
  59:src/../h/riscv.hpp **** 
  60:src/../h/riscv.hpp ****     // mask clear register sip
  61:src/../h/riscv.hpp ****     static void mc_sip(uint64 mask);
  62:src/../h/riscv.hpp **** 
  63:src/../h/riscv.hpp ****     // read register sip
  64:src/../h/riscv.hpp ****     static uint64 r_sip();
  65:src/../h/riscv.hpp **** 
  66:src/../h/riscv.hpp ****     // write register sip
  67:src/../h/riscv.hpp ****     static void w_sip(uint64 sip);
  68:src/../h/riscv.hpp **** 
  69:src/../h/riscv.hpp ****     enum BitMaskSstatus {
  70:src/../h/riscv.hpp ****         SSTATUS_SIE = (1 << 1),
  71:src/../h/riscv.hpp ****         SSTATUS_SPIE = (1 << 5),
  72:src/../h/riscv.hpp ****         SSTATUS_SPP = (1 << 8),
  73:src/../h/riscv.hpp ****     };
  74:src/../h/riscv.hpp **** 
  75:src/../h/riscv.hpp ****     // mask set register sstatus
  76:src/../h/riscv.hpp ****     static void ms_sstatus(uint64 mask);
  77:src/../h/riscv.hpp **** 
  78:src/../h/riscv.hpp ****     // mask clear register sstatus
  79:src/../h/riscv.hpp ****     static void mc_sstatus(uint64 mask);
  80:src/../h/riscv.hpp **** 
  81:src/../h/riscv.hpp ****     // read register sstatus
  82:src/../h/riscv.hpp ****     static uint64 r_sstatus();
  83:src/../h/riscv.hpp **** 
  84:src/../h/riscv.hpp ****     // write register sstatus
  85:src/../h/riscv.hpp ****     static void w_sstatus(uint64 sstatus);
  86:src/../h/riscv.hpp **** 
GAS LISTING /tmp/ccuNIiLd.s 			page 4


  87:src/../h/riscv.hpp ****     static uint64 r_sscratch();
  88:src/../h/riscv.hpp **** 
  89:src/../h/riscv.hpp **** private:
  90:src/../h/riscv.hpp **** 
  91:src/../h/riscv.hpp ****     enum Scause {
  92:src/../h/riscv.hpp ****         ILLEGAL_INSTRUCTION = 2,
  93:src/../h/riscv.hpp ****     };
  94:src/../h/riscv.hpp **** 
  95:src/../h/riscv.hpp ****     typedef uint64 (*syscall_f)(uint64, uint64, uint64, uint64);
  96:src/../h/riscv.hpp **** 
  97:src/../h/riscv.hpp ****     static syscall_f syscall_table[SYSCALL_COUNT];
  98:src/../h/riscv.hpp **** };
  99:src/../h/riscv.hpp **** 
 100:src/../h/riscv.hpp **** inline uint64 Riscv::r_sscratch() {
 101:src/../h/riscv.hpp ****     uint64 volatile sscratch;
 102:src/../h/riscv.hpp ****     __asm__ volatile ("csrr %[scause], scause" : [scause] "=r"(sscratch));
 103:src/../h/riscv.hpp ****     return sscratch;
 104:src/../h/riscv.hpp **** }
 105:src/../h/riscv.hpp **** 
 106:src/../h/riscv.hpp **** inline uint64 Riscv::r_scause() {
 107:src/../h/riscv.hpp ****     uint64 volatile scause;
 108:src/../h/riscv.hpp ****     __asm__ volatile ("csrr %[scause], scause" : [scause] "=r"(scause));
 109:src/../h/riscv.hpp ****     return scause;
 110:src/../h/riscv.hpp **** }
 111:src/../h/riscv.hpp **** 
 112:src/../h/riscv.hpp **** inline void Riscv::w_scause(uint64 scause) {
 113:src/../h/riscv.hpp ****     __asm__ volatile ("csrw scause, %[scause]" : : [scause] "r"(scause));
 114:src/../h/riscv.hpp **** }
 115:src/../h/riscv.hpp **** 
 116:src/../h/riscv.hpp **** inline uint64 Riscv::r_sepc() {
 117:src/../h/riscv.hpp ****     uint64 volatile sepc;
 118:src/../h/riscv.hpp ****     __asm__ volatile ("csrr %[sepc], sepc" : [sepc] "=r"(sepc));
 119:src/../h/riscv.hpp ****     return sepc;
 120:src/../h/riscv.hpp **** }
 121:src/../h/riscv.hpp **** 
 122:src/../h/riscv.hpp **** inline void Riscv::w_sepc(uint64 sepc) {
 123:src/../h/riscv.hpp ****     __asm__ volatile ("csrw sepc, %[sepc]" : : [sepc] "r"(sepc));
 124:src/../h/riscv.hpp **** }
 125:src/../h/riscv.hpp **** 
 126:src/../h/riscv.hpp **** inline uint64 Riscv::r_stvec() {
 127:src/../h/riscv.hpp ****     uint64 volatile stvec;
 128:src/../h/riscv.hpp ****     __asm__ volatile ("csrr %[stvec], stvec" : [stvec] "=r"(stvec));
 129:src/../h/riscv.hpp ****     return stvec;
 130:src/../h/riscv.hpp **** }
 131:src/../h/riscv.hpp **** 
 132:src/../h/riscv.hpp **** inline void Riscv::w_stvec(uint64 stvec) {
 133:src/../h/riscv.hpp ****     __asm__ volatile ("csrw stvec, %[stvec]" : : [stvec] "r"(stvec));
 134:src/../h/riscv.hpp **** }
 135:src/../h/riscv.hpp **** 
 136:src/../h/riscv.hpp **** inline uint64 Riscv::r_stval() {
 137:src/../h/riscv.hpp ****     uint64 volatile stval;
 138:src/../h/riscv.hpp ****     __asm__ volatile ("csrr %[stval], stval" : [stval] "=r"(stval));
 139:src/../h/riscv.hpp ****     return stval;
 140:src/../h/riscv.hpp **** }
 141:src/../h/riscv.hpp **** 
 142:src/../h/riscv.hpp **** inline void Riscv::w_stval(uint64 stval) {
 143:src/../h/riscv.hpp ****     __asm__ volatile ("csrw stval, %[stval]" : : [stval] "r"(stval));
GAS LISTING /tmp/ccuNIiLd.s 			page 5


 144:src/../h/riscv.hpp **** }
 145:src/../h/riscv.hpp **** 
 146:src/../h/riscv.hpp **** inline void Riscv::ms_sip(uint64 mask) {
 147:src/../h/riscv.hpp ****     __asm__ volatile ("csrs sip, %[mask]" : : [mask] "r"(mask));
 148:src/../h/riscv.hpp **** }
 149:src/../h/riscv.hpp **** 
 150:src/../h/riscv.hpp **** inline void Riscv::mc_sip(uint64 mask) {
 151:src/../h/riscv.hpp ****     __asm__ volatile ("csrc sip, %[mask]" : : [mask] "r"(mask));
 152:src/../h/riscv.hpp **** }
 153:src/../h/riscv.hpp **** 
 154:src/../h/riscv.hpp **** inline uint64 Riscv::r_sip() {
 155:src/../h/riscv.hpp ****     uint64 volatile sip;
 156:src/../h/riscv.hpp ****     __asm__ volatile ("csrr %[sip], sip" : [sip] "=r"(sip));
 157:src/../h/riscv.hpp ****     return sip;
 158:src/../h/riscv.hpp **** }
 159:src/../h/riscv.hpp **** 
 160:src/../h/riscv.hpp **** inline void Riscv::w_sip(uint64 sip) {
 161:src/../h/riscv.hpp ****     __asm__ volatile ("csrw sip, %[sip]" : : [sip] "r"(sip));
 162:src/../h/riscv.hpp **** }
 163:src/../h/riscv.hpp **** 
 164:src/../h/riscv.hpp **** inline void Riscv::ms_sstatus(uint64 mask) {
 165:src/../h/riscv.hpp ****     __asm__ volatile ("csrs sstatus, %[mask]" : : [mask] "r"(mask));
 166:src/../h/riscv.hpp **** }
 167:src/../h/riscv.hpp **** 
 168:src/../h/riscv.hpp **** inline void Riscv::mc_sstatus(uint64 mask) {
 169:src/../h/riscv.hpp ****     __asm__ volatile ("csrc sstatus, %[mask]" : : [mask] "r"(mask));
 170:src/../h/riscv.hpp **** }
 171:src/../h/riscv.hpp **** 
 172:src/../h/riscv.hpp **** inline uint64 Riscv::r_sstatus() {
 173:src/../h/riscv.hpp ****     uint64 volatile sstatus;
  51              		.loc 2 173 5
 174:src/../h/riscv.hpp ****     __asm__ volatile ("csrr %[sstatus], sstatus" : [sstatus] "=r"(sstatus));
  52              		.loc 2 174 5
  53              		.loc 2 174 76 is_stmt 0
  54              	#APP
  55              	# 174 "src/../h/riscv.hpp" 1
 175              	    return sstatus;
  56              		csrr a5, sstatus
  57              	# 0 "" 2
  58              	#NO_APP
  59 0044 2334F4FA 		sd	a5,-88(s0)
  60              		.loc 2 175 5 is_stmt 1
  61              		.loc 2 175 12 is_stmt 0
  62 0048 833B84FA 		ld	s7,-88(s0)
  63              	.LVL1:
  64              	.LBE69:
  65              	.LBE68:
  33:src/riscv.cpp ****     uint64 sepc = r_sepc();
  66              		.loc 1 33 5 is_stmt 1
  67              	.LBB70:
  68              	.LBB71:
 117:src/../h/riscv.hpp ****     __asm__ volatile ("csrr %[sepc], sepc" : [sepc] "=r"(sepc));
  69              		.loc 2 117 5
 118:src/../h/riscv.hpp ****     return sepc;
  70              		.loc 2 118 5
 118:src/../h/riscv.hpp ****     return sepc;
  71              		.loc 2 118 64 is_stmt 0
GAS LISTING /tmp/ccuNIiLd.s 			page 6


  72              	#APP
  73              	# 118 "src/../h/riscv.hpp" 1
  74              		csrr a5, sepc
  75              	# 0 "" 2
  76              	#NO_APP
  77 0050 2330F4FA 		sd	a5,-96(s0)
 119:src/../h/riscv.hpp **** }
  78              		.loc 2 119 5 is_stmt 1
 119:src/../h/riscv.hpp **** }
  79              		.loc 2 119 12 is_stmt 0
  80 0054 033904FA 		ld	s2,-96(s0)
  81              	.LVL2:
  82              	.LBE71:
  83              	.LBE70:
  34:src/riscv.cpp ****     if (r_scause() == ILLEGAL_INSTRUCTION) {
  84              		.loc 1 34 5 is_stmt 1
  85              	.LBB72:
  86              	.LBB73:
 107:src/../h/riscv.hpp ****     __asm__ volatile ("csrr %[scause], scause" : [scause] "=r"(scause));
  87              		.loc 2 107 5
 108:src/../h/riscv.hpp ****     return scause;
  88              		.loc 2 108 5
 108:src/../h/riscv.hpp ****     return scause;
  89              		.loc 2 108 72 is_stmt 0
  90              	#APP
  91              	# 108 "src/../h/riscv.hpp" 1
  92              		csrr a5, scause
  93              	# 0 "" 2
  94              	#NO_APP
  95 005c 233CF4F8 		sd	a5,-104(s0)
 109:src/../h/riscv.hpp **** }
  96              		.loc 2 109 5 is_stmt 1
 109:src/../h/riscv.hpp **** }
  97              		.loc 2 109 12 is_stmt 0
  98 0060 033784F9 		ld	a4,-104(s0)
  99              	.LVL3:
 100              	.LBE73:
 101              	.LBE72:
 102              		.loc 1 34 5
 103 0064 93072000 		li	a5,2
 104 0068 6302F706 		beq	a4,a5,.L4
 105              	.LVL4:
 106              	.L2:
  35:src/riscv.cpp ****         print("\nIllegal Instruction\n");
  36:src/riscv.cpp ****         TCB::_thread_exit();
  37:src/riscv.cpp ****     }
  38:src/riscv.cpp ****     syscall_table[code](arg1, arg2, arg3, arg4);
 107              		.loc 1 38 5 is_stmt 1
 108              		.loc 1 38 23 is_stmt 0
 109 006c 93943400 		slli	s1,s1,3
 110              	.LVL5:
 111 0070 97070000 		lla	a5,.LANCHOR0
 111      93870700 
 112 0078 B3849700 		add	s1,a5,s1
 113 007c 83B70400 		ld	a5,0(s1)
 114              		.loc 1 38 24
 115 0080 93060B00 		mv	a3,s6
GAS LISTING /tmp/ccuNIiLd.s 			page 7


 116 0084 13860A00 		mv	a2,s5
 117 0088 93050A00 		mv	a1,s4
 118 008c 13850900 		mv	a0,s3
 119 0090 E7800700 		jalr	a5
 120              	.LVL6:
  39:src/riscv.cpp ****     w_sepc(sepc + 4);
 121              		.loc 1 39 5 is_stmt 1
 122              		.loc 1 39 11 is_stmt 0
 123 0094 93074900 		addi	a5,s2,4
 124              	.LVL7:
 125              	.LBB74:
 126              	.LBB75:
 123:src/../h/riscv.hpp **** }
 127              		.loc 2 123 5 is_stmt 1
 123:src/../h/riscv.hpp **** }
 128              		.loc 2 123 65 is_stmt 0
 129              	#APP
 130              	# 123 "src/../h/riscv.hpp" 1
 131              		csrw sepc, a5
 132              	# 0 "" 2
 133              	.LVL8:
 134              	#NO_APP
 135              	.LBE75:
 136              	.LBE74:
  40:src/riscv.cpp ****     w_sstatus(sstatus);
 137              		.loc 1 40 5 is_stmt 1
 138              	.LBB76:
 139              	.LBB77:
 176:src/../h/riscv.hpp **** }
 177:src/../h/riscv.hpp **** 
 178:src/../h/riscv.hpp **** inline void Riscv::w_sstatus(uint64 sstatus) {
 179:src/../h/riscv.hpp ****     __asm__ volatile ("csrw sstatus, %[sstatus]" : : [sstatus] "r"(sstatus));
 140              		.loc 2 179 5
 141              		.loc 2 179 77 is_stmt 0
 142              	#APP
 143              	# 179 "src/../h/riscv.hpp" 1
 180              	}
 144              		csrw sstatus, s7
 145              	# 0 "" 2
 146              	.LVL9:
 147              	#NO_APP
 148              	.LBE77:
 149              	.LBE76:
  41:src/riscv.cpp **** }
 150              		.loc 1 41 1
 151 00a0 83308106 		ld	ra,104(sp)
 152              		.cfi_remember_state
 153              		.cfi_restore 1
 154 00a4 03340106 		ld	s0,96(sp)
 155              		.cfi_restore 8
 156              		.cfi_def_cfa 2, 112
 157 00a8 83348105 		ld	s1,88(sp)
 158              		.cfi_restore 9
 159 00ac 03390105 		ld	s2,80(sp)
 160              		.cfi_restore 18
 161              	.LVL10:
 162 00b0 83398104 		ld	s3,72(sp)
GAS LISTING /tmp/ccuNIiLd.s 			page 8


 163              		.cfi_restore 19
 164              	.LVL11:
 165 00b4 033A0104 		ld	s4,64(sp)
 166              		.cfi_restore 20
 167              	.LVL12:
 168 00b8 833A8103 		ld	s5,56(sp)
 169              		.cfi_restore 21
 170              	.LVL13:
 171 00bc 033B0103 		ld	s6,48(sp)
 172              		.cfi_restore 22
 173              	.LVL14:
 174 00c0 833B8102 		ld	s7,40(sp)
 175              		.cfi_restore 23
 176              	.LVL15:
 177 00c4 13010107 		addi	sp,sp,112
 178              		.cfi_def_cfa_offset 0
 179 00c8 67800000 		jr	ra
 180              	.LVL16:
 181              	.L4:
 182              		.cfi_restore_state
  35:src/riscv.cpp ****         TCB::_thread_exit();
 183              		.loc 1 35 9 is_stmt 1
  35:src/riscv.cpp ****         TCB::_thread_exit();
 184              		.loc 1 35 14 is_stmt 0
 185 00cc 17050000 		lla	a0,.LC0
 185      13050500 
 186 00d4 97000000 		call	_Z5printPKc@plt
 186      E7800000 
 187              	.LVL17:
  36:src/riscv.cpp ****     }
 188              		.loc 1 36 9 is_stmt 1
  36:src/riscv.cpp ****     }
 189              		.loc 1 36 26 is_stmt 0
 190 00dc 97000000 		call	_ZN3TCB12_thread_exitEv@plt
 190      E7800000 
 191              	.LVL18:
 192 00e4 6FF09FF8 		j	.L2
 193              		.cfi_endproc
 194              	.LFE45:
 196              		.align	2
 197              		.globl	_ZN5Riscv15handleTimerTrapEv
 199              	_ZN5Riscv15handleTimerTrapEv:
 200              	.LFB46:
  42:src/riscv.cpp **** 
  43:src/riscv.cpp **** 
  44:src/riscv.cpp **** void Riscv::handleTimerTrap() {
 201              		.loc 1 44 31 is_stmt 1
 202              		.cfi_startproc
 203 00e8 130101FD 		addi	sp,sp,-48
 204              		.cfi_def_cfa_offset 48
 205 00ec 23341102 		sd	ra,40(sp)
 206 00f0 23308102 		sd	s0,32(sp)
 207 00f4 233C9100 		sd	s1,24(sp)
 208 00f8 23382101 		sd	s2,16(sp)
 209              		.cfi_offset 1, -8
 210              		.cfi_offset 8, -16
 211              		.cfi_offset 9, -24
GAS LISTING /tmp/ccuNIiLd.s 			page 9


 212              		.cfi_offset 18, -32
 213 00fc 13040103 		addi	s0,sp,48
 214              		.cfi_def_cfa 8, 0
  45:src/riscv.cpp ****     uint64 sstatus = r_sstatus();
 215              		.loc 1 45 5
 216              	.LBB78:
 217              	.LBB79:
 173:src/../h/riscv.hpp ****     __asm__ volatile ("csrr %[sstatus], sstatus" : [sstatus] "=r"(sstatus));
 218              		.loc 2 173 5
 174:src/../h/riscv.hpp ****     return sstatus;
 219              		.loc 2 174 5
 174:src/../h/riscv.hpp ****     return sstatus;
 220              		.loc 2 174 76 is_stmt 0
 221              	#APP
 222              	# 174 "src/../h/riscv.hpp" 1
 223              		csrr a5, sstatus
 224              	# 0 "" 2
 225              	#NO_APP
 226 0104 233CF4FC 		sd	a5,-40(s0)
 175:src/../h/riscv.hpp **** }
 227              		.loc 2 175 5 is_stmt 1
 175:src/../h/riscv.hpp **** }
 228              		.loc 2 175 12 is_stmt 0
 229 0108 833484FD 		ld	s1,-40(s0)
 230              	.LVL19:
 231              	.LBE79:
 232              	.LBE78:
  46:src/riscv.cpp ****     uint64 sepc = r_sepc();
 233              		.loc 1 46 5 is_stmt 1
 234              	.LBB80:
 235              	.LBB81:
 117:src/../h/riscv.hpp ****     __asm__ volatile ("csrr %[sepc], sepc" : [sepc] "=r"(sepc));
 236              		.loc 2 117 5
 118:src/../h/riscv.hpp ****     return sepc;
 237              		.loc 2 118 5
 118:src/../h/riscv.hpp ****     return sepc;
 238              		.loc 2 118 64 is_stmt 0
 239              	#APP
 240              	# 118 "src/../h/riscv.hpp" 1
 241              		csrr a5, sepc
 242              	# 0 "" 2
 243              	#NO_APP
 244 0110 2338F4FC 		sd	a5,-48(s0)
 119:src/../h/riscv.hpp **** }
 245              		.loc 2 119 5 is_stmt 1
 119:src/../h/riscv.hpp **** }
 246              		.loc 2 119 12 is_stmt 0
 247 0114 033904FD 		ld	s2,-48(s0)
 248              	.LVL20:
 249              	.L7:
 250              	.LBE81:
 251              	.LBE80:
  47:src/riscv.cpp ****     while ((*((char *) CONSOLE_STATUS) & CONSOLE_TX_STATUS_BIT) && !IO::Output.is_empty()) {
 252              		.loc 1 47 5 is_stmt 1
 253              		.loc 1 47 65
 254              		.loc 1 47 13 is_stmt 0
 255 0118 97070000 		la	a5,CONSOLE_STATUS
GAS LISTING /tmp/ccuNIiLd.s 			page 10


 255      83B70700 
 256 0120 83B70700 		ld	a5,0(a5)
 257 0124 83C70700 		lbu	a5,0(a5)
 258              		.loc 1 47 65
 259 0128 93F70702 		andi	a5,a5,32
 260 012c 638C0702 		beqz	a5,.L6
 261              	.LVL21:
 262              		.file 3 "src/../h/c_console.hpp"
   1:src/../h/c_console.hpp **** #ifndef PROJECT_BASE_C_CONSOLE_HPP
   2:src/../h/c_console.hpp **** #define PROJECT_BASE_C_CONSOLE_HPP
   3:src/../h/c_console.hpp **** 
   4:src/../h/c_console.hpp **** #include "circular_buffer.hpp"
   5:src/../h/c_console.hpp **** #include "riscv.hpp"
   6:src/../h/c_console.hpp **** 
   7:src/../h/c_console.hpp **** class Sem;
   8:src/../h/c_console.hpp **** 
   9:src/../h/c_console.hpp **** class IOBuffer final {
  10:src/../h/c_console.hpp **** public:
  11:src/../h/c_console.hpp ****     void init();
  12:src/../h/c_console.hpp **** 
  13:src/../h/c_console.hpp ****     void put(char c);
  14:src/../h/c_console.hpp **** 
  15:src/../h/c_console.hpp ****     char get();
  16:src/../h/c_console.hpp **** 
  17:src/../h/c_console.hpp ****     bool is_empty() const { return this->buffer.is_empty(); }
 263              		.loc 3 17 29 is_stmt 1
 264              	.LBB82:
 265              	.LBB83:
 266              	.LBB84:
 267              		.file 4 "src/../h/circular_buffer.hpp"
   1:src/../h/circular_buffer.hpp **** #ifndef PROJECT_BASE_CIRCULAR_BUFFER_HPP
   2:src/../h/circular_buffer.hpp **** #define PROJECT_BASE_CIRCULAR_BUFFER_HPP
   3:src/../h/circular_buffer.hpp **** 
   4:src/../h/circular_buffer.hpp **** #include "syscall_c.hpp"
   5:src/../h/circular_buffer.hpp **** #include "c_memory.hpp"
   6:src/../h/circular_buffer.hpp **** 
   7:src/../h/circular_buffer.hpp **** namespace stm {
   8:src/../h/circular_buffer.hpp ****     template<typename T>
   9:src/../h/circular_buffer.hpp ****     class CircularBuffer {
  10:src/../h/circular_buffer.hpp ****     public:
  11:src/../h/circular_buffer.hpp **** 
  12:src/../h/circular_buffer.hpp ****         void init();
  13:src/../h/circular_buffer.hpp **** 
  14:src/../h/circular_buffer.hpp ****         void put(T);
  15:src/../h/circular_buffer.hpp **** 
  16:src/../h/circular_buffer.hpp ****         T get();
  17:src/../h/circular_buffer.hpp **** 
  18:src/../h/circular_buffer.hpp ****         T &peek();
  19:src/../h/circular_buffer.hpp **** 
  20:src/../h/circular_buffer.hpp ****         inline bool is_empty() const { return this->size == 0; }
 268              		.loc 4 20 53 is_stmt 0
 269 0130 97070000 		la	a5,_ZN2IO6OutputE
 269      83B70700 
 270 0138 83A70701 		lw	a5,16(a5)
 271              	.LVL22:
 272              	.LBE84:
 273              	.LBE83:
GAS LISTING /tmp/ccuNIiLd.s 			page 11


 274              	.LBE82:
 275              		.loc 1 47 65
 276 013c 63840702 		beqz	a5,.L6
 277              	.LBB85:
  48:src/riscv.cpp ****         char c = IO::Output.get();
 278              		.loc 1 48 9 is_stmt 1
 279              		.loc 1 48 32 is_stmt 0
 280 0140 17050000 		la	a0,_ZN2IO6OutputE
 280      03350500 
 281 0148 97000000 		call	_ZN8IOBuffer3getEv@plt
 281      E7800000 
 282              	.LVL23:
  49:src/riscv.cpp ****         *(volatile char *) CONSOLE_TX_DATA = c;
 283              		.loc 1 49 9 is_stmt 1
 284 0150 97070000 		la	a5,CONSOLE_TX_DATA
 284      83B70700 
 285 0158 83B70700 		ld	a5,0(a5)
 286              		.loc 1 49 44 is_stmt 0
 287 015c 2380A700 		sb	a0,0(a5)
 288              	.LBE85:
  47:src/riscv.cpp ****         char c = IO::Output.get();
 289              		.loc 1 47 5
 290 0160 6FF09FFB 		j	.L7
 291              	.LVL24:
 292              	.L6:
  50:src/riscv.cpp ****     }
  51:src/riscv.cpp ****     mc_sip(SIP_SSIE);
 293              		.loc 1 51 5 is_stmt 1 discriminator 4
 294              	.LBB86:
 295              	.LBB87:
 151:src/../h/riscv.hpp **** }
 296              		.loc 2 151 5 discriminator 4
 151:src/../h/riscv.hpp **** }
 297              		.loc 2 151 64 is_stmt 0 discriminator 4
 298 0164 93072000 		li	a5,2
 299              	#APP
 300              	# 151 "src/../h/riscv.hpp" 1
 301              		csrc sip, a5
 302              	# 0 "" 2
 303              	.LVL25:
 304              	#NO_APP
 305              	.LBE87:
 306              	.LBE86:
  52:src/riscv.cpp ****     Cradle::update();
 307              		.loc 1 52 5 is_stmt 1 discriminator 4
 308              		.loc 1 52 19 is_stmt 0 discriminator 4
 309 016c 97000000 		call	_ZN6Cradle6updateEv@plt
 309      E7800000 
 310              	.LVL26:
 311 0174 6F008005 		j	.L8
 312              	.L9:
  53:src/riscv.cpp ****     while (!Cradle::is_empty() && Cradle::peak() == 0) {
  54:src/riscv.cpp ****         thread_t next = Cradle::remove();
  55:src/riscv.cpp ****         if (next->is_joined() || next->is_sleeping()) {
  56:src/riscv.cpp ****             next->run();
  57:src/riscv.cpp ****             Scheduler::put(next);
  58:src/riscv.cpp ****         }
GAS LISTING /tmp/ccuNIiLd.s 			page 12


  59:src/riscv.cpp ****     }
  60:src/riscv.cpp ****     TCB::timer_counter++;
 313              		.loc 1 60 5 is_stmt 1 discriminator 4
 314              		.loc 1 60 23 is_stmt 0 discriminator 4
 315 0178 17070000 		la	a4,_ZN3TCB13timer_counterE
 315      03370700 
 316 0180 83370700 		ld	a5,0(a4)
 317 0184 93871700 		addi	a5,a5,1
 318 0188 2330F700 		sd	a5,0(a4)
  61:src/riscv.cpp ****     if ((time_t) TCB::timer_counter >= TCB::running->get_time_slice() && !Scheduler::is_empty()) {
 319              		.loc 1 61 5 is_stmt 1 discriminator 4
 320              		.loc 1 61 68 is_stmt 0 discriminator 4
 321 018c 17070000 		la	a4,_ZN3TCB7runningE
 321      03370700 
 322 0194 03370700 		ld	a4,0(a4)
 323              	.LVL27:
 324              	.LBB88:
 325              	.LBB89:
 326              		.file 5 "src/../h/c_thread.hpp"
   1:src/../h/c_thread.hpp **** #ifndef PROJECT_BASE_C_THREAD_HPP
   2:src/../h/c_thread.hpp **** #define PROJECT_BASE_C_THREAD_HPP
   3:src/../h/c_thread.hpp **** 
   4:src/../h/c_thread.hpp **** #include "syscall_c.hpp"
   5:src/../h/c_thread.hpp **** #include "../lib/hw.h"
   6:src/../h/c_thread.hpp **** #include "circular_buffer.hpp"
   7:src/../h/c_thread.hpp **** 
   8:src/../h/c_thread.hpp **** using run_t = void (*)(void *);
   9:src/../h/c_thread.hpp **** 
  10:src/../h/c_thread.hpp **** struct Context {
  11:src/../h/c_thread.hpp ****     uint64 ra;
  12:src/../h/c_thread.hpp ****     uint64 sp;
  13:src/../h/c_thread.hpp ****     uint64 sstatus;
  14:src/../h/c_thread.hpp ****     uint64 sepc;
  15:src/../h/c_thread.hpp **** };
  16:src/../h/c_thread.hpp **** 
  17:src/../h/c_thread.hpp **** enum Status {
  18:src/../h/c_thread.hpp ****     RUNNABLE, BLOCKED, SLEEPING, JOINED, FINISHED
  19:src/../h/c_thread.hpp **** };
  20:src/../h/c_thread.hpp **** 
  21:src/../h/c_thread.hpp **** class TCB final {
  22:src/../h/c_thread.hpp **** public:
  23:src/../h/c_thread.hpp ****     static int _thread_create(thread_t *, void(*)(void *), void *, void *);
  24:src/../h/c_thread.hpp **** 
  25:src/../h/c_thread.hpp ****     static void _thread_exit();
  26:src/../h/c_thread.hpp **** 
  27:src/../h/c_thread.hpp ****     static void _thread_dispatch();
  28:src/../h/c_thread.hpp **** 
  29:src/../h/c_thread.hpp ****     static void _thread_join(thread_t);
  30:src/../h/c_thread.hpp **** 
  31:src/../h/c_thread.hpp ****     static void _thread_join_time(thread_t, time_t);
  32:src/../h/c_thread.hpp **** 
  33:src/../h/c_thread.hpp ****     static int _fork();
  34:src/../h/c_thread.hpp **** 
  35:src/../h/c_thread.hpp ****     static int _kill(TCB *);
  36:src/../h/c_thread.hpp **** 
  37:src/../h/c_thread.hpp ****     static void thread_start();
  38:src/../h/c_thread.hpp **** 
GAS LISTING /tmp/ccuNIiLd.s 			page 13


  39:src/../h/c_thread.hpp ****     static void context_switch(Context *, Context *);
  40:src/../h/c_thread.hpp **** 
  41:src/../h/c_thread.hpp ****     static void yield();
  42:src/../h/c_thread.hpp **** 
  43:src/../h/c_thread.hpp ****     static TCB *destroy_thread(TCB *);
  44:src/../h/c_thread.hpp **** 
  45:src/../h/c_thread.hpp ****     static void duplicate(TCB *, TCB *);
  46:src/../h/c_thread.hpp **** 
  47:src/../h/c_thread.hpp ****     TCB(run_t, void *, void *, Context);
  48:src/../h/c_thread.hpp **** 
  49:src/../h/c_thread.hpp ****     TCB(TCB &);
  50:src/../h/c_thread.hpp **** 
  51:src/../h/c_thread.hpp ****     bool is_runnable() const { return this->status == RUNNABLE; }
  52:src/../h/c_thread.hpp **** 
  53:src/../h/c_thread.hpp ****     bool is_blocked() const { return this->status == BLOCKED; }
  54:src/../h/c_thread.hpp **** 
  55:src/../h/c_thread.hpp ****     bool is_sleeping() const { return this->status == SLEEPING; }
  56:src/../h/c_thread.hpp **** 
  57:src/../h/c_thread.hpp ****     bool is_joined() const { return this->status == JOINED; }
  58:src/../h/c_thread.hpp **** 
  59:src/../h/c_thread.hpp ****     bool is_finished() const { return this->status == FINISHED; }
  60:src/../h/c_thread.hpp **** 
  61:src/../h/c_thread.hpp ****     void run() { this->status = RUNNABLE; }
  62:src/../h/c_thread.hpp **** 
  63:src/../h/c_thread.hpp ****     void block() { this->status = BLOCKED; }
  64:src/../h/c_thread.hpp **** 
  65:src/../h/c_thread.hpp ****     void sleep() { this->status = SLEEPING; }
  66:src/../h/c_thread.hpp **** 
  67:src/../h/c_thread.hpp ****     void enjoin() { this->status = JOINED; }
  68:src/../h/c_thread.hpp **** 
  69:src/../h/c_thread.hpp ****     void finish() { this->status = FINISHED; }
  70:src/../h/c_thread.hpp **** 
  71:src/../h/c_thread.hpp ****     bool was_preempted() const { return this->preempted; }
  72:src/../h/c_thread.hpp **** 
  73:src/../h/c_thread.hpp ****     void set_preempted() { this->preempted = true; }
  74:src/../h/c_thread.hpp **** 
  75:src/../h/c_thread.hpp ****     void reset_preempted() { this->preempted = false; }
  76:src/../h/c_thread.hpp **** 
  77:src/../h/c_thread.hpp ****     time_t get_time_slice() const { return this->time_slice; }
 327              		.loc 5 77 37 is_stmt 1 discriminator 4
 328              		.loc 5 77 50 is_stmt 0 discriminator 4
 329 0198 83360705 		ld	a3,80(a4)
 330              	.LVL28:
 331              	.LBE89:
 332              	.LBE88:
 333              		.loc 1 61 71 discriminator 4
 334 019c 63F4D706 		bgeu	a5,a3,.L11
 335              	.L12:
  62:src/riscv.cpp ****         TCB::timer_counter = 0;
  63:src/riscv.cpp ****         TCB::running->set_preempted();
  64:src/riscv.cpp ****         TCB::_thread_dispatch();
  65:src/riscv.cpp ****     }
  66:src/riscv.cpp ****     w_sepc(sepc);
 336              		.loc 1 66 5 is_stmt 1
 337              	.LVL29:
 338              	.LBB90:
 339              	.LBB91:
GAS LISTING /tmp/ccuNIiLd.s 			page 14


 123:src/../h/riscv.hpp **** }
 340              		.loc 2 123 5
 123:src/../h/riscv.hpp **** }
 341              		.loc 2 123 65 is_stmt 0
 342              	#APP
 343              	# 123 "src/../h/riscv.hpp" 1
 344              		csrw sepc, s2
 345              	# 0 "" 2
 346              	.LVL30:
 347              	#NO_APP
 348              	.LBE91:
 349              	.LBE90:
  67:src/riscv.cpp ****     w_sstatus(sstatus);
 350              		.loc 1 67 5 is_stmt 1
 351              	.LBB92:
 352              	.LBB93:
 179:src/../h/riscv.hpp **** }
 353              		.loc 2 179 5
 179:src/../h/riscv.hpp **** }
 354              		.loc 2 179 77 is_stmt 0
 355              	#APP
 356              	# 179 "src/../h/riscv.hpp" 1
 357              		csrw sstatus, s1
 358              	# 0 "" 2
 359              	.LVL31:
 360              	#NO_APP
 361              	.LBE93:
 362              	.LBE92:
  68:src/riscv.cpp **** }
 363              		.loc 1 68 1
 364 01a8 83308102 		ld	ra,40(sp)
 365              		.cfi_remember_state
 366              		.cfi_restore 1
 367 01ac 03340102 		ld	s0,32(sp)
 368              		.cfi_restore 8
 369              		.cfi_def_cfa 2, 48
 370 01b0 83348101 		ld	s1,24(sp)
 371              		.cfi_restore 9
 372              	.LVL32:
 373 01b4 03390101 		ld	s2,16(sp)
 374              		.cfi_restore 18
 375              	.LVL33:
 376 01b8 13010103 		addi	sp,sp,48
 377              		.cfi_def_cfa_offset 0
 378 01bc 67800000 		jr	ra
 379              	.LVL34:
 380              	.L13:
 381              		.cfi_restore_state
 382              	.LBB94:
  56:src/riscv.cpp ****             Scheduler::put(next);
 383              		.loc 1 56 13 is_stmt 1 discriminator 3
 384              	.LBB95:
 385              	.LBB96:
  61:src/../h/c_thread.hpp **** 
 386              		.loc 5 61 18 discriminator 3
  61:src/../h/c_thread.hpp **** 
 387              		.loc 5 61 31 is_stmt 0 discriminator 3
GAS LISTING /tmp/ccuNIiLd.s 			page 15


 388 01c0 23240504 		sw	zero,72(a0)
 389              	.LVL35:
 390              	.LBE96:
 391              	.LBE95:
  57:src/riscv.cpp ****         }
 392              		.loc 1 57 13 is_stmt 1 discriminator 3
  57:src/riscv.cpp ****         }
 393              		.loc 1 57 27 is_stmt 0 discriminator 3
 394 01c4 97000000 		call	_ZN9Scheduler3putEP3TCB@plt
 394      E7800000 
 395              	.LVL36:
 396              	.L8:
 397              	.LBE94:
  53:src/riscv.cpp ****         thread_t next = Cradle::remove();
 398              		.loc 1 53 5 is_stmt 1
  53:src/riscv.cpp ****         thread_t next = Cradle::remove();
 399              		.loc 1 53 32
  53:src/riscv.cpp ****         thread_t next = Cradle::remove();
 400              		.loc 1 53 29 is_stmt 0
 401 01cc 97000000 		call	_ZN6Cradle8is_emptyEv@plt
 401      E7800000 
 402              	.LVL37:
  53:src/riscv.cpp ****         thread_t next = Cradle::remove();
 403              		.loc 1 53 32
 404 01d4 E31205FA 		bnez	a0,.L9
  53:src/riscv.cpp ****         thread_t next = Cradle::remove();
 405              		.loc 1 53 47 discriminator 1
 406 01d8 97000000 		call	_ZN6Cradle4peakEv@plt
 406      E7800000 
 407              	.LVL38:
  53:src/riscv.cpp ****         thread_t next = Cradle::remove();
 408              		.loc 1 53 32 discriminator 1
 409 01e0 E31C05F8 		bnez	a0,.L9
 410              	.LBB99:
  54:src/riscv.cpp ****         if (next->is_joined() || next->is_sleeping()) {
 411              		.loc 1 54 9 is_stmt 1
  54:src/riscv.cpp ****         if (next->is_joined() || next->is_sleeping()) {
 412              		.loc 1 54 39 is_stmt 0
 413 01e4 97000000 		call	_ZN6Cradle6removeEv@plt
 413      E7800000 
 414              	.LVL39:
  55:src/riscv.cpp ****             next->run();
 415              		.loc 1 55 9 is_stmt 1
 416              	.LBB97:
 417              	.LBB98:
  57:src/../h/c_thread.hpp **** 
 418              		.loc 5 57 30
  57:src/../h/c_thread.hpp **** 
 419              		.loc 5 57 43 is_stmt 0
 420 01ec 83278504 		lw	a5,72(a0)
 421              	.LVL40:
 422              	.LBE98:
 423              	.LBE97:
  55:src/riscv.cpp ****             next->run();
 424              		.loc 1 55 31
 425 01f0 13073000 		li	a4,3
 426 01f4 E386E7FC 		beq	a5,a4,.L13
GAS LISTING /tmp/ccuNIiLd.s 			page 16


 427              	.LVL41:
 428              	.LBE99:
  55:src/../h/c_thread.hpp **** 
 429              		.loc 5 55 32 is_stmt 1
 430              	.LBB100:
  55:src/riscv.cpp ****             next->run();
 431              		.loc 1 55 31 is_stmt 0
 432 01f8 13072000 		li	a4,2
 433 01fc E398E7FC 		bne	a5,a4,.L8
 434 0200 6FF01FFC 		j	.L13
 435              	.LVL42:
 436              	.L11:
 437              	.LBE100:
 438              	.LBB101:
 439              	.LBB102:
 440              		.file 6 "src/../h/scheduler.hpp"
   1:src/../h/scheduler.hpp **** #ifndef PROJECT_BASE_SCHEDULER_HPP
   2:src/../h/scheduler.hpp **** #define PROJECT_BASE_SCHEDULER_HPP
   3:src/../h/scheduler.hpp **** 
   4:src/../h/scheduler.hpp **** #include "circular_buffer.hpp"
   5:src/../h/scheduler.hpp **** #include "syscall_c.hpp"
   6:src/../h/scheduler.hpp **** 
   7:src/../h/scheduler.hpp **** class Scheduler final {
   8:src/../h/scheduler.hpp **** public:
   9:src/../h/scheduler.hpp **** 
  10:src/../h/scheduler.hpp ****     static void init() { high_priority.init(); mid_priority.init(); low_priority.init(); }
  11:src/../h/scheduler.hpp **** 
  12:src/../h/scheduler.hpp ****     static void put(TCB *thread);
  13:src/../h/scheduler.hpp **** 
  14:src/../h/scheduler.hpp ****     static TCB *get();
  15:src/../h/scheduler.hpp **** 
  16:src/../h/scheduler.hpp ****     static inline bool is_empty() {
  17:src/../h/scheduler.hpp ****         return high_priority.is_empty() && mid_priority.is_empty() && low_priority.is_empty();
 441              		.loc 6 17 9 is_stmt 1
 442              	.LBB103:
 443              	.LBB104:
 444              		.loc 4 20 53 is_stmt 0
 445 0204 97070000 		la	a5,_ZN9Scheduler13high_priorityE
 445      83B70700 
 446 020c 83A70701 		lw	a5,16(a5)
 447              	.LVL43:
 448              	.LBE104:
 449              	.LBE103:
 450              		.loc 6 17 68
 451 0210 63920702 		bnez	a5,.L15
 452              	.LVL44:
 453              	.LBB105:
 454              	.LBB106:
 455              		.loc 4 20 53
 456 0214 97070000 		la	a5,_ZN9Scheduler12mid_priorityE
 456      83B70700 
 457 021c 83A70701 		lw	a5,16(a5)
 458              	.LVL45:
 459              	.LBE106:
 460              	.LBE105:
 461              		.loc 6 17 41
 462 0220 639A0700 		bnez	a5,.L15
GAS LISTING /tmp/ccuNIiLd.s 			page 17


 463              	.LVL46:
 464              	.LBB107:
 465              	.LBB108:
 466              		.loc 4 20 53
 467 0224 97070000 		la	a5,_ZN9Scheduler12low_priorityE
 467      83B70700 
 468 022c 83A70701 		lw	a5,16(a5)
 469              	.LVL47:
 470              	.LBE108:
 471              	.LBE107:
 472              		.loc 6 17 68
 473 0230 E38807F6 		beqz	a5,.L12
 474              	.L15:
 475              	.LBE102:
 476              	.LBE101:
  62:src/riscv.cpp ****         TCB::running->set_preempted();
 477              		.loc 1 62 9 is_stmt 1
  62:src/riscv.cpp ****         TCB::running->set_preempted();
 478              		.loc 1 62 28 is_stmt 0
 479 0234 97070000 		la	a5,_ZN3TCB13timer_counterE
 479      83B70700 
 480 023c 23B00700 		sd	zero,0(a5)
  63:src/riscv.cpp ****         TCB::_thread_dispatch();
 481              		.loc 1 63 9 is_stmt 1
 482              	.LVL48:
 483              	.LBB109:
 484              	.LBB110:
  73:src/../h/c_thread.hpp **** 
 485              		.loc 5 73 28
  73:src/../h/c_thread.hpp **** 
 486              		.loc 5 73 44 is_stmt 0
 487 0240 93071000 		li	a5,1
 488 0244 230CF704 		sb	a5,88(a4)
 489              	.LVL49:
 490              	.LBE110:
 491              	.LBE109:
  64:src/riscv.cpp ****     }
 492              		.loc 1 64 9 is_stmt 1
  64:src/riscv.cpp ****     }
 493              		.loc 1 64 30 is_stmt 0
 494 0248 97000000 		call	_ZN3TCB16_thread_dispatchEv@plt
 494      E7800000 
 495              	.LVL50:
 496 0250 6FF01FF5 		j	.L12
 497              		.cfi_endproc
 498              	.LFE46:
 500              		.align	2
 501              		.globl	_ZN5Riscv17handleConsoleTrapEv
 503              	_ZN5Riscv17handleConsoleTrapEv:
 504              	.LFB47:
  69:src/riscv.cpp **** 
  70:src/riscv.cpp **** void Riscv::handleConsoleTrap() {
 505              		.loc 1 70 33 is_stmt 1
 506              		.cfi_startproc
 507 0254 130101FC 		addi	sp,sp,-64
 508              		.cfi_def_cfa_offset 64
 509 0258 233C1102 		sd	ra,56(sp)
GAS LISTING /tmp/ccuNIiLd.s 			page 18


 510 025c 23388102 		sd	s0,48(sp)
 511 0260 23349102 		sd	s1,40(sp)
 512 0264 23302103 		sd	s2,32(sp)
 513              		.cfi_offset 1, -8
 514              		.cfi_offset 8, -16
 515              		.cfi_offset 9, -24
 516              		.cfi_offset 18, -32
 517 0268 13040104 		addi	s0,sp,64
 518              		.cfi_def_cfa 8, 0
  71:src/riscv.cpp ****     uint64 sepc = r_sepc();
 519              		.loc 1 71 5
 520              	.LBB111:
 521              	.LBB112:
 117:src/../h/riscv.hpp ****     __asm__ volatile ("csrr %[sepc], sepc" : [sepc] "=r"(sepc));
 522              		.loc 2 117 5
 118:src/../h/riscv.hpp ****     return sepc;
 523              		.loc 2 118 5
 118:src/../h/riscv.hpp ****     return sepc;
 524              		.loc 2 118 64 is_stmt 0
 525              	#APP
 526              	# 118 "src/../h/riscv.hpp" 1
 527              		csrr a5, sepc
 528              	# 0 "" 2
 529              	#NO_APP
 530 0270 233CF4FC 		sd	a5,-40(s0)
 119:src/../h/riscv.hpp **** }
 531              		.loc 2 119 5 is_stmt 1
 119:src/../h/riscv.hpp **** }
 532              		.loc 2 119 12 is_stmt 0
 533 0274 033984FD 		ld	s2,-40(s0)
 534              	.LVL51:
 535              	.LBE112:
 536              	.LBE111:
  72:src/riscv.cpp ****     uint64 sstatuc = r_sstatus();
 537              		.loc 1 72 5 is_stmt 1
 538              	.LBB113:
 539              	.LBB114:
 173:src/../h/riscv.hpp ****     __asm__ volatile ("csrr %[sstatus], sstatus" : [sstatus] "=r"(sstatus));
 540              		.loc 2 173 5
 174:src/../h/riscv.hpp ****     return sstatus;
 541              		.loc 2 174 5
 174:src/../h/riscv.hpp ****     return sstatus;
 542              		.loc 2 174 76 is_stmt 0
 543              	#APP
 544              	# 174 "src/../h/riscv.hpp" 1
 545              		csrr a5, sstatus
 546              	# 0 "" 2
 547              	#NO_APP
 548 027c 2338F4FC 		sd	a5,-48(s0)
 175:src/../h/riscv.hpp **** }
 549              		.loc 2 175 5 is_stmt 1
 175:src/../h/riscv.hpp **** }
 550              		.loc 2 175 12 is_stmt 0
 551 0280 833404FD 		ld	s1,-48(s0)
 552              	.LVL52:
 553              	.LBE114:
 554              	.LBE113:
GAS LISTING /tmp/ccuNIiLd.s 			page 19


  73:src/riscv.cpp ****     if (plic_claim() == CONSOLE_IRQ) {
 555              		.loc 1 73 5 is_stmt 1
 556              	.LBB115:
 557              		.loc 1 73 19 is_stmt 0
 558 0284 97000000 		call	plic_claim@plt
 558      E7800000 
 559              	.LVL53:
 560              		.loc 1 73 5
 561 028c 9307A000 		li	a5,10
 562 0290 6302F502 		beq	a0,a5,.L21
 563              	.L18:
 564              	.LBE115:
  74:src/riscv.cpp ****         if ((*((char *) CONSOLE_STATUS) & CONSOLE_RX_STATUS_BIT)) {
  75:src/riscv.cpp ****             volatile char c = *(char *) CONSOLE_RX_DATA;
  76:src/riscv.cpp ****             IO::Input.put(c);
  77:src/riscv.cpp ****         }
  78:src/riscv.cpp ****         plic_complete(CONSOLE_IRQ);
  79:src/riscv.cpp ****     }
  80:src/riscv.cpp ****     w_sepc(sepc);
 565              		.loc 1 80 5 is_stmt 1
 566              	.LVL54:
 567              	.LBB121:
 568              	.LBB122:
 123:src/../h/riscv.hpp **** }
 569              		.loc 2 123 5
 123:src/../h/riscv.hpp **** }
 570              		.loc 2 123 65 is_stmt 0
 571              	#APP
 572              	# 123 "src/../h/riscv.hpp" 1
 573              		csrw sepc, s2
 574              	# 0 "" 2
 575              	.LVL55:
 576              	#NO_APP
 577              	.LBE122:
 578              	.LBE121:
  81:src/riscv.cpp ****     w_sstatus(sstatuc);
 579              		.loc 1 81 5 is_stmt 1
 580              	.LBB123:
 581              	.LBB124:
 179:src/../h/riscv.hpp **** }
 582              		.loc 2 179 5
 179:src/../h/riscv.hpp **** }
 583              		.loc 2 179 77 is_stmt 0
 584              	#APP
 585              	# 179 "src/../h/riscv.hpp" 1
 586              		csrw sstatus, s1
 587              	# 0 "" 2
 588              	.LVL56:
 589              	#NO_APP
 590              	.LBE124:
 591              	.LBE123:
  82:src/riscv.cpp **** }
 592              		.loc 1 82 1
 593 029c 83308103 		ld	ra,56(sp)
 594              		.cfi_remember_state
 595              		.cfi_restore 1
 596 02a0 03340103 		ld	s0,48(sp)
GAS LISTING /tmp/ccuNIiLd.s 			page 20


 597              		.cfi_restore 8
 598              		.cfi_def_cfa 2, 64
 599 02a4 83348102 		ld	s1,40(sp)
 600              		.cfi_restore 9
 601              	.LVL57:
 602 02a8 03390102 		ld	s2,32(sp)
 603              		.cfi_restore 18
 604              	.LVL58:
 605 02ac 13010104 		addi	sp,sp,64
 606              		.cfi_def_cfa_offset 0
 607 02b0 67800000 		jr	ra
 608              	.LVL59:
 609              	.L21:
 610              		.cfi_restore_state
 611              	.LBB125:
 612              	.LBB116:
  74:src/riscv.cpp ****             volatile char c = *(char *) CONSOLE_RX_DATA;
 613              		.loc 1 74 9 is_stmt 1
 614              	.LBB117:
  74:src/riscv.cpp ****             volatile char c = *(char *) CONSOLE_RX_DATA;
 615              		.loc 1 74 14 is_stmt 0
 616 02b4 97070000 		la	a5,CONSOLE_STATUS
 616      83B70700 
 617 02bc 83B70700 		ld	a5,0(a5)
 618 02c0 83C70700 		lbu	a5,0(a5)
  74:src/riscv.cpp ****             volatile char c = *(char *) CONSOLE_RX_DATA;
 619              		.loc 1 74 9
 620 02c4 93F71700 		andi	a5,a5,1
 621 02c8 639A0700 		bnez	a5,.L22
 622              	.L19:
 623              	.LBE117:
  78:src/riscv.cpp ****     }
 624              		.loc 1 78 9 is_stmt 1
  78:src/riscv.cpp ****     }
 625              		.loc 1 78 22 is_stmt 0
 626 02cc 1305A000 		li	a0,10
 627 02d0 97000000 		call	plic_complete@plt
 627      E7800000 
 628              	.LVL60:
 629              	.LBE116:
 630 02d8 6FF0DFFB 		j	.L18
 631              	.L22:
 632              	.LBB120:
 633              	.LBB119:
 634              	.LBB118:
  75:src/riscv.cpp ****             IO::Input.put(c);
 635              		.loc 1 75 13 is_stmt 1
  75:src/riscv.cpp ****             IO::Input.put(c);
 636              		.loc 1 75 31 is_stmt 0
 637 02dc 97070000 		la	a5,CONSOLE_RX_DATA
 637      83B70700 
 638 02e4 83B70700 		ld	a5,0(a5)
 639 02e8 83C70700 		lbu	a5,0(a5)
  75:src/riscv.cpp ****             IO::Input.put(c);
 640              		.loc 1 75 27
 641 02ec A307F4FC 		sb	a5,-49(s0)
  76:src/riscv.cpp ****         }
GAS LISTING /tmp/ccuNIiLd.s 			page 21


 642              		.loc 1 76 13 is_stmt 1
  76:src/riscv.cpp ****         }
 643              		.loc 1 76 26 is_stmt 0
 644 02f0 8345F4FC 		lbu	a1,-49(s0)
 645 02f4 93F5F50F 		andi	a1,a1,0xff
 646 02f8 17050000 		la	a0,_ZN2IO5InputE
 646      03350500 
 647 0300 97000000 		call	_ZN8IOBuffer3putEc@plt
 647      E7800000 
 648              	.LVL61:
 649              	.LBE118:
 650 0308 6FF05FFC 		j	.L19
 651              	.LBE119:
 652              	.LBE120:
 653              	.LBE125:
 654              		.cfi_endproc
 655              	.LFE47:
 657              		.align	2
 658              		.globl	_ZN5Riscv10popSppSpieEv
 660              	_ZN5Riscv10popSppSpieEv:
 661              	.LFB48:
  83:src/riscv.cpp **** 
  84:src/riscv.cpp **** void Riscv::popSppSpie() {
 662              		.loc 1 84 26 is_stmt 1
 663              		.cfi_startproc
 664 030c 130101FF 		addi	sp,sp,-16
 665              		.cfi_def_cfa_offset 16
 666 0310 23348100 		sd	s0,8(sp)
 667              		.cfi_offset 8, -8
 668 0314 13040101 		addi	s0,sp,16
 669              		.cfi_def_cfa 8, 0
  85:src/riscv.cpp ****     Riscv::mc_sstatus(Riscv::SSTATUS_SPP);
 670              		.loc 1 85 5
 671              	.LVL62:
 672              	.LBB126:
 673              	.LBB127:
 169:src/../h/riscv.hpp **** }
 674              		.loc 2 169 5
 169:src/../h/riscv.hpp **** }
 675              		.loc 2 169 68 is_stmt 0
 676 0318 93070010 		li	a5,256
 677              	#APP
 678              	# 169 "src/../h/riscv.hpp" 1
 679              		csrc sstatus, a5
 680              	# 0 "" 2
 681              	.LVL63:
 682              	#NO_APP
 683              	.LBE127:
 684              	.LBE126:
  86:src/riscv.cpp ****     __asm__ volatile("csrw sepc, ra");
 685              		.loc 1 86 5 is_stmt 1
 686              		.loc 1 86 38 is_stmt 0
 687              	#APP
 688              	# 86 "src/riscv.cpp" 1
  87              	    __asm__ volatile("sret");
 689              		csrw sepc, ra
 690              	# 0 "" 2
GAS LISTING /tmp/ccuNIiLd.s 			page 22


 691              		.loc 1 87 5 is_stmt 1
 692              		.loc 1 87 29 is_stmt 0
 693              	# 87 "src/riscv.cpp" 1
  88              	}
 694              		sret
 695              	# 0 "" 2
 696              		.loc 1 88 1
 697              	#NO_APP
 698 0328 03348100 		ld	s0,8(sp)
 699              		.cfi_restore 8
 700              		.cfi_def_cfa 2, 16
 701 032c 13010101 		addi	sp,sp,16
 702              		.cfi_def_cfa_offset 0
 703 0330 67800000 		jr	ra
 704              		.cfi_endproc
 705              	.LFE48:
 707              		.align	2
 708              		.globl	_ZN5Riscv14handleReadTrapEv
 710              	_ZN5Riscv14handleReadTrapEv:
 711              	.LFB49:
  89:src/riscv.cpp **** 
  90:src/riscv.cpp **** void Riscv::handleReadTrap() {
 712              		.loc 1 90 30 is_stmt 1
 713              		.cfi_startproc
 714 0334 130101FF 		addi	sp,sp,-16
 715              		.cfi_def_cfa_offset 16
 716 0338 23348100 		sd	s0,8(sp)
 717              		.cfi_offset 8, -8
 718 033c 13040101 		addi	s0,sp,16
 719              		.cfi_def_cfa 8, 0
  91:src/riscv.cpp ****     *(volatile char *) CONSOLE_TX_DATA = '!';
 720              		.loc 1 91 5
 721 0340 97070000 		la	a5,CONSOLE_TX_DATA
 721      83B70700 
 722 0348 83B70700 		ld	a5,0(a5)
 723              		.loc 1 91 40 is_stmt 0
 724 034c 13071002 		li	a4,33
 725 0350 2380E700 		sb	a4,0(a5)
  92:src/riscv.cpp ****     *(volatile char *) CONSOLE_TX_DATA = 'r';
 726              		.loc 1 92 5 is_stmt 1
 727              		.loc 1 92 40 is_stmt 0
 728 0354 13072007 		li	a4,114
 729 0358 2380E700 		sb	a4,0(a5)
  93:src/riscv.cpp **** }
 730              		.loc 1 93 1
 731 035c 03348100 		ld	s0,8(sp)
 732              		.cfi_restore 8
 733              		.cfi_def_cfa 2, 16
 734 0360 13010101 		addi	sp,sp,16
 735              		.cfi_def_cfa_offset 0
 736 0364 67800000 		jr	ra
 737              		.cfi_endproc
 738              	.LFE49:
 740              		.align	2
 741              		.globl	_ZN5Riscv15handleWriteTrapEv
 743              	_ZN5Riscv15handleWriteTrapEv:
 744              	.LFB50:
GAS LISTING /tmp/ccuNIiLd.s 			page 23


  94:src/riscv.cpp **** 
  95:src/riscv.cpp **** void Riscv::handleWriteTrap() {
 745              		.loc 1 95 31 is_stmt 1
 746              		.cfi_startproc
 747 0368 130101FF 		addi	sp,sp,-16
 748              		.cfi_def_cfa_offset 16
 749 036c 23348100 		sd	s0,8(sp)
 750              		.cfi_offset 8, -8
 751 0370 13040101 		addi	s0,sp,16
 752              		.cfi_def_cfa 8, 0
  96:src/riscv.cpp ****     *(volatile char *) CONSOLE_TX_DATA = '!';
 753              		.loc 1 96 5
 754 0374 97070000 		la	a5,CONSOLE_TX_DATA
 754      83B70700 
 755 037c 83B70700 		ld	a5,0(a5)
 756              		.loc 1 96 40 is_stmt 0
 757 0380 13071002 		li	a4,33
 758 0384 2380E700 		sb	a4,0(a5)
  97:src/riscv.cpp ****     *(volatile char *) CONSOLE_TX_DATA = 'w';
 759              		.loc 1 97 5 is_stmt 1
 760              		.loc 1 97 40 is_stmt 0
 761 0388 13077007 		li	a4,119
 762 038c 2380E700 		sb	a4,0(a5)
  98:src/riscv.cpp **** }...
 763              		.loc 1 98 1
 764 0390 03348100 		ld	s0,8(sp)
 765              		.cfi_restore 8
 766              		.cfi_def_cfa 2, 16
 767 0394 13010101 		addi	sp,sp,16
 768              		.cfi_def_cfa_offset 0
 769 0398 67800000 		jr	ra
 770              		.cfi_endproc
 771              	.LFE50:
 773              		.globl	_ZN5Riscv13syscall_tableE
 774              		.section	.data.rel,"aw"
 775              		.align	3
 776              		.set	.LANCHOR0,. + 0
 779              	_ZN5Riscv13syscall_tableE:
 780 0000 00000000 		.dword	_ZN9Allocator10_mem_allocEm
 780      00000000 
 781 0008 00000000 		.dword	_ZN9Allocator9_mem_freeEPKv
 781      00000000 
 782 0010 00000000 		.dword	_ZN3TCB14_thread_createEPPS_PFvPvES2_S2_
 782      00000000 
 783 0018 00000000 		.dword	_ZN3TCB12_thread_exitEv
 783      00000000 
 784 0020 00000000 		.dword	_ZN3TCB16_thread_dispatchEv
 784      00000000 
 785 0028 00000000 		.dword	_ZN3TCB12_thread_joinEPS_
 785      00000000 
 786 0030 00000000 		.dword	_ZN3TCB17_thread_join_timeEPS_m
 786      00000000 
 787 0038 00000000 		.dword	_ZN3TCB5_forkEv
 787      00000000 
 788 0040 00000000 		.dword	_ZN3TCB5_killEPS_
 788      00000000 
 789 0048 00000000 		.dword	_ZN3Sem9_sem_openEPPS_j
GAS LISTING /tmp/ccuNIiLd.s 			page 24


 789      00000000 
 790 0050 00000000 		.dword	_ZN3Sem10_sem_closeEPS_
 790      00000000 
 791 0058 00000000 		.dword	_ZN3Sem9_sem_waitEPS_
 791      00000000 
 792 0060 00000000 		.dword	_ZN3Sem11_sem_signalEPS_
 792      00000000 
 793 0068 00000000 		.dword	_ZN3Sem15_sem_signal_allEPS_
 793      00000000 
 794 0070 00000000 		.dword	_ZN3Sem16_sem_signal_waitEPS_S0_
 794      00000000 
 795 0078 00000000 		.dword	_ZN6Cradle11_time_sleepEm
 795      00000000 
 796 0080 00000000 		.dword	_ZN6Cradle12_thread_wakeEP3TCB
 796      00000000 
 797 0088 00000000 		.dword	_ZN2IO5_getcEv
 797      00000000 
 798 0090 00000000 		.dword	_ZN2IO5_putcEc
 798      00000000 
 799              		.text
 800              	.Letext0:
 801              		.file 7 "src/../lib/hw.h"
 802              		.file 8 "src/../h/syscall_c.hpp"
 803              		.file 9 "src/../h/c_semaphore.hpp"
 804              		.file 10 "src/../h/c_sleep.hpp"
GAS LISTING /tmp/ccuNIiLd.s 			page 25


DEFINED SYMBOLS
                            *ABS*:0000000000000000 riscv.cpp
     /tmp/ccuNIiLd.s:14     .text:0000000000000000 _ZN5Riscv20handleSupervisorTrapEmmmmm
     /tmp/ccuNIiLd.s:18     .text:0000000000000000 .L0 
     /tmp/ccuNIiLd.s:20     .text:0000000000000000 .L0 
     /tmp/ccuNIiLd.s:21     .text:0000000000000004 .L0 
     /tmp/ccuNIiLd.s:31     .text:0000000000000028 .L0 
     /tmp/ccuNIiLd.s:32     .text:0000000000000028 .L0 
     /tmp/ccuNIiLd.s:33     .text:0000000000000028 .L0 
     /tmp/ccuNIiLd.s:34     .text:0000000000000028 .L0 
     /tmp/ccuNIiLd.s:35     .text:0000000000000028 .L0 
     /tmp/ccuNIiLd.s:36     .text:0000000000000028 .L0 
     /tmp/ccuNIiLd.s:37     .text:0000000000000028 .L0 
     /tmp/ccuNIiLd.s:38     .text:0000000000000028 .L0 
     /tmp/ccuNIiLd.s:39     .text:0000000000000028 .L0 
     /tmp/ccuNIiLd.s:41     .text:000000000000002c .L0 
     /tmp/ccuNIiLd.s:51     .text:0000000000000040 .L0 
     /tmp/ccuNIiLd.s:52     .text:0000000000000040 .L0 
     /tmp/ccuNIiLd.s:53     .text:0000000000000040 .L0 
  src/../h/riscv.hpp:174    .text:0000000000000040 .L0 
     /tmp/ccuNIiLd.s:61     .text:0000000000000048 .L0 
     /tmp/ccuNIiLd.s:62     .text:0000000000000048 .L0 
     /tmp/ccuNIiLd.s:69     .text:000000000000004c .L0 
     /tmp/ccuNIiLd.s:70     .text:000000000000004c .L0 
     /tmp/ccuNIiLd.s:71     .text:000000000000004c .L0 
  src/../h/riscv.hpp:118    .text:000000000000004c .L0 
     /tmp/ccuNIiLd.s:79     .text:0000000000000054 .L0 
     /tmp/ccuNIiLd.s:80     .text:0000000000000054 .L0 
     /tmp/ccuNIiLd.s:87     .text:0000000000000058 .L0 
     /tmp/ccuNIiLd.s:88     .text:0000000000000058 .L0 
     /tmp/ccuNIiLd.s:89     .text:0000000000000058 .L0 
  src/../h/riscv.hpp:108    .text:0000000000000058 .L0 
     /tmp/ccuNIiLd.s:97     .text:0000000000000060 .L0 
     /tmp/ccuNIiLd.s:98     .text:0000000000000060 .L0 
     /tmp/ccuNIiLd.s:103    .text:0000000000000064 .L0 
     /tmp/ccuNIiLd.s:108    .text:000000000000006c .L0 
     /tmp/ccuNIiLd.s:109    .text:000000000000006c .L0 
     /tmp/ccuNIiLd.s:115    .text:0000000000000080 .L0 
     /tmp/ccuNIiLd.s:122    .text:0000000000000094 .L0 
     /tmp/ccuNIiLd.s:123    .text:0000000000000094 .L0 
     /tmp/ccuNIiLd.s:128    .text:0000000000000098 .L0 
  src/../h/riscv.hpp:123    .text:0000000000000098 .L0 
     /tmp/ccuNIiLd.s:140    .text:000000000000009c .L0 
     /tmp/ccuNIiLd.s:141    .text:000000000000009c .L0 
  src/../h/riscv.hpp:179    .text:000000000000009c .L0 
     /tmp/ccuNIiLd.s:151    .text:00000000000000a0 .L0 
     /tmp/ccuNIiLd.s:152    .text:00000000000000a4 .L0 
     /tmp/ccuNIiLd.s:153    .text:00000000000000a4 .L0 
     /tmp/ccuNIiLd.s:155    .text:00000000000000a8 .L0 
     /tmp/ccuNIiLd.s:156    .text:00000000000000a8 .L0 
     /tmp/ccuNIiLd.s:158    .text:00000000000000ac .L0 
     /tmp/ccuNIiLd.s:160    .text:00000000000000b0 .L0 
     /tmp/ccuNIiLd.s:163    .text:00000000000000b4 .L0 
     /tmp/ccuNIiLd.s:166    .text:00000000000000b8 .L0 
     /tmp/ccuNIiLd.s:169    .text:00000000000000bc .L0 
     /tmp/ccuNIiLd.s:172    .text:00000000000000c0 .L0 
     /tmp/ccuNIiLd.s:175    .text:00000000000000c4 .L0 
GAS LISTING /tmp/ccuNIiLd.s 			page 26


     /tmp/ccuNIiLd.s:178    .text:00000000000000c8 .L0 
     /tmp/ccuNIiLd.s:182    .text:00000000000000cc .L0 
     /tmp/ccuNIiLd.s:184    .text:00000000000000cc .L0 
     /tmp/ccuNIiLd.s:185    .text:00000000000000cc .L0 
     /tmp/ccuNIiLd.s:189    .text:00000000000000dc .L0 
     /tmp/ccuNIiLd.s:190    .text:00000000000000dc .L0 
     /tmp/ccuNIiLd.s:193    .text:00000000000000e8 .L0 
     /tmp/ccuNIiLd.s:199    .text:00000000000000e8 _ZN5Riscv15handleTimerTrapEv
     /tmp/ccuNIiLd.s:202    .text:00000000000000e8 .L0 
     /tmp/ccuNIiLd.s:203    .text:00000000000000e8 .L0 
     /tmp/ccuNIiLd.s:204    .text:00000000000000ec .L0 
     /tmp/ccuNIiLd.s:209    .text:00000000000000fc .L0 
     /tmp/ccuNIiLd.s:210    .text:00000000000000fc .L0 
     /tmp/ccuNIiLd.s:211    .text:00000000000000fc .L0 
     /tmp/ccuNIiLd.s:212    .text:00000000000000fc .L0 
     /tmp/ccuNIiLd.s:214    .text:0000000000000100 .L0 
     /tmp/ccuNIiLd.s:218    .text:0000000000000100 .L0 
     /tmp/ccuNIiLd.s:219    .text:0000000000000100 .L0 
     /tmp/ccuNIiLd.s:220    .text:0000000000000100 .L0 
  src/../h/riscv.hpp:174    .text:0000000000000100 .L0 
     /tmp/ccuNIiLd.s:228    .text:0000000000000108 .L0 
     /tmp/ccuNIiLd.s:229    .text:0000000000000108 .L0 
     /tmp/ccuNIiLd.s:236    .text:000000000000010c .L0 
     /tmp/ccuNIiLd.s:237    .text:000000000000010c .L0 
     /tmp/ccuNIiLd.s:238    .text:000000000000010c .L0 
  src/../h/riscv.hpp:118    .text:000000000000010c .L0 
     /tmp/ccuNIiLd.s:246    .text:0000000000000114 .L0 
     /tmp/ccuNIiLd.s:247    .text:0000000000000114 .L0 
     /tmp/ccuNIiLd.s:253    .text:0000000000000118 .L0 
     /tmp/ccuNIiLd.s:254    .text:0000000000000118 .L0 
     /tmp/ccuNIiLd.s:255    .text:0000000000000118 .L0 
     /tmp/ccuNIiLd.s:259    .text:0000000000000128 .L0 
     /tmp/ccuNIiLd.s:268    .text:0000000000000130 .L0 
     /tmp/ccuNIiLd.s:269    .text:0000000000000130 .L0 
     /tmp/ccuNIiLd.s:276    .text:000000000000013c .L0 
     /tmp/ccuNIiLd.s:279    .text:0000000000000140 .L0 
     /tmp/ccuNIiLd.s:280    .text:0000000000000140 .L0 
     /tmp/ccuNIiLd.s:284    .text:0000000000000150 .L0 
     /tmp/ccuNIiLd.s:287    .text:000000000000015c .L0 
     /tmp/ccuNIiLd.s:290    .text:0000000000000160 .L0 
     /tmp/ccuNIiLd.s:296    .text:0000000000000164 .L0 
     /tmp/ccuNIiLd.s:297    .text:0000000000000164 .L0 
     /tmp/ccuNIiLd.s:298    .text:0000000000000164 .L0 
     /tmp/ccuNIiLd.s:308    .text:000000000000016c .L0 
     /tmp/ccuNIiLd.s:309    .text:000000000000016c .L0 
     /tmp/ccuNIiLd.s:314    .text:0000000000000178 .L0 
     /tmp/ccuNIiLd.s:315    .text:0000000000000178 .L0 
     /tmp/ccuNIiLd.s:320    .text:000000000000018c .L0 
     /tmp/ccuNIiLd.s:321    .text:000000000000018c .L0 
     /tmp/ccuNIiLd.s:328    .text:0000000000000198 .L0 
     /tmp/ccuNIiLd.s:329    .text:0000000000000198 .L0 
     /tmp/ccuNIiLd.s:334    .text:000000000000019c .L0 
     /tmp/ccuNIiLd.s:340    .text:00000000000001a0 .L0 
     /tmp/ccuNIiLd.s:341    .text:00000000000001a0 .L0 
  src/../h/riscv.hpp:123    .text:00000000000001a0 .L0 
     /tmp/ccuNIiLd.s:353    .text:00000000000001a4 .L0 
     /tmp/ccuNIiLd.s:354    .text:00000000000001a4 .L0 
GAS LISTING /tmp/ccuNIiLd.s 			page 27


  src/../h/riscv.hpp:179    .text:00000000000001a4 .L0 
     /tmp/ccuNIiLd.s:364    .text:00000000000001a8 .L0 
     /tmp/ccuNIiLd.s:365    .text:00000000000001ac .L0 
     /tmp/ccuNIiLd.s:366    .text:00000000000001ac .L0 
     /tmp/ccuNIiLd.s:368    .text:00000000000001b0 .L0 
     /tmp/ccuNIiLd.s:369    .text:00000000000001b0 .L0 
     /tmp/ccuNIiLd.s:371    .text:00000000000001b4 .L0 
     /tmp/ccuNIiLd.s:374    .text:00000000000001b8 .L0 
     /tmp/ccuNIiLd.s:377    .text:00000000000001bc .L0 
     /tmp/ccuNIiLd.s:381    .text:00000000000001c0 .L0 
     /tmp/ccuNIiLd.s:386    .text:00000000000001c0 .L0 
     /tmp/ccuNIiLd.s:387    .text:00000000000001c0 .L0 
     /tmp/ccuNIiLd.s:388    .text:00000000000001c0 .L0 
     /tmp/ccuNIiLd.s:393    .text:00000000000001c4 .L0 
     /tmp/ccuNIiLd.s:394    .text:00000000000001c4 .L0 
     /tmp/ccuNIiLd.s:399    .text:00000000000001cc .L0 
     /tmp/ccuNIiLd.s:400    .text:00000000000001cc .L0 
     /tmp/ccuNIiLd.s:401    .text:00000000000001cc .L0 
     /tmp/ccuNIiLd.s:404    .text:00000000000001d4 .L0 
     /tmp/ccuNIiLd.s:406    .text:00000000000001d8 .L0 
     /tmp/ccuNIiLd.s:409    .text:00000000000001e0 .L0 
     /tmp/ccuNIiLd.s:412    .text:00000000000001e4 .L0 
     /tmp/ccuNIiLd.s:413    .text:00000000000001e4 .L0 
     /tmp/ccuNIiLd.s:418    .text:00000000000001ec .L0 
     /tmp/ccuNIiLd.s:419    .text:00000000000001ec .L0 
     /tmp/ccuNIiLd.s:420    .text:00000000000001ec .L0 
     /tmp/ccuNIiLd.s:425    .text:00000000000001f0 .L0 
     /tmp/ccuNIiLd.s:431    .text:00000000000001f8 .L0 
     /tmp/ccuNIiLd.s:432    .text:00000000000001f8 .L0 
     /tmp/ccuNIiLd.s:444    .text:0000000000000204 .L0 
     /tmp/ccuNIiLd.s:445    .text:0000000000000204 .L0 
     /tmp/ccuNIiLd.s:451    .text:0000000000000210 .L0 
     /tmp/ccuNIiLd.s:456    .text:0000000000000214 .L0 
     /tmp/ccuNIiLd.s:462    .text:0000000000000220 .L0 
     /tmp/ccuNIiLd.s:467    .text:0000000000000224 .L0 
     /tmp/ccuNIiLd.s:473    .text:0000000000000230 .L0 
     /tmp/ccuNIiLd.s:478    .text:0000000000000234 .L0 
     /tmp/ccuNIiLd.s:479    .text:0000000000000234 .L0 
     /tmp/ccuNIiLd.s:485    .text:0000000000000240 .L0 
     /tmp/ccuNIiLd.s:486    .text:0000000000000240 .L0 
     /tmp/ccuNIiLd.s:487    .text:0000000000000240 .L0 
     /tmp/ccuNIiLd.s:493    .text:0000000000000248 .L0 
     /tmp/ccuNIiLd.s:494    .text:0000000000000248 .L0 
     /tmp/ccuNIiLd.s:497    .text:0000000000000254 .L0 
     /tmp/ccuNIiLd.s:503    .text:0000000000000254 _ZN5Riscv17handleConsoleTrapEv
     /tmp/ccuNIiLd.s:506    .text:0000000000000254 .L0 
     /tmp/ccuNIiLd.s:507    .text:0000000000000254 .L0 
     /tmp/ccuNIiLd.s:508    .text:0000000000000258 .L0 
     /tmp/ccuNIiLd.s:513    .text:0000000000000268 .L0 
     /tmp/ccuNIiLd.s:514    .text:0000000000000268 .L0 
     /tmp/ccuNIiLd.s:515    .text:0000000000000268 .L0 
     /tmp/ccuNIiLd.s:516    .text:0000000000000268 .L0 
     /tmp/ccuNIiLd.s:518    .text:000000000000026c .L0 
     /tmp/ccuNIiLd.s:522    .text:000000000000026c .L0 
     /tmp/ccuNIiLd.s:523    .text:000000000000026c .L0 
     /tmp/ccuNIiLd.s:524    .text:000000000000026c .L0 
  src/../h/riscv.hpp:118    .text:000000000000026c .L0 
GAS LISTING /tmp/ccuNIiLd.s 			page 28


     /tmp/ccuNIiLd.s:532    .text:0000000000000274 .L0 
     /tmp/ccuNIiLd.s:533    .text:0000000000000274 .L0 
     /tmp/ccuNIiLd.s:540    .text:0000000000000278 .L0 
     /tmp/ccuNIiLd.s:541    .text:0000000000000278 .L0 
     /tmp/ccuNIiLd.s:542    .text:0000000000000278 .L0 
  src/../h/riscv.hpp:174    .text:0000000000000278 .L0 
     /tmp/ccuNIiLd.s:550    .text:0000000000000280 .L0 
     /tmp/ccuNIiLd.s:551    .text:0000000000000280 .L0 
     /tmp/ccuNIiLd.s:557    .text:0000000000000284 .L0 
     /tmp/ccuNIiLd.s:558    .text:0000000000000284 .L0 
     /tmp/ccuNIiLd.s:561    .text:000000000000028c .L0 
     /tmp/ccuNIiLd.s:569    .text:0000000000000294 .L0 
     /tmp/ccuNIiLd.s:570    .text:0000000000000294 .L0 
  src/../h/riscv.hpp:123    .text:0000000000000294 .L0 
     /tmp/ccuNIiLd.s:582    .text:0000000000000298 .L0 
     /tmp/ccuNIiLd.s:583    .text:0000000000000298 .L0 
  src/../h/riscv.hpp:179    .text:0000000000000298 .L0 
     /tmp/ccuNIiLd.s:593    .text:000000000000029c .L0 
     /tmp/ccuNIiLd.s:594    .text:00000000000002a0 .L0 
     /tmp/ccuNIiLd.s:595    .text:00000000000002a0 .L0 
     /tmp/ccuNIiLd.s:597    .text:00000000000002a4 .L0 
     /tmp/ccuNIiLd.s:598    .text:00000000000002a4 .L0 
     /tmp/ccuNIiLd.s:600    .text:00000000000002a8 .L0 
     /tmp/ccuNIiLd.s:603    .text:00000000000002ac .L0 
     /tmp/ccuNIiLd.s:606    .text:00000000000002b0 .L0 
     /tmp/ccuNIiLd.s:610    .text:00000000000002b4 .L0 
     /tmp/ccuNIiLd.s:615    .text:00000000000002b4 .L0 
     /tmp/ccuNIiLd.s:616    .text:00000000000002b4 .L0 
     /tmp/ccuNIiLd.s:620    .text:00000000000002c4 .L0 
     /tmp/ccuNIiLd.s:625    .text:00000000000002cc .L0 
     /tmp/ccuNIiLd.s:626    .text:00000000000002cc .L0 
     /tmp/ccuNIiLd.s:636    .text:00000000000002dc .L0 
     /tmp/ccuNIiLd.s:637    .text:00000000000002dc .L0 
     /tmp/ccuNIiLd.s:641    .text:00000000000002ec .L0 
     /tmp/ccuNIiLd.s:643    .text:00000000000002f0 .L0 
     /tmp/ccuNIiLd.s:644    .text:00000000000002f0 .L0 
     /tmp/ccuNIiLd.s:654    .text:000000000000030c .L0 
     /tmp/ccuNIiLd.s:660    .text:000000000000030c _ZN5Riscv10popSppSpieEv
     /tmp/ccuNIiLd.s:663    .text:000000000000030c .L0 
     /tmp/ccuNIiLd.s:664    .text:000000000000030c .L0 
     /tmp/ccuNIiLd.s:665    .text:0000000000000310 .L0 
     /tmp/ccuNIiLd.s:667    .text:0000000000000314 .L0 
     /tmp/ccuNIiLd.s:669    .text:0000000000000318 .L0 
     /tmp/ccuNIiLd.s:674    .text:0000000000000318 .L0 
     /tmp/ccuNIiLd.s:675    .text:0000000000000318 .L0 
     /tmp/ccuNIiLd.s:676    .text:0000000000000318 .L0 
     /tmp/ccuNIiLd.s:686    .text:0000000000000320 .L0 
       src/riscv.cpp:86     .text:0000000000000320 .L0 
     /tmp/ccuNIiLd.s:692    .text:0000000000000324 .L0 
       src/riscv.cpp:87     .text:0000000000000324 .L0 
     /tmp/ccuNIiLd.s:698    .text:0000000000000328 .L0 
     /tmp/ccuNIiLd.s:699    .text:000000000000032c .L0 
     /tmp/ccuNIiLd.s:700    .text:000000000000032c .L0 
     /tmp/ccuNIiLd.s:702    .text:0000000000000330 .L0 
     /tmp/ccuNIiLd.s:704    .text:0000000000000334 .L0 
     /tmp/ccuNIiLd.s:710    .text:0000000000000334 _ZN5Riscv14handleReadTrapEv
     /tmp/ccuNIiLd.s:713    .text:0000000000000334 .L0 
GAS LISTING /tmp/ccuNIiLd.s 			page 29


     /tmp/ccuNIiLd.s:714    .text:0000000000000334 .L0 
     /tmp/ccuNIiLd.s:715    .text:0000000000000338 .L0 
     /tmp/ccuNIiLd.s:717    .text:000000000000033c .L0 
     /tmp/ccuNIiLd.s:719    .text:0000000000000340 .L0 
     /tmp/ccuNIiLd.s:721    .text:0000000000000340 .L0 
     /tmp/ccuNIiLd.s:724    .text:000000000000034c .L0 
     /tmp/ccuNIiLd.s:727    .text:0000000000000354 .L0 
     /tmp/ccuNIiLd.s:728    .text:0000000000000354 .L0 
     /tmp/ccuNIiLd.s:731    .text:000000000000035c .L0 
     /tmp/ccuNIiLd.s:732    .text:0000000000000360 .L0 
     /tmp/ccuNIiLd.s:733    .text:0000000000000360 .L0 
     /tmp/ccuNIiLd.s:735    .text:0000000000000364 .L0 
     /tmp/ccuNIiLd.s:737    .text:0000000000000368 .L0 
     /tmp/ccuNIiLd.s:743    .text:0000000000000368 _ZN5Riscv15handleWriteTrapEv
     /tmp/ccuNIiLd.s:746    .text:0000000000000368 .L0 
     /tmp/ccuNIiLd.s:747    .text:0000000000000368 .L0 
     /tmp/ccuNIiLd.s:748    .text:000000000000036c .L0 
     /tmp/ccuNIiLd.s:750    .text:0000000000000370 .L0 
     /tmp/ccuNIiLd.s:752    .text:0000000000000374 .L0 
     /tmp/ccuNIiLd.s:754    .text:0000000000000374 .L0 
     /tmp/ccuNIiLd.s:757    .text:0000000000000380 .L0 
     /tmp/ccuNIiLd.s:760    .text:0000000000000388 .L0 
     /tmp/ccuNIiLd.s:761    .text:0000000000000388 .L0 
     /tmp/ccuNIiLd.s:764    .text:0000000000000390 .L0 
     /tmp/ccuNIiLd.s:765    .text:0000000000000394 .L0 
     /tmp/ccuNIiLd.s:766    .text:0000000000000394 .L0 
     /tmp/ccuNIiLd.s:768    .text:0000000000000398 .L0 
     /tmp/ccuNIiLd.s:770    .text:000000000000039c .L0 
     /tmp/ccuNIiLd.s:779    .data.rel:0000000000000000 _ZN5Riscv13syscall_tableE
     /tmp/ccuNIiLd.s:776    .data.rel:0000000000000000 .LANCHOR0
     /tmp/ccuNIiLd.s:805    .text:000000000000039c .L0 
     /tmp/ccuNIiLd.s:111    .text:0000000000000070 .L0 
     /tmp/ccuNIiLd.s:8      .rodata.str1.8:0000000000000000 .LC0
     /tmp/ccuNIiLd.s:185    .text:00000000000000cc .L0 
     /tmp/ccuNIiLd.s:255    .text:0000000000000118 .L0 
     /tmp/ccuNIiLd.s:269    .text:0000000000000130 .L0 
     /tmp/ccuNIiLd.s:280    .text:0000000000000140 .L0 
     /tmp/ccuNIiLd.s:284    .text:0000000000000150 .L0 
     /tmp/ccuNIiLd.s:315    .text:0000000000000178 .L0 
     /tmp/ccuNIiLd.s:321    .text:000000000000018c .L0 
     /tmp/ccuNIiLd.s:445    .text:0000000000000204 .L0 
     /tmp/ccuNIiLd.s:456    .text:0000000000000214 .L0 
     /tmp/ccuNIiLd.s:467    .text:0000000000000224 .L0 
     /tmp/ccuNIiLd.s:479    .text:0000000000000234 .L0 
     /tmp/ccuNIiLd.s:616    .text:00000000000002b4 .L0 
     /tmp/ccuNIiLd.s:637    .text:00000000000002dc .L0 
     /tmp/ccuNIiLd.s:646    .text:00000000000002f8 .L0 
     /tmp/ccuNIiLd.s:721    .text:0000000000000340 .L0 
     /tmp/ccuNIiLd.s:754    .text:0000000000000374 .L0 
     /tmp/ccuNIiLd.s:181    .text:00000000000000cc .L4
     /tmp/ccuNIiLd.s:106    .text:000000000000006c .L2
     /tmp/ccuNIiLd.s:292    .text:0000000000000164 .L6
     /tmp/ccuNIiLd.s:249    .text:0000000000000118 .L7
     /tmp/ccuNIiLd.s:396    .text:00000000000001cc .L8
     /tmp/ccuNIiLd.s:436    .text:0000000000000204 .L11
     /tmp/ccuNIiLd.s:312    .text:0000000000000178 .L9
     /tmp/ccuNIiLd.s:380    .text:00000000000001c0 .L13
GAS LISTING /tmp/ccuNIiLd.s 			page 30


     /tmp/ccuNIiLd.s:474    .text:0000000000000234 .L15
     /tmp/ccuNIiLd.s:335    .text:00000000000001a0 .L12
     /tmp/ccuNIiLd.s:609    .text:00000000000002b4 .L21
     /tmp/ccuNIiLd.s:631    .text:00000000000002dc .L22
     /tmp/ccuNIiLd.s:563    .text:0000000000000294 .L18
     /tmp/ccuNIiLd.s:622    .text:00000000000002cc .L19
     /tmp/ccuNIiLd.s:3414   .debug_abbrev:0000000000000000 .Ldebug_abbrev0
     /tmp/ccuNIiLd.s:5373   .debug_str:0000000000000cd2 .LASF269
     /tmp/ccuNIiLd.s:5461   .debug_str:0000000000001040 .LASF270
     /tmp/ccuNIiLd.s:5091   .debug_str:0000000000000469 .LASF271
     /tmp/ccuNIiLd.s:5      .text:0000000000000000 .Ltext0
     /tmp/ccuNIiLd.s:800    .text:000000000000039c .Letext0
     /tmp/ccuNIiLd.s:4945   .debug_line:0000000000000000 .Ldebug_line0
     /tmp/ccuNIiLd.s:5129   .debug_str:00000000000005de .LASF0
     /tmp/ccuNIiLd.s:5171   .debug_str:0000000000000706 .LASF1
     /tmp/ccuNIiLd.s:5303   .debug_str:0000000000000aa8 .LASF2
     /tmp/ccuNIiLd.s:5309   .debug_str:0000000000000ada .LASF4
     /tmp/ccuNIiLd.s:5143   .debug_str:000000000000065d .LASF3
     /tmp/ccuNIiLd.s:4967   .debug_str:00000000000000b6 .LASF5
     /tmp/ccuNIiLd.s:5267   .debug_str:00000000000009b8 .LASF6
     /tmp/ccuNIiLd.s:5251   .debug_str:000000000000092c .LASF7
     /tmp/ccuNIiLd.s:5157   .debug_str:00000000000006bd .LASF8
     /tmp/ccuNIiLd.s:5089   .debug_str:0000000000000459 .LASF9
     /tmp/ccuNIiLd.s:5101   .debug_str:00000000000004e6 .LASF10
     /tmp/ccuNIiLd.s:5007   .debug_str:00000000000001ea .LASF11
     /tmp/ccuNIiLd.s:5077   .debug_str:000000000000040f .LASF12
     /tmp/ccuNIiLd.s:5025   .debug_str:0000000000000272 .LASF13
     /tmp/ccuNIiLd.s:5005   .debug_str:00000000000001da .LASF14
     /tmp/ccuNIiLd.s:5347   .debug_str:0000000000000c02 .LASF15
     /tmp/ccuNIiLd.s:5057   .debug_str:0000000000000375 .LASF16
     /tmp/ccuNIiLd.s:5331   .debug_str:0000000000000b83 .LASF17
     /tmp/ccuNIiLd.s:4965   .debug_str:00000000000000a8 .LASF121
     /tmp/ccuNIiLd.s:5499   .debug_str:0000000000001189 .LASF18
     /tmp/ccuNIiLd.s:5085   .debug_str:0000000000000446 .LASF19
     /tmp/ccuNIiLd.s:5329   .debug_str:0000000000000b75 .LASF20
     /tmp/ccuNIiLd.s:5271   .debug_str:00000000000009d2 .LASF21
     /tmp/ccuNIiLd.s:5035   .debug_str:00000000000002cf .LASF22
     /tmp/ccuNIiLd.s:5307   .debug_str:0000000000000ace .LASF23
     /tmp/ccuNIiLd.s:5365   .debug_str:0000000000000c9f .LASF24
     /tmp/ccuNIiLd.s:5099   .debug_str:00000000000004da .LASF25
     /tmp/ccuNIiLd.s:4963   .debug_str:000000000000009c .LASF26
     /tmp/ccuNIiLd.s:5009   .debug_str:00000000000001f9 .LASF27
     /tmp/ccuNIiLd.s:5017   .debug_str:0000000000000240 .LASF28
     /tmp/ccuNIiLd.s:5221   .debug_str:000000000000085b .LASF29
     /tmp/ccuNIiLd.s:5361   .debug_str:0000000000000c81 .LASF30
     /tmp/ccuNIiLd.s:5029   .debug_str:0000000000000287 .LASF31
     /tmp/ccuNIiLd.s:5413   .debug_str:0000000000000eee .LASF32
     /tmp/ccuNIiLd.s:5473   .debug_str:00000000000010a1 .LASF33
     /tmp/ccuNIiLd.s:4949   .debug_str:0000000000000021 .LASF34
     /tmp/ccuNIiLd.s:5149   .debug_str:0000000000000683 .LASF35
     /tmp/ccuNIiLd.s:5215   .debug_str:0000000000000834 .LASF36
     /tmp/ccuNIiLd.s:5465   .debug_str:0000000000001068 .LASF37
     /tmp/ccuNIiLd.s:5441   .debug_str:0000000000000fb4 .LASF38
     /tmp/ccuNIiLd.s:5179   .debug_str:0000000000000743 .LASF47
     /tmp/ccuNIiLd.s:4959   .debug_str:0000000000000062 .LASF49
     /tmp/ccuNIiLd.s:5367   .debug_str:0000000000000cb0 .LASF39
     /tmp/ccuNIiLd.s:5197   .debug_str:00000000000007ad .LASF41
GAS LISTING /tmp/ccuNIiLd.s 			page 31


     /tmp/ccuNIiLd.s:5327   .debug_str:0000000000000b64 .LASF40
     /tmp/ccuNIiLd.s:5379   .debug_str:0000000000000dad .LASF42
     /tmp/ccuNIiLd.s:5223   .debug_str:0000000000000864 .LASF43
     /tmp/ccuNIiLd.s:5103   .debug_str:00000000000004f4 .LASF45
     /tmp/ccuNIiLd.s:5295   .debug_str:0000000000000a72 .LASF44
     /tmp/ccuNIiLd.s:5261   .debug_str:0000000000000979 .LASF46
     /tmp/ccuNIiLd.s:4991   .debug_str:000000000000018f .LASF180
     /tmp/ccuNIiLd.s:5227   .debug_str:0000000000000876 .LASF182
     /tmp/ccuNIiLd.s:5393   .debug_str:0000000000000e65 .LASF48
     /tmp/ccuNIiLd.s:5439   .debug_str:0000000000000fa2 .LASF50
     /tmp/ccuNIiLd.s:5253   .debug_str:000000000000093f .LASF51
     /tmp/ccuNIiLd.s:5491   .debug_str:000000000000113f .LASF52
     /tmp/ccuNIiLd.s:5191   .debug_str:0000000000000789 .LASF53
     /tmp/ccuNIiLd.s:5031   .debug_str:0000000000000292 .LASF54
     /tmp/ccuNIiLd.s:5175   .debug_str:000000000000072d .LASF55
     /tmp/ccuNIiLd.s:5381   .debug_str:0000000000000dc9 .LASF56
     /tmp/ccuNIiLd.s:5201   .debug_str:00000000000007cc .LASF57
     /tmp/ccuNIiLd.s:5387   .debug_str:0000000000000e04 .LASF58
     /tmp/ccuNIiLd.s:5445   .debug_str:0000000000000fdf .LASF59
     /tmp/ccuNIiLd.s:5039   .debug_str:00000000000002f1 .LASF60
     /tmp/ccuNIiLd.s:5203   .debug_str:00000000000007db .LASF61
     /tmp/ccuNIiLd.s:5351   .debug_str:0000000000000c23 .LASF62
     /tmp/ccuNIiLd.s:5395   .debug_str:0000000000000e6b .LASF63
     /tmp/ccuNIiLd.s:5429   .debug_str:0000000000000f45 .LASF65
     /tmp/ccuNIiLd.s:5467   .debug_str:0000000000001076 .LASF64
     /tmp/ccuNIiLd.s:4983   .debug_str:0000000000000121 .LASF66
     /tmp/ccuNIiLd.s:5263   .debug_str:0000000000000999 .LASF67
     /tmp/ccuNIiLd.s:5033   .debug_str:00000000000002b7 .LASF68
     /tmp/ccuNIiLd.s:5195   .debug_str:00000000000007a3 .LASF69
     /tmp/ccuNIiLd.s:5479   .debug_str:00000000000010d9 .LASF70
     /tmp/ccuNIiLd.s:5243   .debug_str:00000000000008d5 .LASF71
     /tmp/ccuNIiLd.s:5217   .debug_str:0000000000000839 .LASF72
     /tmp/ccuNIiLd.s:5003   .debug_str:00000000000001cc .LASF73
     /tmp/ccuNIiLd.s:5127   .debug_str:00000000000005d8 .LASF74
     /tmp/ccuNIiLd.s:4969   .debug_str:00000000000000bd .LASF75
     /tmp/ccuNIiLd.s:4979   .debug_str:000000000000010f .LASF76
     /tmp/ccuNIiLd.s:5315   .debug_str:0000000000000afb .LASF77
     /tmp/ccuNIiLd.s:5233   .debug_str:0000000000000898 .LASF78
     /tmp/ccuNIiLd.s:5001   .debug_str:00000000000001bb .LASF79
     /tmp/ccuNIiLd.s:5199   .debug_str:00000000000007c5 .LASF80
     /tmp/ccuNIiLd.s:5075   .debug_str:00000000000003fe .LASF81
     /tmp/ccuNIiLd.s:5343   .debug_str:0000000000000be0 .LASF82
     /tmp/ccuNIiLd.s:5139   .debug_str:0000000000000628 .LASF83
     /tmp/ccuNIiLd.s:4977   .debug_str:0000000000000101 .LASF84
     /tmp/ccuNIiLd.s:5053   .debug_str:0000000000000348 .LASF85
     /tmp/ccuNIiLd.s:5105   .debug_str:000000000000050e .LASF86
     /tmp/ccuNIiLd.s:4985   .debug_str:0000000000000138 .LASF87
     /tmp/ccuNIiLd.s:5383   .debug_str:0000000000000dd9 .LASF88
     /tmp/ccuNIiLd.s:5141   .debug_str:0000000000000642 .LASF89
     /tmp/ccuNIiLd.s:5145   .debug_str:000000000000066f .LASF90
     /tmp/ccuNIiLd.s:5463   .debug_str:000000000000104e .LASF91
     /tmp/ccuNIiLd.s:5081   .debug_str:0000000000000433 .LASF92
     /tmp/ccuNIiLd.s:5369   .debug_str:0000000000000cbd .LASF93
     /tmp/ccuNIiLd.s:5415   .debug_str:0000000000000efa .LASF94
     /tmp/ccuNIiLd.s:5115   .debug_str:000000000000054e .LASF95
     /tmp/ccuNIiLd.s:5483   .debug_str:0000000000001102 .LASF96
     /tmp/ccuNIiLd.s:5043   .debug_str:0000000000000310 .LASF97
GAS LISTING /tmp/ccuNIiLd.s 			page 32


     /tmp/ccuNIiLd.s:5399   .debug_str:0000000000000e83 .LASF98
     /tmp/ccuNIiLd.s:5437   .debug_str:0000000000000f9b .LASF99
     /tmp/ccuNIiLd.s:5289   .debug_str:0000000000000a3d .LASF100
     /tmp/ccuNIiLd.s:5401   .debug_str:0000000000000e8b .LASF101
     /tmp/ccuNIiLd.s:5181   .debug_str:0000000000000752 .LASF102
     /tmp/ccuNIiLd.s:5469   .debug_str:0000000000001081 .LASF103
     /tmp/ccuNIiLd.s:5427   .debug_str:0000000000000f2d .LASF104
     /tmp/ccuNIiLd.s:5019   .debug_str:000000000000024a .LASF105
     /tmp/ccuNIiLd.s:5319   .debug_str:0000000000000b30 .LASF106
     /tmp/ccuNIiLd.s:5113   .debug_str:0000000000000544 .LASF107
     /tmp/ccuNIiLd.s:5471   .debug_str:000000000000108b .LASF108
     /tmp/ccuNIiLd.s:5337   .debug_str:0000000000000bba .LASF109
     /tmp/ccuNIiLd.s:5097   .debug_str:00000000000004c1 .LASF110
     /tmp/ccuNIiLd.s:5177   .debug_str:0000000000000733 .LASF111
     /tmp/ccuNIiLd.s:5247   .debug_str:00000000000008f6 .LASF112
     /tmp/ccuNIiLd.s:5255   .debug_str:000000000000094c .LASF113
     /tmp/ccuNIiLd.s:5353   .debug_str:0000000000000c31 .LASF114
     /tmp/ccuNIiLd.s:5241   .debug_str:00000000000008cf .LASF115
     /tmp/ccuNIiLd.s:5237   .debug_str:00000000000008b8 .LASF116
     /tmp/ccuNIiLd.s:5287   .debug_str:0000000000000a38 .LASF117
     /tmp/ccuNIiLd.s:5153   .debug_str:00000000000006af .LASF118
     /tmp/ccuNIiLd.s:5355   .debug_str:0000000000000c52 .LASF226
     /tmp/ccuNIiLd.s:5451   .debug_str:0000000000001010 .LASF119
     /tmp/ccuNIiLd.s:5423   .debug_str:0000000000000f14 .LASF120
     /tmp/ccuNIiLd.s:5477   .debug_str:00000000000010d2 .LASF122
     /tmp/ccuNIiLd.s:5159   .debug_str:00000000000006d0 .LASF123
     /tmp/ccuNIiLd.s:5259   .debug_str:0000000000000971 .LASF124
     /tmp/ccuNIiLd.s:5013   .debug_str:000000000000020c .LASF125
     /tmp/ccuNIiLd.s:5377   .debug_str:0000000000000da6 .LASF126
     /tmp/ccuNIiLd.s:4997   .debug_str:00000000000001ac .LASF127
     /tmp/ccuNIiLd.s:4953   .debug_str:0000000000000036 .LASF128
     /tmp/ccuNIiLd.s:5275   .debug_str:00000000000009e5 .LASF129
     /tmp/ccuNIiLd.s:5475   .debug_str:00000000000010ac .LASF130
     /tmp/ccuNIiLd.s:5151   .debug_str:0000000000000688 .LASF131
     /tmp/ccuNIiLd.s:5121   .debug_str:0000000000000594 .LASF148
     /tmp/ccuNIiLd.s:5167   .debug_str:00000000000006fc .LASF132
     /tmp/ccuNIiLd.s:5389   .debug_str:0000000000000e20 .LASF133
     /tmp/ccuNIiLd.s:5291   .debug_str:0000000000000a48 .LASF134
     /tmp/ccuNIiLd.s:5015   .debug_str:0000000000000215 .LASF135
     /tmp/ccuNIiLd.s:5403   .debug_str:0000000000000e95 .LASF136
     /tmp/ccuNIiLd.s:5117   .debug_str:0000000000000553 .LASF137
     /tmp/ccuNIiLd.s:5023   .debug_str:000000000000026b .LASF138
     /tmp/ccuNIiLd.s:5409   .debug_str:0000000000000ec1 .LASF139
     /tmp/ccuNIiLd.s:5107   .debug_str:000000000000051e .LASF154
     /tmp/ccuNIiLd.s:5073   .debug_str:00000000000003f8 .LASF140
     /tmp/ccuNIiLd.s:5339   .debug_str:0000000000000bc6 .LASF141
     /tmp/ccuNIiLd.s:5225   .debug_str:0000000000000871 .LASF142
     /tmp/ccuNIiLd.s:5169   .debug_str:0000000000000701 .LASF143
     /tmp/ccuNIiLd.s:4951   .debug_str:000000000000002d .LASF144
     /tmp/ccuNIiLd.s:5079   .debug_str:000000000000041e .LASF145
     /tmp/ccuNIiLd.s:5443   .debug_str:0000000000000fbd .LASF146
     /tmp/ccuNIiLd.s:5293   .debug_str:0000000000000a51 .LASF147
     /tmp/ccuNIiLd.s:4947   .debug_str:0000000000000000 .LASF149
     /tmp/ccuNIiLd.s:5357   .debug_str:0000000000000c5a .LASF150
     /tmp/ccuNIiLd.s:5093   .debug_str:0000000000000487 .LASF151
     /tmp/ccuNIiLd.s:5317   .debug_str:0000000000000b0b .LASF152
     /tmp/ccuNIiLd.s:4989   .debug_str:000000000000016b .LASF153
GAS LISTING /tmp/ccuNIiLd.s 			page 33


     /tmp/ccuNIiLd.s:5069   .debug_str:00000000000003dc .LASF155
     /tmp/ccuNIiLd.s:5283   .debug_str:0000000000000a17 .LASF159
     /tmp/ccuNIiLd.s:5163   .debug_str:00000000000006ec .LASF156
     /tmp/ccuNIiLd.s:5051   .debug_str:000000000000033f .LASF157
     /tmp/ccuNIiLd.s:5453   .debug_str:0000000000001018 .LASF158
     /tmp/ccuNIiLd.s:5065   .debug_str:00000000000003b8 .LASF160
     /tmp/ccuNIiLd.s:5397   .debug_str:0000000000000e77 .LASF161
     /tmp/ccuNIiLd.s:5371   .debug_str:0000000000000cc5 .LASF162
     /tmp/ccuNIiLd.s:5207   .debug_str:000000000000080e .LASF163
     /tmp/ccuNIiLd.s:5321   .debug_str:0000000000000b48 .LASF164
     /tmp/ccuNIiLd.s:5279   .debug_str:00000000000009ef .LASF165
     /tmp/ccuNIiLd.s:5349   .debug_str:0000000000000c0e .LASF166
     /tmp/ccuNIiLd.s:5135   .debug_str:00000000000005fc .LASF167
     /tmp/ccuNIiLd.s:5375   .debug_str:0000000000000d96 .LASF168
     /tmp/ccuNIiLd.s:5433   .debug_str:0000000000000f76 .LASF169
     /tmp/ccuNIiLd.s:5239   .debug_str:00000000000008c0 .LASF170
     /tmp/ccuNIiLd.s:5385   .debug_str:0000000000000de8 .LASF171
     /tmp/ccuNIiLd.s:5457   .debug_str:0000000000001028 .LASF172
     /tmp/ccuNIiLd.s:5495   .debug_str:0000000000001164 .LASF173
     /tmp/ccuNIiLd.s:5111   .debug_str:0000000000000539 .LASF174
     /tmp/ccuNIiLd.s:5125   .debug_str:00000000000005c0 .LASF175
     /tmp/ccuNIiLd.s:5189   .debug_str:0000000000000777 .LASF176
     /tmp/ccuNIiLd.s:5407   .debug_str:0000000000000ea2 .LASF177
     /tmp/ccuNIiLd.s:5131   .debug_str:00000000000005eb .LASF178
     /tmp/ccuNIiLd.s:4961   .debug_str:000000000000008b .LASF179
     /tmp/ccuNIiLd.s:5297   .debug_str:0000000000000a84 .LASF272
     /tmp/ccuNIiLd.s:5419   .debug_str:0000000000000f04 .LASF181
     /tmp/ccuNIiLd.s:5067   .debug_str:00000000000003c7 .LASF183
     /tmp/ccuNIiLd.s:5299   .debug_str:0000000000000a94 .LASF184
     /tmp/ccuNIiLd.s:4975   .debug_str:00000000000000ec .LASF185
     /tmp/ccuNIiLd.s:5273   .debug_str:00000000000009de .LASF186
     /tmp/ccuNIiLd.s:5265   .debug_str:00000000000009a5 .LASF187
     /tmp/ccuNIiLd.s:5229   .debug_str:0000000000000886 .LASF188
     /tmp/ccuNIiLd.s:5161   .debug_str:00000000000006d9 .LASF189
     /tmp/ccuNIiLd.s:5459   .debug_str:0000000000001038 .LASF190
     /tmp/ccuNIiLd.s:5345   .debug_str:0000000000000bee .LASF191
     /tmp/ccuNIiLd.s:5155   .debug_str:00000000000006b5 .LASF192
     /tmp/ccuNIiLd.s:5485   .debug_str:0000000000001108 .LASF193
     /tmp/ccuNIiLd.s:5183   .debug_str:0000000000000759 .LASF194
     /tmp/ccuNIiLd.s:5281   .debug_str:0000000000000a03 .LASF195
     /tmp/ccuNIiLd.s:5497   .debug_str:0000000000001181 .LASF196
     /tmp/ccuNIiLd.s:5425   .debug_str:0000000000000f19 .LASF197
     /tmp/ccuNIiLd.s:5165   .debug_str:00000000000006f5 .LASF198
     /tmp/ccuNIiLd.s:5311   .debug_str:0000000000000ae1 .LASF199
     /tmp/ccuNIiLd.s:5313   .debug_str:0000000000000af4 .LASF200
     /tmp/ccuNIiLd.s:5095   .debug_str:00000000000004ae .LASF201
     /tmp/ccuNIiLd.s:5047   .debug_str:0000000000000324 .LASF202
     /tmp/ccuNIiLd.s:4973   .debug_str:00000000000000da .LASF203
     /tmp/ccuNIiLd.s:5137   .debug_str:0000000000000622 .LASF204
     /tmp/ccuNIiLd.s:5037   .debug_str:00000000000002df .LASF205
     /tmp/ccuNIiLd.s:5487   .debug_str:000000000000111c .LASF206
     /tmp/ccuNIiLd.s:5305   .debug_str:0000000000000ab6 .LASF207
     /tmp/ccuNIiLd.s:5301   .debug_str:0000000000000a9d .LASF208
     /tmp/ccuNIiLd.s:5489   .debug_str:0000000000001127 .LASF209
     /tmp/ccuNIiLd.s:5449   .debug_str:0000000000001006 .LASF210
     /tmp/ccuNIiLd.s:5021   .debug_str:0000000000000255 .LASF211
     /tmp/ccuNIiLd.s:5011   .debug_str:0000000000000202 .LASF212
GAS LISTING /tmp/ccuNIiLd.s 			page 34


     /tmp/ccuNIiLd.s:5285   .debug_str:0000000000000a22 .LASF213
     /tmp/ccuNIiLd.s:5231   .debug_str:000000000000088d .LASF214
     /tmp/ccuNIiLd.s:4987   .debug_str:0000000000000153 .LASF215
     /tmp/ccuNIiLd.s:5501   .debug_str:0000000000001193 .LASF216
     /tmp/ccuNIiLd.s:5213   .debug_str:0000000000000826 .LASF247
     /tmp/ccuNIiLd.s:5359   .debug_str:0000000000000c7c .LASF217
     /tmp/ccuNIiLd.s:5187   .debug_str:000000000000076e .LASF218
     /tmp/ccuNIiLd.s:5055   .debug_str:0000000000000361 .LASF219
     /tmp/ccuNIiLd.s:5363   .debug_str:0000000000000c8c .LASF220
     /tmp/ccuNIiLd.s:5269   .debug_str:00000000000009bf .LASF221
     /tmp/ccuNIiLd.s:5235   .debug_str:000000000000089f .LASF222
     /tmp/ccuNIiLd.s:5323   .debug_str:0000000000000b4f .LASF223
     /tmp/ccuNIiLd.s:5041   .debug_str:000000000000030a .LASF224
     /tmp/ccuNIiLd.s:5455   .debug_str:0000000000001021 .LASF225
     /tmp/ccuNIiLd.s:4995   .debug_str:00000000000001a7 .LASF227
     /tmp/ccuNIiLd.s:5493   .debug_str:0000000000001157 .LASF228
     /tmp/ccuNIiLd.s:5173   .debug_str:0000000000000719 .LASF229
     /tmp/ccuNIiLd.s:4957   .debug_str:0000000000000052 .LASF273
     /tmp/ccuNIiLd.s:5245   .debug_str:00000000000008e1 .LASF274
     /tmp/ccuNIiLd.s:5447   .debug_str:0000000000000fe9 .LASF230
     /tmp/ccuNIiLd.s:5209   .debug_str:000000000000081a .LASF231
     /tmp/ccuNIiLd.s:5219   .debug_str:0000000000000851 .LASF232
     /tmp/ccuNIiLd.s:5417   .debug_str:0000000000000eff .LASF233
     /tmp/ccuNIiLd.s:5123   .debug_str:00000000000005b9 .LASF234
     /tmp/ccuNIiLd.s:5431   .debug_str:0000000000000f5d .LASF235
     /tmp/ccuNIiLd.s:4955   .debug_str:000000000000004b .LASF236
     /tmp/ccuNIiLd.s:5257   .debug_str:000000000000095d .LASF237
     /tmp/ccuNIiLd.s:5421   .debug_str:0000000000000f0d .LASF238
     /tmp/ccuNIiLd.s:5205   .debug_str:00000000000007fa .LASF239
     /tmp/ccuNIiLd.s:5027   .debug_str:0000000000000282 .LASF240
     /tmp/ccuNIiLd.s:5109   .debug_str:0000000000000527 .LASF241
     /tmp/ccuNIiLd.s:5071   .debug_str:00000000000003e2 .LASF242
     /tmp/ccuNIiLd.s:4981   .debug_str:0000000000000115 .LASF243
     /tmp/ccuNIiLd.s:5059   .debug_str:000000000000038b .LASF244
     /tmp/ccuNIiLd.s:5045   .debug_str:0000000000000317 .LASF245
     /tmp/ccuNIiLd.s:5391   .debug_str:0000000000000e46 .LASF246
     /tmp/ccuNIiLd.s:5087   .debug_str:000000000000044f .LASF248
     /tmp/ccuNIiLd.s:5341   .debug_str:0000000000000bcb .LASF249
     /tmp/ccuNIiLd.s:5119   .debug_str:000000000000057c .LASF275
     /tmp/ccuNIiLd.s:5481   .debug_str:00000000000010ee .LASF276
     /tmp/ccuNIiLd.s:5249   .debug_str:0000000000000913 .LASF250
     /tmp/ccuNIiLd.s:5049   .debug_str:000000000000032a .LASF251
     /tmp/ccuNIiLd.s:4993   .debug_str:0000000000000195 .LASF252
     /tmp/ccuNIiLd.s:5063   .debug_str:00000000000003aa .LASF253
     /tmp/ccuNIiLd.s:5185   .debug_str:0000000000000761 .LASF254
     /tmp/ccuNIiLd.s:4971   .debug_str:00000000000000cd .LASF255
     /tmp/ccuNIiLd.s:5333   .debug_str:0000000000000b99 .LASF277
     /tmp/ccuNIiLd.s:5083   .debug_str:0000000000000441 .LASF256
     /tmp/ccuNIiLd.s:744    .text:0000000000000368 .LFB50
     /tmp/ccuNIiLd.s:771    .text:000000000000039c .LFE50
     /tmp/ccuNIiLd.s:711    .text:0000000000000334 .LFB49
     /tmp/ccuNIiLd.s:738    .text:0000000000000368 .LFE49
     /tmp/ccuNIiLd.s:661    .text:000000000000030c .LFB48
     /tmp/ccuNIiLd.s:705    .text:0000000000000334 .LFE48
     /tmp/ccuNIiLd.s:672    .text:0000000000000318 .LBB126
     /tmp/ccuNIiLd.s:684    .text:0000000000000320 .LBE126
     /tmp/ccuNIiLd.s:4623   .debug_loc:0000000000000000 .LLST24
GAS LISTING /tmp/ccuNIiLd.s 			page 35


     /tmp/ccuNIiLd.s:504    .text:0000000000000254 .LFB47
     /tmp/ccuNIiLd.s:655    .text:000000000000030c .LFE47
     /tmp/ccuNIiLd.s:4632   .debug_loc:0000000000000026 .LLST20
     /tmp/ccuNIiLd.s:5435   .debug_str:0000000000000f93 .LASF257
     /tmp/ccuNIiLd.s:4643   .debug_loc:000000000000005c .LLST21
     /tmp/ccuNIiLd.s:634    .text:00000000000002dc .LBB118
     /tmp/ccuNIiLd.s:649    .text:0000000000000308 .LBE118
     /tmp/ccuNIiLd.s:648    .text:0000000000000308 .LVL61
     /tmp/ccuNIiLd.s:520    .text:000000000000026c .LBB111
     /tmp/ccuNIiLd.s:536    .text:0000000000000278 .LBE111
     /tmp/ccuNIiLd.s:538    .text:0000000000000278 .LBB113
     /tmp/ccuNIiLd.s:554    .text:0000000000000284 .LBE113
     /tmp/ccuNIiLd.s:567    .text:0000000000000294 .LBB121
     /tmp/ccuNIiLd.s:578    .text:0000000000000298 .LBE121
     /tmp/ccuNIiLd.s:4654   .debug_loc:0000000000000092 .LLST22
     /tmp/ccuNIiLd.s:580    .text:0000000000000298 .LBB123
     /tmp/ccuNIiLd.s:591    .text:000000000000029c .LBE123
     /tmp/ccuNIiLd.s:4661   .debug_loc:00000000000000b5 .LLST23
     /tmp/ccuNIiLd.s:559    .text:000000000000028c .LVL53
     /tmp/ccuNIiLd.s:628    .text:00000000000002d8 .LVL60
     /tmp/ccuNIiLd.s:200    .text:00000000000000e8 .LFB46
     /tmp/ccuNIiLd.s:498    .text:0000000000000254 .LFE46
     /tmp/ccuNIiLd.s:4668   .debug_loc:00000000000000d8 .LLST9
     /tmp/ccuNIiLd.s:4679   .debug_loc:000000000000010e .LLST10
     /tmp/ccuNIiLd.s:277    .text:0000000000000140 .LBB85
     /tmp/ccuNIiLd.s:288    .text:0000000000000160 .LBE85
     /tmp/ccuNIiLd.s:4690   .debug_loc:0000000000000144 .LLST11
     /tmp/ccuNIiLd.s:282    .text:0000000000000150 .LVL23
     /tmp/ccuNIiLd.s:4935   .debug_ranges:0000000000000000 .Ldebug_ranges0
     /tmp/ccuNIiLd.s:4697   .debug_loc:0000000000000167 .LLST16
     /tmp/ccuNIiLd.s:384    .text:00000000000001c0 .LBB95
     /tmp/ccuNIiLd.s:391    .text:00000000000001c4 .LBE95
     /tmp/ccuNIiLd.s:4708   .debug_loc:000000000000019d .LLST17
     /tmp/ccuNIiLd.s:416    .text:00000000000001ec .LBB97
     /tmp/ccuNIiLd.s:423    .text:00000000000001f0 .LBE97
     /tmp/ccuNIiLd.s:4715   .debug_loc:00000000000001c0 .LLST18
     /tmp/ccuNIiLd.s:395    .text:00000000000001cc .LVL36
     /tmp/ccuNIiLd.s:414    .text:00000000000001ec .LVL39
     /tmp/ccuNIiLd.s:216    .text:0000000000000100 .LBB78
     /tmp/ccuNIiLd.s:232    .text:000000000000010c .LBE78
     /tmp/ccuNIiLd.s:234    .text:000000000000010c .LBB80
     /tmp/ccuNIiLd.s:251    .text:0000000000000118 .LBE80
     /tmp/ccuNIiLd.s:264    .text:0000000000000130 .LBB82
     /tmp/ccuNIiLd.s:274    .text:000000000000013c .LBE82
     /tmp/ccuNIiLd.s:265    .text:0000000000000130 .LBB83
     /tmp/ccuNIiLd.s:273    .text:000000000000013c .LBE83
     /tmp/ccuNIiLd.s:294    .text:0000000000000164 .LBB86
     /tmp/ccuNIiLd.s:306    .text:000000000000016c .LBE86
     /tmp/ccuNIiLd.s:4722   .debug_loc:00000000000001e3 .LLST12
     /tmp/ccuNIiLd.s:324    .text:0000000000000198 .LBB88
     /tmp/ccuNIiLd.s:332    .text:000000000000019c .LBE88
     /tmp/ccuNIiLd.s:4730   .debug_loc:0000000000000207 .LLST13
     /tmp/ccuNIiLd.s:338    .text:00000000000001a0 .LBB90
     /tmp/ccuNIiLd.s:349    .text:00000000000001a4 .LBE90
     /tmp/ccuNIiLd.s:4737   .debug_loc:000000000000022a .LLST14
     /tmp/ccuNIiLd.s:351    .text:00000000000001a4 .LBB92
     /tmp/ccuNIiLd.s:362    .text:00000000000001a8 .LBE92
GAS LISTING /tmp/ccuNIiLd.s 			page 36


     /tmp/ccuNIiLd.s:4744   .debug_loc:000000000000024d .LLST15
     /tmp/ccuNIiLd.s:438    .text:0000000000000204 .LBB101
     /tmp/ccuNIiLd.s:476    .text:0000000000000234 .LBE101
     /tmp/ccuNIiLd.s:442    .text:0000000000000204 .LBB103
     /tmp/ccuNIiLd.s:449    .text:0000000000000210 .LBE103
     /tmp/ccuNIiLd.s:453    .text:0000000000000214 .LBB105
     /tmp/ccuNIiLd.s:460    .text:0000000000000220 .LBE105
     /tmp/ccuNIiLd.s:464    .text:0000000000000224 .LBB107
     /tmp/ccuNIiLd.s:471    .text:0000000000000230 .LBE107
     /tmp/ccuNIiLd.s:483    .text:0000000000000240 .LBB109
     /tmp/ccuNIiLd.s:491    .text:0000000000000248 .LBE109
     /tmp/ccuNIiLd.s:4751   .debug_loc:0000000000000270 .LLST19
     /tmp/ccuNIiLd.s:310    .text:0000000000000174 .LVL26
     /tmp/ccuNIiLd.s:402    .text:00000000000001d4 .LVL37
     /tmp/ccuNIiLd.s:407    .text:00000000000001e0 .LVL38
     /tmp/ccuNIiLd.s:495    .text:0000000000000250 .LVL50
     /tmp/ccuNIiLd.s:15     .text:0000000000000000 .LFB45
     /tmp/ccuNIiLd.s:194    .text:00000000000000e8 .LFE45
     /tmp/ccuNIiLd.s:5061   .debug_str:00000000000003a5 .LASF258
     /tmp/ccuNIiLd.s:4758   .debug_loc:0000000000000293 .LLST0
     /tmp/ccuNIiLd.s:5405   .debug_str:0000000000000e9d .LASF259
     /tmp/ccuNIiLd.s:4780   .debug_loc:00000000000002f2 .LLST1
     /tmp/ccuNIiLd.s:5147   .debug_str:000000000000067e .LASF260
     /tmp/ccuNIiLd.s:4806   .debug_loc:0000000000000364 .LLST2
     /tmp/ccuNIiLd.s:5277   .debug_str:00000000000009ea .LASF261
     /tmp/ccuNIiLd.s:4832   .debug_loc:00000000000003d6 .LLST3
     /tmp/ccuNIiLd.s:5411   .debug_str:0000000000000ee9 .LASF262
     /tmp/ccuNIiLd.s:4858   .debug_loc:0000000000000448 .LLST4
     /tmp/ccuNIiLd.s:4880   .debug_loc:00000000000004a7 .LLST5
     /tmp/ccuNIiLd.s:4891   .debug_loc:00000000000004dd .LLST6
     /tmp/ccuNIiLd.s:48     .text:0000000000000040 .LBB68
     /tmp/ccuNIiLd.s:65     .text:000000000000004c .LBE68
     /tmp/ccuNIiLd.s:67     .text:000000000000004c .LBB70
     /tmp/ccuNIiLd.s:83     .text:0000000000000058 .LBE70
     /tmp/ccuNIiLd.s:85     .text:0000000000000058 .LBB72
     /tmp/ccuNIiLd.s:101    .text:0000000000000064 .LBE72
     /tmp/ccuNIiLd.s:125    .text:0000000000000098 .LBB74
     /tmp/ccuNIiLd.s:136    .text:000000000000009c .LBE74
     /tmp/ccuNIiLd.s:4908   .debug_loc:0000000000000528 .LLST7
     /tmp/ccuNIiLd.s:138    .text:000000000000009c .LBB76
     /tmp/ccuNIiLd.s:149    .text:00000000000000a0 .LBE76
     /tmp/ccuNIiLd.s:4915   .debug_loc:000000000000054b .LLST8
     /tmp/ccuNIiLd.s:120    .text:0000000000000094 .LVL6
     /tmp/ccuNIiLd.s:187    .text:00000000000000dc .LVL17
     /tmp/ccuNIiLd.s:191    .text:00000000000000e4 .LVL18
     /tmp/ccuNIiLd.s:5211   .debug_str:0000000000000821 .LASF263
     /tmp/ccuNIiLd.s:5335   .debug_str:0000000000000bb3 .LASF264
     /tmp/ccuNIiLd.s:5193   .debug_str:0000000000000798 .LASF265
     /tmp/ccuNIiLd.s:5325   .debug_str:0000000000000b56 .LASF266
     /tmp/ccuNIiLd.s:5133   .debug_str:00000000000005f0 .LASF267
     /tmp/ccuNIiLd.s:4999   .debug_str:00000000000001b5 .LASF268
     /tmp/ccuNIiLd.s:671    .text:0000000000000318 .LVL62
     /tmp/ccuNIiLd.s:681    .text:0000000000000320 .LVL63
     /tmp/ccuNIiLd.s:534    .text:0000000000000278 .LVL51
     /tmp/ccuNIiLd.s:604    .text:00000000000002ac .LVL58
     /tmp/ccuNIiLd.s:608    .text:00000000000002b4 .LVL59
     /tmp/ccuNIiLd.s:552    .text:0000000000000284 .LVL52
GAS LISTING /tmp/ccuNIiLd.s 			page 37


     /tmp/ccuNIiLd.s:601    .text:00000000000002a8 .LVL57
     /tmp/ccuNIiLd.s:566    .text:0000000000000294 .LVL54
     /tmp/ccuNIiLd.s:575    .text:0000000000000298 .LVL55
     /tmp/ccuNIiLd.s:588    .text:000000000000029c .LVL56
     /tmp/ccuNIiLd.s:230    .text:000000000000010c .LVL19
     /tmp/ccuNIiLd.s:372    .text:00000000000001b4 .LVL32
     /tmp/ccuNIiLd.s:379    .text:00000000000001c0 .LVL34
     /tmp/ccuNIiLd.s:248    .text:0000000000000118 .LVL20
     /tmp/ccuNIiLd.s:375    .text:00000000000001b8 .LVL33
     /tmp/ccuNIiLd.s:291    .text:0000000000000164 .LVL24
     /tmp/ccuNIiLd.s:435    .text:0000000000000204 .LVL42
     /tmp/ccuNIiLd.s:389    .text:00000000000001c4 .LVL35
     /tmp/ccuNIiLd.s:421    .text:00000000000001f0 .LVL40
     /tmp/ccuNIiLd.s:303    .text:000000000000016c .LVL25
     /tmp/ccuNIiLd.s:323    .text:0000000000000198 .LVL27
     /tmp/ccuNIiLd.s:330    .text:000000000000019c .LVL28
     /tmp/ccuNIiLd.s:337    .text:00000000000001a0 .LVL29
     /tmp/ccuNIiLd.s:346    .text:00000000000001a4 .LVL30
     /tmp/ccuNIiLd.s:359    .text:00000000000001a8 .LVL31
     /tmp/ccuNIiLd.s:482    .text:0000000000000240 .LVL48
     /tmp/ccuNIiLd.s:489    .text:0000000000000248 .LVL49
     /tmp/ccuNIiLd.s:19     .text:0000000000000000 .LVL0
     /tmp/ccuNIiLd.s:105    .text:000000000000006c .LVL4
     /tmp/ccuNIiLd.s:110    .text:0000000000000070 .LVL5
     /tmp/ccuNIiLd.s:180    .text:00000000000000cc .LVL16
     /tmp/ccuNIiLd.s:164    .text:00000000000000b4 .LVL11
     /tmp/ccuNIiLd.s:167    .text:00000000000000b8 .LVL12
     /tmp/ccuNIiLd.s:170    .text:00000000000000bc .LVL13
     /tmp/ccuNIiLd.s:99     .text:0000000000000064 .LVL3
     /tmp/ccuNIiLd.s:173    .text:00000000000000c0 .LVL14
     /tmp/ccuNIiLd.s:63     .text:000000000000004c .LVL1
     /tmp/ccuNIiLd.s:176    .text:00000000000000c4 .LVL15
     /tmp/ccuNIiLd.s:81     .text:0000000000000058 .LVL2
     /tmp/ccuNIiLd.s:161    .text:00000000000000b0 .LVL10
     /tmp/ccuNIiLd.s:124    .text:0000000000000098 .LVL7
     /tmp/ccuNIiLd.s:133    .text:000000000000009c .LVL8
     /tmp/ccuNIiLd.s:146    .text:00000000000000a0 .LVL9
     /tmp/ccuNIiLd.s:806    .debug_info:0000000000000000 .Ldebug_info0
     /tmp/ccuNIiLd.s:382    .text:00000000000001c0 .LBB94
     /tmp/ccuNIiLd.s:397    .text:00000000000001cc .LBE94
     /tmp/ccuNIiLd.s:410    .text:00000000000001e4 .LBB99
     /tmp/ccuNIiLd.s:428    .text:00000000000001f8 .LBE99
     /tmp/ccuNIiLd.s:430    .text:00000000000001f8 .LBB100
     /tmp/ccuNIiLd.s:437    .text:0000000000000204 .LBE100

UNDEFINED SYMBOLS
_Z5printPKc
_ZN3TCB12_thread_exitEv
CONSOLE_STATUS
_ZN2IO6OutputE
_ZN8IOBuffer3getEv
CONSOLE_TX_DATA
_ZN6Cradle6updateEv
_ZN3TCB13timer_counterE
_ZN3TCB7runningE
_ZN9Scheduler3putEP3TCB
_ZN6Cradle8is_emptyEv
GAS LISTING /tmp/ccuNIiLd.s 			page 38


_ZN6Cradle4peakEv
_ZN6Cradle6removeEv
_ZN9Scheduler13high_priorityE
_ZN9Scheduler12mid_priorityE
_ZN9Scheduler12low_priorityE
_ZN3TCB16_thread_dispatchEv
plic_claim
plic_complete
CONSOLE_RX_DATA
_ZN2IO5InputE
_ZN8IOBuffer3putEc
_ZN9Allocator10_mem_allocEm
_ZN9Allocator9_mem_freeEPKv
_ZN3TCB14_thread_createEPPS_PFvPvES2_S2_
_ZN3TCB12_thread_joinEPS_
_ZN3TCB17_thread_join_timeEPS_m
_ZN3TCB5_forkEv
_ZN3TCB5_killEPS_
_ZN3Sem9_sem_openEPPS_j
_ZN3Sem10_sem_closeEPS_
_ZN3Sem9_sem_waitEPS_
_ZN3Sem11_sem_signalEPS_
_ZN3Sem15_sem_signal_allEPS_
_ZN3Sem16_sem_signal_waitEPS_S0_
_ZN6Cradle11_time_sleepEm
_ZN6Cradle12_thread_wakeEP3TCB
_ZN2IO5_getcEv
_ZN2IO5_putcEc
