GAS LISTING /tmp/ccTgCEJt.s 			page 1


   1              		.file	"scheduler.cpp"
   2              		.option pic
   3              		.option norelax
   4              		.text
   5              	.Ltext0:
   6              		.align	2
   7              		.globl	_ZN9Scheduler9idle_bodyEv
   9              	_ZN9Scheduler9idle_bodyEv:
  10              	.LFB28:
  11              		.file 1 "src/scheduler.cpp"
   1:src/scheduler.cpp **** #include "../h/scheduler.hpp"
   2:src/scheduler.cpp **** #include "../h/c_thread.hpp"
   3:src/scheduler.cpp **** 
   4:src/scheduler.cpp **** TCB* Scheduler::idle_thread = nullptr;
   5:src/scheduler.cpp **** stm::CircularBuffer<TCB *> Scheduler::high_priority{};
   6:src/scheduler.cpp **** stm::CircularBuffer<TCB *> Scheduler::mid_priority{};
   7:src/scheduler.cpp **** stm::CircularBuffer<TCB *> Scheduler::low_priority{};
   8:src/scheduler.cpp **** 
   9:src/scheduler.cpp **** void Scheduler::put(TCB *thread) {
  10:src/scheduler.cpp ****     if (!Scheduler::idle_thread or thread == Scheduler::idle_thread) {
  11:src/scheduler.cpp ****         Scheduler::idle_thread = thread;
  12:src/scheduler.cpp ****         return;
  13:src/scheduler.cpp ****     }
  14:src/scheduler.cpp ****     if (!thread->was_preempted()) {
  15:src/scheduler.cpp ****         thread->set_time_slice(TimeSlice::HIGH_PRIORITY);
  16:src/scheduler.cpp ****         Scheduler::high_priority.put(thread);
  17:src/scheduler.cpp ****         return;
  18:src/scheduler.cpp ****     }
  19:src/scheduler.cpp ****     thread->reset_preempted();
  20:src/scheduler.cpp ****     time_t time_slice = thread->get_time_slice();
  21:src/scheduler.cpp ****     if (time_slice == TimeSlice::HIGH_PRIORITY) {
  22:src/scheduler.cpp ****         thread->set_time_slice(TimeSlice::MID_PRIORITY);
  23:src/scheduler.cpp ****         Scheduler::mid_priority.put(thread);
  24:src/scheduler.cpp ****     } else if (time_slice == TimeSlice::MID_PRIORITY) {
  25:src/scheduler.cpp ****         thread->set_time_slice(TimeSlice::LOW_PRIORITY);
  26:src/scheduler.cpp ****         Scheduler::low_priority.put(thread);
  27:src/scheduler.cpp ****     } else {
  28:src/scheduler.cpp ****         Scheduler::low_priority.put(thread);
  29:src/scheduler.cpp ****     }
  30:src/scheduler.cpp **** }
  31:src/scheduler.cpp **** 
  32:src/scheduler.cpp **** TCB *Scheduler::get() {
  33:src/scheduler.cpp ****     if (!Scheduler::high_priority.is_empty()) return Scheduler::high_priority.get();
  34:src/scheduler.cpp ****     if (!Scheduler::mid_priority.is_empty()) return Scheduler::mid_priority.get();
  35:src/scheduler.cpp ****     if (!Scheduler::low_priority.is_empty()) return Scheduler::low_priority.get();
  36:src/scheduler.cpp ****     return Scheduler::idle_thread;
  37:src/scheduler.cpp **** }
  38:src/scheduler.cpp **** 
  39:src/scheduler.cpp **** TCB *Scheduler::peek() {
  40:src/scheduler.cpp ****     if (!Scheduler::high_priority.is_empty()) return Scheduler::high_priority.peek();
  41:src/scheduler.cpp ****     if (!Scheduler::mid_priority.is_empty()) return Scheduler::mid_priority.peek();
  42:src/scheduler.cpp ****     if (!Scheduler::low_priority.is_empty()) return Scheduler::low_priority.peek();
  43:src/scheduler.cpp ****     return Scheduler::idle_thread;
  44:src/scheduler.cpp **** }
  45:src/scheduler.cpp **** 
  46:src/scheduler.cpp **** void Scheduler::idle_body() {
  12              		.loc 1 46 29
GAS LISTING /tmp/ccTgCEJt.s 			page 2


  13              		.cfi_startproc
  14 0000 130101FF 		addi	sp,sp,-16
  15              		.cfi_def_cfa_offset 16
  16 0004 23348100 		sd	s0,8(sp)
  17              		.cfi_offset 8, -8
  18 0008 13040101 		addi	s0,sp,16
  19              		.cfi_def_cfa 8, 0
  20              	.L2:
  47:src/scheduler.cpp ****     while (true);
  21              		.loc 1 47 5 discriminator 1
  22              		.loc 1 47 5 discriminator 1
  23 000c 6F000000 		j	.L2
  24              		.cfi_endproc
  25              	.LFE28:
  27              		.section	.text._ZN3stm14CircularBufferIP3TCBE3getEv,"axG",@progbits,_ZN3stm14CircularBufferIP3TCBE
  28              		.align	2
  29              		.weak	_ZN3stm14CircularBufferIP3TCBE3getEv
  31              	_ZN3stm14CircularBufferIP3TCBE3getEv:
  32              	.LFB32:
  33              		.file 2 "src/../h/circular_buffer.hpp"
   1:src/../h/circular_buffer.hpp **** #ifndef PROJECT_BASE_CIRCULAR_BUFFER_HPP
   2:src/../h/circular_buffer.hpp **** #define PROJECT_BASE_CIRCULAR_BUFFER_HPP
   3:src/../h/circular_buffer.hpp **** 
   4:src/../h/circular_buffer.hpp **** #include "syscall_c.hpp"
   5:src/../h/circular_buffer.hpp **** #include "c_memory.hpp"
   6:src/../h/circular_buffer.hpp **** 
   7:src/../h/circular_buffer.hpp **** namespace stm {
   8:src/../h/circular_buffer.hpp ****     template<typename T>
   9:src/../h/circular_buffer.hpp ****     class CircularBuffer {
  10:src/../h/circular_buffer.hpp ****     public:
  11:src/../h/circular_buffer.hpp **** 
  12:src/../h/circular_buffer.hpp ****         void init();
  13:src/../h/circular_buffer.hpp **** 
  14:src/../h/circular_buffer.hpp ****         void put(T);
  15:src/../h/circular_buffer.hpp **** 
  16:src/../h/circular_buffer.hpp ****         T get();
  17:src/../h/circular_buffer.hpp **** 
  18:src/../h/circular_buffer.hpp ****         T &peek();
  19:src/../h/circular_buffer.hpp **** 
  20:src/../h/circular_buffer.hpp ****         inline bool is_empty() const { return this->size == 0; }
  21:src/../h/circular_buffer.hpp **** 
  22:src/../h/circular_buffer.hpp ****         void destroy();
  23:src/../h/circular_buffer.hpp **** 
  24:src/../h/circular_buffer.hpp ****     private:
  25:src/../h/circular_buffer.hpp **** 
  26:src/../h/circular_buffer.hpp ****         void extend();
  27:src/../h/circular_buffer.hpp **** 
  28:src/../h/circular_buffer.hpp ****         static int constexpr CAPACITY = 16;
  29:src/../h/circular_buffer.hpp ****         T *queue;
  30:src/../h/circular_buffer.hpp ****         int head;
  31:src/../h/circular_buffer.hpp ****         int tail;
  32:src/../h/circular_buffer.hpp ****         int size;
  33:src/../h/circular_buffer.hpp ****         int capacity;
  34:src/../h/circular_buffer.hpp ****     };
  35:src/../h/circular_buffer.hpp **** }
  36:src/../h/circular_buffer.hpp **** 
  37:src/../h/circular_buffer.hpp **** template<typename T>
GAS LISTING /tmp/ccTgCEJt.s 			page 3


  38:src/../h/circular_buffer.hpp **** void stm::CircularBuffer<T>::init() {
  39:src/../h/circular_buffer.hpp ****     this->head = 0;
  40:src/../h/circular_buffer.hpp ****     this->tail = 0;
  41:src/../h/circular_buffer.hpp ****     this->size = 0;
  42:src/../h/circular_buffer.hpp ****     this->capacity = CAPACITY;
  43:src/../h/circular_buffer.hpp ****     this->queue = (T *) mem_alloc(sizeof(T) * CAPACITY);
  44:src/../h/circular_buffer.hpp **** }
  45:src/../h/circular_buffer.hpp **** 
  46:src/../h/circular_buffer.hpp **** template<typename T>
  47:src/../h/circular_buffer.hpp **** void stm::CircularBuffer<T>::put(T element) {
  48:src/../h/circular_buffer.hpp ****     if (this->size == this->capacity) {
  49:src/../h/circular_buffer.hpp ****         this->extend();
  50:src/../h/circular_buffer.hpp ****     }
  51:src/../h/circular_buffer.hpp ****     this->queue[this->tail] = element;
  52:src/../h/circular_buffer.hpp ****     this->tail = (this->tail + 1) % this->capacity;
  53:src/../h/circular_buffer.hpp ****     this->size++;
  54:src/../h/circular_buffer.hpp **** }
  55:src/../h/circular_buffer.hpp **** 
  56:src/../h/circular_buffer.hpp **** template<typename T>
  57:src/../h/circular_buffer.hpp **** T stm::CircularBuffer<T>::get() {
  34              		.loc 2 57 3
  35              		.cfi_startproc
  36              	.LVL0:
  37 0000 130101FF 		addi	sp,sp,-16
  38              		.cfi_def_cfa_offset 16
  39 0004 23348100 		sd	s0,8(sp)
  40              		.cfi_offset 8, -8
  41 0008 13040101 		addi	s0,sp,16
  42              		.cfi_def_cfa 8, 0
  43 000c 93070500 		mv	a5,a0
  58:src/../h/circular_buffer.hpp ****     T ret = this->queue[this->head];
  44              		.loc 2 58 19 is_stmt 0
  45 0010 83360500 		ld	a3,0(a0)
  46              		.loc 2 58 31
  47 0014 03278500 		lw	a4,8(a0)
  48              		.loc 2 58 24
  49 0018 13163700 		slli	a2,a4,3
  50 001c B386C600 		add	a3,a3,a2
  51              		.loc 2 58 7
  52 0020 03B50600 		ld	a0,0(a3)
  53              	.LVL1:
  59:src/../h/circular_buffer.hpp ****     this->head = (this->head + 1) % this->capacity;
  54              		.loc 2 59 30
  55 0024 1B071700 		addiw	a4,a4,1
  56              		.loc 2 59 43
  57 0028 83A64701 		lw	a3,20(a5)
  58              		.loc 2 59 35
  59 002c 3B67D702 		remw	a4,a4,a3
  60              		.loc 2 59 5
  61 0030 23A4E700 		sw	a4,8(a5)
  60:src/../h/circular_buffer.hpp ****     this->size--;
  62              		.loc 2 60 11
  63 0034 03A70701 		lw	a4,16(a5)
  64              		.loc 2 60 5
  65 0038 1B07F7FF 		addiw	a4,a4,-1
  66 003c 23A8E700 		sw	a4,16(a5)
  61:src/../h/circular_buffer.hpp ****     return ret;
GAS LISTING /tmp/ccTgCEJt.s 			page 4


  62:src/../h/circular_buffer.hpp **** }
  67              		.loc 2 62 1
  68 0040 03348100 		ld	s0,8(sp)
  69              		.cfi_restore 8
  70              		.cfi_def_cfa 2, 16
  71 0044 13010101 		addi	sp,sp,16
  72              		.cfi_def_cfa_offset 0
  73 0048 67800000 		jr	ra
  74              		.cfi_endproc
  75              	.LFE32:
  77              		.text
  78              		.align	2
  79              		.globl	_ZN9Scheduler3getEv
  81              	_ZN9Scheduler3getEv:
  82              	.LFB26:
  32:src/scheduler.cpp ****     if (!Scheduler::high_priority.is_empty()) return Scheduler::high_priority.get();
  83              		.loc 1 32 23 is_stmt 1
  84              		.cfi_startproc
  85 0010 130101FF 		addi	sp,sp,-16
  86              		.cfi_def_cfa_offset 16
  87 0014 23341100 		sd	ra,8(sp)
  88 0018 23308100 		sd	s0,0(sp)
  89              		.cfi_offset 1, -8
  90              		.cfi_offset 8, -16
  91 001c 13040101 		addi	s0,sp,16
  92              		.cfi_def_cfa 8, 0
  33:src/scheduler.cpp ****     if (!Scheduler::mid_priority.is_empty()) return Scheduler::mid_priority.get();
  93              		.loc 1 33 5
  94              	.LVL2:
  95              	.LBB26:
  96              	.LBB27:
  20:src/../h/circular_buffer.hpp **** 
  97              		.loc 2 20 53 is_stmt 0
  98 0020 97070000 		lw	a5,.LANCHOR0+16
  98      83A70700 
  99              	.LVL3:
 100              	.LBE27:
 101              	.LBE26:
  33:src/scheduler.cpp ****     if (!Scheduler::mid_priority.is_empty()) return Scheduler::mid_priority.get();
 102              		.loc 1 33 5
 103 0028 63940702 		bnez	a5,.L12
  34:src/scheduler.cpp ****     if (!Scheduler::low_priority.is_empty()) return Scheduler::low_priority.get();
 104              		.loc 1 34 5 is_stmt 1
 105              	.LVL4:
 106              	.LBB28:
 107              	.LBB29:
  20:src/../h/circular_buffer.hpp **** 
 108              		.loc 2 20 53 is_stmt 0
 109 002c 97070000 		lw	a5,.LANCHOR0+40
 109      83A70700 
 110              	.LVL5:
 111              	.LBE29:
 112              	.LBE28:
  34:src/scheduler.cpp ****     if (!Scheduler::low_priority.is_empty()) return Scheduler::low_priority.get();
 113              		.loc 1 34 5
 114 0034 639E0702 		bnez	a5,.L13
  35:src/scheduler.cpp ****     return Scheduler::idle_thread;
GAS LISTING /tmp/ccTgCEJt.s 			page 5


 115              		.loc 1 35 5 is_stmt 1
 116              	.LVL6:
 117              	.LBB30:
 118              	.LBB31:
  20:src/../h/circular_buffer.hpp **** 
 119              		.loc 2 20 53 is_stmt 0
 120 0038 97070000 		lw	a5,.LANCHOR0+64
 120      83A70700 
 121              	.LVL7:
 122              	.LBE31:
 123              	.LBE30:
  35:src/scheduler.cpp ****     return Scheduler::idle_thread;
 124              		.loc 1 35 5
 125 0040 63920704 		bnez	a5,.L14
  36:src/scheduler.cpp **** }
 126              		.loc 1 36 5 is_stmt 1
  36:src/scheduler.cpp **** }
 127              		.loc 1 36 23 is_stmt 0
 128 0044 17050000 		ld	a0,.LANCHOR0+72
 128      03350500 
 129 004c 6F004001 		j	.L6
 130              	.L12:
  33:src/scheduler.cpp ****     if (!Scheduler::mid_priority.is_empty()) return Scheduler::mid_priority.get();
 131              		.loc 1 33 47 is_stmt 1 discriminator 1
  33:src/scheduler.cpp ****     if (!Scheduler::mid_priority.is_empty()) return Scheduler::mid_priority.get();
 132              		.loc 1 33 82 is_stmt 0 discriminator 1
 133 0050 17050000 		lla	a0,.LANCHOR0
 133      13050500 
 134 0058 97000000 		call	_ZN3stm14CircularBufferIP3TCBE3getEv
 134      E7800000 
 135              	.LVL8:
 136              	.L6:
  37:src/scheduler.cpp **** 
 137              		.loc 1 37 1
 138 0060 83308100 		ld	ra,8(sp)
 139              		.cfi_remember_state
 140              		.cfi_restore 1
 141 0064 03340100 		ld	s0,0(sp)
 142              		.cfi_restore 8
 143              		.cfi_def_cfa 2, 16
 144 0068 13010101 		addi	sp,sp,16
 145              		.cfi_def_cfa_offset 0
 146 006c 67800000 		jr	ra
 147              	.L13:
 148              		.cfi_restore_state
  34:src/scheduler.cpp ****     if (!Scheduler::low_priority.is_empty()) return Scheduler::low_priority.get();
 149              		.loc 1 34 46 is_stmt 1 discriminator 1
  34:src/scheduler.cpp ****     if (!Scheduler::low_priority.is_empty()) return Scheduler::low_priority.get();
 150              		.loc 1 34 80 is_stmt 0 discriminator 1
 151 0070 17050000 		lla	a0,.LANCHOR0+24
 151      13050500 
 152 0078 97000000 		call	_ZN3stm14CircularBufferIP3TCBE3getEv
 152      E7800000 
 153              	.LVL9:
  34:src/scheduler.cpp ****     if (!Scheduler::low_priority.is_empty()) return Scheduler::low_priority.get();
 154              		.loc 1 34 81 discriminator 1
 155 0080 6FF01FFE 		j	.L6
GAS LISTING /tmp/ccTgCEJt.s 			page 6


 156              	.L14:
  35:src/scheduler.cpp ****     return Scheduler::idle_thread;
 157              		.loc 1 35 46 is_stmt 1 discriminator 1
  35:src/scheduler.cpp ****     return Scheduler::idle_thread;
 158              		.loc 1 35 80 is_stmt 0 discriminator 1
 159 0084 17050000 		lla	a0,.LANCHOR0+48
 159      13050500 
 160 008c 97000000 		call	_ZN3stm14CircularBufferIP3TCBE3getEv
 160      E7800000 
 161              	.LVL10:
  35:src/scheduler.cpp ****     return Scheduler::idle_thread;
 162              		.loc 1 35 81 discriminator 1
 163 0094 6FF0DFFC 		j	.L6
 164              		.cfi_endproc
 165              	.LFE26:
 167              		.section	.text._ZN3stm14CircularBufferIP3TCBE4peekEv,"axG",@progbits,_ZN3stm14CircularBufferIP3TCB
 168              		.align	2
 169              		.weak	_ZN3stm14CircularBufferIP3TCBE4peekEv
 171              	_ZN3stm14CircularBufferIP3TCBE4peekEv:
 172              	.LFB33:
  63:src/../h/circular_buffer.hpp **** 
  64:src/../h/circular_buffer.hpp **** template<typename T>
  65:src/../h/circular_buffer.hpp **** T &stm::CircularBuffer<T>::peek() {
 173              		.loc 2 65 4 is_stmt 1
 174              		.cfi_startproc
 175              	.LVL11:
 176 0000 130101FF 		addi	sp,sp,-16
 177              		.cfi_def_cfa_offset 16
 178 0004 23348100 		sd	s0,8(sp)
 179              		.cfi_offset 8, -8
 180 0008 13040101 		addi	s0,sp,16
 181              		.cfi_def_cfa 8, 0
  66:src/../h/circular_buffer.hpp ****     return this->queue[this->head];
 182              		.loc 2 66 18 is_stmt 0
 183 000c 03370500 		ld	a4,0(a0)
 184              		.loc 2 66 30
 185 0010 83278500 		lw	a5,8(a0)
 186              		.loc 2 66 23
 187 0014 93973700 		slli	a5,a5,3
  67:src/../h/circular_buffer.hpp **** }
 188              		.loc 2 67 1
 189 0018 3305F700 		add	a0,a4,a5
 190              	.LVL12:
 191 001c 03348100 		ld	s0,8(sp)
 192              		.cfi_restore 8
 193              		.cfi_def_cfa 2, 16
 194 0020 13010101 		addi	sp,sp,16
 195              		.cfi_def_cfa_offset 0
 196 0024 67800000 		jr	ra
 197              		.cfi_endproc
 198              	.LFE33:
 200              		.text
 201              		.align	2
 202              		.globl	_ZN9Scheduler4peekEv
 204              	_ZN9Scheduler4peekEv:
 205              	.LFB27:
  39:src/scheduler.cpp ****     if (!Scheduler::high_priority.is_empty()) return Scheduler::high_priority.peek();
GAS LISTING /tmp/ccTgCEJt.s 			page 7


 206              		.loc 1 39 24 is_stmt 1
 207              		.cfi_startproc
 208 0098 130101FF 		addi	sp,sp,-16
 209              		.cfi_def_cfa_offset 16
 210 009c 23341100 		sd	ra,8(sp)
 211 00a0 23308100 		sd	s0,0(sp)
 212              		.cfi_offset 1, -8
 213              		.cfi_offset 8, -16
 214 00a4 13040101 		addi	s0,sp,16
 215              		.cfi_def_cfa 8, 0
  40:src/scheduler.cpp ****     if (!Scheduler::mid_priority.is_empty()) return Scheduler::mid_priority.peek();
 216              		.loc 1 40 5
 217              	.LVL13:
 218              	.LBB32:
 219              	.LBB33:
  20:src/../h/circular_buffer.hpp **** 
 220              		.loc 2 20 53 is_stmt 0
 221 00a8 97070000 		lw	a5,.LANCHOR0+16
 221      83A70700 
 222              	.LVL14:
 223              	.LBE33:
 224              	.LBE32:
  40:src/scheduler.cpp ****     if (!Scheduler::mid_priority.is_empty()) return Scheduler::mid_priority.peek();
 225              		.loc 1 40 5
 226 00b0 63840702 		beqz	a5,.L18
  40:src/scheduler.cpp ****     if (!Scheduler::mid_priority.is_empty()) return Scheduler::mid_priority.peek();
 227              		.loc 1 40 47 is_stmt 1 discriminator 1
  40:src/scheduler.cpp ****     if (!Scheduler::mid_priority.is_empty()) return Scheduler::mid_priority.peek();
 228              		.loc 1 40 84 is_stmt 0 discriminator 1
 229 00b4 17050000 		lla	a0,.LANCHOR0
 229      13050500 
 230 00bc 97000000 		call	_ZN3stm14CircularBufferIP3TCBE4peekEv
 230      E7800000 
 231              	.LVL15:
 232 00c4 03350500 		ld	a0,0(a0)
 233              	.L17:
  44:src/scheduler.cpp **** 
 234              		.loc 1 44 1
 235 00c8 83308100 		ld	ra,8(sp)
 236              		.cfi_remember_state
 237              		.cfi_restore 1
 238 00cc 03340100 		ld	s0,0(sp)
 239              		.cfi_restore 8
 240              		.cfi_def_cfa 2, 16
 241 00d0 13010101 		addi	sp,sp,16
 242              		.cfi_def_cfa_offset 0
 243 00d4 67800000 		jr	ra
 244              	.L18:
 245              		.cfi_restore_state
  41:src/scheduler.cpp ****     if (!Scheduler::low_priority.is_empty()) return Scheduler::low_priority.peek();
 246              		.loc 1 41 5 is_stmt 1
 247              	.LVL16:
 248              	.LBB34:
 249              	.LBB35:
  20:src/../h/circular_buffer.hpp **** 
 250              		.loc 2 20 53 is_stmt 0
 251 00d8 97070000 		lw	a5,.LANCHOR0+40
GAS LISTING /tmp/ccTgCEJt.s 			page 8


 251      83A70700 
 252              	.LVL17:
 253              	.LBE35:
 254              	.LBE34:
  41:src/scheduler.cpp ****     if (!Scheduler::low_priority.is_empty()) return Scheduler::low_priority.peek();
 255              		.loc 1 41 5
 256 00e0 638E0700 		beqz	a5,.L20
  41:src/scheduler.cpp ****     if (!Scheduler::low_priority.is_empty()) return Scheduler::low_priority.peek();
 257              		.loc 1 41 46 is_stmt 1 discriminator 1
  41:src/scheduler.cpp ****     if (!Scheduler::low_priority.is_empty()) return Scheduler::low_priority.peek();
 258              		.loc 1 41 82 is_stmt 0 discriminator 1
 259 00e4 17050000 		lla	a0,.LANCHOR0+24
 259      13050500 
 260 00ec 97000000 		call	_ZN3stm14CircularBufferIP3TCBE4peekEv
 260      E7800000 
 261              	.LVL18:
 262 00f4 03350500 		ld	a0,0(a0)
 263 00f8 6FF01FFD 		j	.L17
 264              	.L20:
  42:src/scheduler.cpp ****     return Scheduler::idle_thread;
 265              		.loc 1 42 5 is_stmt 1
 266              	.LVL19:
 267              	.LBB36:
 268              	.LBB37:
  20:src/../h/circular_buffer.hpp **** 
 269              		.loc 2 20 53 is_stmt 0
 270 00fc 97070000 		lw	a5,.LANCHOR0+64
 270      83A70700 
 271              	.LVL20:
 272              	.LBE37:
 273              	.LBE36:
  42:src/scheduler.cpp ****     return Scheduler::idle_thread;
 274              		.loc 1 42 5
 275 0104 638E0700 		beqz	a5,.L21
  42:src/scheduler.cpp ****     return Scheduler::idle_thread;
 276              		.loc 1 42 46 is_stmt 1 discriminator 1
  42:src/scheduler.cpp ****     return Scheduler::idle_thread;
 277              		.loc 1 42 82 is_stmt 0 discriminator 1
 278 0108 17050000 		lla	a0,.LANCHOR0+48
 278      13050500 
 279 0110 97000000 		call	_ZN3stm14CircularBufferIP3TCBE4peekEv
 279      E7800000 
 280              	.LVL21:
 281 0118 03350500 		ld	a0,0(a0)
 282 011c 6FF0DFFA 		j	.L17
 283              	.L21:
  43:src/scheduler.cpp **** }
 284              		.loc 1 43 5 is_stmt 1
  43:src/scheduler.cpp **** }
 285              		.loc 1 43 23 is_stmt 0
 286 0120 17050000 		ld	a0,.LANCHOR0+72
 286      03350500 
 287 0128 6FF01FFA 		j	.L17
 288              		.cfi_endproc
 289              	.LFE27:
 291              		.section	.text._ZN3stm14CircularBufferIP3TCBE6extendEv,"axG",@progbits,_ZN3stm14CircularBufferIP3T
 292              		.align	2
GAS LISTING /tmp/ccTgCEJt.s 			page 9


 293              		.weak	_ZN3stm14CircularBufferIP3TCBE6extendEv
 295              	_ZN3stm14CircularBufferIP3TCBE6extendEv:
 296              	.LFB34:
  68:src/../h/circular_buffer.hpp **** 
  69:src/../h/circular_buffer.hpp **** template<typename T>
  70:src/../h/circular_buffer.hpp **** void stm::CircularBuffer<T>::extend() {
 297              		.loc 2 70 6 is_stmt 1
 298              		.cfi_startproc
 299              	.LVL22:
 300 0000 130101FE 		addi	sp,sp,-32
 301              		.cfi_def_cfa_offset 32
 302 0004 233C1100 		sd	ra,24(sp)
 303 0008 23388100 		sd	s0,16(sp)
 304 000c 23349100 		sd	s1,8(sp)
 305 0010 23302101 		sd	s2,0(sp)
 306              		.cfi_offset 1, -8
 307              		.cfi_offset 8, -16
 308              		.cfi_offset 9, -24
 309              		.cfi_offset 18, -32
 310 0014 13040102 		addi	s0,sp,32
 311              		.cfi_def_cfa 8, 0
 312 0018 93040500 		mv	s1,a0
  71:src/../h/circular_buffer.hpp ****     T *new_queue = (T *) mem_alloc(sizeof(T *) * this->capacity * 2);
 313              		.loc 2 71 56 is_stmt 0
 314 001c 03254501 		lw	a0,20(a0)
 315              	.LVL23:
 316              		.loc 2 71 35
 317 0020 13154500 		slli	a0,a0,4
 318 0024 97000000 		call	_Z9mem_allocm@plt
 318      E7800000 
 319              	.LVL24:
 320 002c 13090500 		mv	s2,a0
 321              	.LVL25:
 322              	.LBB38:
  72:src/../h/circular_buffer.hpp ****     for (int i = 0, j = this->head; i < this->capacity; i++, j = (j + 1) % this->capacity)
 323              		.loc 2 72 21
 324 0030 83A78400 		lw	a5,8(s1)
 325              	.LVL26:
 326              		.loc 2 72 14
 327 0034 13070000 		li	a4,0
 328              	.LVL27:
 329              	.L25:
 330              		.loc 2 72 39 is_stmt 1 discriminator 3
 331              		.loc 2 72 47 is_stmt 0 discriminator 3
 332 0038 83A64401 		lw	a3,20(s1)
 333              		.loc 2 72 39 discriminator 3
 334 003c 635AD702 		ble	a3,a4,.L24
  73:src/../h/circular_buffer.hpp ****         new_queue[i] = this->queue[j];
 335              		.loc 2 73 30 discriminator 2
 336 0040 03B60400 		ld	a2,0(s1)
 337              		.loc 2 73 18 discriminator 2
 338 0044 93163700 		slli	a3,a4,3
 339 0048 B306D900 		add	a3,s2,a3
 340              		.loc 2 73 35 discriminator 2
 341 004c 93953700 		slli	a1,a5,3
 342 0050 3306B600 		add	a2,a2,a1
 343 0054 03360600 		ld	a2,0(a2)
GAS LISTING /tmp/ccTgCEJt.s 			page 10


 344              		.loc 2 73 9 discriminator 2
 345 0058 23B0C600 		sd	a2,0(a3)
  72:src/../h/circular_buffer.hpp ****     for (int i = 0, j = this->head; i < this->capacity; i++, j = (j + 1) % this->capacity)
 346              		.loc 2 72 5 is_stmt 1 discriminator 2
 347 005c 1B071700 		addiw	a4,a4,1
 348              	.LVL28:
  72:src/../h/circular_buffer.hpp ****     for (int i = 0, j = this->head; i < this->capacity; i++, j = (j + 1) % this->capacity)
 349              		.loc 2 72 69 is_stmt 0 discriminator 2
 350 0060 9B871700 		addiw	a5,a5,1
 351              	.LVL29:
  72:src/../h/circular_buffer.hpp ****     for (int i = 0, j = this->head; i < this->capacity; i++, j = (j + 1) % this->capacity)
 352              		.loc 2 72 82 discriminator 2
 353 0064 83A64401 		lw	a3,20(s1)
  72:src/../h/circular_buffer.hpp ****     for (int i = 0, j = this->head; i < this->capacity; i++, j = (j + 1) % this->capacity)
 354              		.loc 2 72 5 discriminator 2
 355 0068 BBE7D702 		remw	a5,a5,a3
 356              	.LVL30:
 357 006c 6FF0DFFC 		j	.L25
 358              	.LVL31:
 359              	.L24:
 360              	.LBE38:
  74:src/../h/circular_buffer.hpp ****     mem_free(queue);
 361              		.loc 2 74 13
 362 0070 03B50400 		ld	a0,0(s1)
 363              	.LVL32:
 364 0074 97000000 		call	_Z8mem_freePv@plt
 364      E7800000 
 365              	.LVL33:
  75:src/../h/circular_buffer.hpp ****     this->queue = new_queue;
 366              		.loc 2 75 5
 367 007c 23B02401 		sd	s2,0(s1)
  76:src/../h/circular_buffer.hpp ****     this->head = 0;
 368              		.loc 2 76 5
 369 0080 23A40400 		sw	zero,8(s1)
  77:src/../h/circular_buffer.hpp ****     this->tail = this->capacity;
 370              		.loc 2 77 24
 371 0084 83A74401 		lw	a5,20(s1)
 372              		.loc 2 77 5
 373 0088 23A6F400 		sw	a5,12(s1)
  78:src/../h/circular_buffer.hpp ****     this->capacity *= 2;
 374              		.loc 2 78 20
 375 008c 9B971700 		slliw	a5,a5,1
 376              		.loc 2 78 5
 377 0090 23AAF400 		sw	a5,20(s1)
  79:src/../h/circular_buffer.hpp **** }
 378              		.loc 2 79 1
 379 0094 83308101 		ld	ra,24(sp)
 380              		.cfi_restore 1
 381 0098 03340101 		ld	s0,16(sp)
 382              		.cfi_restore 8
 383              		.cfi_def_cfa 2, 32
 384 009c 83348100 		ld	s1,8(sp)
 385              		.cfi_restore 9
 386              	.LVL34:
 387 00a0 03390100 		ld	s2,0(sp)
 388              		.cfi_restore 18
 389              	.LVL35:
GAS LISTING /tmp/ccTgCEJt.s 			page 11


 390 00a4 13010102 		addi	sp,sp,32
 391              		.cfi_def_cfa_offset 0
 392 00a8 67800000 		jr	ra
 393              		.cfi_endproc
 394              	.LFE34:
 396              		.section	.text._ZN3stm14CircularBufferIP3TCBE3putES2_,"axG",@progbits,_ZN3stm14CircularBufferIP3TC
 397              		.align	2
 398              		.weak	_ZN3stm14CircularBufferIP3TCBE3putES2_
 400              	_ZN3stm14CircularBufferIP3TCBE3putES2_:
 401              	.LFB31:
  47:src/../h/circular_buffer.hpp ****     if (this->size == this->capacity) {
 402              		.loc 2 47 6 is_stmt 1
 403              		.cfi_startproc
 404              	.LVL36:
 405 0000 130101FE 		addi	sp,sp,-32
 406              		.cfi_def_cfa_offset 32
 407 0004 233C1100 		sd	ra,24(sp)
 408 0008 23388100 		sd	s0,16(sp)
 409 000c 23349100 		sd	s1,8(sp)
 410 0010 23302101 		sd	s2,0(sp)
 411              		.cfi_offset 1, -8
 412              		.cfi_offset 8, -16
 413              		.cfi_offset 9, -24
 414              		.cfi_offset 18, -32
 415 0014 13040102 		addi	s0,sp,32
 416              		.cfi_def_cfa 8, 0
 417 0018 93040500 		mv	s1,a0
 418 001c 13890500 		mv	s2,a1
  48:src/../h/circular_buffer.hpp ****         this->extend();
 419              		.loc 2 48 15 is_stmt 0
 420 0020 03270501 		lw	a4,16(a0)
  48:src/../h/circular_buffer.hpp ****         this->extend();
 421              		.loc 2 48 29
 422 0024 83274501 		lw	a5,20(a0)
  48:src/../h/circular_buffer.hpp ****         this->extend();
 423              		.loc 2 48 5
 424 0028 6308F704 		beq	a4,a5,.L30
 425              	.LVL37:
 426              	.L28:
  51:src/../h/circular_buffer.hpp ****     this->tail = (this->tail + 1) % this->capacity;
 427              		.loc 2 51 11
 428 002c 83B70400 		ld	a5,0(s1)
  51:src/../h/circular_buffer.hpp ****     this->tail = (this->tail + 1) % this->capacity;
 429              		.loc 2 51 23
 430 0030 03A7C400 		lw	a4,12(s1)
  51:src/../h/circular_buffer.hpp ****     this->tail = (this->tail + 1) % this->capacity;
 431              		.loc 2 51 16
 432 0034 13173700 		slli	a4,a4,3
 433 0038 B387E700 		add	a5,a5,a4
  51:src/../h/circular_buffer.hpp ****     this->tail = (this->tail + 1) % this->capacity;
 434              		.loc 2 51 5
 435 003c 23B02701 		sd	s2,0(a5)
  52:src/../h/circular_buffer.hpp ****     this->size++;
 436              		.loc 2 52 25
 437 0040 83A7C400 		lw	a5,12(s1)
  52:src/../h/circular_buffer.hpp ****     this->size++;
 438              		.loc 2 52 30
GAS LISTING /tmp/ccTgCEJt.s 			page 12


 439 0044 9B871700 		addiw	a5,a5,1
  52:src/../h/circular_buffer.hpp ****     this->size++;
 440              		.loc 2 52 43
 441 0048 03A74401 		lw	a4,20(s1)
  52:src/../h/circular_buffer.hpp ****     this->size++;
 442              		.loc 2 52 35
 443 004c BBE7E702 		remw	a5,a5,a4
  52:src/../h/circular_buffer.hpp ****     this->size++;
 444              		.loc 2 52 5
 445 0050 23A6F400 		sw	a5,12(s1)
  53:src/../h/circular_buffer.hpp **** }
 446              		.loc 2 53 11
 447 0054 83A70401 		lw	a5,16(s1)
  53:src/../h/circular_buffer.hpp **** }
 448              		.loc 2 53 5
 449 0058 9B871700 		addiw	a5,a5,1
 450 005c 23A8F400 		sw	a5,16(s1)
  54:src/../h/circular_buffer.hpp **** 
 451              		.loc 2 54 1
 452 0060 83308101 		ld	ra,24(sp)
 453              		.cfi_remember_state
 454              		.cfi_restore 1
 455 0064 03340101 		ld	s0,16(sp)
 456              		.cfi_restore 8
 457              		.cfi_def_cfa 2, 32
 458 0068 83348100 		ld	s1,8(sp)
 459              		.cfi_restore 9
 460              	.LVL38:
 461 006c 03390100 		ld	s2,0(sp)
 462              		.cfi_restore 18
 463              	.LVL39:
 464 0070 13010102 		addi	sp,sp,32
 465              		.cfi_def_cfa_offset 0
 466 0074 67800000 		jr	ra
 467              	.LVL40:
 468              	.L30:
 469              		.cfi_restore_state
  49:src/../h/circular_buffer.hpp ****     }
 470              		.loc 2 49 9
 471 0078 97000000 		call	_ZN3stm14CircularBufferIP3TCBE6extendEv
 471      E7800000 
 472              	.LVL41:
 473 0080 6FF0DFFA 		j	.L28
 474              		.cfi_endproc
 475              	.LFE31:
 477              		.text
 478              		.align	2
 479              		.globl	_ZN9Scheduler3putEP3TCB
 481              	_ZN9Scheduler3putEP3TCB:
 482              	.LFB25:
   9:src/scheduler.cpp ****     if (!Scheduler::idle_thread or thread == Scheduler::idle_thread) {
 483              		.loc 1 9 34 is_stmt 1
 484              		.cfi_startproc
 485              	.LVL42:
 486 012c 93050500 		mv	a1,a0
  10:src/scheduler.cpp ****         Scheduler::idle_thread = thread;
 487              		.loc 1 10 5
GAS LISTING /tmp/ccTgCEJt.s 			page 13


  10:src/scheduler.cpp ****         Scheduler::idle_thread = thread;
 488              		.loc 1 10 9 is_stmt 0
 489 0130 97070000 		ld	a5,.LANCHOR0+72
 489      83B70700 
  10:src/scheduler.cpp ****         Scheduler::idle_thread = thread;
 490              		.loc 1 10 5
 491 0138 638C0704 		beqz	a5,.L32
  10:src/scheduler.cpp ****         Scheduler::idle_thread = thread;
 492              		.loc 1 10 33 discriminator 1
 493 013c 638AA704 		beq	a5,a0,.L32
   9:src/scheduler.cpp ****     if (!Scheduler::idle_thread or thread == Scheduler::idle_thread) {
 494              		.loc 1 9 34
 495 0140 130101FF 		addi	sp,sp,-16
 496              		.cfi_def_cfa_offset 16
 497 0144 23341100 		sd	ra,8(sp)
 498 0148 23308100 		sd	s0,0(sp)
 499              		.cfi_offset 1, -8
 500              		.cfi_offset 8, -16
 501 014c 13040101 		addi	s0,sp,16
 502              		.cfi_def_cfa 8, 0
  14:src/scheduler.cpp ****         thread->set_time_slice(TimeSlice::HIGH_PRIORITY);
 503              		.loc 1 14 5 is_stmt 1
 504              	.LVL43:
 505              	.LBB39:
 506              	.LBB40:
 507              		.file 3 "src/../h/c_thread.hpp"
   1:src/../h/c_thread.hpp **** #ifndef PROJECT_BASE_C_THREAD_HPP
   2:src/../h/c_thread.hpp **** #define PROJECT_BASE_C_THREAD_HPP
   3:src/../h/c_thread.hpp **** 
   4:src/../h/c_thread.hpp **** #include "syscall_c.hpp"
   5:src/../h/c_thread.hpp **** #include "../lib/hw.h"
   6:src/../h/c_thread.hpp **** #include "circular_buffer.hpp"
   7:src/../h/c_thread.hpp **** 
   8:src/../h/c_thread.hpp **** using run_t = void (*)(void *);
   9:src/../h/c_thread.hpp **** 
  10:src/../h/c_thread.hpp **** struct Context {
  11:src/../h/c_thread.hpp ****     uint64 ra;
  12:src/../h/c_thread.hpp ****     uint64 sp;
  13:src/../h/c_thread.hpp ****     uint64 sstatus;
  14:src/../h/c_thread.hpp ****     uint64 sepc;
  15:src/../h/c_thread.hpp **** };
  16:src/../h/c_thread.hpp **** 
  17:src/../h/c_thread.hpp **** enum Status {
  18:src/../h/c_thread.hpp ****     RUNNABLE, BLOCKED, SLEEPING, JOINED, FINISHED
  19:src/../h/c_thread.hpp **** };
  20:src/../h/c_thread.hpp **** 
  21:src/../h/c_thread.hpp **** class TCB final {
  22:src/../h/c_thread.hpp **** public:
  23:src/../h/c_thread.hpp ****     static int _thread_create(thread_t *, void(*)(void *), void *, char *);
  24:src/../h/c_thread.hpp **** 
  25:src/../h/c_thread.hpp ****     static void _thread_exit();
  26:src/../h/c_thread.hpp **** 
  27:src/../h/c_thread.hpp ****     static void _thread_dispatch();
  28:src/../h/c_thread.hpp **** 
  29:src/../h/c_thread.hpp ****     static void _thread_join(thread_t);
  30:src/../h/c_thread.hpp **** 
  31:src/../h/c_thread.hpp ****     static void _thread_join_time(thread_t, time_t);
GAS LISTING /tmp/ccTgCEJt.s 			page 14


  32:src/../h/c_thread.hpp **** 
  33:src/../h/c_thread.hpp ****     static int _fork();
  34:src/../h/c_thread.hpp **** 
  35:src/../h/c_thread.hpp ****     static int _kill(TCB *);
  36:src/../h/c_thread.hpp **** 
  37:src/../h/c_thread.hpp ****     static void thread_start();
  38:src/../h/c_thread.hpp **** 
  39:src/../h/c_thread.hpp ****     static void fork_wrapper();
  40:src/../h/c_thread.hpp **** 
  41:src/../h/c_thread.hpp ****     static void context_switch(Context *, Context *);
  42:src/../h/c_thread.hpp **** 
  43:src/../h/c_thread.hpp ****     static void context_inherit(Context *);
  44:src/../h/c_thread.hpp **** 
  45:src/../h/c_thread.hpp ****     static TCB *destroy_thread(TCB *);
  46:src/../h/c_thread.hpp **** 
  47:src/../h/c_thread.hpp ****     static void duplicate(TCB *, TCB *);
  48:src/../h/c_thread.hpp **** 
  49:src/../h/c_thread.hpp ****     TCB(run_t, void *, void *, Context);
  50:src/../h/c_thread.hpp **** 
  51:src/../h/c_thread.hpp ****     TCB(TCB &);
  52:src/../h/c_thread.hpp **** 
  53:src/../h/c_thread.hpp ****     bool is_runnable() const { return this->status == RUNNABLE; }
  54:src/../h/c_thread.hpp **** 
  55:src/../h/c_thread.hpp ****     bool is_blocked() const { return this->status == BLOCKED; }
  56:src/../h/c_thread.hpp **** 
  57:src/../h/c_thread.hpp ****     bool is_sleeping() const { return this->status == SLEEPING; }
  58:src/../h/c_thread.hpp **** 
  59:src/../h/c_thread.hpp ****     bool is_joined() const { return this->status == JOINED; }
  60:src/../h/c_thread.hpp **** 
  61:src/../h/c_thread.hpp ****     bool is_finished() const { return this->status == FINISHED; }
  62:src/../h/c_thread.hpp **** 
  63:src/../h/c_thread.hpp ****     void run() { this->status = RUNNABLE; }
  64:src/../h/c_thread.hpp **** 
  65:src/../h/c_thread.hpp ****     void block() { this->status = BLOCKED; }
  66:src/../h/c_thread.hpp **** 
  67:src/../h/c_thread.hpp ****     void sleep() { this->status = SLEEPING; }
  68:src/../h/c_thread.hpp **** 
  69:src/../h/c_thread.hpp ****     void enjoin() { this->status = JOINED; }
  70:src/../h/c_thread.hpp **** 
  71:src/../h/c_thread.hpp ****     void finish() { this->status = FINISHED; }
  72:src/../h/c_thread.hpp **** 
  73:src/../h/c_thread.hpp ****     bool was_preempted() const { return this->preempted; }
 508              		.loc 3 73 34
 509              		.loc 3 73 47 is_stmt 0
 510 0150 83470506 		lbu	a5,96(a0)
 511              	.LVL44:
 512              	.LBE40:
 513              	.LBE39:
  14:src/scheduler.cpp ****         thread->set_time_slice(TimeSlice::HIGH_PRIORITY);
 514              		.loc 1 14 5
 515 0154 63840704 		beqz	a5,.L41
  19:src/scheduler.cpp ****     time_t time_slice = thread->get_time_slice();
 516              		.loc 1 19 5 is_stmt 1
 517              	.LVL45:
 518              	.LBB41:
 519              	.LBB42:
  74:src/../h/c_thread.hpp **** 
GAS LISTING /tmp/ccTgCEJt.s 			page 15


  75:src/../h/c_thread.hpp ****     void set_preempted() { this->preempted = true; }
  76:src/../h/c_thread.hpp **** 
  77:src/../h/c_thread.hpp ****     void reset_preempted() { this->preempted = false; }
 520              		.loc 3 77 30
 521              		.loc 3 77 46 is_stmt 0
 522 0158 23000506 		sb	zero,96(a0)
 523              	.LVL46:
 524              	.LBE42:
 525              	.LBE41:
  20:src/scheduler.cpp ****     if (time_slice == TimeSlice::HIGH_PRIORITY) {
 526              		.loc 1 20 5 is_stmt 1
 527              	.LBB43:
 528              	.LBB44:
  78:src/../h/c_thread.hpp **** 
  79:src/../h/c_thread.hpp ****     time_t get_time_slice() const { return this->time_slice; }
 529              		.loc 3 79 37
 530              		.loc 3 79 50 is_stmt 0
 531 015c 83378505 		ld	a5,88(a0)
 532              	.LVL47:
 533              	.LBE44:
 534              	.LBE43:
  21:src/scheduler.cpp ****         thread->set_time_slice(TimeSlice::MID_PRIORITY);
 535              		.loc 1 21 5 is_stmt 1
 536 0160 13071000 		li	a4,1
 537 0164 638AE704 		beq	a5,a4,.L42
  24:src/scheduler.cpp ****         thread->set_time_slice(TimeSlice::LOW_PRIORITY);
 538              		.loc 1 24 12
 539 0168 13072000 		li	a4,2
 540 016c 6384E706 		beq	a5,a4,.L43
  28:src/scheduler.cpp ****     }
 541              		.loc 1 28 9
  28:src/scheduler.cpp ****     }
 542              		.loc 1 28 36 is_stmt 0
 543 0170 17050000 		lla	a0,.LANCHOR0+48
 543      13050500 
 544              	.LVL48:
 545 0178 97000000 		call	_ZN3stm14CircularBufferIP3TCBE3putES2_
 545      E7800000 
 546              	.LVL49:
 547              	.L31:
  30:src/scheduler.cpp **** 
 548              		.loc 1 30 1
 549 0180 83308100 		ld	ra,8(sp)
 550              		.cfi_restore 1
 551 0184 03340100 		ld	s0,0(sp)
 552              		.cfi_restore 8
 553              		.cfi_def_cfa 2, 16
 554 0188 13010101 		addi	sp,sp,16
 555              		.cfi_def_cfa_offset 0
 556 018c 67800000 		jr	ra
 557              	.LVL50:
 558              	.L32:
  11:src/scheduler.cpp ****         return;
 559              		.loc 1 11 9 is_stmt 1
  11:src/scheduler.cpp ****         return;
 560              		.loc 1 11 32 is_stmt 0
 561 0190 97070000 		sd	a1,.LANCHOR0+72,a5
GAS LISTING /tmp/ccTgCEJt.s 			page 16


 561      23B0B700 
  12:src/scheduler.cpp ****     }
 562              		.loc 1 12 9 is_stmt 1
 563 0198 67800000 		ret
 564              	.L41:
 565              		.cfi_def_cfa_register 8
 566              		.cfi_offset 1, -8
 567              		.cfi_offset 8, -16
  15:src/scheduler.cpp ****         Scheduler::high_priority.put(thread);
 568              		.loc 1 15 9
 569              	.LVL51:
 570              	.LBB45:
 571              	.LBB46:
  80:src/../h/c_thread.hpp **** 
  81:src/../h/c_thread.hpp ****     void set_time_slice(time_t time) { this->time_slice = time; }
 572              		.loc 3 81 40
 573              		.loc 3 81 57 is_stmt 0
 574 019c 93071000 		li	a5,1
 575 01a0 233CF504 		sd	a5,88(a0)
 576              	.LVL52:
 577              	.LBE46:
 578              	.LBE45:
  16:src/scheduler.cpp ****         return;
 579              		.loc 1 16 9 is_stmt 1
  16:src/scheduler.cpp ****         return;
 580              		.loc 1 16 37 is_stmt 0
 581 01a4 17050000 		lla	a0,.LANCHOR0
 581      13050500 
 582              	.LVL53:
 583 01ac 97000000 		call	_ZN3stm14CircularBufferIP3TCBE3putES2_
 583      E7800000 
 584              	.LVL54:
  17:src/scheduler.cpp ****     }
 585              		.loc 1 17 9 is_stmt 1
 586 01b4 6FF0DFFC 		j	.L31
 587              	.LVL55:
 588              	.L42:
  22:src/scheduler.cpp ****         Scheduler::mid_priority.put(thread);
 589              		.loc 1 22 9
 590              	.LBB47:
 591              	.LBB48:
 592              		.loc 3 81 40
 593              		.loc 3 81 57 is_stmt 0
 594 01b8 93072000 		li	a5,2
 595              	.LVL56:
 596 01bc 233CF504 		sd	a5,88(a0)
 597              	.LVL57:
 598              	.LBE48:
 599              	.LBE47:
  23:src/scheduler.cpp ****     } else if (time_slice == TimeSlice::MID_PRIORITY) {
 600              		.loc 1 23 9 is_stmt 1
  23:src/scheduler.cpp ****     } else if (time_slice == TimeSlice::MID_PRIORITY) {
 601              		.loc 1 23 36 is_stmt 0
 602 01c0 17050000 		lla	a0,.LANCHOR0+24
 602      13050500 
 603              	.LVL58:
 604 01c8 97000000 		call	_ZN3stm14CircularBufferIP3TCBE3putES2_
GAS LISTING /tmp/ccTgCEJt.s 			page 17


 604      E7800000 
 605              	.LVL59:
 606 01d0 6FF01FFB 		j	.L31
 607              	.LVL60:
 608              	.L43:
  25:src/scheduler.cpp ****         Scheduler::low_priority.put(thread);
 609              		.loc 1 25 9 is_stmt 1
 610              	.LBB49:
 611              	.LBB50:
 612              		.loc 3 81 40
 613              		.loc 3 81 57 is_stmt 0
 614 01d4 93074000 		li	a5,4
 615              	.LVL61:
 616 01d8 233CF504 		sd	a5,88(a0)
 617              	.LVL62:
 618              	.LBE50:
 619              	.LBE49:
  26:src/scheduler.cpp ****     } else {
 620              		.loc 1 26 9 is_stmt 1
  26:src/scheduler.cpp ****     } else {
 621              		.loc 1 26 36 is_stmt 0
 622 01dc 17050000 		lla	a0,.LANCHOR0+48
 622      13050500 
 623              	.LVL63:
 624 01e4 97000000 		call	_ZN3stm14CircularBufferIP3TCBE3putES2_
 624      E7800000 
 625              	.LVL64:
 626 01ec 6FF05FF9 		j	.L31
 627              		.cfi_endproc
 628              	.LFE25:
 630              		.globl	_ZN9Scheduler12low_priorityE
 631              		.globl	_ZN9Scheduler12mid_priorityE
 632              		.globl	_ZN9Scheduler13high_priorityE
 633              		.globl	_ZN9Scheduler11idle_threadE
 634              		.bss
 635              		.align	3
 636              		.set	.LANCHOR0,. + 0
 639              	_ZN9Scheduler13high_priorityE:
 640 0000 00000000 		.zero	24
 640      00000000 
 640      00000000 
 640      00000000 
 640      00000000 
 643              	_ZN9Scheduler12mid_priorityE:
 644 0018 00000000 		.zero	24
 644      00000000 
 644      00000000 
 644      00000000 
 644      00000000 
 647              	_ZN9Scheduler12low_priorityE:
 648 0030 00000000 		.zero	24
 648      00000000 
 648      00000000 
 648      00000000 
 648      00000000 
 651              	_ZN9Scheduler11idle_threadE:
 652 0048 00000000 		.zero	8
GAS LISTING /tmp/ccTgCEJt.s 			page 18


 652      00000000 
 653              		.text
 654              	.Letext0:
 655              		.file 4 "src/../h/../lib/hw.h"
 656              		.file 5 "src/../h/syscall_c.hpp"
 657              		.file 6 "src/../h/scheduler.hpp"
GAS LISTING /tmp/ccTgCEJt.s 			page 19


DEFINED SYMBOLS
                            *ABS*:0000000000000000 scheduler.cpp
     /tmp/ccTgCEJt.s:9      .text:0000000000000000 _ZN9Scheduler9idle_bodyEv
     /tmp/ccTgCEJt.s:13     .text:0000000000000000 .L0 
     /tmp/ccTgCEJt.s:14     .text:0000000000000000 .L0 
     /tmp/ccTgCEJt.s:15     .text:0000000000000004 .L0 
     /tmp/ccTgCEJt.s:17     .text:0000000000000008 .L0 
     /tmp/ccTgCEJt.s:19     .text:000000000000000c .L0 
     /tmp/ccTgCEJt.s:22     .text:000000000000000c .L0 
     /tmp/ccTgCEJt.s:23     .text:000000000000000c .L0 
     /tmp/ccTgCEJt.s:24     .text:0000000000000010 .L0 
     /tmp/ccTgCEJt.s:31     .text._ZN3stm14CircularBufferIP3TCBE3getEv:0000000000000000 _ZN3stm14CircularBufferIP3TCBE3getEv
     /tmp/ccTgCEJt.s:35     .text._ZN3stm14CircularBufferIP3TCBE3getEv:0000000000000000 .L0 
     /tmp/ccTgCEJt.s:37     .text._ZN3stm14CircularBufferIP3TCBE3getEv:0000000000000000 .L0 
     /tmp/ccTgCEJt.s:38     .text._ZN3stm14CircularBufferIP3TCBE3getEv:0000000000000004 .L0 
     /tmp/ccTgCEJt.s:40     .text._ZN3stm14CircularBufferIP3TCBE3getEv:0000000000000008 .L0 
     /tmp/ccTgCEJt.s:42     .text._ZN3stm14CircularBufferIP3TCBE3getEv:000000000000000c .L0 
     /tmp/ccTgCEJt.s:45     .text._ZN3stm14CircularBufferIP3TCBE3getEv:0000000000000010 .L0 
     /tmp/ccTgCEJt.s:47     .text._ZN3stm14CircularBufferIP3TCBE3getEv:0000000000000014 .L0 
     /tmp/ccTgCEJt.s:49     .text._ZN3stm14CircularBufferIP3TCBE3getEv:0000000000000018 .L0 
     /tmp/ccTgCEJt.s:52     .text._ZN3stm14CircularBufferIP3TCBE3getEv:0000000000000020 .L0 
     /tmp/ccTgCEJt.s:55     .text._ZN3stm14CircularBufferIP3TCBE3getEv:0000000000000024 .L0 
     /tmp/ccTgCEJt.s:57     .text._ZN3stm14CircularBufferIP3TCBE3getEv:0000000000000028 .L0 
     /tmp/ccTgCEJt.s:59     .text._ZN3stm14CircularBufferIP3TCBE3getEv:000000000000002c .L0 
     /tmp/ccTgCEJt.s:61     .text._ZN3stm14CircularBufferIP3TCBE3getEv:0000000000000030 .L0 
     /tmp/ccTgCEJt.s:63     .text._ZN3stm14CircularBufferIP3TCBE3getEv:0000000000000034 .L0 
     /tmp/ccTgCEJt.s:65     .text._ZN3stm14CircularBufferIP3TCBE3getEv:0000000000000038 .L0 
     /tmp/ccTgCEJt.s:68     .text._ZN3stm14CircularBufferIP3TCBE3getEv:0000000000000040 .L0 
     /tmp/ccTgCEJt.s:69     .text._ZN3stm14CircularBufferIP3TCBE3getEv:0000000000000044 .L0 
     /tmp/ccTgCEJt.s:70     .text._ZN3stm14CircularBufferIP3TCBE3getEv:0000000000000044 .L0 
     /tmp/ccTgCEJt.s:72     .text._ZN3stm14CircularBufferIP3TCBE3getEv:0000000000000048 .L0 
     /tmp/ccTgCEJt.s:74     .text._ZN3stm14CircularBufferIP3TCBE3getEv:000000000000004c .L0 
     /tmp/ccTgCEJt.s:81     .text:0000000000000010 _ZN9Scheduler3getEv
     /tmp/ccTgCEJt.s:84     .text:0000000000000010 .L0 
     /tmp/ccTgCEJt.s:85     .text:0000000000000010 .L0 
     /tmp/ccTgCEJt.s:86     .text:0000000000000014 .L0 
     /tmp/ccTgCEJt.s:89     .text:000000000000001c .L0 
     /tmp/ccTgCEJt.s:90     .text:000000000000001c .L0 
     /tmp/ccTgCEJt.s:92     .text:0000000000000020 .L0 
     /tmp/ccTgCEJt.s:97     .text:0000000000000020 .L0 
     /tmp/ccTgCEJt.s:98     .text:0000000000000020 .L0 
     /tmp/ccTgCEJt.s:103    .text:0000000000000028 .L0 
     /tmp/ccTgCEJt.s:108    .text:000000000000002c .L0 
     /tmp/ccTgCEJt.s:109    .text:000000000000002c .L0 
     /tmp/ccTgCEJt.s:114    .text:0000000000000034 .L0 
     /tmp/ccTgCEJt.s:119    .text:0000000000000038 .L0 
     /tmp/ccTgCEJt.s:120    .text:0000000000000038 .L0 
     /tmp/ccTgCEJt.s:125    .text:0000000000000040 .L0 
     /tmp/ccTgCEJt.s:127    .text:0000000000000044 .L0 
     /tmp/ccTgCEJt.s:128    .text:0000000000000044 .L0 
     /tmp/ccTgCEJt.s:132    .text:0000000000000050 .L0 
     /tmp/ccTgCEJt.s:133    .text:0000000000000050 .L0 
     /tmp/ccTgCEJt.s:138    .text:0000000000000060 .L0 
     /tmp/ccTgCEJt.s:139    .text:0000000000000064 .L0 
     /tmp/ccTgCEJt.s:140    .text:0000000000000064 .L0 
     /tmp/ccTgCEJt.s:142    .text:0000000000000068 .L0 
     /tmp/ccTgCEJt.s:143    .text:0000000000000068 .L0 
GAS LISTING /tmp/ccTgCEJt.s 			page 20


     /tmp/ccTgCEJt.s:145    .text:000000000000006c .L0 
     /tmp/ccTgCEJt.s:148    .text:0000000000000070 .L0 
     /tmp/ccTgCEJt.s:150    .text:0000000000000070 .L0 
     /tmp/ccTgCEJt.s:151    .text:0000000000000070 .L0 
     /tmp/ccTgCEJt.s:155    .text:0000000000000080 .L0 
     /tmp/ccTgCEJt.s:158    .text:0000000000000084 .L0 
     /tmp/ccTgCEJt.s:159    .text:0000000000000084 .L0 
     /tmp/ccTgCEJt.s:163    .text:0000000000000094 .L0 
     /tmp/ccTgCEJt.s:164    .text:0000000000000098 .L0 
     /tmp/ccTgCEJt.s:171    .text._ZN3stm14CircularBufferIP3TCBE4peekEv:0000000000000000 _ZN3stm14CircularBufferIP3TCBE4peekEv
     /tmp/ccTgCEJt.s:174    .text._ZN3stm14CircularBufferIP3TCBE4peekEv:0000000000000000 .L0 
     /tmp/ccTgCEJt.s:176    .text._ZN3stm14CircularBufferIP3TCBE4peekEv:0000000000000000 .L0 
     /tmp/ccTgCEJt.s:177    .text._ZN3stm14CircularBufferIP3TCBE4peekEv:0000000000000004 .L0 
     /tmp/ccTgCEJt.s:179    .text._ZN3stm14CircularBufferIP3TCBE4peekEv:0000000000000008 .L0 
     /tmp/ccTgCEJt.s:181    .text._ZN3stm14CircularBufferIP3TCBE4peekEv:000000000000000c .L0 
     /tmp/ccTgCEJt.s:183    .text._ZN3stm14CircularBufferIP3TCBE4peekEv:000000000000000c .L0 
     /tmp/ccTgCEJt.s:185    .text._ZN3stm14CircularBufferIP3TCBE4peekEv:0000000000000010 .L0 
     /tmp/ccTgCEJt.s:187    .text._ZN3stm14CircularBufferIP3TCBE4peekEv:0000000000000014 .L0 
     /tmp/ccTgCEJt.s:189    .text._ZN3stm14CircularBufferIP3TCBE4peekEv:0000000000000018 .L0 
     /tmp/ccTgCEJt.s:192    .text._ZN3stm14CircularBufferIP3TCBE4peekEv:0000000000000020 .L0 
     /tmp/ccTgCEJt.s:193    .text._ZN3stm14CircularBufferIP3TCBE4peekEv:0000000000000020 .L0 
     /tmp/ccTgCEJt.s:195    .text._ZN3stm14CircularBufferIP3TCBE4peekEv:0000000000000024 .L0 
     /tmp/ccTgCEJt.s:197    .text._ZN3stm14CircularBufferIP3TCBE4peekEv:0000000000000028 .L0 
     /tmp/ccTgCEJt.s:204    .text:0000000000000098 _ZN9Scheduler4peekEv
     /tmp/ccTgCEJt.s:207    .text:0000000000000098 .L0 
     /tmp/ccTgCEJt.s:208    .text:0000000000000098 .L0 
     /tmp/ccTgCEJt.s:209    .text:000000000000009c .L0 
     /tmp/ccTgCEJt.s:212    .text:00000000000000a4 .L0 
     /tmp/ccTgCEJt.s:213    .text:00000000000000a4 .L0 
     /tmp/ccTgCEJt.s:215    .text:00000000000000a8 .L0 
     /tmp/ccTgCEJt.s:220    .text:00000000000000a8 .L0 
     /tmp/ccTgCEJt.s:221    .text:00000000000000a8 .L0 
     /tmp/ccTgCEJt.s:226    .text:00000000000000b0 .L0 
     /tmp/ccTgCEJt.s:228    .text:00000000000000b4 .L0 
     /tmp/ccTgCEJt.s:229    .text:00000000000000b4 .L0 
     /tmp/ccTgCEJt.s:235    .text:00000000000000c8 .L0 
     /tmp/ccTgCEJt.s:236    .text:00000000000000cc .L0 
     /tmp/ccTgCEJt.s:237    .text:00000000000000cc .L0 
     /tmp/ccTgCEJt.s:239    .text:00000000000000d0 .L0 
     /tmp/ccTgCEJt.s:240    .text:00000000000000d0 .L0 
     /tmp/ccTgCEJt.s:242    .text:00000000000000d4 .L0 
     /tmp/ccTgCEJt.s:245    .text:00000000000000d8 .L0 
     /tmp/ccTgCEJt.s:250    .text:00000000000000d8 .L0 
     /tmp/ccTgCEJt.s:251    .text:00000000000000d8 .L0 
     /tmp/ccTgCEJt.s:256    .text:00000000000000e0 .L0 
     /tmp/ccTgCEJt.s:258    .text:00000000000000e4 .L0 
     /tmp/ccTgCEJt.s:259    .text:00000000000000e4 .L0 
     /tmp/ccTgCEJt.s:269    .text:00000000000000fc .L0 
     /tmp/ccTgCEJt.s:270    .text:00000000000000fc .L0 
     /tmp/ccTgCEJt.s:275    .text:0000000000000104 .L0 
     /tmp/ccTgCEJt.s:277    .text:0000000000000108 .L0 
     /tmp/ccTgCEJt.s:278    .text:0000000000000108 .L0 
     /tmp/ccTgCEJt.s:285    .text:0000000000000120 .L0 
     /tmp/ccTgCEJt.s:286    .text:0000000000000120 .L0 
     /tmp/ccTgCEJt.s:288    .text:000000000000012c .L0 
     /tmp/ccTgCEJt.s:295    .text._ZN3stm14CircularBufferIP3TCBE6extendEv:0000000000000000 _ZN3stm14CircularBufferIP3TCBE6extendEv
     /tmp/ccTgCEJt.s:298    .text._ZN3stm14CircularBufferIP3TCBE6extendEv:0000000000000000 .L0 
GAS LISTING /tmp/ccTgCEJt.s 			page 21


     /tmp/ccTgCEJt.s:300    .text._ZN3stm14CircularBufferIP3TCBE6extendEv:0000000000000000 .L0 
     /tmp/ccTgCEJt.s:301    .text._ZN3stm14CircularBufferIP3TCBE6extendEv:0000000000000004 .L0 
     /tmp/ccTgCEJt.s:306    .text._ZN3stm14CircularBufferIP3TCBE6extendEv:0000000000000014 .L0 
     /tmp/ccTgCEJt.s:307    .text._ZN3stm14CircularBufferIP3TCBE6extendEv:0000000000000014 .L0 
     /tmp/ccTgCEJt.s:308    .text._ZN3stm14CircularBufferIP3TCBE6extendEv:0000000000000014 .L0 
     /tmp/ccTgCEJt.s:309    .text._ZN3stm14CircularBufferIP3TCBE6extendEv:0000000000000014 .L0 
     /tmp/ccTgCEJt.s:311    .text._ZN3stm14CircularBufferIP3TCBE6extendEv:0000000000000018 .L0 
     /tmp/ccTgCEJt.s:314    .text._ZN3stm14CircularBufferIP3TCBE6extendEv:000000000000001c .L0 
     /tmp/ccTgCEJt.s:317    .text._ZN3stm14CircularBufferIP3TCBE6extendEv:0000000000000020 .L0 
     /tmp/ccTgCEJt.s:324    .text._ZN3stm14CircularBufferIP3TCBE6extendEv:0000000000000030 .L0 
     /tmp/ccTgCEJt.s:327    .text._ZN3stm14CircularBufferIP3TCBE6extendEv:0000000000000034 .L0 
     /tmp/ccTgCEJt.s:331    .text._ZN3stm14CircularBufferIP3TCBE6extendEv:0000000000000038 .L0 
     /tmp/ccTgCEJt.s:332    .text._ZN3stm14CircularBufferIP3TCBE6extendEv:0000000000000038 .L0 
     /tmp/ccTgCEJt.s:334    .text._ZN3stm14CircularBufferIP3TCBE6extendEv:000000000000003c .L0 
     /tmp/ccTgCEJt.s:336    .text._ZN3stm14CircularBufferIP3TCBE6extendEv:0000000000000040 .L0 
     /tmp/ccTgCEJt.s:338    .text._ZN3stm14CircularBufferIP3TCBE6extendEv:0000000000000044 .L0 
     /tmp/ccTgCEJt.s:341    .text._ZN3stm14CircularBufferIP3TCBE6extendEv:000000000000004c .L0 
     /tmp/ccTgCEJt.s:345    .text._ZN3stm14CircularBufferIP3TCBE6extendEv:0000000000000058 .L0 
     /tmp/ccTgCEJt.s:347    .text._ZN3stm14CircularBufferIP3TCBE6extendEv:000000000000005c .L0 
     /tmp/ccTgCEJt.s:350    .text._ZN3stm14CircularBufferIP3TCBE6extendEv:0000000000000060 .L0 
     /tmp/ccTgCEJt.s:353    .text._ZN3stm14CircularBufferIP3TCBE6extendEv:0000000000000064 .L0 
     /tmp/ccTgCEJt.s:355    .text._ZN3stm14CircularBufferIP3TCBE6extendEv:0000000000000068 .L0 
     /tmp/ccTgCEJt.s:362    .text._ZN3stm14CircularBufferIP3TCBE6extendEv:0000000000000070 .L0 
     /tmp/ccTgCEJt.s:367    .text._ZN3stm14CircularBufferIP3TCBE6extendEv:000000000000007c .L0 
     /tmp/ccTgCEJt.s:369    .text._ZN3stm14CircularBufferIP3TCBE6extendEv:0000000000000080 .L0 
     /tmp/ccTgCEJt.s:371    .text._ZN3stm14CircularBufferIP3TCBE6extendEv:0000000000000084 .L0 
     /tmp/ccTgCEJt.s:373    .text._ZN3stm14CircularBufferIP3TCBE6extendEv:0000000000000088 .L0 
     /tmp/ccTgCEJt.s:375    .text._ZN3stm14CircularBufferIP3TCBE6extendEv:000000000000008c .L0 
     /tmp/ccTgCEJt.s:377    .text._ZN3stm14CircularBufferIP3TCBE6extendEv:0000000000000090 .L0 
     /tmp/ccTgCEJt.s:379    .text._ZN3stm14CircularBufferIP3TCBE6extendEv:0000000000000094 .L0 
     /tmp/ccTgCEJt.s:380    .text._ZN3stm14CircularBufferIP3TCBE6extendEv:0000000000000098 .L0 
     /tmp/ccTgCEJt.s:382    .text._ZN3stm14CircularBufferIP3TCBE6extendEv:000000000000009c .L0 
     /tmp/ccTgCEJt.s:383    .text._ZN3stm14CircularBufferIP3TCBE6extendEv:000000000000009c .L0 
     /tmp/ccTgCEJt.s:385    .text._ZN3stm14CircularBufferIP3TCBE6extendEv:00000000000000a0 .L0 
     /tmp/ccTgCEJt.s:388    .text._ZN3stm14CircularBufferIP3TCBE6extendEv:00000000000000a4 .L0 
     /tmp/ccTgCEJt.s:391    .text._ZN3stm14CircularBufferIP3TCBE6extendEv:00000000000000a8 .L0 
     /tmp/ccTgCEJt.s:393    .text._ZN3stm14CircularBufferIP3TCBE6extendEv:00000000000000ac .L0 
     /tmp/ccTgCEJt.s:400    .text._ZN3stm14CircularBufferIP3TCBE3putES2_:0000000000000000 _ZN3stm14CircularBufferIP3TCBE3putES2_
     /tmp/ccTgCEJt.s:403    .text._ZN3stm14CircularBufferIP3TCBE3putES2_:0000000000000000 .L0 
     /tmp/ccTgCEJt.s:405    .text._ZN3stm14CircularBufferIP3TCBE3putES2_:0000000000000000 .L0 
     /tmp/ccTgCEJt.s:406    .text._ZN3stm14CircularBufferIP3TCBE3putES2_:0000000000000004 .L0 
     /tmp/ccTgCEJt.s:411    .text._ZN3stm14CircularBufferIP3TCBE3putES2_:0000000000000014 .L0 
     /tmp/ccTgCEJt.s:412    .text._ZN3stm14CircularBufferIP3TCBE3putES2_:0000000000000014 .L0 
     /tmp/ccTgCEJt.s:413    .text._ZN3stm14CircularBufferIP3TCBE3putES2_:0000000000000014 .L0 
     /tmp/ccTgCEJt.s:414    .text._ZN3stm14CircularBufferIP3TCBE3putES2_:0000000000000014 .L0 
     /tmp/ccTgCEJt.s:416    .text._ZN3stm14CircularBufferIP3TCBE3putES2_:0000000000000018 .L0 
     /tmp/ccTgCEJt.s:420    .text._ZN3stm14CircularBufferIP3TCBE3putES2_:0000000000000020 .L0 
     /tmp/ccTgCEJt.s:422    .text._ZN3stm14CircularBufferIP3TCBE3putES2_:0000000000000024 .L0 
     /tmp/ccTgCEJt.s:424    .text._ZN3stm14CircularBufferIP3TCBE3putES2_:0000000000000028 .L0 
     /tmp/ccTgCEJt.s:428    .text._ZN3stm14CircularBufferIP3TCBE3putES2_:000000000000002c .L0 
     /tmp/ccTgCEJt.s:430    .text._ZN3stm14CircularBufferIP3TCBE3putES2_:0000000000000030 .L0 
     /tmp/ccTgCEJt.s:432    .text._ZN3stm14CircularBufferIP3TCBE3putES2_:0000000000000034 .L0 
     /tmp/ccTgCEJt.s:435    .text._ZN3stm14CircularBufferIP3TCBE3putES2_:000000000000003c .L0 
     /tmp/ccTgCEJt.s:437    .text._ZN3stm14CircularBufferIP3TCBE3putES2_:0000000000000040 .L0 
     /tmp/ccTgCEJt.s:439    .text._ZN3stm14CircularBufferIP3TCBE3putES2_:0000000000000044 .L0 
     /tmp/ccTgCEJt.s:441    .text._ZN3stm14CircularBufferIP3TCBE3putES2_:0000000000000048 .L0 
     /tmp/ccTgCEJt.s:443    .text._ZN3stm14CircularBufferIP3TCBE3putES2_:000000000000004c .L0 
GAS LISTING /tmp/ccTgCEJt.s 			page 22


     /tmp/ccTgCEJt.s:445    .text._ZN3stm14CircularBufferIP3TCBE3putES2_:0000000000000050 .L0 
     /tmp/ccTgCEJt.s:447    .text._ZN3stm14CircularBufferIP3TCBE3putES2_:0000000000000054 .L0 
     /tmp/ccTgCEJt.s:449    .text._ZN3stm14CircularBufferIP3TCBE3putES2_:0000000000000058 .L0 
     /tmp/ccTgCEJt.s:452    .text._ZN3stm14CircularBufferIP3TCBE3putES2_:0000000000000060 .L0 
     /tmp/ccTgCEJt.s:453    .text._ZN3stm14CircularBufferIP3TCBE3putES2_:0000000000000064 .L0 
     /tmp/ccTgCEJt.s:454    .text._ZN3stm14CircularBufferIP3TCBE3putES2_:0000000000000064 .L0 
     /tmp/ccTgCEJt.s:456    .text._ZN3stm14CircularBufferIP3TCBE3putES2_:0000000000000068 .L0 
     /tmp/ccTgCEJt.s:457    .text._ZN3stm14CircularBufferIP3TCBE3putES2_:0000000000000068 .L0 
     /tmp/ccTgCEJt.s:459    .text._ZN3stm14CircularBufferIP3TCBE3putES2_:000000000000006c .L0 
     /tmp/ccTgCEJt.s:462    .text._ZN3stm14CircularBufferIP3TCBE3putES2_:0000000000000070 .L0 
     /tmp/ccTgCEJt.s:465    .text._ZN3stm14CircularBufferIP3TCBE3putES2_:0000000000000074 .L0 
     /tmp/ccTgCEJt.s:469    .text._ZN3stm14CircularBufferIP3TCBE3putES2_:0000000000000078 .L0 
     /tmp/ccTgCEJt.s:471    .text._ZN3stm14CircularBufferIP3TCBE3putES2_:0000000000000078 .L0 
     /tmp/ccTgCEJt.s:474    .text._ZN3stm14CircularBufferIP3TCBE3putES2_:0000000000000084 .L0 
     /tmp/ccTgCEJt.s:481    .text:000000000000012c _ZN9Scheduler3putEP3TCB
     /tmp/ccTgCEJt.s:484    .text:000000000000012c .L0 
     /tmp/ccTgCEJt.s:486    .text:000000000000012c .L0 
     /tmp/ccTgCEJt.s:488    .text:0000000000000130 .L0 
     /tmp/ccTgCEJt.s:489    .text:0000000000000130 .L0 
     /tmp/ccTgCEJt.s:491    .text:0000000000000138 .L0 
     /tmp/ccTgCEJt.s:493    .text:000000000000013c .L0 
     /tmp/ccTgCEJt.s:495    .text:0000000000000140 .L0 
     /tmp/ccTgCEJt.s:496    .text:0000000000000144 .L0 
     /tmp/ccTgCEJt.s:499    .text:000000000000014c .L0 
     /tmp/ccTgCEJt.s:500    .text:000000000000014c .L0 
     /tmp/ccTgCEJt.s:502    .text:0000000000000150 .L0 
     /tmp/ccTgCEJt.s:508    .text:0000000000000150 .L0 
     /tmp/ccTgCEJt.s:509    .text:0000000000000150 .L0 
     /tmp/ccTgCEJt.s:510    .text:0000000000000150 .L0 
     /tmp/ccTgCEJt.s:515    .text:0000000000000154 .L0 
     /tmp/ccTgCEJt.s:520    .text:0000000000000158 .L0 
     /tmp/ccTgCEJt.s:521    .text:0000000000000158 .L0 
     /tmp/ccTgCEJt.s:522    .text:0000000000000158 .L0 
     /tmp/ccTgCEJt.s:529    .text:000000000000015c .L0 
     /tmp/ccTgCEJt.s:530    .text:000000000000015c .L0 
     /tmp/ccTgCEJt.s:531    .text:000000000000015c .L0 
     /tmp/ccTgCEJt.s:536    .text:0000000000000160 .L0 
     /tmp/ccTgCEJt.s:539    .text:0000000000000168 .L0 
     /tmp/ccTgCEJt.s:542    .text:0000000000000170 .L0 
     /tmp/ccTgCEJt.s:543    .text:0000000000000170 .L0 
     /tmp/ccTgCEJt.s:549    .text:0000000000000180 .L0 
     /tmp/ccTgCEJt.s:550    .text:0000000000000184 .L0 
     /tmp/ccTgCEJt.s:552    .text:0000000000000188 .L0 
     /tmp/ccTgCEJt.s:553    .text:0000000000000188 .L0 
     /tmp/ccTgCEJt.s:555    .text:000000000000018c .L0 
     /tmp/ccTgCEJt.s:560    .text:0000000000000190 .L0 
     /tmp/ccTgCEJt.s:561    .text:0000000000000190 .L0 
     /tmp/ccTgCEJt.s:563    .text:0000000000000198 .L0 
     /tmp/ccTgCEJt.s:565    .text:000000000000019c .L0 
     /tmp/ccTgCEJt.s:566    .text:000000000000019c .L0 
     /tmp/ccTgCEJt.s:567    .text:000000000000019c .L0 
     /tmp/ccTgCEJt.s:572    .text:000000000000019c .L0 
     /tmp/ccTgCEJt.s:573    .text:000000000000019c .L0 
     /tmp/ccTgCEJt.s:574    .text:000000000000019c .L0 
     /tmp/ccTgCEJt.s:580    .text:00000000000001a4 .L0 
     /tmp/ccTgCEJt.s:581    .text:00000000000001a4 .L0 
     /tmp/ccTgCEJt.s:586    .text:00000000000001b4 .L0 
GAS LISTING /tmp/ccTgCEJt.s 			page 23


     /tmp/ccTgCEJt.s:592    .text:00000000000001b8 .L0 
     /tmp/ccTgCEJt.s:593    .text:00000000000001b8 .L0 
     /tmp/ccTgCEJt.s:594    .text:00000000000001b8 .L0 
     /tmp/ccTgCEJt.s:601    .text:00000000000001c0 .L0 
     /tmp/ccTgCEJt.s:602    .text:00000000000001c0 .L0 
     /tmp/ccTgCEJt.s:612    .text:00000000000001d4 .L0 
     /tmp/ccTgCEJt.s:613    .text:00000000000001d4 .L0 
     /tmp/ccTgCEJt.s:614    .text:00000000000001d4 .L0 
     /tmp/ccTgCEJt.s:621    .text:00000000000001dc .L0 
     /tmp/ccTgCEJt.s:622    .text:00000000000001dc .L0 
     /tmp/ccTgCEJt.s:627    .text:00000000000001f0 .L0 
     /tmp/ccTgCEJt.s:647    .bss:0000000000000030 _ZN9Scheduler12low_priorityE
     /tmp/ccTgCEJt.s:643    .bss:0000000000000018 _ZN9Scheduler12mid_priorityE
     /tmp/ccTgCEJt.s:639    .bss:0000000000000000 _ZN9Scheduler13high_priorityE
     /tmp/ccTgCEJt.s:651    .bss:0000000000000048 _ZN9Scheduler11idle_threadE
     /tmp/ccTgCEJt.s:636    .bss:0000000000000000 .LANCHOR0
     /tmp/ccTgCEJt.s:658    .text:00000000000001f0 .L0 
     /tmp/ccTgCEJt.s:77     .text._ZN3stm14CircularBufferIP3TCBE3getEv:000000000000004c .L0 
     /tmp/ccTgCEJt.s:200    .text._ZN3stm14CircularBufferIP3TCBE4peekEv:0000000000000028 .L0 
     /tmp/ccTgCEJt.s:396    .text._ZN3stm14CircularBufferIP3TCBE6extendEv:00000000000000ac .L0 
     /tmp/ccTgCEJt.s:477    .text._ZN3stm14CircularBufferIP3TCBE3putES2_:0000000000000084 .L0 
     /tmp/ccTgCEJt.s:98     .text:0000000000000020 .L0 
     /tmp/ccTgCEJt.s:109    .text:000000000000002c .L0 
     /tmp/ccTgCEJt.s:120    .text:0000000000000038 .L0 
     /tmp/ccTgCEJt.s:128    .text:0000000000000044 .L0 
     /tmp/ccTgCEJt.s:133    .text:0000000000000050 .L0 
     /tmp/ccTgCEJt.s:151    .text:0000000000000070 .L0 
     /tmp/ccTgCEJt.s:159    .text:0000000000000084 .L0 
     /tmp/ccTgCEJt.s:221    .text:00000000000000a8 .L0 
     /tmp/ccTgCEJt.s:229    .text:00000000000000b4 .L0 
     /tmp/ccTgCEJt.s:251    .text:00000000000000d8 .L0 
     /tmp/ccTgCEJt.s:259    .text:00000000000000e4 .L0 
     /tmp/ccTgCEJt.s:270    .text:00000000000000fc .L0 
     /tmp/ccTgCEJt.s:278    .text:0000000000000108 .L0 
     /tmp/ccTgCEJt.s:286    .text:0000000000000120 .L0 
     /tmp/ccTgCEJt.s:489    .text:0000000000000130 .L0 
     /tmp/ccTgCEJt.s:543    .text:0000000000000170 .L0 
     /tmp/ccTgCEJt.s:561    .text:0000000000000190 .L0 
     /tmp/ccTgCEJt.s:581    .text:00000000000001a4 .L0 
     /tmp/ccTgCEJt.s:602    .text:00000000000001c0 .L0 
     /tmp/ccTgCEJt.s:622    .text:00000000000001dc .L0 
     /tmp/ccTgCEJt.s:20     .text:000000000000000c .L2
     /tmp/ccTgCEJt.s:130    .text:0000000000000050 .L12
     /tmp/ccTgCEJt.s:147    .text:0000000000000070 .L13
     /tmp/ccTgCEJt.s:156    .text:0000000000000084 .L14
     /tmp/ccTgCEJt.s:136    .text:0000000000000060 .L6
     /tmp/ccTgCEJt.s:244    .text:00000000000000d8 .L18
     /tmp/ccTgCEJt.s:264    .text:00000000000000fc .L20
     /tmp/ccTgCEJt.s:233    .text:00000000000000c8 .L17
     /tmp/ccTgCEJt.s:283    .text:0000000000000120 .L21
     /tmp/ccTgCEJt.s:558    .text:0000000000000190 .L32
     /tmp/ccTgCEJt.s:564    .text:000000000000019c .L41
     /tmp/ccTgCEJt.s:588    .text:00000000000001b8 .L42
     /tmp/ccTgCEJt.s:608    .text:00000000000001d4 .L43
     /tmp/ccTgCEJt.s:547    .text:0000000000000180 .L31
     /tmp/ccTgCEJt.s:359    .text._ZN3stm14CircularBufferIP3TCBE6extendEv:0000000000000070 .L24
     /tmp/ccTgCEJt.s:329    .text._ZN3stm14CircularBufferIP3TCBE6extendEv:0000000000000038 .L25
GAS LISTING /tmp/ccTgCEJt.s 			page 24


     /tmp/ccTgCEJt.s:468    .text._ZN3stm14CircularBufferIP3TCBE3putES2_:0000000000000078 .L30
     /tmp/ccTgCEJt.s:426    .text._ZN3stm14CircularBufferIP3TCBE3putES2_:000000000000002c .L28
     /tmp/ccTgCEJt.s:2190   .debug_abbrev:0000000000000000 .Ldebug_abbrev0
     /tmp/ccTgCEJt.s:3807   .debug_str:0000000000000758 .LASF143
     /tmp/ccTgCEJt.s:3757   .debug_str:0000000000000614 .LASF144
     /tmp/ccTgCEJt.s:3653   .debug_str:00000000000002a2 .LASF145
     /tmp/ccTgCEJt.s:3553   .debug_ranges:0000000000000000 .Ldebug_ranges0
     /tmp/ccTgCEJt.s:3567   .debug_line:0000000000000000 .Ldebug_line0
     /tmp/ccTgCEJt.s:3677   .debug_str:0000000000000392 .LASF0
     /tmp/ccTgCEJt.s:3699   .debug_str:000000000000044b .LASF1
     /tmp/ccTgCEJt.s:3773   .debug_str:0000000000000672 .LASF2
     /tmp/ccTgCEJt.s:3777   .debug_str:0000000000000690 .LASF4
     /tmp/ccTgCEJt.s:3683   .debug_str:00000000000003d4 .LASF3
     /tmp/ccTgCEJt.s:3583   .debug_str:0000000000000057 .LASF5
     /tmp/ccTgCEJt.s:3755   .debug_str:000000000000060d .LASF6
     /tmp/ccTgCEJt.s:3743   .debug_str:00000000000005af .LASF7
     /tmp/ccTgCEJt.s:3691   .debug_str:0000000000000422 .LASF8
     /tmp/ccTgCEJt.s:3651   .debug_str:0000000000000292 .LASF9
     /tmp/ccTgCEJt.s:3655   .debug_str:00000000000002c0 .LASF10
     /tmp/ccTgCEJt.s:3609   .debug_str:0000000000000129 .LASF11
     /tmp/ccTgCEJt.s:3643   .debug_str:0000000000000266 .LASF12
     /tmp/ccTgCEJt.s:3619   .debug_str:000000000000017c .LASF13
     /tmp/ccTgCEJt.s:3607   .debug_str:0000000000000119 .LASF14
     /tmp/ccTgCEJt.s:3793   .debug_str:0000000000000704 .LASF15
     /tmp/ccTgCEJt.s:3637   .debug_str:0000000000000239 .LASF16
     /tmp/ccTgCEJt.s:3783   .debug_str:00000000000006b8 .LASF17
     /tmp/ccTgCEJt.s:3845   .debug_str:000000000000094e .LASF18
     /tmp/ccTgCEJt.s:3703   .debug_str:0000000000000464 .LASF27
     /tmp/ccTgCEJt.s:3705   .debug_str:0000000000000473 .LASF29
     /tmp/ccTgCEJt.s:3803   .debug_str:0000000000000743 .LASF19
     /tmp/ccTgCEJt.s:3717   .debug_str:00000000000004d4 .LASF21
     /tmp/ccTgCEJt.s:3781   .debug_str:00000000000006a7 .LASF20
     /tmp/ccTgCEJt.s:3811   .debug_str:0000000000000823 .LASF22
     /tmp/ccTgCEJt.s:3831   .debug_str:00000000000008e1 .LASF23
     /tmp/ccTgCEJt.s:3657   .debug_str:00000000000002ce .LASF25
     /tmp/ccTgCEJt.s:3769   .debug_str:0000000000000659 .LASF24
     /tmp/ccTgCEJt.s:3751   .debug_str:00000000000005e1 .LASF26
     /tmp/ccTgCEJt.s:3595   .debug_str:00000000000000bb .LASF94
     /tmp/ccTgCEJt.s:3735   .debug_str:000000000000057f .LASF96
     /tmp/ccTgCEJt.s:3819   .debug_str:0000000000000890 .LASF28
     /tmp/ccTgCEJt.s:3843   .debug_str:000000000000093c .LASF30
     /tmp/ccTgCEJt.s:3745   .debug_str:00000000000005c2 .LASF31
     /tmp/ccTgCEJt.s:3867   .debug_str:00000000000009f4 .LASF32
     /tmp/ccTgCEJt.s:3737   .debug_str:000000000000058f .LASF33
     /tmp/ccTgCEJt.s:3801   .debug_str:000000000000072b .LASF34
     /tmp/ccTgCEJt.s:3713   .debug_str:00000000000004bb .LASF35
     /tmp/ccTgCEJt.s:3623   .debug_str:00000000000001a6 .LASF36
     /tmp/ccTgCEJt.s:3775   .debug_str:0000000000000680 .LASF37
     /tmp/ccTgCEJt.s:3599   .debug_str:00000000000000ca .LASF38
     /tmp/ccTgCEJt.s:3721   .debug_str:00000000000004f3 .LASF39
     /tmp/ccTgCEJt.s:3815   .debug_str:000000000000084e .LASF40
     /tmp/ccTgCEJt.s:3849   .debug_str:0000000000000961 .LASF41
     /tmp/ccTgCEJt.s:3627   .debug_str:00000000000001e3 .LASF42
     /tmp/ccTgCEJt.s:3723   .debug_str:0000000000000502 .LASF43
     /tmp/ccTgCEJt.s:3795   .debug_str:0000000000000710 .LASF44
     /tmp/ccTgCEJt.s:3821   .debug_str:0000000000000896 .LASF45
     /tmp/ccTgCEJt.s:3839   .debug_str:000000000000091d .LASF47
GAS LISTING /tmp/ccTgCEJt.s 			page 25


     /tmp/ccTgCEJt.s:3855   .debug_str:000000000000098d .LASF46
     /tmp/ccTgCEJt.s:3591   .debug_str:0000000000000089 .LASF48
     /tmp/ccTgCEJt.s:3753   .debug_str:0000000000000601 .LASF49
     /tmp/ccTgCEJt.s:3625   .debug_str:00000000000001cb .LASF50
     /tmp/ccTgCEJt.s:3715   .debug_str:00000000000004ca .LASF51
     /tmp/ccTgCEJt.s:3861   .debug_str:00000000000009c5 .LASF52
     /tmp/ccTgCEJt.s:3741   .debug_str:00000000000005a3 .LASF53
     /tmp/ccTgCEJt.s:3729   .debug_str:0000000000000549 .LASF54
     /tmp/ccTgCEJt.s:3605   .debug_str:000000000000010b .LASF55
     /tmp/ccTgCEJt.s:3675   .debug_str:000000000000038c .LASF56
     /tmp/ccTgCEJt.s:3585   .debug_str:000000000000005e .LASF57
     /tmp/ccTgCEJt.s:3701   .debug_str:000000000000045e .LASF58
     /tmp/ccTgCEJt.s:3779   .debug_str:0000000000000697 .LASF59
     /tmp/ccTgCEJt.s:3739   .debug_str:000000000000059c .LASF60
     /tmp/ccTgCEJt.s:3603   .debug_str:00000000000000fa .LASF61
     /tmp/ccTgCEJt.s:3719   .debug_str:00000000000004ec .LASF62
     /tmp/ccTgCEJt.s:3641   .debug_str:0000000000000255 .LASF63
     /tmp/ccTgCEJt.s:3789   .debug_str:00000000000006e8 .LASF64
     /tmp/ccTgCEJt.s:3679   .debug_str:000000000000039f .LASF65
     /tmp/ccTgCEJt.s:3589   .debug_str:000000000000007b .LASF66
     /tmp/ccTgCEJt.s:3635   .debug_str:0000000000000220 .LASF67
     /tmp/ccTgCEJt.s:3661   .debug_str:00000000000002f6 .LASF68
     /tmp/ccTgCEJt.s:3593   .debug_str:00000000000000a0 .LASF69
     /tmp/ccTgCEJt.s:3813   .debug_str:000000000000083f .LASF70
     /tmp/ccTgCEJt.s:3681   .debug_str:00000000000003b9 .LASF71
     /tmp/ccTgCEJt.s:3685   .debug_str:00000000000003e6 .LASF72
     /tmp/ccTgCEJt.s:3853   .debug_str:0000000000000973 .LASF73
     /tmp/ccTgCEJt.s:3615   .debug_str:000000000000016c .LASF74
     /tmp/ccTgCEJt.s:3633   .debug_str:000000000000020d .LASF75
     /tmp/ccTgCEJt.s:3645   .debug_str:0000000000000275 .LASF76
     /tmp/ccTgCEJt.s:3805   .debug_str:0000000000000750 .LASF77
     /tmp/ccTgCEJt.s:3823   .debug_str:00000000000008a2 .LASF102
     /tmp/ccTgCEJt.s:3833   .debug_str:00000000000008ee .LASF78
     /tmp/ccTgCEJt.s:3577   .debug_str:0000000000000043 .LASF79
     /tmp/ccTgCEJt.s:3865   .debug_str:00000000000009ee .LASF80
     /tmp/ccTgCEJt.s:3629   .debug_str:00000000000001fc .LASF81
     /tmp/ccTgCEJt.s:3695   .debug_str:000000000000043e .LASF82
     /tmp/ccTgCEJt.s:3841   .debug_str:0000000000000935 .LASF83
     /tmp/ccTgCEJt.s:3765   .debug_str:0000000000000645 .LASF84
     /tmp/ccTgCEJt.s:3825   .debug_str:00000000000008a7 .LASF85
     /tmp/ccTgCEJt.s:3709   .debug_str:00000000000004a7 .LASF86
     /tmp/ccTgCEJt.s:3763   .debug_str:0000000000000640 .LASF87
     /tmp/ccTgCEJt.s:3649   .debug_str:0000000000000288 .LASF88
     /tmp/ccTgCEJt.s:3579   .debug_str:0000000000000048 .LASF123
     /tmp/ccTgCEJt.s:3791   .debug_str:00000000000006f6 .LASF89
     /tmp/ccTgCEJt.s:3749   .debug_str:00000000000005d4 .LASF90
     /tmp/ccTgCEJt.s:3601   .debug_str:00000000000000ed .LASF91
     /tmp/ccTgCEJt.s:3761   .debug_str:000000000000063b .LASF92
     /tmp/ccTgCEJt.s:3787   .debug_str:00000000000006d3 .LASF93
     /tmp/ccTgCEJt.s:3669   .debug_str:0000000000000346 .LASF146
     /tmp/ccTgCEJt.s:3863   .debug_str:00000000000009da .LASF147
     /tmp/ccTgCEJt.s:3767   .debug_str:0000000000000650 .LASF95
     /tmp/ccTgCEJt.s:3731   .debug_str:0000000000000561 .LASF97
     /tmp/ccTgCEJt.s:3581   .debug_str:0000000000000052 .LASF98
     /tmp/ccTgCEJt.s:3759   .debug_str:0000000000000626 .LASF99
     /tmp/ccTgCEJt.s:3847   .debug_str:0000000000000957 .LASF100
     /tmp/ccTgCEJt.s:3621   .debug_str:000000000000018c .LASF101
GAS LISTING /tmp/ccTgCEJt.s 			page 26


     /tmp/ccTgCEJt.s:3707   .debug_str:000000000000049b .LASF103
     /tmp/ccTgCEJt.s:3837   .debug_str:000000000000090f .LASF104
     /tmp/ccTgCEJt.s:3711   .debug_str:00000000000004ae .LASF105
     /tmp/ccTgCEJt.s:3587   .debug_str:000000000000006e .LASF106
     /tmp/ccTgCEJt.s:3573   .debug_str:0000000000000011 .LASF107
     /tmp/ccTgCEJt.s:3857   .debug_str:0000000000000998 .LASF108
     /tmp/ccTgCEJt.s:3687   .debug_str:00000000000003f5 .LASF109
     /tmp/ccTgCEJt.s:3671   .debug_str:000000000000035e .LASF148
     /tmp/ccTgCEJt.s:3817   .debug_str:000000000000086a .LASF110
     /tmp/ccTgCEJt.s:3613   .debug_str:0000000000000141 .LASF111
     /tmp/ccTgCEJt.s:3827   .debug_str:00000000000008b1 .LASF112
     /tmp/ccTgCEJt.s:3667   .debug_str:000000000000031d .LASF113
     /tmp/ccTgCEJt.s:3617   .debug_str:0000000000000175 .LASF114
     /tmp/ccTgCEJt.s:3829   .debug_str:00000000000008b9 .LASF115
     /tmp/ccTgCEJt.s:3663   .debug_str:0000000000000306 .LASF149
     /tmp/ccTgCEJt.s:3639   .debug_str:000000000000024f .LASF116
     /tmp/ccTgCEJt.s:3785   .debug_str:00000000000006ce .LASF117
     /tmp/ccTgCEJt.s:3733   .debug_str:000000000000057a .LASF118
     /tmp/ccTgCEJt.s:3697   .debug_str:0000000000000446 .LASF119
     /tmp/ccTgCEJt.s:3571   .debug_str:0000000000000008 .LASF120
     /tmp/ccTgCEJt.s:3689   .debug_str:000000000000041c .LASF121
     /tmp/ccTgCEJt.s:3797   .debug_str:000000000000071e .LASF150
     /tmp/ccTgCEJt.s:3851   .debug_str:000000000000096b .LASF122
     /tmp/ccTgCEJt.s:3859   .debug_str:00000000000009be .LASF124
     /tmp/ccTgCEJt.s:3693   .debug_str:0000000000000435 .LASF125
     /tmp/ccTgCEJt.s:3569   .debug_str:0000000000000000 .LASF126
     /tmp/ccTgCEJt.s:3611   .debug_str:0000000000000138 .LASF127
     /tmp/ccTgCEJt.s:3809   .debug_str:000000000000081c .LASF128
     /tmp/ccTgCEJt.s:3597   .debug_str:00000000000000c1 .LASF129
     /tmp/ccTgCEJt.s:3799   .debug_str:0000000000000726 .LASF130
     /tmp/ccTgCEJt.s:3835   .debug_str:00000000000008f3 .LASF131
     /tmp/ccTgCEJt.s:3727   .debug_str:000000000000052b .LASF132
     /tmp/ccTgCEJt.s:3575   .debug_str:0000000000000026 .LASF133
     /tmp/ccTgCEJt.s:3871   .debug_str:0000000000000a14 .LASF134
     /tmp/ccTgCEJt.s:296    .text._ZN3stm14CircularBufferIP3TCBE6extendEv:0000000000000000 .LFB34
     /tmp/ccTgCEJt.s:394    .text._ZN3stm14CircularBufferIP3TCBE6extendEv:00000000000000ac .LFE34
     /tmp/ccTgCEJt.s:3647   .debug_str:0000000000000283 .LASF136
     /tmp/ccTgCEJt.s:3183   .debug_loc:0000000000000000 .LLST8
     /tmp/ccTgCEJt.s:3631   .debug_str:0000000000000203 .LASF135
     /tmp/ccTgCEJt.s:3201   .debug_loc:000000000000004c .LLST9
     /tmp/ccTgCEJt.s:322    .text._ZN3stm14CircularBufferIP3TCBE6extendEv:0000000000000030 .LBB38
     /tmp/ccTgCEJt.s:360    .text._ZN3stm14CircularBufferIP3TCBE6extendEv:0000000000000070 .LBE38
     /tmp/ccTgCEJt.s:3218   .debug_loc:0000000000000097 .LLST10
     /tmp/ccTgCEJt.s:3234   .debug_loc:00000000000000e1 .LLST11
     /tmp/ccTgCEJt.s:319    .text._ZN3stm14CircularBufferIP3TCBE6extendEv:000000000000002c .LVL24
     /tmp/ccTgCEJt.s:365    .text._ZN3stm14CircularBufferIP3TCBE6extendEv:000000000000007c .LVL33
     /tmp/ccTgCEJt.s:172    .text._ZN3stm14CircularBufferIP3TCBE4peekEv:0000000000000000 .LFB33
     /tmp/ccTgCEJt.s:198    .text._ZN3stm14CircularBufferIP3TCBE4peekEv:0000000000000028 .LFE33
     /tmp/ccTgCEJt.s:3251   .debug_loc:000000000000012c .LLST4
     /tmp/ccTgCEJt.s:32     .text._ZN3stm14CircularBufferIP3TCBE3getEv:0000000000000000 .LFB32
     /tmp/ccTgCEJt.s:75     .text._ZN3stm14CircularBufferIP3TCBE3getEv:000000000000004c .LFE32
     /tmp/ccTgCEJt.s:3265   .debug_loc:0000000000000165 .LLST0
     /tmp/ccTgCEJt.s:401    .text._ZN3stm14CircularBufferIP3TCBE3putES2_:0000000000000000 .LFB31
     /tmp/ccTgCEJt.s:475    .text._ZN3stm14CircularBufferIP3TCBE3putES2_:0000000000000084 .LFE31
     /tmp/ccTgCEJt.s:3276   .debug_loc:000000000000019b .LLST12
     /tmp/ccTgCEJt.s:3869   .debug_str:0000000000000a0c .LASF137
     /tmp/ccTgCEJt.s:3298   .debug_loc:00000000000001fa .LLST13
GAS LISTING /tmp/ccTgCEJt.s 			page 27


     /tmp/ccTgCEJt.s:472    .text._ZN3stm14CircularBufferIP3TCBE3putES2_:0000000000000080 .LVL41
     /tmp/ccTgCEJt.s:10     .text:0000000000000000 .LFB28
     /tmp/ccTgCEJt.s:25     .text:0000000000000010 .LFE28
     /tmp/ccTgCEJt.s:205    .text:0000000000000098 .LFB27
     /tmp/ccTgCEJt.s:289    .text:000000000000012c .LFE27
     /tmp/ccTgCEJt.s:218    .text:00000000000000a8 .LBB32
     /tmp/ccTgCEJt.s:224    .text:00000000000000b0 .LBE32
     /tmp/ccTgCEJt.s:3324   .debug_loc:000000000000026c .LLST5
     /tmp/ccTgCEJt.s:248    .text:00000000000000d8 .LBB34
     /tmp/ccTgCEJt.s:254    .text:00000000000000e0 .LBE34
     /tmp/ccTgCEJt.s:3333   .debug_loc:0000000000000298 .LLST6
     /tmp/ccTgCEJt.s:267    .text:00000000000000fc .LBB36
     /tmp/ccTgCEJt.s:273    .text:0000000000000104 .LBE36
     /tmp/ccTgCEJt.s:3342   .debug_loc:00000000000002c4 .LLST7
     /tmp/ccTgCEJt.s:231    .text:00000000000000c4 .LVL15
     /tmp/ccTgCEJt.s:261    .text:00000000000000f4 .LVL18
     /tmp/ccTgCEJt.s:280    .text:0000000000000118 .LVL21
     /tmp/ccTgCEJt.s:82     .text:0000000000000010 .LFB26
     /tmp/ccTgCEJt.s:165    .text:0000000000000098 .LFE26
     /tmp/ccTgCEJt.s:95     .text:0000000000000020 .LBB26
     /tmp/ccTgCEJt.s:101    .text:0000000000000028 .LBE26
     /tmp/ccTgCEJt.s:3351   .debug_loc:00000000000002f0 .LLST1
     /tmp/ccTgCEJt.s:106    .text:000000000000002c .LBB28
     /tmp/ccTgCEJt.s:112    .text:0000000000000034 .LBE28
     /tmp/ccTgCEJt.s:3360   .debug_loc:000000000000031c .LLST2
     /tmp/ccTgCEJt.s:117    .text:0000000000000038 .LBB30
     /tmp/ccTgCEJt.s:123    .text:0000000000000040 .LBE30
     /tmp/ccTgCEJt.s:3369   .debug_loc:0000000000000348 .LLST3
     /tmp/ccTgCEJt.s:135    .text:0000000000000060 .LVL8
     /tmp/ccTgCEJt.s:153    .text:0000000000000080 .LVL9
     /tmp/ccTgCEJt.s:161    .text:0000000000000094 .LVL10
     /tmp/ccTgCEJt.s:482    .text:000000000000012c .LFB25
     /tmp/ccTgCEJt.s:628    .text:00000000000001f0 .LFE25
     /tmp/ccTgCEJt.s:3771   .debug_str:000000000000066b .LASF138
     /tmp/ccTgCEJt.s:3378   .debug_loc:0000000000000374 .LLST14
     /tmp/ccTgCEJt.s:3441   .debug_loc:0000000000000474 .LLST15
     /tmp/ccTgCEJt.s:505    .text:0000000000000150 .LBB39
     /tmp/ccTgCEJt.s:513    .text:0000000000000154 .LBE39
     /tmp/ccTgCEJt.s:3466   .debug_loc:00000000000004e7 .LLST16
     /tmp/ccTgCEJt.s:518    .text:0000000000000158 .LBB41
     /tmp/ccTgCEJt.s:525    .text:000000000000015c .LBE41
     /tmp/ccTgCEJt.s:3473   .debug_loc:000000000000050a .LLST17
     /tmp/ccTgCEJt.s:527    .text:000000000000015c .LBB43
     /tmp/ccTgCEJt.s:534    .text:0000000000000160 .LBE43
     /tmp/ccTgCEJt.s:3480   .debug_loc:000000000000052d .LLST18
     /tmp/ccTgCEJt.s:570    .text:000000000000019c .LBB45
     /tmp/ccTgCEJt.s:578    .text:00000000000001a4 .LBE45
     /tmp/ccTgCEJt.s:3487   .debug_loc:0000000000000550 .LLST19
     /tmp/ccTgCEJt.s:3495   .debug_loc:0000000000000574 .LLST20
     /tmp/ccTgCEJt.s:590    .text:00000000000001b8 .LBB47
     /tmp/ccTgCEJt.s:599    .text:00000000000001c0 .LBE47
     /tmp/ccTgCEJt.s:3502   .debug_loc:0000000000000597 .LLST21
     /tmp/ccTgCEJt.s:3510   .debug_loc:00000000000005bb .LLST22
     /tmp/ccTgCEJt.s:610    .text:00000000000001d4 .LBB49
     /tmp/ccTgCEJt.s:619    .text:00000000000001dc .LBE49
     /tmp/ccTgCEJt.s:3517   .debug_loc:00000000000005de .LLST23
     /tmp/ccTgCEJt.s:3525   .debug_loc:0000000000000602 .LLST24
GAS LISTING /tmp/ccTgCEJt.s 			page 28


     /tmp/ccTgCEJt.s:546    .text:0000000000000180 .LVL49
     /tmp/ccTgCEJt.s:584    .text:00000000000001b4 .LVL54
     /tmp/ccTgCEJt.s:605    .text:00000000000001d0 .LVL59
     /tmp/ccTgCEJt.s:625    .text:00000000000001ec .LVL64
     /tmp/ccTgCEJt.s:3747   .debug_str:00000000000005cf .LASF151
     /tmp/ccTgCEJt.s:3665   .debug_str:000000000000030f .LASF139
     /tmp/ccTgCEJt.s:3725   .debug_str:0000000000000521 .LASF141
     /tmp/ccTgCEJt.s:3659   .debug_str:00000000000002e8 .LASF140
     /tmp/ccTgCEJt.s:3673   .debug_str:0000000000000383 .LASF142
     /tmp/ccTgCEJt.s:299    .text._ZN3stm14CircularBufferIP3TCBE6extendEv:0000000000000000 .LVL22
     /tmp/ccTgCEJt.s:315    .text._ZN3stm14CircularBufferIP3TCBE6extendEv:0000000000000020 .LVL23
     /tmp/ccTgCEJt.s:386    .text._ZN3stm14CircularBufferIP3TCBE6extendEv:00000000000000a0 .LVL34
     /tmp/ccTgCEJt.s:321    .text._ZN3stm14CircularBufferIP3TCBE6extendEv:0000000000000030 .LVL25
     /tmp/ccTgCEJt.s:363    .text._ZN3stm14CircularBufferIP3TCBE6extendEv:0000000000000074 .LVL32
     /tmp/ccTgCEJt.s:389    .text._ZN3stm14CircularBufferIP3TCBE6extendEv:00000000000000a4 .LVL35
     /tmp/ccTgCEJt.s:328    .text._ZN3stm14CircularBufferIP3TCBE6extendEv:0000000000000038 .LVL27
     /tmp/ccTgCEJt.s:348    .text._ZN3stm14CircularBufferIP3TCBE6extendEv:0000000000000060 .LVL28
     /tmp/ccTgCEJt.s:358    .text._ZN3stm14CircularBufferIP3TCBE6extendEv:0000000000000070 .LVL31
     /tmp/ccTgCEJt.s:325    .text._ZN3stm14CircularBufferIP3TCBE6extendEv:0000000000000034 .LVL26
     /tmp/ccTgCEJt.s:351    .text._ZN3stm14CircularBufferIP3TCBE6extendEv:0000000000000064 .LVL29
     /tmp/ccTgCEJt.s:356    .text._ZN3stm14CircularBufferIP3TCBE6extendEv:000000000000006c .LVL30
     /tmp/ccTgCEJt.s:175    .text._ZN3stm14CircularBufferIP3TCBE4peekEv:0000000000000000 .LVL11
     /tmp/ccTgCEJt.s:190    .text._ZN3stm14CircularBufferIP3TCBE4peekEv:000000000000001c .LVL12
     /tmp/ccTgCEJt.s:36     .text._ZN3stm14CircularBufferIP3TCBE3getEv:0000000000000000 .LVL0
     /tmp/ccTgCEJt.s:53     .text._ZN3stm14CircularBufferIP3TCBE3getEv:0000000000000024 .LVL1
     /tmp/ccTgCEJt.s:404    .text._ZN3stm14CircularBufferIP3TCBE3putES2_:0000000000000000 .LVL36
     /tmp/ccTgCEJt.s:425    .text._ZN3stm14CircularBufferIP3TCBE3putES2_:000000000000002c .LVL37
     /tmp/ccTgCEJt.s:460    .text._ZN3stm14CircularBufferIP3TCBE3putES2_:000000000000006c .LVL38
     /tmp/ccTgCEJt.s:467    .text._ZN3stm14CircularBufferIP3TCBE3putES2_:0000000000000078 .LVL40
     /tmp/ccTgCEJt.s:463    .text._ZN3stm14CircularBufferIP3TCBE3putES2_:0000000000000070 .LVL39
     /tmp/ccTgCEJt.s:217    .text:00000000000000a8 .LVL13
     /tmp/ccTgCEJt.s:222    .text:00000000000000b0 .LVL14
     /tmp/ccTgCEJt.s:247    .text:00000000000000d8 .LVL16
     /tmp/ccTgCEJt.s:252    .text:00000000000000e0 .LVL17
     /tmp/ccTgCEJt.s:266    .text:00000000000000fc .LVL19
     /tmp/ccTgCEJt.s:271    .text:0000000000000104 .LVL20
     /tmp/ccTgCEJt.s:94     .text:0000000000000020 .LVL2
     /tmp/ccTgCEJt.s:99     .text:0000000000000028 .LVL3
     /tmp/ccTgCEJt.s:105    .text:000000000000002c .LVL4
     /tmp/ccTgCEJt.s:110    .text:0000000000000034 .LVL5
     /tmp/ccTgCEJt.s:116    .text:0000000000000038 .LVL6
     /tmp/ccTgCEJt.s:121    .text:0000000000000040 .LVL7
     /tmp/ccTgCEJt.s:485    .text:000000000000012c .LVL42
     /tmp/ccTgCEJt.s:544    .text:0000000000000178 .LVL48
     /tmp/ccTgCEJt.s:557    .text:0000000000000190 .LVL50
     /tmp/ccTgCEJt.s:582    .text:00000000000001ac .LVL53
     /tmp/ccTgCEJt.s:587    .text:00000000000001b8 .LVL55
     /tmp/ccTgCEJt.s:603    .text:00000000000001c8 .LVL58
     /tmp/ccTgCEJt.s:607    .text:00000000000001d4 .LVL60
     /tmp/ccTgCEJt.s:623    .text:00000000000001e4 .LVL63
     /tmp/ccTgCEJt.s:532    .text:0000000000000160 .LVL47
     /tmp/ccTgCEJt.s:595    .text:00000000000001bc .LVL56
     /tmp/ccTgCEJt.s:597    .text:00000000000001c0 .LVL57
     /tmp/ccTgCEJt.s:615    .text:00000000000001d8 .LVL61
     /tmp/ccTgCEJt.s:617    .text:00000000000001dc .LVL62
     /tmp/ccTgCEJt.s:504    .text:0000000000000150 .LVL43
     /tmp/ccTgCEJt.s:511    .text:0000000000000154 .LVL44
GAS LISTING /tmp/ccTgCEJt.s 			page 29


     /tmp/ccTgCEJt.s:517    .text:0000000000000158 .LVL45
     /tmp/ccTgCEJt.s:523    .text:000000000000015c .LVL46
     /tmp/ccTgCEJt.s:569    .text:000000000000019c .LVL51
     /tmp/ccTgCEJt.s:576    .text:00000000000001a4 .LVL52
     /tmp/ccTgCEJt.s:659    .debug_info:0000000000000000 .Ldebug_info0
     /tmp/ccTgCEJt.s:5      .text:0000000000000000 .Ltext0
     /tmp/ccTgCEJt.s:654    .text:00000000000001f0 .Letext0

UNDEFINED SYMBOLS
_Z9mem_allocm
_Z8mem_freePv
