GAS LISTING /tmp/ccPLxSG1.s 			page 1


   1              		.file	"scheduler.cpp"
   2              		.option pic
   3              		.option norelax
   4              		.text
   5              	.Ltext0:
   6              		.section	.text._ZN2os14CircularBufferIP3TCBE3getEv,"axG",@progbits,_ZN2os14CircularBufferIP3TCBE3g
   7              		.align	2
   8              		.weak	_ZN2os14CircularBufferIP3TCBE3getEv
  10              	_ZN2os14CircularBufferIP3TCBE3getEv:
  11              	.LFB34:
  12              		.file 1 "src/../h/circular_buffer.hpp"
   1:src/../h/circular_buffer.hpp **** #ifndef PROJECT_BASE_CIRCULAR_BUFFER_HPP
   2:src/../h/circular_buffer.hpp **** #define PROJECT_BASE_CIRCULAR_BUFFER_HPP
   3:src/../h/circular_buffer.hpp **** 
   4:src/../h/circular_buffer.hpp **** #include "c_memory.hpp"
   5:src/../h/circular_buffer.hpp **** 
   6:src/../h/circular_buffer.hpp **** 
   7:src/../h/circular_buffer.hpp **** namespace os {
   8:src/../h/circular_buffer.hpp ****     template<typename T>
   9:src/../h/circular_buffer.hpp ****     class CircularBuffer {
  10:src/../h/circular_buffer.hpp ****     public:
  11:src/../h/circular_buffer.hpp **** 
  12:src/../h/circular_buffer.hpp ****         void init();
  13:src/../h/circular_buffer.hpp **** 
  14:src/../h/circular_buffer.hpp ****         void put(T);
  15:src/../h/circular_buffer.hpp **** 
  16:src/../h/circular_buffer.hpp ****         T get();
  17:src/../h/circular_buffer.hpp **** 
  18:src/../h/circular_buffer.hpp ****         T &peek();
  19:src/../h/circular_buffer.hpp **** 
  20:src/../h/circular_buffer.hpp ****         inline bool is_empty() const { return this->size == 0; }
  21:src/../h/circular_buffer.hpp **** 
  22:src/../h/circular_buffer.hpp ****         void destroy();
  23:src/../h/circular_buffer.hpp **** 
  24:src/../h/circular_buffer.hpp ****     private:
  25:src/../h/circular_buffer.hpp **** 
  26:src/../h/circular_buffer.hpp ****         void extend();
  27:src/../h/circular_buffer.hpp **** 
  28:src/../h/circular_buffer.hpp ****         static int constexpr CAPACITY = 16;
  29:src/../h/circular_buffer.hpp ****         T *queue;
  30:src/../h/circular_buffer.hpp ****         int head;
  31:src/../h/circular_buffer.hpp ****         int tail;
  32:src/../h/circular_buffer.hpp ****         int size;
  33:src/../h/circular_buffer.hpp ****         int capacity;
  34:src/../h/circular_buffer.hpp ****     };
  35:src/../h/circular_buffer.hpp **** }
  36:src/../h/circular_buffer.hpp **** 
  37:src/../h/circular_buffer.hpp **** template<typename T>
  38:src/../h/circular_buffer.hpp **** void os::CircularBuffer<T>::init() {
  39:src/../h/circular_buffer.hpp ****     this->head = 0;
  40:src/../h/circular_buffer.hpp ****     this->tail = 0;
  41:src/../h/circular_buffer.hpp ****     this->size = 0;
  42:src/../h/circular_buffer.hpp ****     this->capacity = CAPACITY;
  43:src/../h/circular_buffer.hpp ****     this->queue = (T *) Allocator::_mem_alloc(sizeof(T) * CAPACITY);
  44:src/../h/circular_buffer.hpp **** }
  45:src/../h/circular_buffer.hpp **** 
  46:src/../h/circular_buffer.hpp **** template<typename T>
GAS LISTING /tmp/ccPLxSG1.s 			page 2


  47:src/../h/circular_buffer.hpp **** void os::CircularBuffer<T>::put(T element) {
  48:src/../h/circular_buffer.hpp ****     if (this->size == this->capacity) {
  49:src/../h/circular_buffer.hpp ****         this->extend();
  50:src/../h/circular_buffer.hpp ****     }
  51:src/../h/circular_buffer.hpp ****     this->queue[this->tail] = element;
  52:src/../h/circular_buffer.hpp ****     this->tail = (this->tail + 1) % this->capacity;
  53:src/../h/circular_buffer.hpp ****     this->size++;
  54:src/../h/circular_buffer.hpp **** }
  55:src/../h/circular_buffer.hpp **** 
  56:src/../h/circular_buffer.hpp **** template<typename T>
  57:src/../h/circular_buffer.hpp **** T os::CircularBuffer<T>::get() {
  13              		.loc 1 57 3
  14              		.cfi_startproc
  15              	.LVL0:
  16 0000 130101FF 		addi	sp,sp,-16
  17              		.cfi_def_cfa_offset 16
  18 0004 23348100 		sd	s0,8(sp)
  19              		.cfi_offset 8, -8
  20 0008 13040101 		addi	s0,sp,16
  21              		.cfi_def_cfa 8, 0
  22 000c 93070500 		mv	a5,a0
  58:src/../h/circular_buffer.hpp ****     T ret = this->queue[this->head];
  23              		.loc 1 58 19 is_stmt 0
  24 0010 83360500 		ld	a3,0(a0)
  25              		.loc 1 58 31
  26 0014 03278500 		lw	a4,8(a0)
  27              		.loc 1 58 24
  28 0018 13163700 		slli	a2,a4,3
  29 001c B386C600 		add	a3,a3,a2
  30              		.loc 1 58 7
  31 0020 03B50600 		ld	a0,0(a3)
  32              	.LVL1:
  59:src/../h/circular_buffer.hpp ****     this->head = (this->head + 1) % this->capacity;
  33              		.loc 1 59 30
  34 0024 1B071700 		addiw	a4,a4,1
  35              		.loc 1 59 43
  36 0028 83A64701 		lw	a3,20(a5)
  37              		.loc 1 59 35
  38 002c 3B67D702 		remw	a4,a4,a3
  39              		.loc 1 59 5
  40 0030 23A4E700 		sw	a4,8(a5)
  60:src/../h/circular_buffer.hpp ****     this->size--;
  41              		.loc 1 60 11
  42 0034 03A70701 		lw	a4,16(a5)
  43              		.loc 1 60 5
  44 0038 1B07F7FF 		addiw	a4,a4,-1
  45 003c 23A8E700 		sw	a4,16(a5)
  61:src/../h/circular_buffer.hpp ****     return ret;
  62:src/../h/circular_buffer.hpp **** }
  46              		.loc 1 62 1
  47 0040 03348100 		ld	s0,8(sp)
  48              		.cfi_restore 8
  49              		.cfi_def_cfa 2, 16
  50 0044 13010101 		addi	sp,sp,16
  51              		.cfi_def_cfa_offset 0
  52 0048 67800000 		jr	ra
  53              		.cfi_endproc
GAS LISTING /tmp/ccPLxSG1.s 			page 3


  54              	.LFE34:
  56              		.text
  57              		.align	2
  58              		.globl	_ZN9Scheduler3getEv
  60              	_ZN9Scheduler3getEv:
  61              	.LFB29:
  62              		.file 2 "src/scheduler.cpp"
   1:src/scheduler.cpp **** #include "../h/scheduler.hpp"
   2:src/scheduler.cpp **** #include "../h/c_thread.hpp"
   3:src/scheduler.cpp **** 
   4:src/scheduler.cpp **** os::CircularBuffer<TCB *> Scheduler::high_priority{};
   5:src/scheduler.cpp **** os::CircularBuffer<TCB *> Scheduler::mid_priority{};
   6:src/scheduler.cpp **** os::CircularBuffer<TCB *> Scheduler::low_priority{};
   7:src/scheduler.cpp **** 
   8:src/scheduler.cpp **** void Scheduler::put(TCB *thread) {
   9:src/scheduler.cpp ****     if (!thread->was_preempted()) {
  10:src/scheduler.cpp ****         thread->set_time_slice(TimeSlice::HIGH_PRIORITY);
  11:src/scheduler.cpp ****         Scheduler::high_priority.put(thread);
  12:src/scheduler.cpp ****         return;
  13:src/scheduler.cpp ****     }
  14:src/scheduler.cpp ****     thread->reset_preempted();
  15:src/scheduler.cpp ****     time_t time_slice = thread->get_time_slice();
  16:src/scheduler.cpp ****     if (time_slice == TimeSlice::HIGH_PRIORITY) {
  17:src/scheduler.cpp ****         thread->set_time_slice(TimeSlice::MID_PRIORITY);
  18:src/scheduler.cpp ****         Scheduler::mid_priority.put(thread);
  19:src/scheduler.cpp ****     } else if (time_slice == TimeSlice::MID_PRIORITY) {
  20:src/scheduler.cpp ****         thread->set_time_slice(TimeSlice::LOW_PRIORITY);
  21:src/scheduler.cpp ****         Scheduler::low_priority.put(thread);
  22:src/scheduler.cpp ****     } else {
  23:src/scheduler.cpp ****         Scheduler::low_priority.put(thread);
  24:src/scheduler.cpp ****     }
  25:src/scheduler.cpp **** }
  26:src/scheduler.cpp **** 
  27:src/scheduler.cpp **** TCB *Scheduler::get() {
  63              		.loc 2 27 23 is_stmt 1
  64              		.cfi_startproc
  65 0000 130101FF 		addi	sp,sp,-16
  66              		.cfi_def_cfa_offset 16
  67 0004 23341100 		sd	ra,8(sp)
  68 0008 23308100 		sd	s0,0(sp)
  69              		.cfi_offset 1, -8
  70              		.cfi_offset 8, -16
  71 000c 13040101 		addi	s0,sp,16
  72              		.cfi_def_cfa 8, 0
  28:src/scheduler.cpp ****     if (!Scheduler::high_priority.is_empty()) return Scheduler::high_priority.get();
  73              		.loc 2 28 5
  74              	.LVL2:
  75              	.LBB22:
  76              	.LBB23:
  20:src/../h/circular_buffer.hpp **** 
  77              		.loc 1 20 53 is_stmt 0
  78 0010 97070000 		lw	a5,.LANCHOR0+16
  78      83A70700 
  79              	.LVL3:
  80              	.LBE23:
  81              	.LBE22:
  82              		.loc 2 28 5
GAS LISTING /tmp/ccPLxSG1.s 			page 4


  83 0018 63980702 		bnez	a5,.L8
  29:src/scheduler.cpp ****     if (!Scheduler::mid_priority.is_empty()) return Scheduler::mid_priority.get();
  84              		.loc 2 29 5 is_stmt 1
  85              	.LVL4:
  86              	.LBB24:
  87              	.LBB25:
  20:src/../h/circular_buffer.hpp **** 
  88              		.loc 1 20 53 is_stmt 0
  89 001c 97070000 		lw	a5,.LANCHOR0+40
  89      83A70700 
  90              	.LVL5:
  91              	.LBE25:
  92              	.LBE24:
  93              		.loc 2 29 5
  94 0024 638C0702 		beqz	a5,.L6
  95              		.loc 2 29 46 is_stmt 1 discriminator 1
  96              		.loc 2 29 80 is_stmt 0 discriminator 1
  97 0028 17050000 		lla	a0,.LANCHOR0+24
  97      13050500 
  98 0030 97000000 		call	_ZN2os14CircularBufferIP3TCBE3getEv
  98      E7800000 
  99              	.LVL6:
 100              	.L3:
  30:src/scheduler.cpp ****     return Scheduler::low_priority.get();
  31:src/scheduler.cpp **** }
 101              		.loc 2 31 1
 102 0038 83308100 		ld	ra,8(sp)
 103              		.cfi_remember_state
 104              		.cfi_restore 1
 105 003c 03340100 		ld	s0,0(sp)
 106              		.cfi_restore 8
 107              		.cfi_def_cfa 2, 16
 108 0040 13010101 		addi	sp,sp,16
 109              		.cfi_def_cfa_offset 0
 110 0044 67800000 		jr	ra
 111              	.L8:
 112              		.cfi_restore_state
  28:src/scheduler.cpp ****     if (!Scheduler::mid_priority.is_empty()) return Scheduler::mid_priority.get();
 113              		.loc 2 28 47 is_stmt 1 discriminator 1
  28:src/scheduler.cpp ****     if (!Scheduler::mid_priority.is_empty()) return Scheduler::mid_priority.get();
 114              		.loc 2 28 82 is_stmt 0 discriminator 1
 115 0048 17050000 		lla	a0,.LANCHOR0
 115      13050500 
 116 0050 97000000 		call	_ZN2os14CircularBufferIP3TCBE3getEv
 116      E7800000 
 117              	.LVL7:
  28:src/scheduler.cpp ****     if (!Scheduler::mid_priority.is_empty()) return Scheduler::mid_priority.get();
 118              		.loc 2 28 83 discriminator 1
 119 0058 6FF01FFE 		j	.L3
 120              	.L6:
  30:src/scheduler.cpp ****     return Scheduler::low_priority.get();
 121              		.loc 2 30 5 is_stmt 1
  30:src/scheduler.cpp ****     return Scheduler::low_priority.get();
 122              		.loc 2 30 39 is_stmt 0
 123 005c 17050000 		lla	a0,.LANCHOR0+48
 123      13050500 
 124 0064 97000000 		call	_ZN2os14CircularBufferIP3TCBE3getEv
GAS LISTING /tmp/ccPLxSG1.s 			page 5


 124      E7800000 
 125              	.LVL8:
  30:src/scheduler.cpp ****     return Scheduler::low_priority.get();
 126              		.loc 2 30 40
 127 006c 6FF0DFFC 		j	.L3
 128              		.cfi_endproc
 129              	.LFE29:
 131              		.section	.text._ZN2os14CircularBufferIP3TCBE4peekEv,"axG",@progbits,_ZN2os14CircularBufferIP3TCBE4
 132              		.align	2
 133              		.weak	_ZN2os14CircularBufferIP3TCBE4peekEv
 135              	_ZN2os14CircularBufferIP3TCBE4peekEv:
 136              	.LFB35:
  63:src/../h/circular_buffer.hpp **** 
  64:src/../h/circular_buffer.hpp **** template<typename T>
  65:src/../h/circular_buffer.hpp **** T &os::CircularBuffer<T>::peek() {
 137              		.loc 1 65 4 is_stmt 1
 138              		.cfi_startproc
 139              	.LVL9:
 140 0000 130101FF 		addi	sp,sp,-16
 141              		.cfi_def_cfa_offset 16
 142 0004 23348100 		sd	s0,8(sp)
 143              		.cfi_offset 8, -8
 144 0008 13040101 		addi	s0,sp,16
 145              		.cfi_def_cfa 8, 0
  66:src/../h/circular_buffer.hpp ****     return this->queue[this->head];
 146              		.loc 1 66 18 is_stmt 0
 147 000c 03370500 		ld	a4,0(a0)
 148              		.loc 1 66 30
 149 0010 83278500 		lw	a5,8(a0)
 150              		.loc 1 66 23
 151 0014 93973700 		slli	a5,a5,3
  67:src/../h/circular_buffer.hpp **** }
 152              		.loc 1 67 1
 153 0018 3305F700 		add	a0,a4,a5
 154              	.LVL10:
 155 001c 03348100 		ld	s0,8(sp)
 156              		.cfi_restore 8
 157              		.cfi_def_cfa 2, 16
 158 0020 13010101 		addi	sp,sp,16
 159              		.cfi_def_cfa_offset 0
 160 0024 67800000 		jr	ra
 161              		.cfi_endproc
 162              	.LFE35:
 164              		.text
 165              		.align	2
 166              		.globl	_ZN9Scheduler4peekEv
 168              	_ZN9Scheduler4peekEv:
 169              	.LFB30:
  32:src/scheduler.cpp **** 
  33:src/scheduler.cpp **** TCB *Scheduler::peek() {
 170              		.loc 2 33 24 is_stmt 1
 171              		.cfi_startproc
 172 0070 130101FF 		addi	sp,sp,-16
 173              		.cfi_def_cfa_offset 16
 174 0074 23341100 		sd	ra,8(sp)
 175 0078 23308100 		sd	s0,0(sp)
 176              		.cfi_offset 1, -8
GAS LISTING /tmp/ccPLxSG1.s 			page 6


 177              		.cfi_offset 8, -16
 178 007c 13040101 		addi	s0,sp,16
 179              		.cfi_def_cfa 8, 0
  34:src/scheduler.cpp ****     if (!Scheduler::high_priority.is_empty()) return Scheduler::high_priority.peek();
 180              		.loc 2 34 5
 181              	.LVL11:
 182              	.LBB26:
 183              	.LBB27:
  20:src/../h/circular_buffer.hpp **** 
 184              		.loc 1 20 53 is_stmt 0
 185 0080 97070000 		lw	a5,.LANCHOR0+16
 185      83A70700 
 186              	.LVL12:
 187              	.LBE27:
 188              	.LBE26:
 189              		.loc 2 34 5
 190 0088 63840702 		beqz	a5,.L12
 191              		.loc 2 34 47 is_stmt 1 discriminator 1
 192              		.loc 2 34 84 is_stmt 0 discriminator 1
 193 008c 17050000 		lla	a0,.LANCHOR0
 193      13050500 
 194 0094 97000000 		call	_ZN2os14CircularBufferIP3TCBE4peekEv
 194      E7800000 
 195              	.LVL13:
 196 009c 03350500 		ld	a0,0(a0)
 197              	.L11:
  35:src/scheduler.cpp ****     if (!Scheduler::mid_priority.is_empty()) return Scheduler::mid_priority.peek();
  36:src/scheduler.cpp ****     return Scheduler::low_priority.peek();
  37:src/scheduler.cpp **** }
 198              		.loc 2 37 1
 199 00a0 83308100 		ld	ra,8(sp)
 200              		.cfi_remember_state
 201              		.cfi_restore 1
 202 00a4 03340100 		ld	s0,0(sp)
 203              		.cfi_restore 8
 204              		.cfi_def_cfa 2, 16
 205 00a8 13010101 		addi	sp,sp,16
 206              		.cfi_def_cfa_offset 0
 207 00ac 67800000 		jr	ra
 208              	.L12:
 209              		.cfi_restore_state
  35:src/scheduler.cpp ****     if (!Scheduler::mid_priority.is_empty()) return Scheduler::mid_priority.peek();
 210              		.loc 2 35 5 is_stmt 1
 211              	.LVL14:
 212              	.LBB28:
 213              	.LBB29:
  20:src/../h/circular_buffer.hpp **** 
 214              		.loc 1 20 53 is_stmt 0
 215 00b0 97070000 		lw	a5,.LANCHOR0+40
 215      83A70700 
 216              	.LVL15:
 217              	.LBE29:
 218              	.LBE28:
  35:src/scheduler.cpp ****     if (!Scheduler::mid_priority.is_empty()) return Scheduler::mid_priority.peek();
 219              		.loc 2 35 5
 220 00b8 638E0700 		beqz	a5,.L14
  35:src/scheduler.cpp ****     if (!Scheduler::mid_priority.is_empty()) return Scheduler::mid_priority.peek();
GAS LISTING /tmp/ccPLxSG1.s 			page 7


 221              		.loc 2 35 46 is_stmt 1 discriminator 1
  35:src/scheduler.cpp ****     if (!Scheduler::mid_priority.is_empty()) return Scheduler::mid_priority.peek();
 222              		.loc 2 35 82 is_stmt 0 discriminator 1
 223 00bc 17050000 		lla	a0,.LANCHOR0+24
 223      13050500 
 224 00c4 97000000 		call	_ZN2os14CircularBufferIP3TCBE4peekEv
 224      E7800000 
 225              	.LVL16:
 226 00cc 03350500 		ld	a0,0(a0)
 227 00d0 6FF01FFD 		j	.L11
 228              	.L14:
  36:src/scheduler.cpp **** }
 229              		.loc 2 36 5 is_stmt 1
  36:src/scheduler.cpp **** }
 230              		.loc 2 36 41 is_stmt 0
 231 00d4 17050000 		lla	a0,.LANCHOR0+48
 231      13050500 
 232 00dc 97000000 		call	_ZN2os14CircularBufferIP3TCBE4peekEv
 232      E7800000 
 233              	.LVL17:
 234 00e4 03350500 		ld	a0,0(a0)
 235 00e8 6FF09FFB 		j	.L11
 236              		.cfi_endproc
 237              	.LFE30:
 239              		.section	.text._ZN2os14CircularBufferIP3TCBE6extendEv,"axG",@progbits,_ZN2os14CircularBufferIP3TCB
 240              		.align	2
 241              		.weak	_ZN2os14CircularBufferIP3TCBE6extendEv
 243              	_ZN2os14CircularBufferIP3TCBE6extendEv:
 244              	.LFB36:
  68:src/../h/circular_buffer.hpp **** 
  69:src/../h/circular_buffer.hpp **** template<typename T>
  70:src/../h/circular_buffer.hpp **** void os::CircularBuffer<T>::extend() {
 245              		.loc 1 70 6 is_stmt 1
 246              		.cfi_startproc
 247              	.LVL18:
 248 0000 130101FE 		addi	sp,sp,-32
 249              		.cfi_def_cfa_offset 32
 250 0004 233C1100 		sd	ra,24(sp)
 251 0008 23388100 		sd	s0,16(sp)
 252 000c 23349100 		sd	s1,8(sp)
 253 0010 23302101 		sd	s2,0(sp)
 254              		.cfi_offset 1, -8
 255              		.cfi_offset 8, -16
 256              		.cfi_offset 9, -24
 257              		.cfi_offset 18, -32
 258 0014 13040102 		addi	s0,sp,32
 259              		.cfi_def_cfa 8, 0
 260 0018 93040500 		mv	s1,a0
  71:src/../h/circular_buffer.hpp ****     T *new_queue = (T *) Allocator::_mem_alloc(sizeof(T *) * this->capacity * 2);
 261              		.loc 1 71 68 is_stmt 0
 262 001c 03254501 		lw	a0,20(a0)
 263              	.LVL19:
 264              		.loc 1 71 47
 265 0020 13154500 		slli	a0,a0,4
 266 0024 97000000 		call	_ZN9Allocator10_mem_allocEm@plt
 266      E7800000 
 267              	.LVL20:
GAS LISTING /tmp/ccPLxSG1.s 			page 8


 268 002c 13090500 		mv	s2,a0
 269              	.LVL21:
 270              	.LBB30:
  72:src/../h/circular_buffer.hpp ****     for (int i = 0, j = this->head; i < this->capacity; i++, j = (j + 1) % this->capacity)
 271              		.loc 1 72 21
 272 0030 83A78400 		lw	a5,8(s1)
 273              	.LVL22:
 274              		.loc 1 72 14
 275 0034 13070000 		li	a4,0
 276              	.LVL23:
 277              	.L18:
 278              		.loc 1 72 39 is_stmt 1 discriminator 3
 279              		.loc 1 72 47 is_stmt 0 discriminator 3
 280 0038 83A64401 		lw	a3,20(s1)
 281              		.loc 1 72 39 discriminator 3
 282 003c 635AD702 		ble	a3,a4,.L17
  73:src/../h/circular_buffer.hpp ****         new_queue[i] = this->queue[j];
 283              		.loc 1 73 30 discriminator 2
 284 0040 03B60400 		ld	a2,0(s1)
 285              		.loc 1 73 18 discriminator 2
 286 0044 93163700 		slli	a3,a4,3
 287 0048 B306D900 		add	a3,s2,a3
 288              		.loc 1 73 35 discriminator 2
 289 004c 93953700 		slli	a1,a5,3
 290 0050 3306B600 		add	a2,a2,a1
 291 0054 03360600 		ld	a2,0(a2)
 292              		.loc 1 73 9 discriminator 2
 293 0058 23B0C600 		sd	a2,0(a3)
  72:src/../h/circular_buffer.hpp ****     for (int i = 0, j = this->head; i < this->capacity; i++, j = (j + 1) % this->capacity)
 294              		.loc 1 72 5 is_stmt 1 discriminator 2
 295 005c 1B071700 		addiw	a4,a4,1
 296              	.LVL24:
  72:src/../h/circular_buffer.hpp ****     for (int i = 0, j = this->head; i < this->capacity; i++, j = (j + 1) % this->capacity)
 297              		.loc 1 72 69 is_stmt 0 discriminator 2
 298 0060 9B871700 		addiw	a5,a5,1
 299              	.LVL25:
  72:src/../h/circular_buffer.hpp ****     for (int i = 0, j = this->head; i < this->capacity; i++, j = (j + 1) % this->capacity)
 300              		.loc 1 72 82 discriminator 2
 301 0064 83A64401 		lw	a3,20(s1)
  72:src/../h/circular_buffer.hpp ****     for (int i = 0, j = this->head; i < this->capacity; i++, j = (j + 1) % this->capacity)
 302              		.loc 1 72 5 discriminator 2
 303 0068 BBE7D702 		remw	a5,a5,a3
 304              	.LVL26:
 305 006c 6FF0DFFC 		j	.L18
 306              	.LVL27:
 307              	.L17:
 308              	.LBE30:
  74:src/../h/circular_buffer.hpp ****     Allocator::_mem_free(queue);
 309              		.loc 1 74 25
 310 0070 03B50400 		ld	a0,0(s1)
 311              	.LVL28:
 312 0074 97000000 		call	_ZN9Allocator9_mem_freeEPKv@plt
 312      E7800000 
 313              	.LVL29:
  75:src/../h/circular_buffer.hpp ****     this->queue = new_queue;
 314              		.loc 1 75 5
 315 007c 23B02401 		sd	s2,0(s1)
GAS LISTING /tmp/ccPLxSG1.s 			page 9


  76:src/../h/circular_buffer.hpp ****     this->head = 0;
 316              		.loc 1 76 5
 317 0080 23A40400 		sw	zero,8(s1)
  77:src/../h/circular_buffer.hpp ****     this->tail = this->capacity;
 318              		.loc 1 77 24
 319 0084 83A74401 		lw	a5,20(s1)
 320              		.loc 1 77 5
 321 0088 23A6F400 		sw	a5,12(s1)
  78:src/../h/circular_buffer.hpp ****     this->capacity *= 2;
 322              		.loc 1 78 20
 323 008c 9B971700 		slliw	a5,a5,1
 324              		.loc 1 78 5
 325 0090 23AAF400 		sw	a5,20(s1)
  79:src/../h/circular_buffer.hpp **** }
 326              		.loc 1 79 1
 327 0094 83308101 		ld	ra,24(sp)
 328              		.cfi_restore 1
 329 0098 03340101 		ld	s0,16(sp)
 330              		.cfi_restore 8
 331              		.cfi_def_cfa 2, 32
 332 009c 83348100 		ld	s1,8(sp)
 333              		.cfi_restore 9
 334              	.LVL30:
 335 00a0 03390100 		ld	s2,0(sp)
 336              		.cfi_restore 18
 337              	.LVL31:
 338 00a4 13010102 		addi	sp,sp,32
 339              		.cfi_def_cfa_offset 0
 340 00a8 67800000 		jr	ra
 341              		.cfi_endproc
 342              	.LFE36:
 344              		.section	.text._ZN2os14CircularBufferIP3TCBE3putES2_,"axG",@progbits,_ZN2os14CircularBufferIP3TCBE
 345              		.align	2
 346              		.weak	_ZN2os14CircularBufferIP3TCBE3putES2_
 348              	_ZN2os14CircularBufferIP3TCBE3putES2_:
 349              	.LFB33:
  47:src/../h/circular_buffer.hpp ****     if (this->size == this->capacity) {
 350              		.loc 1 47 6 is_stmt 1
 351              		.cfi_startproc
 352              	.LVL32:
 353 0000 130101FE 		addi	sp,sp,-32
 354              		.cfi_def_cfa_offset 32
 355 0004 233C1100 		sd	ra,24(sp)
 356 0008 23388100 		sd	s0,16(sp)
 357 000c 23349100 		sd	s1,8(sp)
 358 0010 23302101 		sd	s2,0(sp)
 359              		.cfi_offset 1, -8
 360              		.cfi_offset 8, -16
 361              		.cfi_offset 9, -24
 362              		.cfi_offset 18, -32
 363 0014 13040102 		addi	s0,sp,32
 364              		.cfi_def_cfa 8, 0
 365 0018 93040500 		mv	s1,a0
 366 001c 13890500 		mv	s2,a1
  48:src/../h/circular_buffer.hpp ****         this->extend();
 367              		.loc 1 48 15 is_stmt 0
 368 0020 03270501 		lw	a4,16(a0)
GAS LISTING /tmp/ccPLxSG1.s 			page 10


  48:src/../h/circular_buffer.hpp ****         this->extend();
 369              		.loc 1 48 29
 370 0024 83274501 		lw	a5,20(a0)
  48:src/../h/circular_buffer.hpp ****         this->extend();
 371              		.loc 1 48 5
 372 0028 6308F704 		beq	a4,a5,.L23
 373              	.LVL33:
 374              	.L21:
  51:src/../h/circular_buffer.hpp ****     this->tail = (this->tail + 1) % this->capacity;
 375              		.loc 1 51 11
 376 002c 83B70400 		ld	a5,0(s1)
  51:src/../h/circular_buffer.hpp ****     this->tail = (this->tail + 1) % this->capacity;
 377              		.loc 1 51 23
 378 0030 03A7C400 		lw	a4,12(s1)
  51:src/../h/circular_buffer.hpp ****     this->tail = (this->tail + 1) % this->capacity;
 379              		.loc 1 51 16
 380 0034 13173700 		slli	a4,a4,3
 381 0038 B387E700 		add	a5,a5,a4
  51:src/../h/circular_buffer.hpp ****     this->tail = (this->tail + 1) % this->capacity;
 382              		.loc 1 51 5
 383 003c 23B02701 		sd	s2,0(a5)
  52:src/../h/circular_buffer.hpp ****     this->size++;
 384              		.loc 1 52 25
 385 0040 83A7C400 		lw	a5,12(s1)
  52:src/../h/circular_buffer.hpp ****     this->size++;
 386              		.loc 1 52 30
 387 0044 9B871700 		addiw	a5,a5,1
  52:src/../h/circular_buffer.hpp ****     this->size++;
 388              		.loc 1 52 43
 389 0048 03A74401 		lw	a4,20(s1)
  52:src/../h/circular_buffer.hpp ****     this->size++;
 390              		.loc 1 52 35
 391 004c BBE7E702 		remw	a5,a5,a4
  52:src/../h/circular_buffer.hpp ****     this->size++;
 392              		.loc 1 52 5
 393 0050 23A6F400 		sw	a5,12(s1)
  53:src/../h/circular_buffer.hpp **** }
 394              		.loc 1 53 11
 395 0054 83A70401 		lw	a5,16(s1)
  53:src/../h/circular_buffer.hpp **** }
 396              		.loc 1 53 5
 397 0058 9B871700 		addiw	a5,a5,1
 398 005c 23A8F400 		sw	a5,16(s1)
  54:src/../h/circular_buffer.hpp **** 
 399              		.loc 1 54 1
 400 0060 83308101 		ld	ra,24(sp)
 401              		.cfi_remember_state
 402              		.cfi_restore 1
 403 0064 03340101 		ld	s0,16(sp)
 404              		.cfi_restore 8
 405              		.cfi_def_cfa 2, 32
 406 0068 83348100 		ld	s1,8(sp)
 407              		.cfi_restore 9
 408              	.LVL34:
 409 006c 03390100 		ld	s2,0(sp)
 410              		.cfi_restore 18
 411              	.LVL35:
GAS LISTING /tmp/ccPLxSG1.s 			page 11


 412 0070 13010102 		addi	sp,sp,32
 413              		.cfi_def_cfa_offset 0
 414 0074 67800000 		jr	ra
 415              	.LVL36:
 416              	.L23:
 417              		.cfi_restore_state
  49:src/../h/circular_buffer.hpp ****     }
 418              		.loc 1 49 9
 419 0078 97000000 		call	_ZN2os14CircularBufferIP3TCBE6extendEv
 419      E7800000 
 420              	.LVL37:
 421 0080 6FF0DFFA 		j	.L21
 422              		.cfi_endproc
 423              	.LFE33:
 425              		.text
 426              		.align	2
 427              		.globl	_ZN9Scheduler3putEP3TCB
 429              	_ZN9Scheduler3putEP3TCB:
 430              	.LFB28:
   8:src/scheduler.cpp ****     if (!thread->was_preempted()) {
 431              		.loc 2 8 34 is_stmt 1
 432              		.cfi_startproc
 433              	.LVL38:
 434 00ec 130101FF 		addi	sp,sp,-16
 435              		.cfi_def_cfa_offset 16
 436 00f0 23341100 		sd	ra,8(sp)
 437 00f4 23308100 		sd	s0,0(sp)
 438              		.cfi_offset 1, -8
 439              		.cfi_offset 8, -16
 440 00f8 13040101 		addi	s0,sp,16
 441              		.cfi_def_cfa 8, 0
 442 00fc 93050500 		mv	a1,a0
   9:src/scheduler.cpp ****         thread->set_time_slice(TimeSlice::HIGH_PRIORITY);
 443              		.loc 2 9 5
 444              	.LVL39:
 445              	.LBB31:
 446              	.LBB32:
 447              		.file 3 "src/../h/c_thread.hpp"
   1:src/../h/c_thread.hpp **** #ifndef PROJECT_BASE_C_THREAD_HPP
   2:src/../h/c_thread.hpp **** #define PROJECT_BASE_C_THREAD_HPP
   3:src/../h/c_thread.hpp **** 
   4:src/../h/c_thread.hpp **** #include "syscall_c.hpp"
   5:src/../h/c_thread.hpp **** #include "../lib/hw.h"
   6:src/../h/c_thread.hpp **** #include "circular_buffer.hpp"
   7:src/../h/c_thread.hpp **** 
   8:src/../h/c_thread.hpp **** using run_t = void (*)(void *);
   9:src/../h/c_thread.hpp **** 
  10:src/../h/c_thread.hpp **** struct Context {
  11:src/../h/c_thread.hpp ****     uint64 ra;
  12:src/../h/c_thread.hpp ****     uint64 sp;
  13:src/../h/c_thread.hpp ****     uint64 sstatus;
  14:src/../h/c_thread.hpp ****     uint64 sepc;
  15:src/../h/c_thread.hpp **** };
  16:src/../h/c_thread.hpp **** 
  17:src/../h/c_thread.hpp **** enum Status {
  18:src/../h/c_thread.hpp ****     RUNNABLE, BLOCKED, SLEEPING, JOINED, FINISHED
  19:src/../h/c_thread.hpp **** };
GAS LISTING /tmp/ccPLxSG1.s 			page 12


  20:src/../h/c_thread.hpp **** 
  21:src/../h/c_thread.hpp **** class TCB final {
  22:src/../h/c_thread.hpp **** public:
  23:src/../h/c_thread.hpp ****     static int _thread_create(thread_t *, void(*)(void *), void *, void *);
  24:src/../h/c_thread.hpp **** 
  25:src/../h/c_thread.hpp ****     static void _thread_exit();
  26:src/../h/c_thread.hpp **** 
  27:src/../h/c_thread.hpp ****     static void _thread_dispatch();
  28:src/../h/c_thread.hpp **** 
  29:src/../h/c_thread.hpp ****     static void _thread_join(thread_t);
  30:src/../h/c_thread.hpp **** 
  31:src/../h/c_thread.hpp ****     static void _thread_join(thread_t, time_t);
  32:src/../h/c_thread.hpp **** 
  33:src/../h/c_thread.hpp ****     static int _fork();
  34:src/../h/c_thread.hpp **** 
  35:src/../h/c_thread.hpp ****     static int _kill(TCB *);
  36:src/../h/c_thread.hpp **** 
  37:src/../h/c_thread.hpp ****     static void thread_start();
  38:src/../h/c_thread.hpp **** 
  39:src/../h/c_thread.hpp ****     static void context_switch(Context *, Context *);
  40:src/../h/c_thread.hpp **** 
  41:src/../h/c_thread.hpp ****     static void yield();
  42:src/../h/c_thread.hpp **** 
  43:src/../h/c_thread.hpp ****     static TCB *destroy_thread(TCB *);
  44:src/../h/c_thread.hpp **** 
  45:src/../h/c_thread.hpp ****     static void duplicate(TCB *, TCB *);
  46:src/../h/c_thread.hpp **** 
  47:src/../h/c_thread.hpp ****     void *operator new(size_t size) { return Allocator::_mem_alloc(size); }
  48:src/../h/c_thread.hpp **** 
  49:src/../h/c_thread.hpp ****     void operator delete(void *pointer) { Allocator::_mem_free(pointer); }
  50:src/../h/c_thread.hpp **** 
  51:src/../h/c_thread.hpp ****     void *operator new[](size_t size) { return Allocator::_mem_alloc(size); }
  52:src/../h/c_thread.hpp **** 
  53:src/../h/c_thread.hpp ****     void operator delete[](void *pointer) { Allocator::_mem_free(pointer); }
  54:src/../h/c_thread.hpp **** 
  55:src/../h/c_thread.hpp ****     TCB(run_t, void *, void *, Context);
  56:src/../h/c_thread.hpp **** 
  57:src/../h/c_thread.hpp ****     TCB(TCB &);
  58:src/../h/c_thread.hpp **** 
  59:src/../h/c_thread.hpp ****     bool is_runnable() const { return this->status == RUNNABLE; }
  60:src/../h/c_thread.hpp **** 
  61:src/../h/c_thread.hpp ****     bool is_blocked() const { return this->status == BLOCKED; }
  62:src/../h/c_thread.hpp **** 
  63:src/../h/c_thread.hpp ****     bool is_sleeping() const { return this->status == SLEEPING; }
  64:src/../h/c_thread.hpp **** 
  65:src/../h/c_thread.hpp ****     bool is_joined() const { return this->status == JOINED; }
  66:src/../h/c_thread.hpp **** 
  67:src/../h/c_thread.hpp ****     bool is_finished() const { return this->status == FINISHED; }
  68:src/../h/c_thread.hpp **** 
  69:src/../h/c_thread.hpp ****     void run() { this->status = RUNNABLE; }
  70:src/../h/c_thread.hpp **** 
  71:src/../h/c_thread.hpp ****     void block() { this->status = BLOCKED; }
  72:src/../h/c_thread.hpp **** 
  73:src/../h/c_thread.hpp ****     void sleep() { this->status = SLEEPING; }
  74:src/../h/c_thread.hpp **** 
  75:src/../h/c_thread.hpp ****     void enjoin() { this->status = JOINED; }
  76:src/../h/c_thread.hpp **** 
GAS LISTING /tmp/ccPLxSG1.s 			page 13


  77:src/../h/c_thread.hpp ****     void finish() { this->status = FINISHED; }
  78:src/../h/c_thread.hpp **** 
  79:src/../h/c_thread.hpp ****     bool was_preempted() const { return this->preempted; }
 448              		.loc 3 79 34
 449              		.loc 3 79 47 is_stmt 0
 450 0100 83478505 		lbu	a5,88(a0)
 451              	.LVL40:
 452              	.LBE32:
 453              	.LBE31:
   9:src/scheduler.cpp ****         thread->set_time_slice(TimeSlice::HIGH_PRIORITY);
 454              		.loc 2 9 5
 455 0104 638E0702 		beqz	a5,.L30
  14:src/scheduler.cpp ****     time_t time_slice = thread->get_time_slice();
 456              		.loc 2 14 5 is_stmt 1
 457              	.LVL41:
 458              	.LBB33:
 459              	.LBB34:
  80:src/../h/c_thread.hpp **** 
  81:src/../h/c_thread.hpp ****     void set_preempted() { this->preempted = true; }
  82:src/../h/c_thread.hpp **** 
  83:src/../h/c_thread.hpp ****     void reset_preempted() { this->preempted = false; }
 460              		.loc 3 83 30
 461              		.loc 3 83 46 is_stmt 0
 462 0108 230C0504 		sb	zero,88(a0)
 463              	.LVL42:
 464              	.LBE34:
 465              	.LBE33:
  15:src/scheduler.cpp ****     if (time_slice == TimeSlice::HIGH_PRIORITY) {
 466              		.loc 2 15 5 is_stmt 1
 467              	.LBB35:
 468              	.LBB36:
  84:src/../h/c_thread.hpp **** 
  85:src/../h/c_thread.hpp ****     time_t get_time_slice() const { return this->time_slice; }
 469              		.loc 3 85 37
 470              		.loc 3 85 50 is_stmt 0
 471 010c 83370505 		ld	a5,80(a0)
 472              	.LVL43:
 473              	.LBE36:
 474              	.LBE35:
  16:src/scheduler.cpp ****         thread->set_time_slice(TimeSlice::MID_PRIORITY);
 475              		.loc 2 16 5 is_stmt 1
 476 0110 13071000 		li	a4,1
 477 0114 6384E704 		beq	a5,a4,.L31
  19:src/scheduler.cpp ****         thread->set_time_slice(TimeSlice::LOW_PRIORITY);
 478              		.loc 2 19 12
 479 0118 13072000 		li	a4,2
 480 011c 638EE704 		beq	a5,a4,.L32
  23:src/scheduler.cpp ****     }
 481              		.loc 2 23 9
  23:src/scheduler.cpp ****     }
 482              		.loc 2 23 36 is_stmt 0
 483 0120 17050000 		lla	a0,.LANCHOR0+48
 483      13050500 
 484              	.LVL44:
 485 0128 97000000 		call	_ZN2os14CircularBufferIP3TCBE3putES2_
 485      E7800000 
 486              	.LVL45:
GAS LISTING /tmp/ccPLxSG1.s 			page 14


 487              	.L24:
  25:src/scheduler.cpp **** 
 488              		.loc 2 25 1
 489 0130 83308100 		ld	ra,8(sp)
 490              		.cfi_remember_state
 491              		.cfi_restore 1
 492 0134 03340100 		ld	s0,0(sp)
 493              		.cfi_restore 8
 494              		.cfi_def_cfa 2, 16
 495 0138 13010101 		addi	sp,sp,16
 496              		.cfi_def_cfa_offset 0
 497 013c 67800000 		jr	ra
 498              	.LVL46:
 499              	.L30:
 500              		.cfi_restore_state
  10:src/scheduler.cpp ****         Scheduler::high_priority.put(thread);
 501              		.loc 2 10 9 is_stmt 1
 502              	.LBB37:
 503              	.LBB38:
  86:src/../h/c_thread.hpp **** 
  87:src/../h/c_thread.hpp ****     void set_time_slice(time_t time) { this->time_slice = time;}
 504              		.loc 3 87 40
 505              		.loc 3 87 57 is_stmt 0
 506 0140 93071000 		li	a5,1
 507 0144 2338F504 		sd	a5,80(a0)
 508              	.LVL47:
 509              	.LBE38:
 510              	.LBE37:
  11:src/scheduler.cpp ****         return;
 511              		.loc 2 11 9 is_stmt 1
  11:src/scheduler.cpp ****         return;
 512              		.loc 2 11 37 is_stmt 0
 513 0148 17050000 		lla	a0,.LANCHOR0
 513      13050500 
 514              	.LVL48:
 515 0150 97000000 		call	_ZN2os14CircularBufferIP3TCBE3putES2_
 515      E7800000 
 516              	.LVL49:
  12:src/scheduler.cpp ****     }
 517              		.loc 2 12 9 is_stmt 1
 518 0158 6FF09FFD 		j	.L24
 519              	.LVL50:
 520              	.L31:
  17:src/scheduler.cpp ****         Scheduler::mid_priority.put(thread);
 521              		.loc 2 17 9
 522              	.LBB39:
 523              	.LBB40:
 524              		.loc 3 87 40
 525              		.loc 3 87 57 is_stmt 0
 526 015c 93072000 		li	a5,2
 527              	.LVL51:
 528 0160 2338F504 		sd	a5,80(a0)
 529              	.LVL52:
 530              	.LBE40:
 531              	.LBE39:
  18:src/scheduler.cpp ****     } else if (time_slice == TimeSlice::MID_PRIORITY) {
 532              		.loc 2 18 9 is_stmt 1
GAS LISTING /tmp/ccPLxSG1.s 			page 15


  18:src/scheduler.cpp ****     } else if (time_slice == TimeSlice::MID_PRIORITY) {
 533              		.loc 2 18 36 is_stmt 0
 534 0164 17050000 		lla	a0,.LANCHOR0+24
 534      13050500 
 535              	.LVL53:
 536 016c 97000000 		call	_ZN2os14CircularBufferIP3TCBE3putES2_
 536      E7800000 
 537              	.LVL54:
 538 0174 6FF0DFFB 		j	.L24
 539              	.LVL55:
 540              	.L32:
  20:src/scheduler.cpp ****         Scheduler::low_priority.put(thread);
 541              		.loc 2 20 9 is_stmt 1
 542              	.LBB41:
 543              	.LBB42:
 544              		.loc 3 87 40
 545              		.loc 3 87 57 is_stmt 0
 546 0178 93074000 		li	a5,4
 547              	.LVL56:
 548 017c 2338F504 		sd	a5,80(a0)
 549              	.LVL57:
 550              	.LBE42:
 551              	.LBE41:
  21:src/scheduler.cpp ****     } else {
 552              		.loc 2 21 9 is_stmt 1
  21:src/scheduler.cpp ****     } else {
 553              		.loc 2 21 36 is_stmt 0
 554 0180 17050000 		lla	a0,.LANCHOR0+48
 554      13050500 
 555              	.LVL58:
 556 0188 97000000 		call	_ZN2os14CircularBufferIP3TCBE3putES2_
 556      E7800000 
 557              	.LVL59:
 558 0190 6FF01FFA 		j	.L24
 559              		.cfi_endproc
 560              	.LFE28:
 562              		.globl	_ZN9Scheduler12low_priorityE
 563              		.globl	_ZN9Scheduler12mid_priorityE
 564              		.globl	_ZN9Scheduler13high_priorityE
 565              		.bss
 566              		.align	3
 567              		.set	.LANCHOR0,. + 0
 570              	_ZN9Scheduler13high_priorityE:
 571 0000 00000000 		.zero	24
 571      00000000 
 571      00000000 
 571      00000000 
 571      00000000 
 574              	_ZN9Scheduler12mid_priorityE:
 575 0018 00000000 		.zero	24
 575      00000000 
 575      00000000 
 575      00000000 
 575      00000000 
 578              	_ZN9Scheduler12low_priorityE:
 579 0030 00000000 		.zero	24
 579      00000000 
GAS LISTING /tmp/ccPLxSG1.s 			page 16


 579      00000000 
 579      00000000 
 579      00000000 
 580              		.text
 581              	.Letext0:
 582              		.file 4 "src/../h/../lib/hw.h"
 583              		.file 5 "src/../h/c_memory.hpp"
 584              		.file 6 "src/../h/syscall_c.hpp"
 585              		.file 7 "src/../h/scheduler.hpp"
GAS LISTING /tmp/ccPLxSG1.s 			page 17


DEFINED SYMBOLS
                            *ABS*:0000000000000000 scheduler.cpp
     /tmp/ccPLxSG1.s:10     .text._ZN2os14CircularBufferIP3TCBE3getEv:0000000000000000 _ZN2os14CircularBufferIP3TCBE3getEv
     /tmp/ccPLxSG1.s:14     .text._ZN2os14CircularBufferIP3TCBE3getEv:0000000000000000 .L0 
     /tmp/ccPLxSG1.s:16     .text._ZN2os14CircularBufferIP3TCBE3getEv:0000000000000000 .L0 
     /tmp/ccPLxSG1.s:17     .text._ZN2os14CircularBufferIP3TCBE3getEv:0000000000000004 .L0 
     /tmp/ccPLxSG1.s:19     .text._ZN2os14CircularBufferIP3TCBE3getEv:0000000000000008 .L0 
     /tmp/ccPLxSG1.s:21     .text._ZN2os14CircularBufferIP3TCBE3getEv:000000000000000c .L0 
     /tmp/ccPLxSG1.s:24     .text._ZN2os14CircularBufferIP3TCBE3getEv:0000000000000010 .L0 
     /tmp/ccPLxSG1.s:26     .text._ZN2os14CircularBufferIP3TCBE3getEv:0000000000000014 .L0 
     /tmp/ccPLxSG1.s:28     .text._ZN2os14CircularBufferIP3TCBE3getEv:0000000000000018 .L0 
     /tmp/ccPLxSG1.s:31     .text._ZN2os14CircularBufferIP3TCBE3getEv:0000000000000020 .L0 
     /tmp/ccPLxSG1.s:34     .text._ZN2os14CircularBufferIP3TCBE3getEv:0000000000000024 .L0 
     /tmp/ccPLxSG1.s:36     .text._ZN2os14CircularBufferIP3TCBE3getEv:0000000000000028 .L0 
     /tmp/ccPLxSG1.s:38     .text._ZN2os14CircularBufferIP3TCBE3getEv:000000000000002c .L0 
     /tmp/ccPLxSG1.s:40     .text._ZN2os14CircularBufferIP3TCBE3getEv:0000000000000030 .L0 
     /tmp/ccPLxSG1.s:42     .text._ZN2os14CircularBufferIP3TCBE3getEv:0000000000000034 .L0 
     /tmp/ccPLxSG1.s:44     .text._ZN2os14CircularBufferIP3TCBE3getEv:0000000000000038 .L0 
     /tmp/ccPLxSG1.s:47     .text._ZN2os14CircularBufferIP3TCBE3getEv:0000000000000040 .L0 
     /tmp/ccPLxSG1.s:48     .text._ZN2os14CircularBufferIP3TCBE3getEv:0000000000000044 .L0 
     /tmp/ccPLxSG1.s:49     .text._ZN2os14CircularBufferIP3TCBE3getEv:0000000000000044 .L0 
     /tmp/ccPLxSG1.s:51     .text._ZN2os14CircularBufferIP3TCBE3getEv:0000000000000048 .L0 
     /tmp/ccPLxSG1.s:53     .text._ZN2os14CircularBufferIP3TCBE3getEv:000000000000004c .L0 
     /tmp/ccPLxSG1.s:60     .text:0000000000000000 _ZN9Scheduler3getEv
     /tmp/ccPLxSG1.s:64     .text:0000000000000000 .L0 
     /tmp/ccPLxSG1.s:65     .text:0000000000000000 .L0 
     /tmp/ccPLxSG1.s:66     .text:0000000000000004 .L0 
     /tmp/ccPLxSG1.s:69     .text:000000000000000c .L0 
     /tmp/ccPLxSG1.s:70     .text:000000000000000c .L0 
     /tmp/ccPLxSG1.s:72     .text:0000000000000010 .L0 
     /tmp/ccPLxSG1.s:77     .text:0000000000000010 .L0 
     /tmp/ccPLxSG1.s:78     .text:0000000000000010 .L0 
     /tmp/ccPLxSG1.s:83     .text:0000000000000018 .L0 
     /tmp/ccPLxSG1.s:88     .text:000000000000001c .L0 
     /tmp/ccPLxSG1.s:89     .text:000000000000001c .L0 
     /tmp/ccPLxSG1.s:94     .text:0000000000000024 .L0 
     /tmp/ccPLxSG1.s:96     .text:0000000000000028 .L0 
     /tmp/ccPLxSG1.s:97     .text:0000000000000028 .L0 
     /tmp/ccPLxSG1.s:102    .text:0000000000000038 .L0 
     /tmp/ccPLxSG1.s:103    .text:000000000000003c .L0 
     /tmp/ccPLxSG1.s:104    .text:000000000000003c .L0 
     /tmp/ccPLxSG1.s:106    .text:0000000000000040 .L0 
     /tmp/ccPLxSG1.s:107    .text:0000000000000040 .L0 
     /tmp/ccPLxSG1.s:109    .text:0000000000000044 .L0 
     /tmp/ccPLxSG1.s:112    .text:0000000000000048 .L0 
     /tmp/ccPLxSG1.s:114    .text:0000000000000048 .L0 
     /tmp/ccPLxSG1.s:115    .text:0000000000000048 .L0 
     /tmp/ccPLxSG1.s:119    .text:0000000000000058 .L0 
     /tmp/ccPLxSG1.s:122    .text:000000000000005c .L0 
     /tmp/ccPLxSG1.s:123    .text:000000000000005c .L0 
     /tmp/ccPLxSG1.s:127    .text:000000000000006c .L0 
     /tmp/ccPLxSG1.s:128    .text:0000000000000070 .L0 
     /tmp/ccPLxSG1.s:135    .text._ZN2os14CircularBufferIP3TCBE4peekEv:0000000000000000 _ZN2os14CircularBufferIP3TCBE4peekEv
     /tmp/ccPLxSG1.s:138    .text._ZN2os14CircularBufferIP3TCBE4peekEv:0000000000000000 .L0 
     /tmp/ccPLxSG1.s:140    .text._ZN2os14CircularBufferIP3TCBE4peekEv:0000000000000000 .L0 
     /tmp/ccPLxSG1.s:141    .text._ZN2os14CircularBufferIP3TCBE4peekEv:0000000000000004 .L0 
     /tmp/ccPLxSG1.s:143    .text._ZN2os14CircularBufferIP3TCBE4peekEv:0000000000000008 .L0 
GAS LISTING /tmp/ccPLxSG1.s 			page 18


     /tmp/ccPLxSG1.s:145    .text._ZN2os14CircularBufferIP3TCBE4peekEv:000000000000000c .L0 
     /tmp/ccPLxSG1.s:147    .text._ZN2os14CircularBufferIP3TCBE4peekEv:000000000000000c .L0 
     /tmp/ccPLxSG1.s:149    .text._ZN2os14CircularBufferIP3TCBE4peekEv:0000000000000010 .L0 
     /tmp/ccPLxSG1.s:151    .text._ZN2os14CircularBufferIP3TCBE4peekEv:0000000000000014 .L0 
     /tmp/ccPLxSG1.s:153    .text._ZN2os14CircularBufferIP3TCBE4peekEv:0000000000000018 .L0 
     /tmp/ccPLxSG1.s:156    .text._ZN2os14CircularBufferIP3TCBE4peekEv:0000000000000020 .L0 
     /tmp/ccPLxSG1.s:157    .text._ZN2os14CircularBufferIP3TCBE4peekEv:0000000000000020 .L0 
     /tmp/ccPLxSG1.s:159    .text._ZN2os14CircularBufferIP3TCBE4peekEv:0000000000000024 .L0 
     /tmp/ccPLxSG1.s:161    .text._ZN2os14CircularBufferIP3TCBE4peekEv:0000000000000028 .L0 
     /tmp/ccPLxSG1.s:168    .text:0000000000000070 _ZN9Scheduler4peekEv
     /tmp/ccPLxSG1.s:171    .text:0000000000000070 .L0 
     /tmp/ccPLxSG1.s:172    .text:0000000000000070 .L0 
     /tmp/ccPLxSG1.s:173    .text:0000000000000074 .L0 
     /tmp/ccPLxSG1.s:176    .text:000000000000007c .L0 
     /tmp/ccPLxSG1.s:177    .text:000000000000007c .L0 
     /tmp/ccPLxSG1.s:179    .text:0000000000000080 .L0 
     /tmp/ccPLxSG1.s:184    .text:0000000000000080 .L0 
     /tmp/ccPLxSG1.s:185    .text:0000000000000080 .L0 
     /tmp/ccPLxSG1.s:190    .text:0000000000000088 .L0 
     /tmp/ccPLxSG1.s:192    .text:000000000000008c .L0 
     /tmp/ccPLxSG1.s:193    .text:000000000000008c .L0 
     /tmp/ccPLxSG1.s:199    .text:00000000000000a0 .L0 
     /tmp/ccPLxSG1.s:200    .text:00000000000000a4 .L0 
     /tmp/ccPLxSG1.s:201    .text:00000000000000a4 .L0 
     /tmp/ccPLxSG1.s:203    .text:00000000000000a8 .L0 
     /tmp/ccPLxSG1.s:204    .text:00000000000000a8 .L0 
     /tmp/ccPLxSG1.s:206    .text:00000000000000ac .L0 
     /tmp/ccPLxSG1.s:209    .text:00000000000000b0 .L0 
     /tmp/ccPLxSG1.s:214    .text:00000000000000b0 .L0 
     /tmp/ccPLxSG1.s:215    .text:00000000000000b0 .L0 
     /tmp/ccPLxSG1.s:220    .text:00000000000000b8 .L0 
     /tmp/ccPLxSG1.s:222    .text:00000000000000bc .L0 
     /tmp/ccPLxSG1.s:223    .text:00000000000000bc .L0 
     /tmp/ccPLxSG1.s:230    .text:00000000000000d4 .L0 
     /tmp/ccPLxSG1.s:231    .text:00000000000000d4 .L0 
     /tmp/ccPLxSG1.s:236    .text:00000000000000ec .L0 
     /tmp/ccPLxSG1.s:243    .text._ZN2os14CircularBufferIP3TCBE6extendEv:0000000000000000 _ZN2os14CircularBufferIP3TCBE6extendEv
     /tmp/ccPLxSG1.s:246    .text._ZN2os14CircularBufferIP3TCBE6extendEv:0000000000000000 .L0 
     /tmp/ccPLxSG1.s:248    .text._ZN2os14CircularBufferIP3TCBE6extendEv:0000000000000000 .L0 
     /tmp/ccPLxSG1.s:249    .text._ZN2os14CircularBufferIP3TCBE6extendEv:0000000000000004 .L0 
     /tmp/ccPLxSG1.s:254    .text._ZN2os14CircularBufferIP3TCBE6extendEv:0000000000000014 .L0 
     /tmp/ccPLxSG1.s:255    .text._ZN2os14CircularBufferIP3TCBE6extendEv:0000000000000014 .L0 
     /tmp/ccPLxSG1.s:256    .text._ZN2os14CircularBufferIP3TCBE6extendEv:0000000000000014 .L0 
     /tmp/ccPLxSG1.s:257    .text._ZN2os14CircularBufferIP3TCBE6extendEv:0000000000000014 .L0 
     /tmp/ccPLxSG1.s:259    .text._ZN2os14CircularBufferIP3TCBE6extendEv:0000000000000018 .L0 
     /tmp/ccPLxSG1.s:262    .text._ZN2os14CircularBufferIP3TCBE6extendEv:000000000000001c .L0 
     /tmp/ccPLxSG1.s:265    .text._ZN2os14CircularBufferIP3TCBE6extendEv:0000000000000020 .L0 
     /tmp/ccPLxSG1.s:272    .text._ZN2os14CircularBufferIP3TCBE6extendEv:0000000000000030 .L0 
     /tmp/ccPLxSG1.s:275    .text._ZN2os14CircularBufferIP3TCBE6extendEv:0000000000000034 .L0 
     /tmp/ccPLxSG1.s:279    .text._ZN2os14CircularBufferIP3TCBE6extendEv:0000000000000038 .L0 
     /tmp/ccPLxSG1.s:280    .text._ZN2os14CircularBufferIP3TCBE6extendEv:0000000000000038 .L0 
     /tmp/ccPLxSG1.s:282    .text._ZN2os14CircularBufferIP3TCBE6extendEv:000000000000003c .L0 
     /tmp/ccPLxSG1.s:284    .text._ZN2os14CircularBufferIP3TCBE6extendEv:0000000000000040 .L0 
     /tmp/ccPLxSG1.s:286    .text._ZN2os14CircularBufferIP3TCBE6extendEv:0000000000000044 .L0 
     /tmp/ccPLxSG1.s:289    .text._ZN2os14CircularBufferIP3TCBE6extendEv:000000000000004c .L0 
     /tmp/ccPLxSG1.s:293    .text._ZN2os14CircularBufferIP3TCBE6extendEv:0000000000000058 .L0 
     /tmp/ccPLxSG1.s:295    .text._ZN2os14CircularBufferIP3TCBE6extendEv:000000000000005c .L0 
GAS LISTING /tmp/ccPLxSG1.s 			page 19


     /tmp/ccPLxSG1.s:298    .text._ZN2os14CircularBufferIP3TCBE6extendEv:0000000000000060 .L0 
     /tmp/ccPLxSG1.s:301    .text._ZN2os14CircularBufferIP3TCBE6extendEv:0000000000000064 .L0 
     /tmp/ccPLxSG1.s:303    .text._ZN2os14CircularBufferIP3TCBE6extendEv:0000000000000068 .L0 
     /tmp/ccPLxSG1.s:310    .text._ZN2os14CircularBufferIP3TCBE6extendEv:0000000000000070 .L0 
     /tmp/ccPLxSG1.s:315    .text._ZN2os14CircularBufferIP3TCBE6extendEv:000000000000007c .L0 
     /tmp/ccPLxSG1.s:317    .text._ZN2os14CircularBufferIP3TCBE6extendEv:0000000000000080 .L0 
     /tmp/ccPLxSG1.s:319    .text._ZN2os14CircularBufferIP3TCBE6extendEv:0000000000000084 .L0 
     /tmp/ccPLxSG1.s:321    .text._ZN2os14CircularBufferIP3TCBE6extendEv:0000000000000088 .L0 
     /tmp/ccPLxSG1.s:323    .text._ZN2os14CircularBufferIP3TCBE6extendEv:000000000000008c .L0 
     /tmp/ccPLxSG1.s:325    .text._ZN2os14CircularBufferIP3TCBE6extendEv:0000000000000090 .L0 
     /tmp/ccPLxSG1.s:327    .text._ZN2os14CircularBufferIP3TCBE6extendEv:0000000000000094 .L0 
     /tmp/ccPLxSG1.s:328    .text._ZN2os14CircularBufferIP3TCBE6extendEv:0000000000000098 .L0 
     /tmp/ccPLxSG1.s:330    .text._ZN2os14CircularBufferIP3TCBE6extendEv:000000000000009c .L0 
     /tmp/ccPLxSG1.s:331    .text._ZN2os14CircularBufferIP3TCBE6extendEv:000000000000009c .L0 
     /tmp/ccPLxSG1.s:333    .text._ZN2os14CircularBufferIP3TCBE6extendEv:00000000000000a0 .L0 
     /tmp/ccPLxSG1.s:336    .text._ZN2os14CircularBufferIP3TCBE6extendEv:00000000000000a4 .L0 
     /tmp/ccPLxSG1.s:339    .text._ZN2os14CircularBufferIP3TCBE6extendEv:00000000000000a8 .L0 
     /tmp/ccPLxSG1.s:341    .text._ZN2os14CircularBufferIP3TCBE6extendEv:00000000000000ac .L0 
     /tmp/ccPLxSG1.s:348    .text._ZN2os14CircularBufferIP3TCBE3putES2_:0000000000000000 _ZN2os14CircularBufferIP3TCBE3putES2_
     /tmp/ccPLxSG1.s:351    .text._ZN2os14CircularBufferIP3TCBE3putES2_:0000000000000000 .L0 
     /tmp/ccPLxSG1.s:353    .text._ZN2os14CircularBufferIP3TCBE3putES2_:0000000000000000 .L0 
     /tmp/ccPLxSG1.s:354    .text._ZN2os14CircularBufferIP3TCBE3putES2_:0000000000000004 .L0 
     /tmp/ccPLxSG1.s:359    .text._ZN2os14CircularBufferIP3TCBE3putES2_:0000000000000014 .L0 
     /tmp/ccPLxSG1.s:360    .text._ZN2os14CircularBufferIP3TCBE3putES2_:0000000000000014 .L0 
     /tmp/ccPLxSG1.s:361    .text._ZN2os14CircularBufferIP3TCBE3putES2_:0000000000000014 .L0 
     /tmp/ccPLxSG1.s:362    .text._ZN2os14CircularBufferIP3TCBE3putES2_:0000000000000014 .L0 
     /tmp/ccPLxSG1.s:364    .text._ZN2os14CircularBufferIP3TCBE3putES2_:0000000000000018 .L0 
     /tmp/ccPLxSG1.s:368    .text._ZN2os14CircularBufferIP3TCBE3putES2_:0000000000000020 .L0 
     /tmp/ccPLxSG1.s:370    .text._ZN2os14CircularBufferIP3TCBE3putES2_:0000000000000024 .L0 
     /tmp/ccPLxSG1.s:372    .text._ZN2os14CircularBufferIP3TCBE3putES2_:0000000000000028 .L0 
     /tmp/ccPLxSG1.s:376    .text._ZN2os14CircularBufferIP3TCBE3putES2_:000000000000002c .L0 
     /tmp/ccPLxSG1.s:378    .text._ZN2os14CircularBufferIP3TCBE3putES2_:0000000000000030 .L0 
     /tmp/ccPLxSG1.s:380    .text._ZN2os14CircularBufferIP3TCBE3putES2_:0000000000000034 .L0 
     /tmp/ccPLxSG1.s:383    .text._ZN2os14CircularBufferIP3TCBE3putES2_:000000000000003c .L0 
     /tmp/ccPLxSG1.s:385    .text._ZN2os14CircularBufferIP3TCBE3putES2_:0000000000000040 .L0 
     /tmp/ccPLxSG1.s:387    .text._ZN2os14CircularBufferIP3TCBE3putES2_:0000000000000044 .L0 
     /tmp/ccPLxSG1.s:389    .text._ZN2os14CircularBufferIP3TCBE3putES2_:0000000000000048 .L0 
     /tmp/ccPLxSG1.s:391    .text._ZN2os14CircularBufferIP3TCBE3putES2_:000000000000004c .L0 
     /tmp/ccPLxSG1.s:393    .text._ZN2os14CircularBufferIP3TCBE3putES2_:0000000000000050 .L0 
     /tmp/ccPLxSG1.s:395    .text._ZN2os14CircularBufferIP3TCBE3putES2_:0000000000000054 .L0 
     /tmp/ccPLxSG1.s:397    .text._ZN2os14CircularBufferIP3TCBE3putES2_:0000000000000058 .L0 
     /tmp/ccPLxSG1.s:400    .text._ZN2os14CircularBufferIP3TCBE3putES2_:0000000000000060 .L0 
     /tmp/ccPLxSG1.s:401    .text._ZN2os14CircularBufferIP3TCBE3putES2_:0000000000000064 .L0 
     /tmp/ccPLxSG1.s:402    .text._ZN2os14CircularBufferIP3TCBE3putES2_:0000000000000064 .L0 
     /tmp/ccPLxSG1.s:404    .text._ZN2os14CircularBufferIP3TCBE3putES2_:0000000000000068 .L0 
     /tmp/ccPLxSG1.s:405    .text._ZN2os14CircularBufferIP3TCBE3putES2_:0000000000000068 .L0 
     /tmp/ccPLxSG1.s:407    .text._ZN2os14CircularBufferIP3TCBE3putES2_:000000000000006c .L0 
     /tmp/ccPLxSG1.s:410    .text._ZN2os14CircularBufferIP3TCBE3putES2_:0000000000000070 .L0 
     /tmp/ccPLxSG1.s:413    .text._ZN2os14CircularBufferIP3TCBE3putES2_:0000000000000074 .L0 
     /tmp/ccPLxSG1.s:417    .text._ZN2os14CircularBufferIP3TCBE3putES2_:0000000000000078 .L0 
     /tmp/ccPLxSG1.s:419    .text._ZN2os14CircularBufferIP3TCBE3putES2_:0000000000000078 .L0 
     /tmp/ccPLxSG1.s:422    .text._ZN2os14CircularBufferIP3TCBE3putES2_:0000000000000084 .L0 
     /tmp/ccPLxSG1.s:429    .text:00000000000000ec _ZN9Scheduler3putEP3TCB
     /tmp/ccPLxSG1.s:432    .text:00000000000000ec .L0 
     /tmp/ccPLxSG1.s:434    .text:00000000000000ec .L0 
     /tmp/ccPLxSG1.s:435    .text:00000000000000f0 .L0 
     /tmp/ccPLxSG1.s:438    .text:00000000000000f8 .L0 
GAS LISTING /tmp/ccPLxSG1.s 			page 20


     /tmp/ccPLxSG1.s:439    .text:00000000000000f8 .L0 
     /tmp/ccPLxSG1.s:441    .text:00000000000000fc .L0 
     /tmp/ccPLxSG1.s:448    .text:0000000000000100 .L0 
     /tmp/ccPLxSG1.s:449    .text:0000000000000100 .L0 
     /tmp/ccPLxSG1.s:450    .text:0000000000000100 .L0 
     /tmp/ccPLxSG1.s:455    .text:0000000000000104 .L0 
     /tmp/ccPLxSG1.s:460    .text:0000000000000108 .L0 
     /tmp/ccPLxSG1.s:461    .text:0000000000000108 .L0 
     /tmp/ccPLxSG1.s:462    .text:0000000000000108 .L0 
     /tmp/ccPLxSG1.s:469    .text:000000000000010c .L0 
     /tmp/ccPLxSG1.s:470    .text:000000000000010c .L0 
     /tmp/ccPLxSG1.s:471    .text:000000000000010c .L0 
     /tmp/ccPLxSG1.s:476    .text:0000000000000110 .L0 
     /tmp/ccPLxSG1.s:479    .text:0000000000000118 .L0 
     /tmp/ccPLxSG1.s:482    .text:0000000000000120 .L0 
     /tmp/ccPLxSG1.s:483    .text:0000000000000120 .L0 
     /tmp/ccPLxSG1.s:489    .text:0000000000000130 .L0 
     /tmp/ccPLxSG1.s:490    .text:0000000000000134 .L0 
     /tmp/ccPLxSG1.s:491    .text:0000000000000134 .L0 
     /tmp/ccPLxSG1.s:493    .text:0000000000000138 .L0 
     /tmp/ccPLxSG1.s:494    .text:0000000000000138 .L0 
     /tmp/ccPLxSG1.s:496    .text:000000000000013c .L0 
     /tmp/ccPLxSG1.s:500    .text:0000000000000140 .L0 
     /tmp/ccPLxSG1.s:504    .text:0000000000000140 .L0 
     /tmp/ccPLxSG1.s:505    .text:0000000000000140 .L0 
     /tmp/ccPLxSG1.s:506    .text:0000000000000140 .L0 
     /tmp/ccPLxSG1.s:512    .text:0000000000000148 .L0 
     /tmp/ccPLxSG1.s:513    .text:0000000000000148 .L0 
     /tmp/ccPLxSG1.s:518    .text:0000000000000158 .L0 
     /tmp/ccPLxSG1.s:524    .text:000000000000015c .L0 
     /tmp/ccPLxSG1.s:525    .text:000000000000015c .L0 
     /tmp/ccPLxSG1.s:526    .text:000000000000015c .L0 
     /tmp/ccPLxSG1.s:533    .text:0000000000000164 .L0 
     /tmp/ccPLxSG1.s:534    .text:0000000000000164 .L0 
     /tmp/ccPLxSG1.s:544    .text:0000000000000178 .L0 
     /tmp/ccPLxSG1.s:545    .text:0000000000000178 .L0 
     /tmp/ccPLxSG1.s:546    .text:0000000000000178 .L0 
     /tmp/ccPLxSG1.s:553    .text:0000000000000180 .L0 
     /tmp/ccPLxSG1.s:554    .text:0000000000000180 .L0 
     /tmp/ccPLxSG1.s:559    .text:0000000000000194 .L0 
     /tmp/ccPLxSG1.s:578    .bss:0000000000000030 _ZN9Scheduler12low_priorityE
     /tmp/ccPLxSG1.s:574    .bss:0000000000000018 _ZN9Scheduler12mid_priorityE
     /tmp/ccPLxSG1.s:570    .bss:0000000000000000 _ZN9Scheduler13high_priorityE
     /tmp/ccPLxSG1.s:567    .bss:0000000000000000 .LANCHOR0
     /tmp/ccPLxSG1.s:56     .text._ZN2os14CircularBufferIP3TCBE3getEv:000000000000004c .L0 
     /tmp/ccPLxSG1.s:586    .text:0000000000000194 .L0 
     /tmp/ccPLxSG1.s:164    .text._ZN2os14CircularBufferIP3TCBE4peekEv:0000000000000028 .L0 
     /tmp/ccPLxSG1.s:344    .text._ZN2os14CircularBufferIP3TCBE6extendEv:00000000000000ac .L0 
     /tmp/ccPLxSG1.s:425    .text._ZN2os14CircularBufferIP3TCBE3putES2_:0000000000000084 .L0 
     /tmp/ccPLxSG1.s:78     .text:0000000000000010 .L0 
     /tmp/ccPLxSG1.s:89     .text:000000000000001c .L0 
     /tmp/ccPLxSG1.s:97     .text:0000000000000028 .L0 
     /tmp/ccPLxSG1.s:115    .text:0000000000000048 .L0 
     /tmp/ccPLxSG1.s:123    .text:000000000000005c .L0 
     /tmp/ccPLxSG1.s:185    .text:0000000000000080 .L0 
     /tmp/ccPLxSG1.s:193    .text:000000000000008c .L0 
     /tmp/ccPLxSG1.s:215    .text:00000000000000b0 .L0 
GAS LISTING /tmp/ccPLxSG1.s 			page 21


     /tmp/ccPLxSG1.s:223    .text:00000000000000bc .L0 
     /tmp/ccPLxSG1.s:231    .text:00000000000000d4 .L0 
     /tmp/ccPLxSG1.s:483    .text:0000000000000120 .L0 
     /tmp/ccPLxSG1.s:513    .text:0000000000000148 .L0 
     /tmp/ccPLxSG1.s:534    .text:0000000000000164 .L0 
     /tmp/ccPLxSG1.s:554    .text:0000000000000180 .L0 
     /tmp/ccPLxSG1.s:111    .text:0000000000000048 .L8
     /tmp/ccPLxSG1.s:120    .text:000000000000005c .L6
     /tmp/ccPLxSG1.s:100    .text:0000000000000038 .L3
     /tmp/ccPLxSG1.s:208    .text:00000000000000b0 .L12
     /tmp/ccPLxSG1.s:228    .text:00000000000000d4 .L14
     /tmp/ccPLxSG1.s:197    .text:00000000000000a0 .L11
     /tmp/ccPLxSG1.s:499    .text:0000000000000140 .L30
     /tmp/ccPLxSG1.s:520    .text:000000000000015c .L31
     /tmp/ccPLxSG1.s:540    .text:0000000000000178 .L32
     /tmp/ccPLxSG1.s:487    .text:0000000000000130 .L24
     /tmp/ccPLxSG1.s:307    .text._ZN2os14CircularBufferIP3TCBE6extendEv:0000000000000070 .L17
     /tmp/ccPLxSG1.s:277    .text._ZN2os14CircularBufferIP3TCBE6extendEv:0000000000000038 .L18
     /tmp/ccPLxSG1.s:416    .text._ZN2os14CircularBufferIP3TCBE3putES2_:0000000000000078 .L23
     /tmp/ccPLxSG1.s:374    .text._ZN2os14CircularBufferIP3TCBE3putES2_:000000000000002c .L21
     /tmp/ccPLxSG1.s:2197   .debug_abbrev:0000000000000000 .Ldebug_abbrev0
     /tmp/ccPLxSG1.s:3858   .debug_str:00000000000007cb .LASF159
     /tmp/ccPLxSG1.s:3802   .debug_str:0000000000000623 .LASF160
     /tmp/ccPLxSG1.s:3700   .debug_str:000000000000030e .LASF161
     /tmp/ccPLxSG1.s:3586   .debug_ranges:0000000000000000 .Ldebug_ranges0
     /tmp/ccPLxSG1.s:3600   .debug_line:0000000000000000 .Ldebug_line0
     /tmp/ccPLxSG1.s:3718   .debug_str:000000000000039c .LASF0
     /tmp/ccPLxSG1.s:3742   .debug_str:0000000000000462 .LASF1
     /tmp/ccPLxSG1.s:3816   .debug_str:0000000000000672 .LASF2
     /tmp/ccPLxSG1.s:3824   .debug_str:00000000000006c1 .LASF4
     /tmp/ccPLxSG1.s:3726   .debug_str:00000000000003fa .LASF3
     /tmp/ccPLxSG1.s:3616   .debug_str:0000000000000074 .LASF5
     /tmp/ccPLxSG1.s:3800   .debug_str:000000000000061c .LASF6
     /tmp/ccPLxSG1.s:3788   .debug_str:00000000000005c1 .LASF7
     /tmp/ccPLxSG1.s:3732   .debug_str:0000000000000421 .LASF8
     /tmp/ccPLxSG1.s:3696   .debug_str:00000000000002d9 .LASF9
     /tmp/ccPLxSG1.s:3704   .debug_str:0000000000000338 .LASF10
     /tmp/ccPLxSG1.s:3652   .debug_str:0000000000000164 .LASF11
     /tmp/ccPLxSG1.s:3684   .debug_str:000000000000027b .LASF12
     /tmp/ccPLxSG1.s:3662   .debug_str:00000000000001a2 .LASF13
     /tmp/ccPLxSG1.s:3650   .debug_str:0000000000000154 .LASF14
     /tmp/ccPLxSG1.s:3848   .debug_str:0000000000000794 .LASF15
     /tmp/ccPLxSG1.s:3678   .debug_str:000000000000024e .LASF16
     /tmp/ccPLxSG1.s:3836   .debug_str:0000000000000723 .LASF17
     /tmp/ccPLxSG1.s:3636   .debug_str:00000000000000f9 .LASF34
     /tmp/ccPLxSG1.s:3644   .debug_str:0000000000000129 .LASF141
     /tmp/ccPLxSG1.s:3654   .debug_str:0000000000000173 .LASF18
     /tmp/ccPLxSG1.s:3740   .debug_str:000000000000045d .LASF19
     /tmp/ccPLxSG1.s:3602   .debug_str:0000000000000000 .LASF20
     /tmp/ccPLxSG1.s:3724   .debug_str:00000000000003de .LASF22
     /tmp/ccPLxSG1.s:3630   .debug_str:00000000000000cc .LASF21
     /tmp/ccPLxSG1.s:3674   .debug_str:0000000000000219 .LASF23
     /tmp/ccPLxSG1.s:3830   .debug_str:0000000000000700 .LASF24
     /tmp/ccPLxSG1.s:3884   .debug_str:0000000000000955 .LASF26
     /tmp/ccPLxSG1.s:3894   .debug_str:00000000000009bb .LASF28
     /tmp/ccPLxSG1.s:3658   .debug_str:0000000000000181 .LASF30
     /tmp/ccPLxSG1.s:3772   .debug_str:0000000000000552 .LASF25
GAS LISTING /tmp/ccPLxSG1.s 			page 22


     /tmp/ccPLxSG1.s:3936   .debug_str:0000000000000b12 .LASF27
     /tmp/ccPLxSG1.s:3834   .debug_str:000000000000071a .LASF29
     /tmp/ccPLxSG1.s:3822   .debug_str:00000000000006a8 .LASF31
     /tmp/ccPLxSG1.s:3624   .debug_str:00000000000000a6 .LASF41
     /tmp/ccPLxSG1.s:3890   .debug_str:0000000000000980 .LASF43
     /tmp/ccPLxSG1.s:3932   .debug_str:0000000000000ae5 .LASF162
     /tmp/ccPLxSG1.s:3750   .debug_str:0000000000000491 .LASF163
     /tmp/ccPLxSG1.s:3752   .debug_str:00000000000004bb .LASF134
     /tmp/ccPLxSG1.s:3768   .debug_str:0000000000000527 .LASF121
     /tmp/ccPLxSG1.s:3760   .debug_str:00000000000004ed .LASF32
     /tmp/ccPLxSG1.s:3902   .debug_str:00000000000009f6 .LASF33
     /tmp/ccPLxSG1.s:3746   .debug_str:000000000000047b .LASF35
     /tmp/ccPLxSG1.s:3612   .debug_str:0000000000000041 .LASF36
     /tmp/ccPLxSG1.s:3854   .debug_str:00000000000007b6 .LASF37
     /tmp/ccPLxSG1.s:3868   .debug_str:00000000000008d1 .LASF38
     /tmp/ccPLxSG1.s:3832   .debug_str:0000000000000709 .LASF39
     /tmp/ccPLxSG1.s:3862   .debug_str:0000000000000896 .LASF40
     /tmp/ccPLxSG1.s:3886   .debug_str:000000000000096e .LASF42
     /tmp/ccPLxSG1.s:3706   .debug_str:0000000000000346 .LASF44
     /tmp/ccPLxSG1.s:3736   .debug_str:000000000000043d .LASF45
     /tmp/ccPLxSG1.s:3634   .debug_str:00000000000000f3 .LASF46
     /tmp/ccPLxSG1.s:3780   .debug_str:0000000000000591 .LASF47
     /tmp/ccPLxSG1.s:3872   .debug_str:0000000000000905 .LASF48
     /tmp/ccPLxSG1.s:3900   .debug_str:00000000000009e4 .LASF49
     /tmp/ccPLxSG1.s:3790   .debug_str:00000000000005d4 .LASF50
     /tmp/ccPLxSG1.s:3928   .debug_str:0000000000000ac0 .LASF51
     /tmp/ccPLxSG1.s:3756   .debug_str:00000000000004d4 .LASF52
     /tmp/ccPLxSG1.s:3664   .debug_str:00000000000001b2 .LASF53
     /tmp/ccPLxSG1.s:3744   .debug_str:0000000000000475 .LASF54
     /tmp/ccPLxSG1.s:3864   .debug_str:00000000000008b2 .LASF55
     /tmp/ccPLxSG1.s:3764   .debug_str:00000000000004f9 .LASF56
     /tmp/ccPLxSG1.s:3870   .debug_str:00000000000008e9 .LASF57
     /tmp/ccPLxSG1.s:3904   .debug_str:00000000000009ff .LASF58
     /tmp/ccPLxSG1.s:3668   .debug_str:00000000000001ef .LASF59
     /tmp/ccPLxSG1.s:3930   .debug_str:0000000000000ad8 .LASF60
     /tmp/ccPLxSG1.s:3702   .debug_str:000000000000032c .LASF61
     /tmp/ccPLxSG1.s:3610   .debug_str:0000000000000031 .LASF62
     /tmp/ccPLxSG1.s:3784   .debug_str:00000000000005a8 .LASF63
     /tmp/ccPLxSG1.s:3640   .debug_str:000000000000010c .LASF64
     /tmp/ccPLxSG1.s:3692   .debug_str:00000000000002c3 .LASF65
     /tmp/ccPLxSG1.s:3926   .debug_str:0000000000000aad .LASF66
     /tmp/ccPLxSG1.s:3818   .debug_str:0000000000000680 .LASF67
     /tmp/ccPLxSG1.s:3766   .debug_str:0000000000000508 .LASF68
     /tmp/ccPLxSG1.s:3850   .debug_str:00000000000007a0 .LASF69
     /tmp/ccPLxSG1.s:3874   .debug_str:000000000000090b .LASF70
     /tmp/ccPLxSG1.s:3896   .debug_str:00000000000009c5 .LASF72
     /tmp/ccPLxSG1.s:3912   .debug_str:0000000000000a30 .LASF71
     /tmp/ccPLxSG1.s:3628   .debug_str:00000000000000b5 .LASF73
     /tmp/ccPLxSG1.s:3798   .debug_str:0000000000000610 .LASF74
     /tmp/ccPLxSG1.s:3666   .debug_str:00000000000001d7 .LASF75
     /tmp/ccPLxSG1.s:3758   .debug_str:00000000000004e3 .LASF76
     /tmp/ccPLxSG1.s:3918   .debug_str:0000000000000a54 .LASF77
     /tmp/ccPLxSG1.s:3786   .debug_str:00000000000005b5 .LASF78
     /tmp/ccPLxSG1.s:3774   .debug_str:000000000000055b .LASF79
     /tmp/ccPLxSG1.s:3648   .debug_str:0000000000000146 .LASF80
     /tmp/ccPLxSG1.s:3716   .debug_str:0000000000000396 .LASF81
     /tmp/ccPLxSG1.s:3618   .debug_str:000000000000007b .LASF82
GAS LISTING /tmp/ccPLxSG1.s 			page 23


     /tmp/ccPLxSG1.s:3626   .debug_str:00000000000000af .LASF83
     /tmp/ccPLxSG1.s:3826   .debug_str:00000000000006c8 .LASF84
     /tmp/ccPLxSG1.s:3782   .debug_str:00000000000005a1 .LASF85
     /tmp/ccPLxSG1.s:3646   .debug_str:0000000000000135 .LASF86
     /tmp/ccPLxSG1.s:3762   .debug_str:00000000000004f2 .LASF87
     /tmp/ccPLxSG1.s:3682   .debug_str:000000000000026a .LASF88
     /tmp/ccPLxSG1.s:3844   .debug_str:0000000000000778 .LASF89
     /tmp/ccPLxSG1.s:3720   .debug_str:00000000000003a9 .LASF90
     /tmp/ccPLxSG1.s:3622   .debug_str:0000000000000098 .LASF91
     /tmp/ccPLxSG1.s:3676   .debug_str:0000000000000235 .LASF92
     /tmp/ccPLxSG1.s:3708   .debug_str:0000000000000360 .LASF93
     /tmp/ccPLxSG1.s:3820   .debug_str:000000000000068d .LASF94
     /tmp/ccPLxSG1.s:3866   .debug_str:00000000000008c2 .LASF95
     /tmp/ccPLxSG1.s:3722   .debug_str:00000000000003c3 .LASF96
     /tmp/ccPLxSG1.s:3728   .debug_str:000000000000040c .LASF97
     /tmp/ccPLxSG1.s:3910   .debug_str:0000000000000a16 .LASF98
     /tmp/ccPLxSG1.s:3688   .debug_str:00000000000002b0 .LASF99
     /tmp/ccPLxSG1.s:3856   .debug_str:00000000000007c3 .LASF100
     /tmp/ccPLxSG1.s:3888   .debug_str:000000000000097b .LASF101
     /tmp/ccPLxSG1.s:3712   .debug_str:0000000000000379 .LASF102
     /tmp/ccPLxSG1.s:3922   .debug_str:0000000000000a7d .LASF103
     /tmp/ccPLxSG1.s:3670   .debug_str:0000000000000208 .LASF104
     /tmp/ccPLxSG1.s:3876   .debug_str:0000000000000917 .LASF105
     /tmp/ccPLxSG1.s:3898   .debug_str:00000000000009dd .LASF106
     /tmp/ccPLxSG1.s:3810   .debug_str:0000000000000657 .LASF107
     /tmp/ccPLxSG1.s:3878   .debug_str:000000000000091f .LASF108
     /tmp/ccPLxSG1.s:3748   .debug_str:000000000000048a .LASF109
     /tmp/ccPLxSG1.s:3694   .debug_str:00000000000002cf .LASF110
     /tmp/ccPLxSG1.s:3614   .debug_str:000000000000006a .LASF145
     /tmp/ccPLxSG1.s:3846   .debug_str:0000000000000786 .LASF111
     /tmp/ccPLxSG1.s:3794   .debug_str:00000000000005e6 .LASF112
     /tmp/ccPLxSG1.s:3642   .debug_str:000000000000011c .LASF113
     /tmp/ccPLxSG1.s:3808   .debug_str:0000000000000652 .LASF114
     /tmp/ccPLxSG1.s:3842   .debug_str:0000000000000763 .LASF115
     /tmp/ccPLxSG1.s:3714   .debug_str:000000000000037e .LASF164
     /tmp/ccPLxSG1.s:3920   .debug_str:0000000000000a69 .LASF165
     /tmp/ccPLxSG1.s:3812   .debug_str:0000000000000662 .LASF116
     /tmp/ccPLxSG1.s:3776   .debug_str:0000000000000573 .LASF117
     /tmp/ccPLxSG1.s:3738   .debug_str:0000000000000458 .LASF118
     /tmp/ccPLxSG1.s:3804   .debug_str:0000000000000635 .LASF119
     /tmp/ccPLxSG1.s:3914   .debug_str:0000000000000a3b .LASF120
     /tmp/ccPLxSG1.s:3892   .debug_str:00000000000009ad .LASF122
     /tmp/ccPLxSG1.s:3754   .debug_str:00000000000004c7 .LASF123
     /tmp/ccPLxSG1.s:3620   .debug_str:000000000000008b .LASF124
     /tmp/ccPLxSG1.s:3608   .debug_str:000000000000001c .LASF125
     /tmp/ccPLxSG1.s:3698   .debug_str:00000000000002e9 .LASF126
     /tmp/ccPLxSG1.s:3686   .debug_str:000000000000028a .LASF127
     /tmp/ccPLxSG1.s:3882   .debug_str:0000000000000931 .LASF166
     /tmp/ccPLxSG1.s:3838   .debug_str:0000000000000739 .LASF128
     /tmp/ccPLxSG1.s:3924   .debug_str:0000000000000a83 .LASF129
     /tmp/ccPLxSG1.s:3880   .debug_str:0000000000000929 .LASF130
     /tmp/ccPLxSG1.s:3828   .debug_str:00000000000006d8 .LASF131
     /tmp/ccPLxSG1.s:3660   .debug_str:000000000000019b .LASF132
     /tmp/ccPLxSG1.s:3934   .debug_str:0000000000000aeb .LASF133
     /tmp/ccPLxSG1.s:3710   .debug_str:0000000000000370 .LASF135
     /tmp/ccPLxSG1.s:3680   .debug_str:0000000000000264 .LASF136
     /tmp/ccPLxSG1.s:3840   .debug_str:000000000000075e .LASF137
GAS LISTING /tmp/ccPLxSG1.s 			page 24


     /tmp/ccPLxSG1.s:3778   .debug_str:000000000000058c .LASF138
     /tmp/ccPLxSG1.s:3606   .debug_str:0000000000000013 .LASF139
     /tmp/ccPLxSG1.s:3730   .debug_str:000000000000041b .LASF140
     /tmp/ccPLxSG1.s:3852   .debug_str:00000000000007ae .LASF142
     /tmp/ccPLxSG1.s:3908   .debug_str:0000000000000a0e .LASF143
     /tmp/ccPLxSG1.s:3906   .debug_str:0000000000000a09 .LASF144
     /tmp/ccPLxSG1.s:3916   .debug_str:0000000000000a4d .LASF146
     /tmp/ccPLxSG1.s:3734   .debug_str:0000000000000434 .LASF147
     /tmp/ccPLxSG1.s:3604   .debug_str:000000000000000b .LASF148
     /tmp/ccPLxSG1.s:3656   .debug_str:0000000000000178 .LASF149
     /tmp/ccPLxSG1.s:3860   .debug_str:000000000000088f .LASF150
     /tmp/ccPLxSG1.s:3638   .debug_str:0000000000000103 .LASF151
     /tmp/ccPLxSG1.s:3770   .debug_str:0000000000000534 .LASF152
     /tmp/ccPLxSG1.s:3796   .debug_str:00000000000005f3 .LASF153
     /tmp/ccPLxSG1.s:3632   .debug_str:00000000000000d6 .LASF154
     /tmp/ccPLxSG1.s:244    .text._ZN2os14CircularBufferIP3TCBE6extendEv:0000000000000000 .LFB36
     /tmp/ccPLxSG1.s:342    .text._ZN2os14CircularBufferIP3TCBE6extendEv:00000000000000ac .LFE36
     /tmp/ccPLxSG1.s:3690   .debug_str:00000000000002be .LASF156
     /tmp/ccPLxSG1.s:3234   .debug_loc:0000000000000000 .LLST6
     /tmp/ccPLxSG1.s:3672   .debug_str:000000000000020f .LASF155
     /tmp/ccPLxSG1.s:3252   .debug_loc:000000000000004c .LLST7
     /tmp/ccPLxSG1.s:270    .text._ZN2os14CircularBufferIP3TCBE6extendEv:0000000000000030 .LBB30
     /tmp/ccPLxSG1.s:308    .text._ZN2os14CircularBufferIP3TCBE6extendEv:0000000000000070 .LBE30
     /tmp/ccPLxSG1.s:3269   .debug_loc:0000000000000097 .LLST8
     /tmp/ccPLxSG1.s:3285   .debug_loc:00000000000000e1 .LLST9
     /tmp/ccPLxSG1.s:267    .text._ZN2os14CircularBufferIP3TCBE6extendEv:000000000000002c .LVL20
     /tmp/ccPLxSG1.s:313    .text._ZN2os14CircularBufferIP3TCBE6extendEv:000000000000007c .LVL29
     /tmp/ccPLxSG1.s:136    .text._ZN2os14CircularBufferIP3TCBE4peekEv:0000000000000000 .LFB35
     /tmp/ccPLxSG1.s:162    .text._ZN2os14CircularBufferIP3TCBE4peekEv:0000000000000028 .LFE35
     /tmp/ccPLxSG1.s:3302   .debug_loc:000000000000012c .LLST3
     /tmp/ccPLxSG1.s:11     .text._ZN2os14CircularBufferIP3TCBE3getEv:0000000000000000 .LFB34
     /tmp/ccPLxSG1.s:54     .text._ZN2os14CircularBufferIP3TCBE3getEv:000000000000004c .LFE34
     /tmp/ccPLxSG1.s:3316   .debug_loc:0000000000000165 .LLST0
     /tmp/ccPLxSG1.s:349    .text._ZN2os14CircularBufferIP3TCBE3putES2_:0000000000000000 .LFB33
     /tmp/ccPLxSG1.s:423    .text._ZN2os14CircularBufferIP3TCBE3putES2_:0000000000000084 .LFE33
     /tmp/ccPLxSG1.s:3327   .debug_loc:000000000000019b .LLST10
     /tmp/ccPLxSG1.s:3806   .debug_str:000000000000064a .LASF157
     /tmp/ccPLxSG1.s:3349   .debug_loc:00000000000001fa .LLST11
     /tmp/ccPLxSG1.s:420    .text._ZN2os14CircularBufferIP3TCBE3putES2_:0000000000000080 .LVL37
     /tmp/ccPLxSG1.s:169    .text:0000000000000070 .LFB30
     /tmp/ccPLxSG1.s:237    .text:00000000000000ec .LFE30
     /tmp/ccPLxSG1.s:182    .text:0000000000000080 .LBB26
     /tmp/ccPLxSG1.s:188    .text:0000000000000088 .LBE26
     /tmp/ccPLxSG1.s:3375   .debug_loc:000000000000026c .LLST4
     /tmp/ccPLxSG1.s:212    .text:00000000000000b0 .LBB28
     /tmp/ccPLxSG1.s:218    .text:00000000000000b8 .LBE28
     /tmp/ccPLxSG1.s:3384   .debug_loc:0000000000000298 .LLST5
     /tmp/ccPLxSG1.s:195    .text:000000000000009c .LVL13
     /tmp/ccPLxSG1.s:225    .text:00000000000000cc .LVL16
     /tmp/ccPLxSG1.s:233    .text:00000000000000e4 .LVL17
     /tmp/ccPLxSG1.s:61     .text:0000000000000000 .LFB29
     /tmp/ccPLxSG1.s:129    .text:0000000000000070 .LFE29
     /tmp/ccPLxSG1.s:75     .text:0000000000000010 .LBB22
     /tmp/ccPLxSG1.s:81     .text:0000000000000018 .LBE22
     /tmp/ccPLxSG1.s:3393   .debug_loc:00000000000002c4 .LLST1
     /tmp/ccPLxSG1.s:86     .text:000000000000001c .LBB24
     /tmp/ccPLxSG1.s:92     .text:0000000000000024 .LBE24
GAS LISTING /tmp/ccPLxSG1.s 			page 25


     /tmp/ccPLxSG1.s:3402   .debug_loc:00000000000002f0 .LLST2
     /tmp/ccPLxSG1.s:99     .text:0000000000000038 .LVL6
     /tmp/ccPLxSG1.s:117    .text:0000000000000058 .LVL7
     /tmp/ccPLxSG1.s:125    .text:000000000000006c .LVL8
     /tmp/ccPLxSG1.s:430    .text:00000000000000ec .LFB28
     /tmp/ccPLxSG1.s:560    .text:0000000000000194 .LFE28
     /tmp/ccPLxSG1.s:3814   .debug_str:000000000000066b .LASF158
     /tmp/ccPLxSG1.s:3411   .debug_loc:000000000000031c .LLST12
     /tmp/ccPLxSG1.s:3474   .debug_loc:000000000000041c .LLST13
     /tmp/ccPLxSG1.s:445    .text:0000000000000100 .LBB31
     /tmp/ccPLxSG1.s:453    .text:0000000000000104 .LBE31
     /tmp/ccPLxSG1.s:3499   .debug_loc:000000000000048f .LLST14
     /tmp/ccPLxSG1.s:458    .text:0000000000000108 .LBB33
     /tmp/ccPLxSG1.s:465    .text:000000000000010c .LBE33
     /tmp/ccPLxSG1.s:3506   .debug_loc:00000000000004b2 .LLST15
     /tmp/ccPLxSG1.s:467    .text:000000000000010c .LBB35
     /tmp/ccPLxSG1.s:474    .text:0000000000000110 .LBE35
     /tmp/ccPLxSG1.s:3513   .debug_loc:00000000000004d5 .LLST16
     /tmp/ccPLxSG1.s:502    .text:0000000000000140 .LBB37
     /tmp/ccPLxSG1.s:510    .text:0000000000000148 .LBE37
     /tmp/ccPLxSG1.s:3520   .debug_loc:00000000000004f8 .LLST17
     /tmp/ccPLxSG1.s:3528   .debug_loc:000000000000051c .LLST18
     /tmp/ccPLxSG1.s:522    .text:000000000000015c .LBB39
     /tmp/ccPLxSG1.s:531    .text:0000000000000164 .LBE39
     /tmp/ccPLxSG1.s:3535   .debug_loc:000000000000053f .LLST19
     /tmp/ccPLxSG1.s:3543   .debug_loc:0000000000000563 .LLST20
     /tmp/ccPLxSG1.s:542    .text:0000000000000178 .LBB41
     /tmp/ccPLxSG1.s:551    .text:0000000000000180 .LBE41
     /tmp/ccPLxSG1.s:3550   .debug_loc:0000000000000586 .LLST21
     /tmp/ccPLxSG1.s:3558   .debug_loc:00000000000005aa .LLST22
     /tmp/ccPLxSG1.s:486    .text:0000000000000130 .LVL45
     /tmp/ccPLxSG1.s:516    .text:0000000000000158 .LVL49
     /tmp/ccPLxSG1.s:537    .text:0000000000000174 .LVL54
     /tmp/ccPLxSG1.s:557    .text:0000000000000190 .LVL59
     /tmp/ccPLxSG1.s:3792   .debug_str:00000000000005e1 .LASF167
     /tmp/ccPLxSG1.s:247    .text._ZN2os14CircularBufferIP3TCBE6extendEv:0000000000000000 .LVL18
     /tmp/ccPLxSG1.s:263    .text._ZN2os14CircularBufferIP3TCBE6extendEv:0000000000000020 .LVL19
     /tmp/ccPLxSG1.s:334    .text._ZN2os14CircularBufferIP3TCBE6extendEv:00000000000000a0 .LVL30
     /tmp/ccPLxSG1.s:269    .text._ZN2os14CircularBufferIP3TCBE6extendEv:0000000000000030 .LVL21
     /tmp/ccPLxSG1.s:311    .text._ZN2os14CircularBufferIP3TCBE6extendEv:0000000000000074 .LVL28
     /tmp/ccPLxSG1.s:337    .text._ZN2os14CircularBufferIP3TCBE6extendEv:00000000000000a4 .LVL31
     /tmp/ccPLxSG1.s:276    .text._ZN2os14CircularBufferIP3TCBE6extendEv:0000000000000038 .LVL23
     /tmp/ccPLxSG1.s:296    .text._ZN2os14CircularBufferIP3TCBE6extendEv:0000000000000060 .LVL24
     /tmp/ccPLxSG1.s:306    .text._ZN2os14CircularBufferIP3TCBE6extendEv:0000000000000070 .LVL27
     /tmp/ccPLxSG1.s:273    .text._ZN2os14CircularBufferIP3TCBE6extendEv:0000000000000034 .LVL22
     /tmp/ccPLxSG1.s:299    .text._ZN2os14CircularBufferIP3TCBE6extendEv:0000000000000064 .LVL25
     /tmp/ccPLxSG1.s:304    .text._ZN2os14CircularBufferIP3TCBE6extendEv:000000000000006c .LVL26
     /tmp/ccPLxSG1.s:139    .text._ZN2os14CircularBufferIP3TCBE4peekEv:0000000000000000 .LVL9
     /tmp/ccPLxSG1.s:154    .text._ZN2os14CircularBufferIP3TCBE4peekEv:000000000000001c .LVL10
     /tmp/ccPLxSG1.s:15     .text._ZN2os14CircularBufferIP3TCBE3getEv:0000000000000000 .LVL0
     /tmp/ccPLxSG1.s:32     .text._ZN2os14CircularBufferIP3TCBE3getEv:0000000000000024 .LVL1
     /tmp/ccPLxSG1.s:352    .text._ZN2os14CircularBufferIP3TCBE3putES2_:0000000000000000 .LVL32
     /tmp/ccPLxSG1.s:373    .text._ZN2os14CircularBufferIP3TCBE3putES2_:000000000000002c .LVL33
     /tmp/ccPLxSG1.s:408    .text._ZN2os14CircularBufferIP3TCBE3putES2_:000000000000006c .LVL34
     /tmp/ccPLxSG1.s:415    .text._ZN2os14CircularBufferIP3TCBE3putES2_:0000000000000078 .LVL36
     /tmp/ccPLxSG1.s:411    .text._ZN2os14CircularBufferIP3TCBE3putES2_:0000000000000070 .LVL35
     /tmp/ccPLxSG1.s:181    .text:0000000000000080 .LVL11
GAS LISTING /tmp/ccPLxSG1.s 			page 26


     /tmp/ccPLxSG1.s:186    .text:0000000000000088 .LVL12
     /tmp/ccPLxSG1.s:211    .text:00000000000000b0 .LVL14
     /tmp/ccPLxSG1.s:216    .text:00000000000000b8 .LVL15
     /tmp/ccPLxSG1.s:74     .text:0000000000000010 .LVL2
     /tmp/ccPLxSG1.s:79     .text:0000000000000018 .LVL3
     /tmp/ccPLxSG1.s:85     .text:000000000000001c .LVL4
     /tmp/ccPLxSG1.s:90     .text:0000000000000024 .LVL5
     /tmp/ccPLxSG1.s:433    .text:00000000000000ec .LVL38
     /tmp/ccPLxSG1.s:484    .text:0000000000000128 .LVL44
     /tmp/ccPLxSG1.s:498    .text:0000000000000140 .LVL46
     /tmp/ccPLxSG1.s:514    .text:0000000000000150 .LVL48
     /tmp/ccPLxSG1.s:519    .text:000000000000015c .LVL50
     /tmp/ccPLxSG1.s:535    .text:000000000000016c .LVL53
     /tmp/ccPLxSG1.s:539    .text:0000000000000178 .LVL55
     /tmp/ccPLxSG1.s:555    .text:0000000000000188 .LVL58
     /tmp/ccPLxSG1.s:472    .text:0000000000000110 .LVL43
     /tmp/ccPLxSG1.s:527    .text:0000000000000160 .LVL51
     /tmp/ccPLxSG1.s:529    .text:0000000000000164 .LVL52
     /tmp/ccPLxSG1.s:547    .text:000000000000017c .LVL56
     /tmp/ccPLxSG1.s:549    .text:0000000000000180 .LVL57
     /tmp/ccPLxSG1.s:444    .text:0000000000000100 .LVL39
     /tmp/ccPLxSG1.s:451    .text:0000000000000104 .LVL40
     /tmp/ccPLxSG1.s:457    .text:0000000000000108 .LVL41
     /tmp/ccPLxSG1.s:463    .text:000000000000010c .LVL42
     /tmp/ccPLxSG1.s:508    .text:0000000000000148 .LVL47
     /tmp/ccPLxSG1.s:587    .debug_info:0000000000000000 .Ldebug_info0
     /tmp/ccPLxSG1.s:5      .text:0000000000000000 .Ltext0
     /tmp/ccPLxSG1.s:581    .text:0000000000000194 .Letext0

UNDEFINED SYMBOLS
_ZN9Allocator10_mem_allocEm
_ZN9Allocator9_mem_freeEPKv
