GAS LISTING /tmp/ccTgCEJt.s 			page 1


   1              		.file	"scheduler.cpp"
   2              		.option pic
   3              		.option norelax
   4              		.text
   5              	.Ltext0:
   6              		.align	2
   7              		.globl	_ZN9Scheduler9idle_bodyEv
   9              	_ZN9Scheduler9idle_bodyEv:
  10              	.LFB28:
  11              		.file 1 "src/scheduler.cpp"
   1:src/scheduler.cpp **** #include "../h/scheduler.hpp"
   2:src/scheduler.cpp **** #include "../h/c_thread.hpp"
   3:src/scheduler.cpp **** 
   4:src/scheduler.cpp **** TCB* Scheduler::idle_thread = nullptr;
   5:src/scheduler.cpp **** stm::CircularBuffer<TCB *> Scheduler::high_priority{};
   6:src/scheduler.cpp **** stm::CircularBuffer<TCB *> Scheduler::mid_priority{};
   7:src/scheduler.cpp **** stm::CircularBuffer<TCB *> Scheduler::low_priority{};
   8:src/scheduler.cpp **** 
   9:src/scheduler.cpp **** void Scheduler::put(TCB *thread) {
  10:src/scheduler.cpp ****     if (!Scheduler::idle_thread or thread == Scheduler::idle_thread) {
  11:src/scheduler.cpp ****         Scheduler::idle_thread = thread;
  12:src/scheduler.cpp ****         return;
  13:src/scheduler.cpp ****     }
  14:src/scheduler.cpp ****     if (!thread->was_preempted()) {
  15:src/scheduler.cpp ****         thread->set_time_slice(TimeSlice::HIGH_PRIORITY);
  16:src/scheduler.cpp ****         Scheduler::high_priority.put(thread);
  17:src/scheduler.cpp ****         return;
  18:src/scheduler.cpp ****     }
  19:src/scheduler.cpp ****     thread->reset_preempted();
  20:src/scheduler.cpp ****     time_t time_slice = thread->get_time_slice();
  21:src/scheduler.cpp ****     if (time_slice == TimeSlice::HIGH_PRIORITY) {
  22:src/scheduler.cpp ****         thread->set_time_slice(TimeSlice::MID_PRIORITY);
  23:src/scheduler.cpp ****         Scheduler::mid_priority.put(thread);
  24:src/scheduler.cpp ****     } else if (time_slice == TimeSlice::MID_PRIORITY) {
  25:src/scheduler.cpp ****         thread->set_time_slice(TimeSlice::LOW_PRIORITY);
  26:src/scheduler.cpp ****         Scheduler::low_priority.put(thread);
  27:src/scheduler.cpp ****     } else {
  28:src/scheduler.cpp ****         Scheduler::low_priority.put(thread);
  29:src/scheduler.cpp ****     }
  30:src/scheduler.cpp **** }
  31:src/scheduler.cpp **** 
  32:src/scheduler.cpp **** TCB *Scheduler::get() {
  33:src/scheduler.cpp ****     if (!Scheduler::high_priority.is_empty()) return Scheduler::high_priority.get();
  34:src/scheduler.cpp ****     if (!Scheduler::mid_priority.is_empty()) return Scheduler::mid_priority.get();
  35:src/scheduler.cpp ****     if (!Scheduler::low_priority.is_empty()) return Scheduler::low_priority.get();
  36:src/scheduler.cpp ****     return Scheduler::idle_thread;
  37:src/scheduler.cpp **** }
  38:src/scheduler.cpp **** 
  39:src/scheduler.cpp **** TCB *Scheduler::peek() {
  40:src/scheduler.cpp ****     if (!Scheduler::high_priority.is_empty()) return Scheduler::high_priority.peek();
  41:src/scheduler.cpp ****     if (!Scheduler::mid_priority.is_empty()) return Scheduler::mid_priority.peek();
  42:src/scheduler.cpp ****     if (!Scheduler::low_priority.is_empty()) return Scheduler::low_priority.peek();
  43:src/scheduler.cpp ****     return Scheduler::idle_thread;
  44:src/scheduler.cpp **** }
  45:src/scheduler.cpp **** 
  46:src/scheduler.cpp **** void Scheduler::idle_body() {
  12              		.loc 1 46 29
GAS LISTING /tmp/ccTgCEJt.s 			page 2


  13              		.cfi_startproc
  14 0000 130101FF 		addi	sp,sp,-16
  15              		.cfi_def_cfa_offset 16
  16 0004 23348100 		sd	s0,8(sp)
  17              		.cfi_offset 8, -8
  18 0008 13040101 		addi	s0,sp,16
  19              		.cfi_def_cfa 8, 0
  20              	.L2:
  47:src/scheduler.cpp ****     while (true);
  21              		.loc 1 47 5 discriminator 1
  22              		.loc 1 47 5 discriminator 1
  23 000c 6F000000 		j	.L2
  24              		.cfi_endproc
  25              	.LFE28:
  27              		.section	.text._ZN3stm14CircularBufferIP3TCBE3getEv,"axG",@progbits,_ZN3stm14CircularBufferIP3TCBE
  28              		.align	2
  29              		.weak	_ZN3stm14CircularBufferIP3TCBE3getEv
  31              	_ZN3stm14CircularBufferIP3TCBE3getEv:
  32              	.LFB32:
  33              		.file 2 "src/../h/circular_buffer.hpp"
   1:src/../h/circular_buffer.hpp **** #ifndef PROJECT_BASE_CIRCULAR_BUFFER_HPP
   2:src/../h/circular_buffer.hpp **** #define PROJECT_BASE_CIRCULAR_BUFFER_HPP
   3:src/../h/circular_buffer.hpp **** 
   4:src/../h/circular_buffer.hpp **** #include "syscall_c.hpp"
   5:src/../h/circular_buffer.hpp **** #include "c_memory.hpp"
   6:src/../h/circular_buffer.hpp **** 
   7:src/../h/circular_buffer.hpp **** namespace stm {
   8:src/../h/circular_buffer.hpp ****     template<typename T>
   9:src/../h/circular_buffer.hpp ****     class CircularBuffer {
  10:src/../h/circular_buffer.hpp ****     public:
  11:src/../h/circular_buffer.hpp **** 
  12:src/../h/circular_buffer.hpp ****         void init();
  13:src/../h/circular_buffer.hpp **** 
  14:src/../h/circular_buffer.hpp ****         void put(T);
  15:src/../h/circular_buffer.hpp **** 
  16:src/../h/circular_buffer.hpp ****         T get();
  17:src/../h/circular_buffer.hpp **** 
  18:src/../h/circular_buffer.hpp ****         T &peek();
  19:src/../h/circular_buffer.hpp **** 
  20:src/../h/circular_buffer.hpp ****         inline bool is_empty() const { return this->size == 0; }
  21:src/../h/circular_buffer.hpp **** 
  22:src/../h/circular_buffer.hpp ****         void destroy();
  23:src/../h/circular_buffer.hpp **** 
  24:src/../h/circular_buffer.hpp ****     private:
  25:src/../h/circular_buffer.hpp **** 
  26:src/../h/circular_buffer.hpp ****         void extend();
  27:src/../h/circular_buffer.hpp **** 
  28:src/../h/circular_buffer.hpp ****         static int constexpr CAPACITY = 16;
  29:src/../h/circular_buffer.hpp ****         T *queue;
  30:src/../h/circular_buffer.hpp ****         int head;
  31:src/../h/circular_buffer.hpp ****         int tail;
  32:src/../h/circular_buffer.hpp ****         int size;
  33:src/../h/circular_buffer.hpp ****         int capacity;
  34:src/../h/circular_buffer.hpp ****     };
  35:src/../h/circular_buffer.hpp **** }
  36:src/../h/circular_buffer.hpp **** 
  37:src/../h/circular_buffer.hpp **** template<typename T>
GAS LISTING /tmp/ccTgCEJt.s 			page 3


  38:src/../h/circular_buffer.hpp **** void stm::CircularBuffer<T>::init() {
  39:src/../h/circular_buffer.hpp ****     this->head = 0;
  40:src/../h/circular_buffer.hpp ****     this->tail = 0;
  41:src/../h/circular_buffer.hpp ****     this->size = 0;
  42:src/../h/circular_buffer.hpp ****     this->capacity = CAPACITY;
  43:src/../h/circular_buffer.hpp ****     this->queue = (T *) mem_alloc(sizeof(T) * CAPACITY);
  44:src/../h/circular_buffer.hpp **** }
  45:src/../h/circular_buffer.hpp **** 
  46:src/../h/circular_buffer.hpp **** template<typename T>
  47:src/../h/circular_buffer.hpp **** void stm::CircularBuffer<T>::put(T element) {
  48:src/../h/circular_buffer.hpp ****     if (this->size == this->capacity) {
  49:src/../h/circular_buffer.hpp ****         this->extend();
  50:src/../h/circular_buffer.hpp ****     }
  51:src/../h/circular_buffer.hpp ****     this->queue[this->tail] = element;
  52:src/../h/circular_buffer.hpp ****     this->tail = (this->tail + 1) % this->capacity;
  53:src/../h/circular_buffer.hpp ****     this->size++;
  54:src/../h/circular_buffer.hpp **** }
  55:src/../h/circular_buffer.hpp **** 
  56:src/../h/circular_buffer.hpp **** template<typename T>
  57:src/../h/circular_buffer.hpp **** T stm::CircularBuffer<T>::get() {
  34              		.loc 2 57 3
  35              		.cfi_startproc
  36              	.LVL0:
  37 0000 130101FF 		addi	sp,sp,-16
  38              		.cfi_def_cfa_offset 16
  39 0004 23348100 		sd	s0,8(sp)
  40              		.cfi_offset 8, -8
  41 0008 13040101 		addi	s0,sp,16
  42              		.cfi_def_cfa 8, 0
  43 000c 93070500 		mv	a5,a0
  58:src/../h/circular_buffer.hpp ****     T ret = this->queue[this->head];
  44              		.loc 2 58 19 is_stmt 0
  45 0010 83360500 		ld	a3,0(a0)
  46              		.loc 2 58 31
  47 0014 03278500 		lw	a4,8(a0)
  48              		.loc 2 58 24
  49 0018 13163700 		slli	a2,a4,3
  50 001c B386C600 		add	a3,a3,a2
  51              		.loc 2 58 7
  52 0020 03B50600 		ld	a0,0(a3)
  53              	.LVL1:
  59:src/../h/circular_buffer.hpp ****     this->head = (this->head + 1) % this->capacity;
  54              		.loc 2 59 30
  55 0024 1B071700 		addiw	a4,a4,1
  56              		.loc 2 59 43
  57 0028 83A64701 		lw	a3,20(a5)
  58              		.loc 2 59 35
  59 002c 3B67D702 		remw	a4,a4,a3
  60              		.loc 2 59 5
  61 0030 23A4E700 		sw	a4,8(a5)
  60:src/../h/circular_buffer.hpp ****     this->size--;
  62              		.loc 2 60 11
  63 0034 03A70701 		lw	a4,16(a5)
  64              		.loc 2 60 5
  65 0038 1B07F7FF 		addiw	a4,a4,-1
  66 003c 23A8E700 		sw	a4,16(a5)
  61:src/../h/circular_buffer.hpp ****     return ret;
GAS LISTING /tmp/ccTgCEJt.s 			page 4


  62:src/../h/circular_buffer.hpp **** }
  67              		.loc 2 62 1
  68 0040 03348100 		ld	s0,8(sp)
  69              		.cfi_restore 8
  70              		.cfi_def_cfa 2, 16
  71 0044 13010101 		addi	sp,sp,16
  72              		.cfi_def_cfa_offset 0
  73 0048 67800000 		jr	ra
  74              		.cfi_endproc
  75              	.LFE32:
  77              		.text
  78              		.align	2
  79              		.globl	_ZN9Scheduler3getEv
  81              	_ZN9Scheduler3getEv:
  82              	.LFB26:
  32:src/scheduler.cpp ****     if (!Scheduler::high_priority.is_empty()) return Scheduler::high_priority.get();
  83              		.loc 1 32 23 is_stmt 1
  84              		.cfi_startproc
  85 0010 130101FF 		addi	sp,sp,-16
  86              		.cfi_def_cfa_offset 16
  87 0014 23341100 		sd	ra,8(sp)
  88 0018 23308100 		sd	s0,0(sp)
  89              		.cfi_offset 1, -8
  90              		.cfi_offset 8, -16
  91 001c 13040101 		addi	s0,sp,16
  92              		.cfi_def_cfa 8, 0
  33:src/scheduler.cpp ****     if (!Scheduler::mid_priority.is_empty()) return Scheduler::mid_priority.get();
  93              		.loc 1 33 5
  94              	.LVL2:
  95              	.LBB26:
  96              	.LBB27:
  20:src/../h/circular_buffer.hpp **** 
  97              		.loc 2 20 53 is_stmt 0
  98 0020 97070000 		lw	a5,.LANCHOR0+16
  98      83A70700 
  99              	.LVL3:
 100              	.LBE27:
 101              	.LBE26:
  33:src/scheduler.cpp ****     if (!Scheduler::mid_priority.is_empty()) return Scheduler::mid_priority.get();
 102              		.loc 1 33 5
 103 0028 63940702 		bnez	a5,.L12
  34:src/scheduler.cpp ****     if (!Scheduler::low_priority.is_empty()) return Scheduler::low_priority.get();
 104              		.loc 1 34 5 is_stmt 1
 105              	.LVL4:
 106              	.LBB28:
 107              	.LBB29:
  20:src/../h/circular_buffer.hpp **** 
 108              		.loc 2 20 53 is_stmt 0
 109 002c 97070000 		lw	a5,.LANCHOR0+40
 109      83A70700 
 110              	.LVL5:
 111              	.LBE29:
 112              	.LBE28:
  34:src/scheduler.cpp ****     if (!Scheduler::low_priority.is_empty()) return Scheduler::low_priority.get();
 113              		.loc 1 34 5
 114 0034 639E0702 		bnez	a5,.L13
  35:src/scheduler.cpp ****     return Scheduler::idle_thread;
GAS LISTING /tmp/ccTgCEJt.s 			page 5


 115              		.loc 1 35 5 is_stmt 1
 116              	.LVL6:
 117              	.LBB30:
 118              	.LBB31:
  20:src/../h/circular_buffer.hpp **** 
 119              		.loc 2 20 53 is_stmt 0
 120 0038 97070000 		lw	a5,.LANCHOR0+64
 120      83A70700 
 121              	.LVL7:
 122              	.LBE31:
 123              	.LBE30:
  35:src/scheduler.cpp ****     return Scheduler::idle_thread;
 124              		.loc 1 35 5
 125 0040 63920704 		bnez	a5,.L14
  36:src/scheduler.cpp **** }
 126              		.loc 1 36 5 is_stmt 1
  36:src/scheduler.cpp **** }
 127              		.loc 1 36 23 is_stmt 0
 128 0044 17050000 		ld	a0,.LANCHOR0+72
 128      03350500 
 129 004c 6F004001 		j	.L6
 130              	.L12:
  33:src/scheduler.cpp ****     if (!Scheduler::mid_priority.is_empty()) return Scheduler::mid_priority.get();
 131              		.loc 1 33 47 is_stmt 1 discriminator 1
  33:src/scheduler.cpp ****     if (!Scheduler::mid_priority.is_empty()) return Scheduler::mid_priority.get();
 132              		.loc 1 33 82 is_stmt 0 discriminator 1
 133 0050 17050000 		lla	a0,.LANCHOR0
 133      13050500 
 134 0058 97000000 		call	_ZN3stm14CircularBufferIP3TCBE3getEv
 134      E7800000 
 135              	.LVL8:
 136              	.L6:
  37:src/scheduler.cpp **** 
 137              		.loc 1 37 1
 138 0060 83308100 		ld	ra,8(sp)
 139              		.cfi_remember_state
 140              		.cfi_restore 1
 141 0064 03340100 		ld	s0,0(sp)
 142              		.cfi_restore 8
 143              		.cfi_def_cfa 2, 16
 144 0068 13010101 		addi	sp,sp,16
 145              		.cfi_def_cfa_offset 0
 146 006c 67800000 		jr	ra
 147              	.L13:
 148              		.cfi_restore_state
  34:src/scheduler.cpp ****     if (!Scheduler::low_priority.is_empty()) return Scheduler::low_priority.get();
 149              		.loc 1 34 46 is_stmt 1 discriminator 1
  34:src/scheduler.cpp ****     if (!Scheduler::low_priority.is_empty()) return Scheduler::low_priority.get();
 150              		.loc 1 34 80 is_stmt 0 discriminator 1
 151 0070 17050000 		lla	a0,.LANCHOR0+24
 151      13050500 
 152 0078 97000000 		call	_ZN3stm14CircularBufferIP3TCBE3getEv
 152      E7800000 
 153              	.LVL9:
  34:src/scheduler.cpp ****     if (!Scheduler::low_priority.is_empty()) return Scheduler::low_priority.get();
 154              		.loc 1 34 81 discriminator 1
 155 0080 6FF01FFE 		j	.L6
GAS LISTING /tmp/ccTgCEJt.s 			page 6


 156              	.L14:
  35:src/scheduler.cpp ****     return Scheduler::idle_thread;
 157              		.loc 1 35 46 is_stmt 1 discriminator 1
  35:src/scheduler.cpp ****     return Scheduler::idle_thread;
 158              		.loc 1 35 80 is_stmt 0 discriminator 1
 159 0084 17050000 		lla	a0,.LANCHOR0+48
 159      13050500 
 160 008c 97000000 		call	_ZN3stm14CircularBufferIP3TCBE3getEv
 160      E7800000 
 161              	.LVL10:
  35:src/scheduler.cpp ****     return Scheduler::idle_thread;
 162              		.loc 1 35 81 discriminator 1
 163 0094 6FF0DFFC 		j	.L6
 164              		.cfi_endproc
 165              	.LFE26:
 167              		.section	.text._ZN3stm14CircularBufferIP3TCBE4peekEv,"axG",@progbits,_ZN3stm14CircularBufferIP3TCB
 168              		.align	2
 169              		.weak	_ZN3stm14CircularBufferIP3TCBE4peekEv
 171              	_ZN3stm14CircularBufferIP3TCBE4peekEv:
 172              	.LFB33:
  63:src/../h/circular_buffer.hpp **** 
  64:src/../h/circular_buffer.hpp **** template<typename T>
  65:src/../h/circular_buffer.hpp **** T &stm::CircularBuffer<T>::peek() {
 173              		.loc 2 65 4 is_stmt 1
 174              		.cfi_startproc
 175              	.LVL11:
 176 0000 130101FF 		addi	sp,sp,-16
 177              		.cfi_def_cfa_offset 16
 178 0004 23348100 		sd	s0,8(sp)
 179              		.cfi_offset 8, -8
 180 0008 13040101 		addi	s0,sp,16
 181              		.cfi_def_cfa 8, 0
  66:src/../h/circular_buffer.hpp ****     return this->queue[this->head];
 182              		.loc 2 66 18 is_stmt 0
 183 000c 03370500 		ld	a4,0(a0)
 184              		.loc 2 66 30
 185 0010 83278500 		lw	a5,8(a0)
 186              		.loc 2 66 23
 187 0014 93973700 		slli	a5,a5,3
  67:src/../h/circular_buffer.hpp **** }
 188              		.loc 2 67 1
 189 0018 3305F700 		add	a0,a4,a5
 190              	.LVL12:
 191 001c 03348100 		ld	s0,8(sp)
 192              		.cfi_restore 8
 193              		.cfi_def_cfa 2, 16
 194 0020 13010101 		addi	sp,sp,16
 195              		.cfi_def_cfa_offset 0
 196 0024 67800000 		jr	ra
 197              		.cfi_endproc
 198              	.LFE33:
 200              		.text
 201              		.align	2
 202              		.globl	_ZN9Scheduler4peekEv
 204              	_ZN9Scheduler4peekEv:
 205              	.LFB27:
  39:src/scheduler.cpp ****     if (!Scheduler::high_priority.is_empty()) return Scheduler::high_priority.peek();
GAS LISTING /tmp/ccTgCEJt.s 			page 7


 206              		.loc 1 39 24 is_stmt 1
 207              		.cfi_startproc
 208 0098 130101FF 		addi	sp,sp,-16
 209              		.cfi_def_cfa_offset 16
 210 009c 23341100 		sd	ra,8(sp)
 211 00a0 23308100 		sd	s0,0(sp)
 212              		.cfi_offset 1, -8
 213              		.cfi_offset 8, -16
 214 00a4 13040101 		addi	s0,sp,16
 215              		.cfi_def_cfa 8, 0
  40:src/scheduler.cpp ****     if (!Scheduler::mid_priority.is_empty()) return Scheduler::mid_priority.peek();
 216              		.loc 1 40 5
 217              	.LVL13:
 218              	.LBB32:
 219              	.LBB33:
  20:src/../h/circular_buffer.hpp **** 
 220              		.loc 2 20 53 is_stmt 0
 221 00a8 97070000 		lw	a5,.LANCHOR0+16
 221      83A70700 
 222              	.LVL14:
 223              	.LBE33:
 224              	.LBE32:
  40:src/scheduler.cpp ****     if (!Scheduler::mid_priority.is_empty()) return Scheduler::mid_priority.peek();
 225              		.loc 1 40 5
 226 00b0 63840702 		beqz	a5,.L18
  40:src/scheduler.cpp ****     if (!Scheduler::mid_priority.is_empty()) return Scheduler::mid_priority.peek();
 227              		.loc 1 40 47 is_stmt 1 discriminator 1
  40:src/scheduler.cpp ****     if (!Scheduler::mid_priority.is_empty()) return Scheduler::mid_priority.peek();
 228              		.loc 1 40 84 is_stmt 0 discriminator 1
 229 00b4 17050000 		lla	a0,.LANCHOR0
 229      13050500 
 230 00bc 97000000 		call	_ZN3stm14CircularBufferIP3TCBE4peekEv
 230      E7800000 
 231              	.LVL15:
 232 00c4 03350500 		ld	a0,0(a0)
 233              	.L17:
  44:src/scheduler.cpp **** 
 234              		.loc 1 44 1
 235 00c8 83308100 		ld	ra,8(sp)
 236              		.cfi_remember_state
 237              		.cfi_restore 1
 238 00cc 03340100 		ld	s0,0(sp)
 239              		.cfi_restore 8
 240              		.cfi_def_cfa 2, 16
 241 00d0 13010101 		addi	sp,sp,16
 242              		.cfi_def_cfa_offset 0
 243 00d4 67800000 		jr	ra
 244              	.L18:
 245              		.cfi_restore_state
  41:src/scheduler.cpp ****     if (!Scheduler::low_priority.is_empty()) return Scheduler::low_priority.peek();
 246              		.loc 1 41 5 is_stmt 1
 247              	.LVL16:
 248              	.LBB34:
 249              	.LBB35:
  20:src/../h/circular_buffer.hpp **** 
 250              		.loc 2 20 53 is_stmt 0
 251 00d8 97070000 		lw	a5,.LANCHOR0+40
GAS LISTING /tmp/ccTgCEJt.s 			page 8


 251      83A70700 
 252              	.LVL17:
 253              	.LBE35:
 254              	.LBE34:
  41:src/scheduler.cpp ****     if (!Scheduler::low_priority.is_empty()) return Scheduler::low_priority.peek();
 255              		.loc 1 41 5
 256 00e0 638E0700 		beqz	a5,.L20
  41:src/scheduler.cpp ****     if (!Scheduler::low_priority.is_empty()) return Scheduler::low_priority.peek();
 257              		.loc 1 41 46 is_stmt 1 discriminator 1
  41:src/scheduler.cpp ****     if (!Scheduler::low_priority.is_empty()) return Scheduler::low_priority.peek();
 258              		.loc 1 41 82 is_stmt 0 discriminator 1
 259 00e4 17050000 		lla	a0,.LANCHOR0+24
 259      13050500 
 260 00ec 97000000 		call	_ZN3stm14CircularBufferIP3TCBE4peekEv
 260      E7800000 
 261              	.LVL18:
 262 00f4 03350500 		ld	a0,0(a0)
 263 00f8 6FF01FFD 		j	.L17
 264              	.L20:
  42:src/scheduler.cpp ****     return Scheduler::idle_thread;
 265              		.loc 1 42 5 is_stmt 1
 266              	.LVL19:
 267              	.LBB36:
 268              	.LBB37:
  20:src/../h/circular_buffer.hpp **** 
 269              		.loc 2 20 53 is_stmt 0
 270 00fc 97070000 		lw	a5,.LANCHOR0+64
 270      83A70700 
 271              	.LVL20:
 272              	.LBE37:
 273              	.LBE36:
  42:src/scheduler.cpp ****     return Scheduler::idle_thread;
 274              		.loc 1 42 5
 275 0104 638E0700 		beqz	a5,.L21
  42:src/scheduler.cpp ****     return Scheduler::idle_thread;
 276              		.loc 1 42 46 is_stmt 1 discriminator 1
  42:src/scheduler.cpp ****     return Scheduler::idle_thread;
 277              		.loc 1 42 82 is_stmt 0 discriminator 1
 278 0108 17050000 		lla	a0,.LANCHOR0+48
 278      13050500 
 279 0110 97000000 		call	_ZN3stm14CircularBufferIP3TCBE4peekEv
 279      E7800000 
 280              	.LVL21:
 281 0118 03350500 		ld	a0,0(a0)
 282 011c 6FF0DFFA 		j	.L17
 283              	.L21:
  43:src/scheduler.cpp **** }
 284              		.loc 1 43 5 is_stmt 1
  43:src/scheduler.cpp **** }
 285              		.loc 1 43 23 is_stmt 0
 286 0120 17050000 		ld	a0,.LANCHOR0+72
 286      03350500 
 287 0128 6FF01FFA 		j	.L17
 288              		.cfi_endproc
 289              	.LFE27:
 291              		.section	.text._ZN3stm14CircularBufferIP3TCBE6extendEv,"axG",@progbits,_ZN3stm14CircularBufferIP3T
 292              		.align	2
GAS LISTING /tmp/ccTgCEJt.s 			page 9


 293              		.weak	_ZN3stm14CircularBufferIP3TCBE6extendEv
 295              	_ZN3stm14CircularBufferIP3TCBE6extendEv:
 296              	.LFB34:
  68:src/../h/circular_buffer.hpp **** 
  69:src/../h/circular_buffer.hpp **** template<typename T>
  70:src/../h/circular_buffer.hpp **** void stm::CircularBuffer<T>::extend() {
 297              		.loc 2 70 6 is_stmt 1
 298              		.cfi_startproc
 299              	.LVL22:
 300 0000 130101FE 		addi	sp,sp,-32
 301              		.cfi_def_cfa_offset 32
 302 0004 233C1100 		sd	ra,24(sp)
 303 0008 23388100 		sd	s0,16(sp)
 304 000c 23349100 		sd	s1,8(sp)
 305 0010 23302101 		sd	s2,0(sp)
 306              		.cfi_offset 1, -8
 307              		.cfi_offset 8, -16
 308              		.cfi_offset 9, -24
 309              		.cfi_offset 18, -32
 310 0014 13040102 		addi	s0,sp,32
 311              		.cfi_def_cfa 8, 0
 312 0018 93040500 		mv	s1,a0
  71:src/../h/circular_buffer.hpp ****     T *new_queue = (T *) mem_alloc(sizeof(T *) * this->capacity * 2);
 313              		.loc 2 71 56 is_stmt 0
 314 001c 03254501 		lw	a0,20(a0)
 315              	.LVL23:
 316              		.loc 2 71 35
 317 0020 13154500 		slli	a0,a0,4
 318 0024 97000000 		call	_Z9mem_allocm@plt
 318      E7800000 
 319              	.LVL24:
 320 002c 13090500 		mv	s2,a0
 321              	.LVL25:
 322              	.LBB38:
  72:src/../h/circular_buffer.hpp ****     for (int i = 0, j = this->head; i < this->capacity; i++, j = (j + 1) % this->capacity)
 323              		.loc 2 72 21
 324 0030 83A78400 		lw	a5,8(s1)
 325              	.LVL26:
 326              		.loc 2 72 14
 327 0034 13070000 		li	a4,0
 328              	.LVL27:
 329              	.L25:
 330              		.loc 2 72 39 is_stmt 1 discriminator 3
 331              		.loc 2 72 47 is_stmt 0 discriminator 3
 332 0038 83A64401 		lw	a3,20(s1)
 333              		.loc 2 72 39 discriminator 3
 334 003c 635AD702 		ble	a3,a4,.L24
  73:src/../h/circular_buffer.hpp ****         new_queue[i] = this->queue[j];
 335              		.loc 2 73 30 discriminator 2
 336 0040 03B60400 		ld	a2,0(s1)
 337              		.loc 2 73 18 discriminator 2
 338 0044 93163700 		slli	a3,a4,3
 339 0048 B306D900 		add	a3,s2,a3
 340              		.loc 2 73 35 discriminator 2
 341 004c 93953700 		slli	a1,a5,3
 342 0050 3306B600 		add	a2,a2,a1
 343 0054 03360600 		ld	a2,0(a2)
GAS LISTING /tmp/ccTgCEJt.s 			page 10


 344              		.loc 2 73 9 discriminator 2
 345 0058 23B0C600 		sd	a2,0(a3)
  72:src/../h/circular_buffer.hpp ****     for (int i = 0, j = this->head; i < this->capacity; i++, j = (j + 1) % this->capacity)
 346              		.loc 2 72 5 is_stmt 1 discriminator 2
 347 005c 1B071700 		addiw	a4,a4,1
 348              	.LVL28:
  72:src/../h/circular_buffer.hpp ****     for (int i = 0, j = this->head; i < this->capacity; i++, j = (j + 1) % this->capacity)
 349              		.loc 2 72 69 is_stmt 0 discriminator 2
 350 0060 9B871700 		addiw	a5,a5,1
 351              	.LVL29:
  72:src/../h/circular_buffer.hpp ****     for (int i = 0, j = this->head; i < this->capacity; i++, j = (j + 1) % this->capacity)
 352              		.loc 2 72 82 discriminator 2
 353 0064 83A64401 		lw	a3,20(s1)
  72:src/../h/circular_buffer.hpp ****     for (int i = 0, j = this->head; i < this->capacity; i++, j = (j + 1) % this->capacity)
 354              		.loc 2 72 5 discriminator 2
 355 0068 BBE7D702 		remw	a5,a5,a3
 356              	.LVL30:
 357 006c 6FF0DFFC 		j	.L25
 358              	.LVL31:
 359              	.L24:
 360              	.LBE38:
  74:src/../h/circular_buffer.hpp ****     mem_free(queue);
 361              		.loc 2 74 13
 362 0070 03B50400 		ld	a0,0(s1)
 363              	.LVL32:
 364 0074 97000000 		call	_Z8mem_freePv@plt
 364      E7800000 
 365              	.LVL33:
  75:src/../h/circular_buffer.hpp ****     this->queue = new_queue;
 366              		.loc 2 75 5
 367 007c 23B02401 		sd	s2,0(s1)
  76:src/../h/circular_buffer.hpp ****     this->head = 0;
 368              		.loc 2 76 5
 369 0080 23A40400 		sw	zero,8(s1)
  77:src/../h/circular_buffer.hpp ****     this->tail = this->capacity;
 370              		.loc 2 77 24
 371 0084 83A74401 		lw	a5,20(s1)
 372              		.loc 2 77 5
 373 0088 23A6F400 		sw	a5,12(s1)
  78:src/../h/circular_buffer.hpp ****     this->capacity *= 2;
 374              		.loc 2 78 20
 375 008c 9B971700 		slliw	a5,a5,1
 376              		.loc 2 78 5
 377 0090 23AAF400 		sw	a5,20(s1)
  79:src/../h/circular_buffer.hpp **** }
 378              		.loc 2 79 1
 379 0094 83308101 		ld	ra,24(sp)
 380              		.cfi_restore 1
 381 0098 03340101 		ld	s0,16(sp)
 382              		.cfi_restore 8
 383              		.cfi_def_cfa 2, 32
 384 009c 83348100 		ld	s1,8(sp)
 385              		.cfi_restore 9
 386              	.LVL34:
 387 00a0 03390100 		ld	s2,0(sp)
 388              		.cfi_restore 18
 389              	.LVL35:
GAS LISTING /tmp/ccTgCEJt.s 			page 11


 390 00a4 13010102 		addi	sp,sp,32
 391              		.cfi_def_cfa_offset 0
 392 00a8 67800000 		jr	ra
 393              		.cfi_endproc
 394              	.LFE34:
 396              		.section	.text._ZN3stm14CircularBufferIP3TCBE3putES2_,"axG",@progbits,_ZN3stm14CircularBufferIP3TC
 397              		.align	2
 398              		.weak	_ZN3stm14CircularBufferIP3TCBE3putES2_
 400              	_ZN3stm14CircularBufferIP3TCBE3putES2_:
 401              	.LFB31:
  47:src/../h/circular_buffer.hpp ****     if (this->size == this->capacity) {
 402              		.loc 2 47 6 is_stmt 1
 403              		.cfi_startproc
 404              	.LVL36:
 405 0000 130101FE 		addi	sp,sp,-32
 406              		.cfi_def_cfa_offset 32
 407 0004 233C1100 		sd	ra,24(sp)
 408 0008 23388100 		sd	s0,16(sp)
 409 000c 23349100 		sd	s1,8(sp)
 410 0010 23302101 		sd	s2,0(sp)
 411              		.cfi_offset 1, -8
 412              		.cfi_offset 8, -16
 413              		.cfi_offset 9, -24
 414              		.cfi_offset 18, -32
 415 0014 13040102 		addi	s0,sp,32
 416              		.cfi_def_cfa 8, 0
 417 0018 93040500 		mv	s1,a0
 418 001c 13890500 		mv	s2,a1
  48:src/../h/circular_buffer.hpp ****         this->extend();
 419              		.loc 2 48 15 is_stmt 0
 420 0020 03270501 		lw	a4,16(a0)
  48:src/../h/circular_buffer.hpp ****         this->extend();
 421              		.loc 2 48 29
 422 0024 83274501 		lw	a5,20(a0)
  48:src/../h/circular_buffer.hpp ****         this->extend();
 423              		.loc 2 48 5
 424 0028 6308F704 		beq	a4,a5,.L30
 425              	.LVL37:
 426              	.L28:
  51:src/../h/circular_buffer.hpp ****     this->tail = (this->tail + 1) % this->capacity;
 427              		.loc 2 51 11
 428 002c 83B70400 		ld	a5,0(s1)
  51:src/../h/circular_buffer.hpp ****     this->tail = (this->tail + 1) % this->capacity;
 429              		.loc 2 51 23
 430 0030 03A7C400 		lw	a4,12(s1)
  51:src/../h/circular_buffer.hpp ****     this->tail = (this->tail + 1) % this->capacity;
 431              		.loc 2 51 16
 432 0034 13173700 		slli	a4,a4,3
 433 0038 B387E700 		add	a5,a5,a4
  51:src/../h/circular_buffer.hpp ****     this->tail = (this->tail + 1) % this->capacity;
 434              		.loc 2 51 5
 435 003c 23B02701 		sd	s2,0(a5)
  52:src/../h/circular_buffer.hpp ****     this->size++;
 436              		.loc 2 52 25
 437 0040 83A7C400 		lw	a5,12(s1)
  52:src/../h/circular_buffer.hpp ****     this->size++;
 438              		.loc 2 52 30
GAS LISTING /tmp/ccTgCEJt.s 			page 12


 439 0044 9B871700 		addiw	a5,a5,1
  52:src/../h/circular_buffer.hpp ****     this->size++;
 440              		.loc 2 52 43
 441 0048 03A74401 		lw	a4,20(s1)
  52:src/../h/circular_buffer.hpp ****     this->size++;
 442              		.loc 2 52 35
 443 004c BBE7E702 		remw	a5,a5,a4
  52:src/../h/circular_buffer.hpp ****     this->size++;
 444              		.loc 2 52 5
 445 0050 23A6F400 		sw	a5,12(s1)
  53:src/../h/circular_buffer.hpp **** }
 446              		.loc 2 53 11
 447 0054 83A70401 		lw	a5,16(s1)
  53:src/../h/circular_buffer.hpp **** }
 448              		.loc 2 53 5
 449 0058 9B871700 		addiw	a5,a5,1
 450 005c 23A8F400 		sw	a5,16(s1)
  54:src/../h/circular_buffer.hpp **** 
 451              		.loc 2 54 1
 452 0060 83308101 		ld	ra,24(sp)
 453              		.cfi_remember_state
 454              		.cfi_restore 1
 455 0064 03340101 		ld	s0,16(sp)
 456              		.cfi_restore 8
 457              		.cfi_def_cfa 2, 32
 458 0068 83348100 		ld	s1,8(sp)
 459              		.cfi_restore 9
 460              	.LVL38:
 461 006c 03390100 		ld	s2,0(sp)
 462              		.cfi_restore 18
 463              	.LVL39:
 464 0070 13010102 		addi	sp,sp,32
 465              		.cfi_def_cfa_offset 0
 466 0074 67800000 		jr	ra
 467              	.LVL40:
 468              	.L30:
 469              		.cfi_restore_state
  49:src/../h/circular_buffer.hpp ****     }
 470              		.loc 2 49 9
 471 0078 97000000 		call	_ZN3stm14CircularBufferIP3TCBE6extendEv
 471      E7800000 
 472              	.LVL41:
 473 0080 6FF0DFFA 		j	.L28
 474              		.cfi_endproc
 475              	.LFE31:
 477              		.text
 478              		.align	2
 479              		.globl	_ZN9Scheduler3putEP3TCB
 481              	_ZN9Scheduler3putEP3TCB:
 482              	.LFB25:
   9:src/scheduler.cpp ****     if (!Scheduler::idle_thread or thread == Scheduler::idle_thread) {
 483              		.loc 1 9 34 is_stmt 1
 484              		.cfi_startproc
 485              	.LVL42:
 486 012c 93050500 		mv	a1,a0
  10:src/scheduler.cpp ****         Scheduler::idle_thread = thread;
 487              		.loc 1 10 5
GAS LISTING /tmp/ccTgCEJt.s 			page 13


  10:src/scheduler.cpp ****         Scheduler::idle_thread = thread;
 488              		.loc 1 10 9 is_stmt 0
 489 0130 97070000 		ld	a5,.LANCHOR0+72
 489      83B70700 
  10:src/scheduler.cpp ****         Scheduler::idle_thread = thread;
 490              		.loc 1 10 5
 491 0138 638C0704 		beqz	a5,.L32
  10:src/scheduler.cpp ****         Scheduler::idle_thread = thread;
 492              		.loc 1 10 33 discriminator 1
 493 013c 638AA704 		beq	a5,a0,.L32
   9:src/scheduler.cpp ****     if (!Scheduler::idle_thread or thread == Scheduler::idle_thread) {
 494              		.loc 1 9 34
 495 0140 130101FF 		addi	sp,sp,-16
 496              		.cfi_def_cfa_offset 16
 497 0144 23341100 		sd	ra,8(sp)
 498 0148 23308100 		sd	s0,0(sp)
 499              		.cfi_offset 1, -8
 500              		.cfi_offset 8, -16
 501 014c 13040101 		addi	s0,sp,16
 502              		.cfi_def_cfa 8, 0
  14:src/scheduler.cpp ****         thread->set_time_slice(TimeSlice::HIGH_PRIORITY);
 503              		.loc 1 14 5 is_stmt 1
 504              	.LVL43:
 505              	.LBB39:
 506              	.LBB40:
 507              		.file 3 "src/../h/c_thread.hpp"
   1:src/../h/c_thread.hpp **** #ifndef PROJECT_BASE_C_THREAD_HPP
   2:src/../h/c_thread.hpp **** #define PROJECT_BASE_C_THREAD_HPP
   3:src/../h/c_thread.hpp **** 
   4:src/../h/c_thread.hpp **** #include "syscall_c.hpp"
   5:src/../h/c_thread.hpp **** #include "../lib/hw.h"
   6:src/../h/c_thread.hpp **** #include "circular_buffer.hpp"
   7:src/../h/c_thread.hpp **** 
   8:src/../h/c_thread.hpp **** using run_t = void (*)(void *);
   9:src/../h/c_thread.hpp **** 
  10:src/../h/c_thread.hpp **** struct Context {
  11:src/../h/c_thread.hpp ****     uint64 ra;
  12:src/../h/c_thread.hpp ****     uint64 sp;
  13:src/../h/c_thread.hpp ****     uint64 sstatus;
  14:src/../h/c_thread.hpp ****     uint64 sepc;
  15:src/../h/c_thread.hpp **** };
  16:src/../h/c_thread.hpp **** 
  17:src/../h/c_thread.hpp **** enum Status {
  18:src/../h/c_thread.hpp ****     RUNNABLE, BLOCKED, SLEEPING, JOINED, FINISHED
  19:src/../h/c_thread.hpp **** };
  20:src/../h/c_thread.hpp **** 
  21:src/../h/c_thread.hpp **** class TCB final {
  22:src/../h/c_thread.hpp **** public:
  23:src/../h/c_thread.hpp ****     static int _thread_create(thread_t *, void(*)(void *), void *, char *);
  24:src/../h/c_thread.hpp **** 
  25:src/../h/c_thread.hpp ****     static void _thread_exit();
  26:src/../h/c_thread.hpp **** 
  27:src/../h/c_thread.hpp ****     static void _thread_dispatch();
  28:src/../h/c_thread.hpp **** 
  29:src/../h/c_thread.hpp ****     static void _thread_join(thread_t);
  30:src/../h/c_thread.hpp **** 
  31:src/../h/c_thread.hpp ****     static void _thread_join_time(thread_t, time_t);
GAS LISTING /tmp/ccTgCEJt.s 			page 14


  32:src/../h/c_thread.hpp **** 
  33:src/../h/c_thread.hpp ****     static int _fork();
  34:src/../h/c_thread.hpp **** 
  35:src/../h/c_thread.hpp ****     static int _kill(TCB *);
  36:src/../h/c_thread.hpp **** 
  37:src/../h/c_thread.hpp ****     static void thread_start();
  38:src/../h/c_thread.hpp **** 
  39:src/../h/c_thread.hpp ****     static void fork_wrapper();
  40:src/../h/c_thread.hpp **** 
  41:src/../h/c_thread.hpp ****     static void context_switch(Context *, Context *);
  42:src/../h/c_thread.hpp **** 
  43:src/../h/c_thread.hpp ****     static void context_inherit(Context *);
  44:src/../h/c_thread.hpp **** 
  45:src/../h/c_thread.hpp ****     static TCB *destroy_thread(TCB *);
  46:src/../h/c_thread.hpp **** 
  47:src/../h/c_thread.hpp ****     static void duplicate(TCB *, TCB *);
  48:src/../h/c_thread.hpp **** 
  49:src/../h/c_thread.hpp ****     TCB(run_t, void *, void *, Context);
  50:src/../h/c_thread.hpp **** 
  51:src/../h/c_thread.hpp ****     TCB(TCB &);
  52:src/../h/c_thread.hpp **** 
  53:src/../h/c_thread.hpp ****     bool is_runnable() const { return this->status == RUNNABLE; }
  54:src/../h/c_thread.hpp **** 
  55:src/../h/c_thread.hpp ****     bool is_blocked() const { return this->status == BLOCKED; }
  56:src/../h/c_thread.hpp **** 
  57:src/../h/c_thread.hpp ****     bool is_sleeping() const { return this->status == SLEEPING; }
  58:src/../h/c_thread.hpp **** 
  59:src/../h/c_thread.hpp ****     bool is_joined() const { return this->status == JOINED; }
  60:src/../h/c_thread.hpp **** 
  61:src/../h/c_thread.hpp ****     bool is_finished() const { return this->status == FINISHED; }
  62:src/../h/c_thread.hpp **** 
  63:src/../h/c_thread.hpp ****     void run() { this->status = RUNNABLE; }
  64:src/../h/c_thread.hpp **** 
  65:src/../h/c_thread.hpp ****     void block() { this->status = BLOCKED; }
  66:src/../h/c_thread.hpp **** 
  67:src/../h/c_thread.hpp ****     void sleep() { this->status = SLEEPING; }
  68:src/../h/c_thread.hpp **** 
  69:src/../h/c_thread.hpp ****     void enjoin() { this->status = JOINED; }
  70:src/../h/c_thread.hpp **** 
  71:src/../h/c_thread.hpp ****     void finish() { this->status = FINISHED; }
  72:src/../h/c_thread.hpp **** 
  73:src/../h/c_thread.hpp ****     bool was_preempted() const { return this->preempted; }
 508              		.loc 3 73 34
 509              		.loc 3 73 47 is_stmt 0
 510 0150 83470506 		lbu	a5,96(a0)
 511              	.LVL44:
 512              	.LBE40:
 513              	.LBE39:
  14:src/scheduler.cpp ****         thread->set_time_slice(TimeSlice::HIGH_PRIORITY);
 514              		.loc 1 14 5
 515 0154 63840704 		beqz	a5,.L41
  19:src/scheduler.cpp ****     time_t time_slice = thread->get_time_slice();
 516              		.loc 1 19 5 is_stmt 1
 517              	.LVL45:
 518              	.LBB41:
 519              	.LBB42:
  74:src/../h/c_thread.hpp **** 
GAS LISTING /tmp/ccTgCEJt.s 			page 15


  75:src/../h/c_thread.hpp ****     void set_preempted() { this->preempted = true; }
  76:src/../h/c_thread.hpp **** 
  77:src/../h/c_thread.hpp ****     void reset_preempted() { this->preempted = false; }
 520              		.loc 3 77 30
 521              		.loc 3 77 46 is_stmt 0
 522 0158 23000506 		sb	zero,96(a0)
 523              	.LVL46:
 524              	.LBE42:
 525              	.LBE41:
  20:src/scheduler.cpp ****     if (time_slice == TimeSlice::HIGH_PRIORITY) {
 526              		.loc 1 20 5 is_stmt 1
 527              	.LBB43:
 528              	.LBB44:
  78:src/../h/c_thread.hpp **** 
  79:src/../h/c_thread.hpp ****     time_t get_time_slice() const { return this->time_slice; }
 529              		.loc 3 79 37
 530              		.loc 3 79 50 is_stmt 0
 531 015c 83378505 		ld	a5,88(a0)
 532              	.LVL47:
 533              	.LBE44:
 534              	.LBE43:
  21:src/scheduler.cpp ****         thread->set_time_slice(TimeSlice::MID_PRIORITY);
 535              		.loc 1 21 5 is_stmt 1
 536 0160 13071000 		li	a4,1
 537 0164 638AE704 		beq	a5,a4,.L42
  24:src/scheduler.cpp ****         thread->set_time_slice(TimeSlice::LOW_PRIORITY);
 538              		.loc 1 24 12
 539 0168 13072000 		li	a4,2
 540 016c 6384E706 		beq	a5,a4,.L43
  28:src/scheduler.cpp ****     }
 541              		.loc 1 28 9
  28:src/scheduler.cpp ****     }
 542              		.loc 1 28 36 is_stmt 0
 543 0170 17050000 		lla	a0,.LANCHOR0+48
 543      13050500 
 544              	.LVL48:
 545 0178 97000000 		call	_ZN3stm14CircularBufferIP3TCBE3putES2_
 545      E7800000 
 546              	.LVL49:
 547              	.L31:
  30:src/scheduler.cpp **** 
 548              		.loc 1 30 1
 549 0180 83308100 		ld	ra,8(sp)
 550              		.cfi_restore 1
 551 0184 03340100 		ld	s0,0(sp)
 552              		.cfi_restore 8
 553              		.cfi_def_cfa 2, 16
 554 0188 13010101 		addi	sp,sp,16
 555              		.cfi_def_cfa_offset 0
 556 018c 67800000 		jr	ra
 557              	.LVL50:
 558              	.L32:
  11:src/scheduler.cpp ****         return;
 559              		.loc 1 11 9 is_stmt 1
  11:src/scheduler.cpp ****         return;
 560              		.loc 1 11 32 is_stmt 0
 561 0190 97070000 		sd	a1,.LANCHOR0+72,a5
GAS LISTING /tmp/ccTgCEJt.s 			page 16


 561      23B0B700 
  12:src/scheduler.cpp ****     }
 562              		.loc 1 12 9 is_stmt 1
 563 0198 67800000 		ret
 564              	.L41:
 565              		.cfi_def_cfa_register 8
 566              		.cfi_offset 1, -8
 567              		.cfi_offset 8, -16
  15:src/scheduler.cpp ****         Scheduler::high_priority.put(thread);
 568              		.loc 1 15 9
 569              	.LVL51:
 570              	.LBB45:
 571              	.LBB46:
  80:src/../h/c_thread.hpp **** 
  81:src/../h/c_thread.hpp ****     void set_time_slice(time_t time) { this->time_slice = time; }
 572              		.loc 3 81 40
 573              		.loc 3 81 57 is_stmt 0
 574 019c 93071000 		li	a5,1
 575 01a0 233CF504 		sd	a5,88(a0)
 576              	.LVL52:
 577              	.LBE46:
 578              	.LBE45:
  16:src/scheduler.cpp ****         return;
 579              		.loc 1 16 9 is_stmt 1
  16:src/scheduler.cpp ****         return;
 580              		.loc 1 16 37 is_stmt 0
 581 01a4 17050000 		lla	a0,.LANCHOR0
 581      13050500 
 582              	.LVL53:
 583 01ac 97000000 		call	_ZN3stm14CircularBufferIP3TCBE3putES2_
 583      E7800000 
 584              	.LVL54:
  17:src/scheduler.cpp ****     }
 585              		.loc 1 17 9 is_stmt 1
 586 01b4 6FF0DFFC 		j	.L31
 587              	.LVL55:
 588              	.L42:
  22:src/scheduler.cpp ****         Scheduler::mid_priority.put(thread);
 589              		.loc 1 22 9
 590              	.LBB47:
 591              	.LBB48:
 592              		.loc 3 81 40
 593              		.loc 3 81 57 is_stmt 0
 594 01b8 93072000 		li	a5,2
 595              	.LVL56:
 596 01bc 233CF504 		sd	a5,88(a0)
 597              	.LVL57:
 598              	.LBE48:
 599              	.LBE47:
  23:src/scheduler.cpp ****     } else if (time_slice == TimeSlice::MID_PRIORITY) {
 600              		.loc 1 23 9 is_stmt 1
  23:src/scheduler.cpp ****     } else if (time_slice == TimeSlice::MID_PRIORITY) {
 601              		.loc 1 23 36 is_stmt 0
 602 01c0 17050000 		lla	a0,.LANCHOR0+24
 602      13050500 
 603              	.LVL58:
 604 01c8 97000000 		call	_ZN3stm14CircularBufferIP3TCBE3putES2_
GAS LISTING /tmp/ccTgCEJt.s 			page 17


 604      E7800000 
 605              	.LVL59:
 606 01d0 6FF01FFB 		j	.L31
 607              	.LVL60:
 608              	.L43:
  25:src/scheduler.cpp ****         Scheduler::low_priority.put(thread);
 609              		.loc 1 25 9 is_stmt 1
 610              	.LBB49:
 611              	.LBB50:
 612              		.loc 3 81 40
 613              		.loc 3 81 57 is_stmt 0
 614 01d4 93074000 		li	a5,4
 615              	.LVL61:
 616 01d8 233CF504 		sd	a5,88(a0)
 617              	.LVL62:
 618              	.LBE50:
 619              	.LBE49:
  26:src/scheduler.cpp ****     } else {
 620              		.loc 1 26 9 is_stmt 1
  26:src/scheduler.cpp ****     } else {
 621              		.loc 1 26 36 is_stmt 0
 622 01dc 17050000 		lla	a0,.LANCHOR0+48
 622      13050500 
 623              	.LVL63:
 624 01e4 97000000 		call	_ZN3stm14CircularBufferIP3TCBE3putES2_
 624      E7800000 
 625              	.LVL64:
 626 01ec 6FF05FF9 		j	.L31
 627              		.cfi_endproc
 628              	.LFE25:
 630              		.globl	_ZN9Scheduler12low_priorityE
 631              		.globl	_ZN9Scheduler12mid_priorityE
 632              		.globl	_ZN9Scheduler13high_priorityE
 633              		.globl	_ZN9Scheduler11idle_threadE
 634              		.bss
 635              		.align	3
 636              		.set	.LANCHOR0,. + 0
 639              	_ZN9Scheduler13high_priorityE:
 640 0000 00000000 		.zero	24
 640      00000000 
 640      00000000 
 640      00000000 
 640      00000000 
 643              	_ZN9Scheduler12mid_priorityE:
 644 0018 00000000 		.zero	24
 644      00000000 
 644      00000000 
 644      00000000 
 644      00000000 
 647              	_ZN9Scheduler12low_priorityE:
 648 0030 00000000 		.zero	24
 648      00000000 
 648      00000000 
 648      00000000 
 648      00000000 
 651              	_ZN9Scheduler11idle_threadE:
 652 0048 00000000 		.zero	8
GAS LISTING /tmp/ccTgCEJt.s 			page 18


 652      00000000 
 653              		.text
 654              	.Letext0:
 655              		.file 4 "src/../h/../lib/hw.h"
 656              		.file 5 "src/../h/syscall_c.hpp"
 657              		.file 6 "src/../h/scheduler.hpp"
GAS LISTING /tmp/ccTgCEJt.s 			page 19

