GAS LISTING /tmp/cc0RRPuc.s 			page 1


   1              		.file	"syscall_cpp.cpp"
   2              		.option pic
   3              		.option norelax
   4              		.text
   5              	.Ltext0:
   6              		.section	.text._ZN6Thread3runEv,"axG",@progbits,_ZN6Thread3runEv,comdat
   7              		.align	2
   8              		.weak	_ZN6Thread3runEv
  10              	_ZN6Thread3runEv:
  11              	.LFB0:
  12              		.file 1 "src/../h/syscall_cpp.hpp"
   1:src/../h/syscall_cpp.hpp **** #ifndef _syscall_cpp
   2:src/../h/syscall_cpp.hpp **** #define _syscall_cpp
   3:src/../h/syscall_cpp.hpp **** 
   4:src/../h/syscall_cpp.hpp **** #include "../lib/hw.h"
   5:src/../h/syscall_cpp.hpp **** #include "syscall_c.hpp"
   6:src/../h/syscall_cpp.hpp **** 
   7:src/../h/syscall_cpp.hpp **** void *operator new(size_t);
   8:src/../h/syscall_cpp.hpp **** 
   9:src/../h/syscall_cpp.hpp **** void operator delete(void *);
  10:src/../h/syscall_cpp.hpp **** 
  11:src/../h/syscall_cpp.hpp **** 
  12:src/../h/syscall_cpp.hpp **** class Thread {
  13:src/../h/syscall_cpp.hpp **** public:
  14:src/../h/syscall_cpp.hpp ****     Thread(void (*body)(void *), void *arg);
  15:src/../h/syscall_cpp.hpp **** 
  16:src/../h/syscall_cpp.hpp ****     virtual ~Thread();
  17:src/../h/syscall_cpp.hpp **** 
  18:src/../h/syscall_cpp.hpp ****     int start();
  19:src/../h/syscall_cpp.hpp **** 
  20:src/../h/syscall_cpp.hpp ****     void join();
  21:src/../h/syscall_cpp.hpp **** 
  22:src/../h/syscall_cpp.hpp ****     void join(time_t);
  23:src/../h/syscall_cpp.hpp **** 
  24:src/../h/syscall_cpp.hpp ****     static int kill(Thread *);
  25:src/../h/syscall_cpp.hpp **** 
  26:src/../h/syscall_cpp.hpp ****     static void dispatch();
  27:src/../h/syscall_cpp.hpp **** 
  28:src/../h/syscall_cpp.hpp ****     static int sleep(time_t);
  29:src/../h/syscall_cpp.hpp **** 
  30:src/../h/syscall_cpp.hpp ****     static void threadStart(void *);
  31:src/../h/syscall_cpp.hpp **** 
  32:src/../h/syscall_cpp.hpp **** protected:
  33:src/../h/syscall_cpp.hpp ****     Thread();
  34:src/../h/syscall_cpp.hpp **** 
  35:src/../h/syscall_cpp.hpp ****     virtual void run() {}
  13              		.loc 1 35 18
  14              		.cfi_startproc
  15              	.LVL0:
  16 0000 130101FF 		addi	sp,sp,-16
  17              		.cfi_def_cfa_offset 16
  18 0004 23348100 		sd	s0,8(sp)
  19              		.cfi_offset 8, -8
  20 0008 13040101 		addi	s0,sp,16
  21              		.cfi_def_cfa 8, 0
  22              		.loc 1 35 25 is_stmt 0
  23 000c 03348100 		ld	s0,8(sp)
GAS LISTING /tmp/cc0RRPuc.s 			page 2


  24              		.cfi_restore 8
  25              		.cfi_def_cfa 2, 16
  26 0010 13010101 		addi	sp,sp,16
  27              		.cfi_def_cfa_offset 0
  28 0014 67800000 		jr	ra
  29              		.cfi_endproc
  30              	.LFE0:
  32              		.section	.text._ZN14PeriodicThread18periodicActivationEv,"axG",@progbits,_ZN14PeriodicThread18peri
  33              		.align	2
  34              		.weak	_ZN14PeriodicThread18periodicActivationEv
  36              	_ZN14PeriodicThread18periodicActivationEv:
  37              	.LFB4:
  36:src/../h/syscall_cpp.hpp **** 
  37:src/../h/syscall_cpp.hpp **** private:
  38:src/../h/syscall_cpp.hpp ****     thread_t myHandle;
  39:src/../h/syscall_cpp.hpp **** 
  40:src/../h/syscall_cpp.hpp ****     void (*body)(void *);
  41:src/../h/syscall_cpp.hpp **** 
  42:src/../h/syscall_cpp.hpp ****     void *arg;
  43:src/../h/syscall_cpp.hpp **** };
  44:src/../h/syscall_cpp.hpp **** 
  45:src/../h/syscall_cpp.hpp **** 
  46:src/../h/syscall_cpp.hpp **** class Semaphore {
  47:src/../h/syscall_cpp.hpp **** public:
  48:src/../h/syscall_cpp.hpp **** 
  49:src/../h/syscall_cpp.hpp ****     explicit Semaphore(unsigned init);
  50:src/../h/syscall_cpp.hpp **** 
  51:src/../h/syscall_cpp.hpp ****     virtual ~Semaphore();
  52:src/../h/syscall_cpp.hpp **** 
  53:src/../h/syscall_cpp.hpp ****     virtual int wait();
  54:src/../h/syscall_cpp.hpp **** 
  55:src/../h/syscall_cpp.hpp ****     virtual int signal();
  56:src/../h/syscall_cpp.hpp **** 
  57:src/../h/syscall_cpp.hpp ****     static int signal_and_wait(Semaphore &sem1, Semaphore &sem2);
  58:src/../h/syscall_cpp.hpp **** 
  59:src/../h/syscall_cpp.hpp **** protected:
  60:src/../h/syscall_cpp.hpp ****     sem_t myHandle;
  61:src/../h/syscall_cpp.hpp **** 
  62:src/../h/syscall_cpp.hpp **** };
  63:src/../h/syscall_cpp.hpp **** 
  64:src/../h/syscall_cpp.hpp **** class Mutex : public Semaphore {
  65:src/../h/syscall_cpp.hpp **** public:
  66:src/../h/syscall_cpp.hpp ****     Mutex() : Semaphore(1) {}
  67:src/../h/syscall_cpp.hpp **** };
  68:src/../h/syscall_cpp.hpp **** 
  69:src/../h/syscall_cpp.hpp **** 
  70:src/../h/syscall_cpp.hpp **** class PeriodicThread : public Thread {
  71:src/../h/syscall_cpp.hpp **** public:
  72:src/../h/syscall_cpp.hpp ****     void terminate();
  73:src/../h/syscall_cpp.hpp **** 
  74:src/../h/syscall_cpp.hpp **** protected:
  75:src/../h/syscall_cpp.hpp ****     explicit PeriodicThread(time_t period);
  76:src/../h/syscall_cpp.hpp **** 
  77:src/../h/syscall_cpp.hpp ****     virtual void periodicActivation() {}
  38              		.loc 1 77 18 is_stmt 1
  39              		.cfi_startproc
  40              	.LVL1:
GAS LISTING /tmp/cc0RRPuc.s 			page 3


  41 0000 130101FF 		addi	sp,sp,-16
  42              		.cfi_def_cfa_offset 16
  43 0004 23348100 		sd	s0,8(sp)
  44              		.cfi_offset 8, -8
  45 0008 13040101 		addi	s0,sp,16
  46              		.cfi_def_cfa 8, 0
  47              		.loc 1 77 40 is_stmt 0
  48 000c 03348100 		ld	s0,8(sp)
  49              		.cfi_restore 8
  50              		.cfi_def_cfa 2, 16
  51 0010 13010101 		addi	sp,sp,16
  52              		.cfi_def_cfa_offset 0
  53 0014 67800000 		jr	ra
  54              		.cfi_endproc
  55              	.LFE4:
  57              		.text
  58              		.align	2
  59              		.globl	_ZN6Thread11threadStartEPv
  61              	_ZN6Thread11threadStartEPv:
  62              	.LFB51:
  63              		.file 2 "src/syscall_cpp.cpp"
   1:src/syscall_cpp.cpp **** //
   2:src/syscall_cpp.cpp **** // Created by os on 5/27/23.
   3:src/syscall_cpp.cpp **** //
   4:src/syscall_cpp.cpp **** 
   5:src/syscall_cpp.cpp **** #include "../h/syscall_cpp.hpp"
   6:src/syscall_cpp.cpp **** #include "../h/c_thread.hpp"
   7:src/syscall_cpp.cpp **** 
   8:src/syscall_cpp.cpp **** void *operator new(size_t size) {
   9:src/syscall_cpp.cpp ****     return mem_alloc(size);
  10:src/syscall_cpp.cpp **** }
  11:src/syscall_cpp.cpp **** 
  12:src/syscall_cpp.cpp **** void *operator new[](size_t size) {
  13:src/syscall_cpp.cpp ****     return mem_alloc(size);
  14:src/syscall_cpp.cpp **** }
  15:src/syscall_cpp.cpp **** 
  16:src/syscall_cpp.cpp **** void operator delete(void *mem) {
  17:src/syscall_cpp.cpp ****     mem_free(mem);
  18:src/syscall_cpp.cpp **** }
  19:src/syscall_cpp.cpp **** 
  20:src/syscall_cpp.cpp **** void operator delete[](void *mem) {
  21:src/syscall_cpp.cpp ****     mem_free(mem);
  22:src/syscall_cpp.cpp **** }
  23:src/syscall_cpp.cpp **** 
  24:src/syscall_cpp.cpp **** Thread::Thread(void (*body)(void *), void *arg) {
  25:src/syscall_cpp.cpp ****     this->body = body;
  26:src/syscall_cpp.cpp ****     this->arg = arg;
  27:src/syscall_cpp.cpp **** }
  28:src/syscall_cpp.cpp **** 
  29:src/syscall_cpp.cpp **** Thread::~Thread() {
  30:src/syscall_cpp.cpp ****     if (myHandle->is_finished())
  31:src/syscall_cpp.cpp ****         delete myHandle;
  32:src/syscall_cpp.cpp **** }
  33:src/syscall_cpp.cpp **** 
  34:src/syscall_cpp.cpp **** int Thread::start() {
  35:src/syscall_cpp.cpp ****     return thread_create(&myHandle, &threadStart, this);
  36:src/syscall_cpp.cpp **** }
GAS LISTING /tmp/cc0RRPuc.s 			page 4


  37:src/syscall_cpp.cpp **** 
  38:src/syscall_cpp.cpp **** void Thread::join() {
  39:src/syscall_cpp.cpp ****     thread_join(myHandle);
  40:src/syscall_cpp.cpp **** }
  41:src/syscall_cpp.cpp **** 
  42:src/syscall_cpp.cpp **** void Thread::join(time_t time) {
  43:src/syscall_cpp.cpp ****     thread_join(myHandle, time);
  44:src/syscall_cpp.cpp **** }
  45:src/syscall_cpp.cpp **** 
  46:src/syscall_cpp.cpp **** int Thread::kill(Thread *thread) {
  47:src/syscall_cpp.cpp ****     return thread_kill(thread->myHandle);
  48:src/syscall_cpp.cpp **** }
  49:src/syscall_cpp.cpp **** 
  50:src/syscall_cpp.cpp **** void Thread::dispatch() {
  51:src/syscall_cpp.cpp ****     thread_dispatch();
  52:src/syscall_cpp.cpp **** }
  53:src/syscall_cpp.cpp **** 
  54:src/syscall_cpp.cpp **** int Thread::sleep(time_t ms) {
  55:src/syscall_cpp.cpp ****     return time_sleep(ms);
  56:src/syscall_cpp.cpp **** }
  57:src/syscall_cpp.cpp **** 
  58:src/syscall_cpp.cpp **** Thread::Thread() {
  59:src/syscall_cpp.cpp ****     this->body = nullptr;
  60:src/syscall_cpp.cpp ****     this->arg = nullptr;
  61:src/syscall_cpp.cpp **** }
  62:src/syscall_cpp.cpp **** 
  63:src/syscall_cpp.cpp **** void Thread::threadStart(void *arg) {
  64              		.loc 2 63 37 is_stmt 1
  65              		.cfi_startproc
  66              	.LVL2:
  67 0000 130101FF 		addi	sp,sp,-16
  68              		.cfi_def_cfa_offset 16
  69 0004 23341100 		sd	ra,8(sp)
  70 0008 23308100 		sd	s0,0(sp)
  71              		.cfi_offset 1, -8
  72              		.cfi_offset 8, -16
  73 000c 13040101 		addi	s0,sp,16
  74              		.cfi_def_cfa 8, 0
  64:src/syscall_cpp.cpp ****     Thread *thread = (Thread *) arg;
  75              		.loc 2 64 5
  76              	.LVL3:
  65:src/syscall_cpp.cpp ****     if (thread->body) {
  77              		.loc 2 65 5
  78              		.loc 2 65 17 is_stmt 0
  79 0010 83370501 		ld	a5,16(a0)
  80              		.loc 2 65 5
  81 0014 638E0700 		beqz	a5,.L6
  66:src/syscall_cpp.cpp ****         thread->body(thread->arg);
  82              		.loc 2 66 9 is_stmt 1
  83              		.loc 2 66 21 is_stmt 0
  84 0018 03358501 		ld	a0,24(a0)
  85              	.LVL4:
  86 001c E7800700 		jalr	a5
  87              	.LVL5:
  88              	.L5:
  67:src/syscall_cpp.cpp ****     } else {
  68:src/syscall_cpp.cpp ****         thread->run();
GAS LISTING /tmp/cc0RRPuc.s 			page 5


  69:src/syscall_cpp.cpp ****     }
  70:src/syscall_cpp.cpp **** }
  89              		.loc 2 70 1
  90 0020 83308100 		ld	ra,8(sp)
  91              		.cfi_remember_state
  92              		.cfi_restore 1
  93 0024 03340100 		ld	s0,0(sp)
  94              		.cfi_restore 8
  95              		.cfi_def_cfa 2, 16
  96 0028 13010101 		addi	sp,sp,16
  97              		.cfi_def_cfa_offset 0
  98 002c 67800000 		jr	ra
  99              	.LVL6:
 100              	.L6:
 101              		.cfi_restore_state
  68:src/syscall_cpp.cpp ****     }
 102              		.loc 2 68 9 is_stmt 1
  68:src/syscall_cpp.cpp ****     }
 103              		.loc 2 68 21 is_stmt 0
 104 0030 83370500 		ld	a5,0(a0)
 105 0034 83B70701 		ld	a5,16(a5)
  68:src/syscall_cpp.cpp ****     }
 106              		.loc 2 68 20
 107 0038 E7800700 		jalr	a5
 108              	.LVL7:
 109              		.loc 2 70 1
 110 003c 6FF05FFE 		j	.L5
 111              		.cfi_endproc
 112              	.LFE51:
 114              		.align	2
 115              		.globl	_ZN6ThreadD2Ev
 117              	_ZN6ThreadD2Ev:
 118              	.LFB39:
  29:src/syscall_cpp.cpp ****     if (myHandle->is_finished())
 119              		.loc 2 29 1 is_stmt 1
 120              		.cfi_startproc
 121              		.cfi_personality 0x9b,DW.ref.__gxx_personality_v0
 122              		.cfi_lsda 0x1b,.LLSDA39
 123              	.LVL8:
 124              	.LBB10:
  29:src/syscall_cpp.cpp ****     if (myHandle->is_finished())
 125              		.loc 2 29 17 is_stmt 0
 126 0040 97070000 		lla	a5,_ZTV6Thread+16
 126      93870700 
 127 0048 2330F500 		sd	a5,0(a0)
  30:src/syscall_cpp.cpp ****         delete myHandle;
 128              		.loc 2 30 5 is_stmt 1
  30:src/syscall_cpp.cpp ****         delete myHandle;
 129              		.loc 2 30 9 is_stmt 0
 130 004c 03358500 		ld	a0,8(a0)
 131              	.LVL9:
 132              	.LBB11:
 133              	.LBB12:
 134              		.file 3 "src/../h/c_thread.hpp"
   1:src/../h/c_thread.hpp **** #ifndef PROJECT_BASE_C_THREAD_HPP
   2:src/../h/c_thread.hpp **** #define PROJECT_BASE_C_THREAD_HPP
   3:src/../h/c_thread.hpp **** 
GAS LISTING /tmp/cc0RRPuc.s 			page 6


   4:src/../h/c_thread.hpp **** #include "syscall_c.hpp"
   5:src/../h/c_thread.hpp **** #include "../lib/hw.h"
   6:src/../h/c_thread.hpp **** #include "circular_buffer.hpp"
   7:src/../h/c_thread.hpp **** 
   8:src/../h/c_thread.hpp **** using run_t = void (*)(void *);
   9:src/../h/c_thread.hpp **** 
  10:src/../h/c_thread.hpp **** struct Context {
  11:src/../h/c_thread.hpp ****     uint64 ra;
  12:src/../h/c_thread.hpp ****     uint64 sp;
  13:src/../h/c_thread.hpp ****     uint64 sstatus;
  14:src/../h/c_thread.hpp ****     uint64 sepc;
  15:src/../h/c_thread.hpp **** };
  16:src/../h/c_thread.hpp **** 
  17:src/../h/c_thread.hpp **** enum Status {
  18:src/../h/c_thread.hpp ****     RUNNABLE, BLOCKED, SLEEPING, JOINED, FINISHED
  19:src/../h/c_thread.hpp **** };
  20:src/../h/c_thread.hpp **** 
  21:src/../h/c_thread.hpp **** class TCB final {
  22:src/../h/c_thread.hpp **** public:
  23:src/../h/c_thread.hpp ****     static int _thread_create(thread_t *, void(*)(void *), void *, void *);
  24:src/../h/c_thread.hpp **** 
  25:src/../h/c_thread.hpp ****     static void _thread_exit();
  26:src/../h/c_thread.hpp **** 
  27:src/../h/c_thread.hpp ****     static void _thread_dispatch();
  28:src/../h/c_thread.hpp **** 
  29:src/../h/c_thread.hpp ****     static void _thread_join(thread_t);
  30:src/../h/c_thread.hpp **** 
  31:src/../h/c_thread.hpp ****     static void _thread_join(thread_t, time_t);
  32:src/../h/c_thread.hpp **** 
  33:src/../h/c_thread.hpp ****     static int _fork();
  34:src/../h/c_thread.hpp **** 
  35:src/../h/c_thread.hpp ****     static int _kill(TCB *);
  36:src/../h/c_thread.hpp **** 
  37:src/../h/c_thread.hpp ****     static void thread_start();
  38:src/../h/c_thread.hpp **** 
  39:src/../h/c_thread.hpp ****     static void context_switch(Context *, Context *);
  40:src/../h/c_thread.hpp **** 
  41:src/../h/c_thread.hpp ****     static void yield();
  42:src/../h/c_thread.hpp **** 
  43:src/../h/c_thread.hpp ****     static TCB *destroy_thread(TCB *);
  44:src/../h/c_thread.hpp **** 
  45:src/../h/c_thread.hpp ****     static void duplicate(TCB *, TCB *);
  46:src/../h/c_thread.hpp **** 
  47:src/../h/c_thread.hpp ****     void *operator new(size_t size) { return Allocator::_mem_alloc(size); }
  48:src/../h/c_thread.hpp **** 
  49:src/../h/c_thread.hpp ****     void operator delete(void *pointer) { Allocator::_mem_free(pointer); }
  50:src/../h/c_thread.hpp **** 
  51:src/../h/c_thread.hpp ****     void *operator new[](size_t size) { return Allocator::_mem_alloc(size); }
  52:src/../h/c_thread.hpp **** 
  53:src/../h/c_thread.hpp ****     void operator delete[](void *pointer) { Allocator::_mem_free(pointer); }
  54:src/../h/c_thread.hpp **** 
  55:src/../h/c_thread.hpp ****     TCB(run_t, void *, void *, Context);
  56:src/../h/c_thread.hpp **** 
  57:src/../h/c_thread.hpp ****     TCB(TCB &);
  58:src/../h/c_thread.hpp **** 
  59:src/../h/c_thread.hpp ****     bool is_runnable() const { return this->status == RUNNABLE; }
  60:src/../h/c_thread.hpp **** 
GAS LISTING /tmp/cc0RRPuc.s 			page 7


  61:src/../h/c_thread.hpp ****     bool is_blocked() const { return this->status == BLOCKED; }
  62:src/../h/c_thread.hpp **** 
  63:src/../h/c_thread.hpp ****     bool is_sleeping() const { return this->status == SLEEPING; }
  64:src/../h/c_thread.hpp **** 
  65:src/../h/c_thread.hpp ****     bool is_joined() const { return this->status == JOINED; }
  66:src/../h/c_thread.hpp **** 
  67:src/../h/c_thread.hpp ****     bool is_finished() const { return this->status == FINISHED; }
 135              		.loc 3 67 32 is_stmt 1
 136              		.loc 3 67 45 is_stmt 0
 137 0050 03278504 		lw	a4,72(a0)
 138              	.LVL10:
 139              	.LBE12:
 140              	.LBE11:
  30:src/syscall_cpp.cpp ****         delete myHandle;
 141              		.loc 2 30 5
 142 0054 93074000 		li	a5,4
 143 0058 6304F700 		beq	a4,a5,.L15
 144              	.L12:
 145 005c 67800000 		ret
 146              	.L15:
  31:src/syscall_cpp.cpp **** }
 147              		.loc 2 31 9 is_stmt 1
  31:src/syscall_cpp.cpp **** }
 148              		.loc 2 31 24 is_stmt 0
 149 0060 E30E05FE 		beqz	a0,.L12
 150              	.LBE10:
  29:src/syscall_cpp.cpp ****     if (myHandle->is_finished())
 151              		.loc 2 29 1 discriminator 1
 152 0064 130101FF 		addi	sp,sp,-16
 153              		.cfi_def_cfa_offset 16
 154 0068 23341100 		sd	ra,8(sp)
 155 006c 23308100 		sd	s0,0(sp)
 156              		.cfi_offset 1, -8
 157              		.cfi_offset 8, -16
 158 0070 13040101 		addi	s0,sp,16
 159              		.cfi_def_cfa 8, 0
 160              	.LVL11:
 161              	.LBB15:
 162              	.LBB13:
 163              	.LBB14:
  49:src/../h/c_thread.hpp **** 
 164              		.loc 3 49 43 is_stmt 1 discriminator 1
  49:src/../h/c_thread.hpp **** 
 165              		.loc 3 49 63 is_stmt 0 discriminator 1
 166 0074 97000000 		call	_ZN9Allocator9_mem_freeEPKv@plt
 166      E7800000 
 167              	.LVL12:
 168              	.LBE14:
 169              	.LBE13:
 170              	.LBE15:
  32:src/syscall_cpp.cpp **** 
 171              		.loc 2 32 1 discriminator 1
 172 007c 83308100 		ld	ra,8(sp)
 173              		.cfi_restore 1
 174 0080 03340100 		ld	s0,0(sp)
 175              		.cfi_restore 8
 176              		.cfi_def_cfa 2, 16
GAS LISTING /tmp/cc0RRPuc.s 			page 8


 177 0084 13010101 		addi	sp,sp,16
 178              		.cfi_def_cfa_offset 0
 179 0088 67800000 		jr	ra
 180              		.cfi_endproc
 181              	.LFE39:
 182              		.globl	__gxx_personality_v0
 183              		.section	.gcc_except_table,"a",@progbits
 184              	.LLSDA39:
 185 0000 FF       		.byte	0xff
 186 0001 FF       		.byte	0xff
 187 0002 03       		.byte	0x3
 188 0003 00       		.byte	0
 189              		.text
 191              		.globl	_ZN6ThreadD1Ev
 192              		.set	_ZN6ThreadD1Ev,_ZN6ThreadD2Ev
 193              		.section	.text._ZN14PeriodicThreadD2Ev,"axG",@progbits,_ZN14PeriodicThreadD5Ev,comdat
 194              		.align	2
 195              		.weak	_ZN14PeriodicThreadD2Ev
 197              	_ZN14PeriodicThreadD2Ev:
 198              	.LFB69:
  70:src/../h/syscall_cpp.hpp **** public:
 199              		.loc 1 70 7 is_stmt 1
 200              		.cfi_startproc
 201              	.LVL13:
 202 0000 130101FF 		addi	sp,sp,-16
 203              		.cfi_def_cfa_offset 16
 204 0004 23341100 		sd	ra,8(sp)
 205 0008 23308100 		sd	s0,0(sp)
 206              		.cfi_offset 1, -8
 207              		.cfi_offset 8, -16
 208 000c 13040101 		addi	s0,sp,16
 209              		.cfi_def_cfa 8, 0
 210              	.LBB16:
  70:src/../h/syscall_cpp.hpp **** public:
 211              		.loc 1 70 7 is_stmt 0
 212 0010 97070000 		lla	a5,_ZTV14PeriodicThread+16
 212      93870700 
 213 0018 2330F500 		sd	a5,0(a0)
 214 001c 97000000 		call	_ZN6ThreadD2Ev
 214      E7800000 
 215              	.LVL14:
 216              	.LBE16:
 217 0024 83308100 		ld	ra,8(sp)
 218              		.cfi_restore 1
 219 0028 03340100 		ld	s0,0(sp)
 220              		.cfi_restore 8
 221              		.cfi_def_cfa 2, 16
 222 002c 13010101 		addi	sp,sp,16
 223              		.cfi_def_cfa_offset 0
 224 0030 67800000 		jr	ra
 225              		.cfi_endproc
 226              	.LFE69:
 228              		.weak	_ZN14PeriodicThreadD1Ev
 229              		.set	_ZN14PeriodicThreadD1Ev,_ZN14PeriodicThreadD2Ev
 230              		.text
 231              		.align	2
 232              		.globl	_ZN9SemaphoreD2Ev
GAS LISTING /tmp/cc0RRPuc.s 			page 9


 234              	_ZN9SemaphoreD2Ev:
 235              	.LFB56:
  71:src/syscall_cpp.cpp **** 
  72:src/syscall_cpp.cpp **** 
  73:src/syscall_cpp.cpp **** Semaphore::Semaphore(unsigned int init) {
  74:src/syscall_cpp.cpp ****     sem_open(&myHandle, init);
  75:src/syscall_cpp.cpp **** }
  76:src/syscall_cpp.cpp **** 
  77:src/syscall_cpp.cpp **** Semaphore::~Semaphore() {
 236              		.loc 2 77 1 is_stmt 1
 237              		.cfi_startproc
 238              		.cfi_personality 0x9b,DW.ref.__gxx_personality_v0
 239              		.cfi_lsda 0x1b,.LLSDA56
 240              	.LVL15:
 241 008c 130101FF 		addi	sp,sp,-16
 242              		.cfi_def_cfa_offset 16
 243 0090 23341100 		sd	ra,8(sp)
 244 0094 23308100 		sd	s0,0(sp)
 245              		.cfi_offset 1, -8
 246              		.cfi_offset 8, -16
 247 0098 13040101 		addi	s0,sp,16
 248              		.cfi_def_cfa 8, 0
 249              	.LBB17:
 250              		.loc 2 77 23 is_stmt 0
 251 009c 97070000 		lla	a5,_ZTV9Semaphore+16
 251      93870700 
 252 00a4 2330F500 		sd	a5,0(a0)
  78:src/syscall_cpp.cpp ****     sem_close(myHandle);
 253              		.loc 2 78 5 is_stmt 1
 254              		.loc 2 78 14 is_stmt 0
 255 00a8 03358500 		ld	a0,8(a0)
 256              	.LVL16:
 257 00ac 97000000 		call	_Z9sem_closeP3Sem@plt
 257      E7800000 
 258              	.LVL17:
 259              	.LBE17:
  79:src/syscall_cpp.cpp **** }
 260              		.loc 2 79 1
 261 00b4 83308100 		ld	ra,8(sp)
 262              		.cfi_restore 1
 263 00b8 03340100 		ld	s0,0(sp)
 264              		.cfi_restore 8
 265              		.cfi_def_cfa 2, 16
 266 00bc 13010101 		addi	sp,sp,16
 267              		.cfi_def_cfa_offset 0
 268 00c0 67800000 		jr	ra
 269              		.cfi_endproc
 270              	.LFE56:
 271              		.section	.gcc_except_table
 272              	.LLSDA56:
 273 0004 FF       		.byte	0xff
 274 0005 FF       		.byte	0xff
 275 0006 03       		.byte	0x3
 276 0007 00       		.byte	0
 277              		.text
 279              		.globl	_ZN9SemaphoreD1Ev
 280              		.set	_ZN9SemaphoreD1Ev,_ZN9SemaphoreD2Ev
GAS LISTING /tmp/cc0RRPuc.s 			page 10


 281              		.align	2
 282              		.globl	_ZN9Semaphore4waitEv
 284              	_ZN9Semaphore4waitEv:
 285              	.LFB59:
  80:src/syscall_cpp.cpp **** 
  81:src/syscall_cpp.cpp **** int Semaphore::wait() {
 286              		.loc 2 81 23 is_stmt 1
 287              		.cfi_startproc
 288              	.LVL18:
 289 00c4 130101FF 		addi	sp,sp,-16
 290              		.cfi_def_cfa_offset 16
 291 00c8 23341100 		sd	ra,8(sp)
 292 00cc 23308100 		sd	s0,0(sp)
 293              		.cfi_offset 1, -8
 294              		.cfi_offset 8, -16
 295 00d0 13040101 		addi	s0,sp,16
 296              		.cfi_def_cfa 8, 0
  82:src/syscall_cpp.cpp ****     return sem_wait(myHandle);
 297              		.loc 2 82 5
 298              		.loc 2 82 20 is_stmt 0
 299 00d4 03358500 		ld	a0,8(a0)
 300              	.LVL19:
 301 00d8 97000000 		call	_Z8sem_waitP3Sem@plt
 301      E7800000 
 302              	.LVL20:
  83:src/syscall_cpp.cpp **** }
 303              		.loc 2 83 1
 304 00e0 83308100 		ld	ra,8(sp)
 305              		.cfi_restore 1
 306 00e4 03340100 		ld	s0,0(sp)
 307              		.cfi_restore 8
 308              		.cfi_def_cfa 2, 16
 309 00e8 13010101 		addi	sp,sp,16
 310              		.cfi_def_cfa_offset 0
 311 00ec 67800000 		jr	ra
 312              		.cfi_endproc
 313              	.LFE59:
 315              		.align	2
 316              		.globl	_ZN9Semaphore6signalEv
 318              	_ZN9Semaphore6signalEv:
 319              	.LFB60:
  84:src/syscall_cpp.cpp **** 
  85:src/syscall_cpp.cpp **** int Semaphore::signal() {
 320              		.loc 2 85 25 is_stmt 1
 321              		.cfi_startproc
 322              	.LVL21:
 323 00f0 130101FF 		addi	sp,sp,-16
 324              		.cfi_def_cfa_offset 16
 325 00f4 23341100 		sd	ra,8(sp)
 326 00f8 23308100 		sd	s0,0(sp)
 327              		.cfi_offset 1, -8
 328              		.cfi_offset 8, -16
 329 00fc 13040101 		addi	s0,sp,16
 330              		.cfi_def_cfa 8, 0
  86:src/syscall_cpp.cpp ****     return sem_signal(myHandle);
 331              		.loc 2 86 5
 332              		.loc 2 86 22 is_stmt 0
GAS LISTING /tmp/cc0RRPuc.s 			page 11


 333 0100 03358500 		ld	a0,8(a0)
 334              	.LVL22:
 335 0104 97000000 		call	_Z10sem_signalP3Sem@plt
 335      E7800000 
 336              	.LVL23:
  87:src/syscall_cpp.cpp **** }
 337              		.loc 2 87 1
 338 010c 83308100 		ld	ra,8(sp)
 339              		.cfi_restore 1
 340 0110 03340100 		ld	s0,0(sp)
 341              		.cfi_restore 8
 342              		.cfi_def_cfa 2, 16
 343 0114 13010101 		addi	sp,sp,16
 344              		.cfi_def_cfa_offset 0
 345 0118 67800000 		jr	ra
 346              		.cfi_endproc
 347              	.LFE60:
 349              		.align	2
 350              		.globl	_Znwm
 352              	_Znwm:
 353              	.LFB31:
   8:src/syscall_cpp.cpp ****     return mem_alloc(size);
 354              		.loc 2 8 33 is_stmt 1
 355              		.cfi_startproc
 356              	.LVL24:
 357 011c 130101FF 		addi	sp,sp,-16
 358              		.cfi_def_cfa_offset 16
 359 0120 23341100 		sd	ra,8(sp)
 360 0124 23308100 		sd	s0,0(sp)
 361              		.cfi_offset 1, -8
 362              		.cfi_offset 8, -16
 363 0128 13040101 		addi	s0,sp,16
 364              		.cfi_def_cfa 8, 0
   9:src/syscall_cpp.cpp **** }
 365              		.loc 2 9 5
   9:src/syscall_cpp.cpp **** }
 366              		.loc 2 9 21 is_stmt 0
 367 012c 97000000 		call	_Z9mem_allocm@plt
 367      E7800000 
 368              	.LVL25:
  10:src/syscall_cpp.cpp **** 
 369              		.loc 2 10 1
 370 0134 83308100 		ld	ra,8(sp)
 371              		.cfi_restore 1
 372 0138 03340100 		ld	s0,0(sp)
 373              		.cfi_restore 8
 374              		.cfi_def_cfa 2, 16
 375 013c 13010101 		addi	sp,sp,16
 376              		.cfi_def_cfa_offset 0
 377 0140 67800000 		jr	ra
 378              		.cfi_endproc
 379              	.LFE31:
 381              		.align	2
 382              		.globl	_Znam
 384              	_Znam:
 385              	.LFB32:
  12:src/syscall_cpp.cpp ****     return mem_alloc(size);
GAS LISTING /tmp/cc0RRPuc.s 			page 12


 386              		.loc 2 12 35 is_stmt 1
 387              		.cfi_startproc
 388              	.LVL26:
 389 0144 130101FF 		addi	sp,sp,-16
 390              		.cfi_def_cfa_offset 16
 391 0148 23341100 		sd	ra,8(sp)
 392 014c 23308100 		sd	s0,0(sp)
 393              		.cfi_offset 1, -8
 394              		.cfi_offset 8, -16
 395 0150 13040101 		addi	s0,sp,16
 396              		.cfi_def_cfa 8, 0
  13:src/syscall_cpp.cpp **** }
 397              		.loc 2 13 5
  13:src/syscall_cpp.cpp **** }
 398              		.loc 2 13 21 is_stmt 0
 399 0154 97000000 		call	_Z9mem_allocm@plt
 399      E7800000 
 400              	.LVL27:
  14:src/syscall_cpp.cpp **** 
 401              		.loc 2 14 1
 402 015c 83308100 		ld	ra,8(sp)
 403              		.cfi_restore 1
 404 0160 03340100 		ld	s0,0(sp)
 405              		.cfi_restore 8
 406              		.cfi_def_cfa 2, 16
 407 0164 13010101 		addi	sp,sp,16
 408              		.cfi_def_cfa_offset 0
 409 0168 67800000 		jr	ra
 410              		.cfi_endproc
 411              	.LFE32:
 413              		.align	2
 414              		.globl	_ZdlPv
 416              	_ZdlPv:
 417              	.LFB33:
  16:src/syscall_cpp.cpp ****     mem_free(mem);
 418              		.loc 2 16 33 is_stmt 1
 419              		.cfi_startproc
 420              	.LVL28:
 421 016c 130101FF 		addi	sp,sp,-16
 422              		.cfi_def_cfa_offset 16
 423 0170 23341100 		sd	ra,8(sp)
 424 0174 23308100 		sd	s0,0(sp)
 425              		.cfi_offset 1, -8
 426              		.cfi_offset 8, -16
 427 0178 13040101 		addi	s0,sp,16
 428              		.cfi_def_cfa 8, 0
  17:src/syscall_cpp.cpp **** }
 429              		.loc 2 17 5
  17:src/syscall_cpp.cpp **** }
 430              		.loc 2 17 13 is_stmt 0
 431 017c 97000000 		call	_Z8mem_freePv@plt
 431      E7800000 
 432              	.LVL29:
  18:src/syscall_cpp.cpp **** 
 433              		.loc 2 18 1
 434 0184 83308100 		ld	ra,8(sp)
 435              		.cfi_restore 1
GAS LISTING /tmp/cc0RRPuc.s 			page 13


 436 0188 03340100 		ld	s0,0(sp)
 437              		.cfi_restore 8
 438              		.cfi_def_cfa 2, 16
 439 018c 13010101 		addi	sp,sp,16
 440              		.cfi_def_cfa_offset 0
 441 0190 67800000 		jr	ra
 442              		.cfi_endproc
 443              	.LFE33:
 445              		.align	2
 446              		.globl	_ZN6ThreadD0Ev
 448              	_ZN6ThreadD0Ev:
 449              	.LFB41:
  29:src/syscall_cpp.cpp ****     if (myHandle->is_finished())
 450              		.loc 2 29 1 is_stmt 1
 451              		.cfi_startproc
 452              	.LVL30:
 453 0194 130101FE 		addi	sp,sp,-32
 454              		.cfi_def_cfa_offset 32
 455 0198 233C1100 		sd	ra,24(sp)
 456 019c 23388100 		sd	s0,16(sp)
 457 01a0 23349100 		sd	s1,8(sp)
 458              		.cfi_offset 1, -8
 459              		.cfi_offset 8, -16
 460              		.cfi_offset 9, -24
 461 01a4 13040102 		addi	s0,sp,32
 462              		.cfi_def_cfa 8, 0
 463 01a8 93040500 		mv	s1,a0
  32:src/syscall_cpp.cpp **** 
 464              		.loc 2 32 1 is_stmt 0
 465 01ac 97000000 		call	_ZN6ThreadD1Ev
 465      E7800000 
 466              	.LVL31:
 467 01b4 13850400 		mv	a0,s1
 468 01b8 97000000 		call	_ZdlPv
 468      E7800000 
 469              	.LVL32:
 470 01c0 83308101 		ld	ra,24(sp)
 471              		.cfi_restore 1
 472 01c4 03340101 		ld	s0,16(sp)
 473              		.cfi_restore 8
 474              		.cfi_def_cfa 2, 32
 475 01c8 83348100 		ld	s1,8(sp)
 476              		.cfi_restore 9
 477              	.LVL33:
 478 01cc 13010102 		addi	sp,sp,32
 479              		.cfi_def_cfa_offset 0
 480 01d0 67800000 		jr	ra
 481              		.cfi_endproc
 482              	.LFE41:
 484              		.align	2
 485              		.globl	_ZN9SemaphoreD0Ev
 487              	_ZN9SemaphoreD0Ev:
 488              	.LFB58:
  77:src/syscall_cpp.cpp ****     sem_close(myHandle);
 489              		.loc 2 77 1 is_stmt 1
 490              		.cfi_startproc
 491              	.LVL34:
GAS LISTING /tmp/cc0RRPuc.s 			page 14


 492 01d4 130101FE 		addi	sp,sp,-32
 493              		.cfi_def_cfa_offset 32
 494 01d8 233C1100 		sd	ra,24(sp)
 495 01dc 23388100 		sd	s0,16(sp)
 496 01e0 23349100 		sd	s1,8(sp)
 497              		.cfi_offset 1, -8
 498              		.cfi_offset 8, -16
 499              		.cfi_offset 9, -24
 500 01e4 13040102 		addi	s0,sp,32
 501              		.cfi_def_cfa 8, 0
 502 01e8 93040500 		mv	s1,a0
  79:src/syscall_cpp.cpp **** 
 503              		.loc 2 79 1 is_stmt 0
 504 01ec 97000000 		call	_ZN9SemaphoreD1Ev
 504      E7800000 
 505              	.LVL35:
 506 01f4 13850400 		mv	a0,s1
 507 01f8 97000000 		call	_ZdlPv
 507      E7800000 
 508              	.LVL36:
 509 0200 83308101 		ld	ra,24(sp)
 510              		.cfi_restore 1
 511 0204 03340101 		ld	s0,16(sp)
 512              		.cfi_restore 8
 513              		.cfi_def_cfa 2, 32
 514 0208 83348100 		ld	s1,8(sp)
 515              		.cfi_restore 9
 516              	.LVL37:
 517 020c 13010102 		addi	sp,sp,32
 518              		.cfi_def_cfa_offset 0
 519 0210 67800000 		jr	ra
 520              		.cfi_endproc
 521              	.LFE58:
 523              		.section	.text._ZN14PeriodicThreadD0Ev,"axG",@progbits,_ZN14PeriodicThreadD5Ev,comdat
 524              		.align	2
 525              		.weak	_ZN14PeriodicThreadD0Ev
 527              	_ZN14PeriodicThreadD0Ev:
 528              	.LFB71:
  70:src/../h/syscall_cpp.hpp **** public:
 529              		.loc 1 70 7 is_stmt 1
 530              		.cfi_startproc
 531              	.LVL38:
 532 0000 130101FE 		addi	sp,sp,-32
 533              		.cfi_def_cfa_offset 32
 534 0004 233C1100 		sd	ra,24(sp)
 535 0008 23388100 		sd	s0,16(sp)
 536 000c 23349100 		sd	s1,8(sp)
 537              		.cfi_offset 1, -8
 538              		.cfi_offset 8, -16
 539              		.cfi_offset 9, -24
 540 0010 13040102 		addi	s0,sp,32
 541              		.cfi_def_cfa 8, 0
 542 0014 93040500 		mv	s1,a0
 543              	.LVL39:
 544              	.LBB18:
 545              	.LBB19:
  70:src/../h/syscall_cpp.hpp **** public:
GAS LISTING /tmp/cc0RRPuc.s 			page 15


 546              		.loc 1 70 7 is_stmt 0
 547 0018 97070000 		lla	a5,_ZTV14PeriodicThread+16
 547      93870700 
 548 0020 2330F500 		sd	a5,0(a0)
 549 0024 97000000 		call	_ZN6ThreadD2Ev
 549      E7800000 
 550              	.LVL40:
 551              	.LBE19:
 552              	.LBE18:
 553 002c 13850400 		mv	a0,s1
 554 0030 97000000 		call	_ZdlPv
 554      E7800000 
 555              	.LVL41:
 556 0038 83308101 		ld	ra,24(sp)
 557              		.cfi_restore 1
 558 003c 03340101 		ld	s0,16(sp)
 559              		.cfi_restore 8
 560              		.cfi_def_cfa 2, 32
 561 0040 83348100 		ld	s1,8(sp)
 562              		.cfi_restore 9
 563              	.LVL42:
 564 0044 13010102 		addi	sp,sp,32
 565              		.cfi_def_cfa_offset 0
 566 0048 67800000 		jr	ra
 567              		.cfi_endproc
 568              	.LFE71:
 570              		.text
 571              		.align	2
 572              		.globl	_ZdaPv
 574              	_ZdaPv:
 575              	.LFB34:
  20:src/syscall_cpp.cpp ****     mem_free(mem);
 576              		.loc 2 20 35 is_stmt 1
 577              		.cfi_startproc
 578              	.LVL43:
 579 0214 130101FF 		addi	sp,sp,-16
 580              		.cfi_def_cfa_offset 16
 581 0218 23341100 		sd	ra,8(sp)
 582 021c 23308100 		sd	s0,0(sp)
 583              		.cfi_offset 1, -8
 584              		.cfi_offset 8, -16
 585 0220 13040101 		addi	s0,sp,16
 586              		.cfi_def_cfa 8, 0
  21:src/syscall_cpp.cpp **** }
 587              		.loc 2 21 5
  21:src/syscall_cpp.cpp **** }
 588              		.loc 2 21 13 is_stmt 0
 589 0224 97000000 		call	_Z8mem_freePv@plt
 589      E7800000 
 590              	.LVL44:
  22:src/syscall_cpp.cpp **** 
 591              		.loc 2 22 1
 592 022c 83308100 		ld	ra,8(sp)
 593              		.cfi_restore 1
 594 0230 03340100 		ld	s0,0(sp)
 595              		.cfi_restore 8
 596              		.cfi_def_cfa 2, 16
GAS LISTING /tmp/cc0RRPuc.s 			page 16


 597 0234 13010101 		addi	sp,sp,16
 598              		.cfi_def_cfa_offset 0
 599 0238 67800000 		jr	ra
 600              		.cfi_endproc
 601              	.LFE34:
 603              		.align	2
 604              		.globl	_ZN6ThreadC2EPFvPvES0_
 606              	_ZN6ThreadC2EPFvPvES0_:
 607              	.LFB36:
  24:src/syscall_cpp.cpp ****     this->body = body;
 608              		.loc 2 24 1 is_stmt 1
 609              		.cfi_startproc
 610              	.LVL45:
 611 023c 130101FF 		addi	sp,sp,-16
 612              		.cfi_def_cfa_offset 16
 613 0240 23348100 		sd	s0,8(sp)
 614              		.cfi_offset 8, -8
 615 0244 13040101 		addi	s0,sp,16
 616              		.cfi_def_cfa 8, 0
 617              	.LBB20:
  24:src/syscall_cpp.cpp ****     this->body = body;
 618              		.loc 2 24 47 is_stmt 0
 619 0248 97070000 		lla	a5,_ZTV6Thread+16
 619      93870700 
 620 0250 2330F500 		sd	a5,0(a0)
  25:src/syscall_cpp.cpp ****     this->arg = arg;
 621              		.loc 2 25 5 is_stmt 1
  25:src/syscall_cpp.cpp ****     this->arg = arg;
 622              		.loc 2 25 16 is_stmt 0
 623 0254 2338B500 		sd	a1,16(a0)
  26:src/syscall_cpp.cpp **** }
 624              		.loc 2 26 5 is_stmt 1
  26:src/syscall_cpp.cpp **** }
 625              		.loc 2 26 15 is_stmt 0
 626 0258 233CC500 		sd	a2,24(a0)
 627              	.LBE20:
  27:src/syscall_cpp.cpp **** 
 628              		.loc 2 27 1
 629 025c 03348100 		ld	s0,8(sp)
 630              		.cfi_restore 8
 631              		.cfi_def_cfa 2, 16
 632 0260 13010101 		addi	sp,sp,16
 633              		.cfi_def_cfa_offset 0
 634 0264 67800000 		jr	ra
 635              		.cfi_endproc
 636              	.LFE36:
 638              		.globl	_ZN6ThreadC1EPFvPvES0_
 639              		.set	_ZN6ThreadC1EPFvPvES0_,_ZN6ThreadC2EPFvPvES0_
 640              		.align	2
 641              		.globl	_ZN6Thread5startEv
 643              	_ZN6Thread5startEv:
 644              	.LFB42:
  34:src/syscall_cpp.cpp ****     return thread_create(&myHandle, &threadStart, this);
 645              		.loc 2 34 21 is_stmt 1
 646              		.cfi_startproc
 647              	.LVL46:
 648 0268 130101FF 		addi	sp,sp,-16
GAS LISTING /tmp/cc0RRPuc.s 			page 17


 649              		.cfi_def_cfa_offset 16
 650 026c 23341100 		sd	ra,8(sp)
 651 0270 23308100 		sd	s0,0(sp)
 652              		.cfi_offset 1, -8
 653              		.cfi_offset 8, -16
 654 0274 13040101 		addi	s0,sp,16
 655              		.cfi_def_cfa 8, 0
  35:src/syscall_cpp.cpp **** }
 656              		.loc 2 35 5
  35:src/syscall_cpp.cpp **** }
 657              		.loc 2 35 25 is_stmt 0
 658 0278 13060500 		mv	a2,a0
 659 027c 97050000 		lla	a1,_ZN6Thread11threadStartEPv
 659      93850500 
 660 0284 13058500 		addi	a0,a0,8
 661              	.LVL47:
 662 0288 97000000 		call	_Z13thread_createPP3TCBPFvPvES2_@plt
 662      E7800000 
 663              	.LVL48:
  36:src/syscall_cpp.cpp **** 
 664              		.loc 2 36 1
 665 0290 83308100 		ld	ra,8(sp)
 666              		.cfi_restore 1
 667 0294 03340100 		ld	s0,0(sp)
 668              		.cfi_restore 8
 669              		.cfi_def_cfa 2, 16
 670 0298 13010101 		addi	sp,sp,16
 671              		.cfi_def_cfa_offset 0
 672 029c 67800000 		jr	ra
 673              		.cfi_endproc
 674              	.LFE42:
 676              		.align	2
 677              		.globl	_ZN6Thread4joinEv
 679              	_ZN6Thread4joinEv:
 680              	.LFB43:
  38:src/syscall_cpp.cpp ****     thread_join(myHandle);
 681              		.loc 2 38 21 is_stmt 1
 682              		.cfi_startproc
 683              	.LVL49:
 684 02a0 130101FF 		addi	sp,sp,-16
 685              		.cfi_def_cfa_offset 16
 686 02a4 23341100 		sd	ra,8(sp)
 687 02a8 23308100 		sd	s0,0(sp)
 688              		.cfi_offset 1, -8
 689              		.cfi_offset 8, -16
 690 02ac 13040101 		addi	s0,sp,16
 691              		.cfi_def_cfa 8, 0
  39:src/syscall_cpp.cpp **** }
 692              		.loc 2 39 5
  39:src/syscall_cpp.cpp **** }
 693              		.loc 2 39 16 is_stmt 0
 694 02b0 03358500 		ld	a0,8(a0)
 695              	.LVL50:
 696 02b4 97000000 		call	_Z11thread_joinP3TCB@plt
 696      E7800000 
 697              	.LVL51:
  40:src/syscall_cpp.cpp **** 
GAS LISTING /tmp/cc0RRPuc.s 			page 18


 698              		.loc 2 40 1
 699 02bc 83308100 		ld	ra,8(sp)
 700              		.cfi_restore 1
 701 02c0 03340100 		ld	s0,0(sp)
 702              		.cfi_restore 8
 703              		.cfi_def_cfa 2, 16
 704 02c4 13010101 		addi	sp,sp,16
 705              		.cfi_def_cfa_offset 0
 706 02c8 67800000 		jr	ra
 707              		.cfi_endproc
 708              	.LFE43:
 710              		.align	2
 711              		.globl	_ZN6Thread4joinEm
 713              	_ZN6Thread4joinEm:
 714              	.LFB44:
  42:src/syscall_cpp.cpp ****     thread_join(myHandle, time);
 715              		.loc 2 42 32 is_stmt 1
 716              		.cfi_startproc
 717              	.LVL52:
 718 02cc 130101FF 		addi	sp,sp,-16
 719              		.cfi_def_cfa_offset 16
 720 02d0 23341100 		sd	ra,8(sp)
 721 02d4 23308100 		sd	s0,0(sp)
 722              		.cfi_offset 1, -8
 723              		.cfi_offset 8, -16
 724 02d8 13040101 		addi	s0,sp,16
 725              		.cfi_def_cfa 8, 0
  43:src/syscall_cpp.cpp **** }
 726              		.loc 2 43 5
  43:src/syscall_cpp.cpp **** }
 727              		.loc 2 43 16 is_stmt 0
 728 02dc 03358500 		ld	a0,8(a0)
 729              	.LVL53:
 730 02e0 97000000 		call	_Z11thread_joinP3TCBm@plt
 730      E7800000 
 731              	.LVL54:
  44:src/syscall_cpp.cpp **** 
 732              		.loc 2 44 1
 733 02e8 83308100 		ld	ra,8(sp)
 734              		.cfi_restore 1
 735 02ec 03340100 		ld	s0,0(sp)
 736              		.cfi_restore 8
 737              		.cfi_def_cfa 2, 16
 738 02f0 13010101 		addi	sp,sp,16
 739              		.cfi_def_cfa_offset 0
 740 02f4 67800000 		jr	ra
 741              		.cfi_endproc
 742              	.LFE44:
 744              		.align	2
 745              		.globl	_ZN6Thread4killEPS_
 747              	_ZN6Thread4killEPS_:
 748              	.LFB45:
  46:src/syscall_cpp.cpp ****     return thread_kill(thread->myHandle);
 749              		.loc 2 46 34 is_stmt 1
 750              		.cfi_startproc
 751              	.LVL55:
 752 02f8 130101FF 		addi	sp,sp,-16
GAS LISTING /tmp/cc0RRPuc.s 			page 19


 753              		.cfi_def_cfa_offset 16
 754 02fc 23341100 		sd	ra,8(sp)
 755 0300 23308100 		sd	s0,0(sp)
 756              		.cfi_offset 1, -8
 757              		.cfi_offset 8, -16
 758 0304 13040101 		addi	s0,sp,16
 759              		.cfi_def_cfa 8, 0
  47:src/syscall_cpp.cpp **** }
 760              		.loc 2 47 5
  47:src/syscall_cpp.cpp **** }
 761              		.loc 2 47 23 is_stmt 0
 762 0308 03358500 		ld	a0,8(a0)
 763              	.LVL56:
 764 030c 97000000 		call	_Z11thread_killP3TCB@plt
 764      E7800000 
 765              	.LVL57:
  48:src/syscall_cpp.cpp **** 
 766              		.loc 2 48 1
 767 0314 83308100 		ld	ra,8(sp)
 768              		.cfi_restore 1
 769 0318 03340100 		ld	s0,0(sp)
 770              		.cfi_restore 8
 771              		.cfi_def_cfa 2, 16
 772 031c 13010101 		addi	sp,sp,16
 773              		.cfi_def_cfa_offset 0
 774 0320 67800000 		jr	ra
 775              		.cfi_endproc
 776              	.LFE45:
 778              		.align	2
 779              		.globl	_ZN6Thread8dispatchEv
 781              	_ZN6Thread8dispatchEv:
 782              	.LFB46:
  50:src/syscall_cpp.cpp ****     thread_dispatch();
 783              		.loc 2 50 25 is_stmt 1
 784              		.cfi_startproc
 785 0324 130101FF 		addi	sp,sp,-16
 786              		.cfi_def_cfa_offset 16
 787 0328 23341100 		sd	ra,8(sp)
 788 032c 23308100 		sd	s0,0(sp)
 789              		.cfi_offset 1, -8
 790              		.cfi_offset 8, -16
 791 0330 13040101 		addi	s0,sp,16
 792              		.cfi_def_cfa 8, 0
  51:src/syscall_cpp.cpp **** }
 793              		.loc 2 51 5
  51:src/syscall_cpp.cpp **** }
 794              		.loc 2 51 20 is_stmt 0
 795 0334 97000000 		call	_Z15thread_dispatchv@plt
 795      E7800000 
 796              	.LVL58:
  52:src/syscall_cpp.cpp **** 
 797              		.loc 2 52 1
 798 033c 83308100 		ld	ra,8(sp)
 799              		.cfi_restore 1
 800 0340 03340100 		ld	s0,0(sp)
 801              		.cfi_restore 8
 802              		.cfi_def_cfa 2, 16
GAS LISTING /tmp/cc0RRPuc.s 			page 20


 803 0344 13010101 		addi	sp,sp,16
 804              		.cfi_def_cfa_offset 0
 805 0348 67800000 		jr	ra
 806              		.cfi_endproc
 807              	.LFE46:
 809              		.align	2
 810              		.globl	_ZN6Thread5sleepEm
 812              	_ZN6Thread5sleepEm:
 813              	.LFB47:
  54:src/syscall_cpp.cpp ****     return time_sleep(ms);
 814              		.loc 2 54 30 is_stmt 1
 815              		.cfi_startproc
 816              	.LVL59:
 817 034c 130101FF 		addi	sp,sp,-16
 818              		.cfi_def_cfa_offset 16
 819 0350 23341100 		sd	ra,8(sp)
 820 0354 23308100 		sd	s0,0(sp)
 821              		.cfi_offset 1, -8
 822              		.cfi_offset 8, -16
 823 0358 13040101 		addi	s0,sp,16
 824              		.cfi_def_cfa 8, 0
  55:src/syscall_cpp.cpp **** }
 825              		.loc 2 55 5
  55:src/syscall_cpp.cpp **** }
 826              		.loc 2 55 22 is_stmt 0
 827 035c 97000000 		call	_Z10time_sleepm@plt
 827      E7800000 
 828              	.LVL60:
  56:src/syscall_cpp.cpp **** 
 829              		.loc 2 56 1
 830 0364 83308100 		ld	ra,8(sp)
 831              		.cfi_restore 1
 832 0368 03340100 		ld	s0,0(sp)
 833              		.cfi_restore 8
 834              		.cfi_def_cfa 2, 16
 835 036c 13010101 		addi	sp,sp,16
 836              		.cfi_def_cfa_offset 0
 837 0370 67800000 		jr	ra
 838              		.cfi_endproc
 839              	.LFE47:
 841              		.align	2
 842              		.globl	_ZN6ThreadC2Ev
 844              	_ZN6ThreadC2Ev:
 845              	.LFB49:
  58:src/syscall_cpp.cpp ****     this->body = nullptr;
 846              		.loc 2 58 1 is_stmt 1
 847              		.cfi_startproc
 848              	.LVL61:
 849 0374 130101FF 		addi	sp,sp,-16
 850              		.cfi_def_cfa_offset 16
 851 0378 23348100 		sd	s0,8(sp)
 852              		.cfi_offset 8, -8
 853 037c 13040101 		addi	s0,sp,16
 854              		.cfi_def_cfa 8, 0
 855              	.LBB21:
  58:src/syscall_cpp.cpp ****     this->body = nullptr;
 856              		.loc 2 58 16 is_stmt 0
GAS LISTING /tmp/cc0RRPuc.s 			page 21


 857 0380 97070000 		lla	a5,_ZTV6Thread+16
 857      93870700 
 858 0388 2330F500 		sd	a5,0(a0)
  59:src/syscall_cpp.cpp ****     this->arg = nullptr;
 859              		.loc 2 59 5 is_stmt 1
  59:src/syscall_cpp.cpp ****     this->arg = nullptr;
 860              		.loc 2 59 16 is_stmt 0
 861 038c 23380500 		sd	zero,16(a0)
  60:src/syscall_cpp.cpp **** }
 862              		.loc 2 60 5 is_stmt 1
  60:src/syscall_cpp.cpp **** }
 863              		.loc 2 60 15 is_stmt 0
 864 0390 233C0500 		sd	zero,24(a0)
 865              	.LBE21:
  61:src/syscall_cpp.cpp **** 
 866              		.loc 2 61 1
 867 0394 03348100 		ld	s0,8(sp)
 868              		.cfi_restore 8
 869              		.cfi_def_cfa 2, 16
 870 0398 13010101 		addi	sp,sp,16
 871              		.cfi_def_cfa_offset 0
 872 039c 67800000 		jr	ra
 873              		.cfi_endproc
 874              	.LFE49:
 876              		.globl	_ZN6ThreadC1Ev
 877              		.set	_ZN6ThreadC1Ev,_ZN6ThreadC2Ev
 878              		.align	2
 879              		.globl	_ZN9SemaphoreC2Ej
 881              	_ZN9SemaphoreC2Ej:
 882              	.LFB53:
  73:src/syscall_cpp.cpp ****     sem_open(&myHandle, init);
 883              		.loc 2 73 1 is_stmt 1
 884              		.cfi_startproc
 885              	.LVL62:
 886 03a0 130101FF 		addi	sp,sp,-16
 887              		.cfi_def_cfa_offset 16
 888 03a4 23341100 		sd	ra,8(sp)
 889 03a8 23308100 		sd	s0,0(sp)
 890              		.cfi_offset 1, -8
 891              		.cfi_offset 8, -16
 892 03ac 13040101 		addi	s0,sp,16
 893              		.cfi_def_cfa 8, 0
 894              	.LBB22:
  73:src/syscall_cpp.cpp ****     sem_open(&myHandle, init);
 895              		.loc 2 73 39 is_stmt 0
 896 03b0 97070000 		lla	a5,_ZTV9Semaphore+16
 896      93870700 
 897 03b8 2330F500 		sd	a5,0(a0)
  74:src/syscall_cpp.cpp **** }
 898              		.loc 2 74 5 is_stmt 1
  74:src/syscall_cpp.cpp **** }
 899              		.loc 2 74 13 is_stmt 0
 900 03bc 13058500 		addi	a0,a0,8
 901              	.LVL63:
 902 03c0 97000000 		call	_Z8sem_openPP3Semj@plt
 902      E7800000 
 903              	.LVL64:
GAS LISTING /tmp/cc0RRPuc.s 			page 22


 904              	.LBE22:
  75:src/syscall_cpp.cpp **** 
 905              		.loc 2 75 1
 906 03c8 83308100 		ld	ra,8(sp)
 907              		.cfi_restore 1
 908 03cc 03340100 		ld	s0,0(sp)
 909              		.cfi_restore 8
 910              		.cfi_def_cfa 2, 16
 911 03d0 13010101 		addi	sp,sp,16
 912              		.cfi_def_cfa_offset 0
 913 03d4 67800000 		jr	ra
 914              		.cfi_endproc
 915              	.LFE53:
 917              		.globl	_ZN9SemaphoreC1Ej
 918              		.set	_ZN9SemaphoreC1Ej,_ZN9SemaphoreC2Ej
 919              		.align	2
 920              		.globl	_ZN9Semaphore15signal_and_waitERS_S0_
 922              	_ZN9Semaphore15signal_and_waitERS_S0_:
 923              	.LFB61:
  88:src/syscall_cpp.cpp **** 
  89:src/syscall_cpp.cpp **** int Semaphore::signal_and_wait(Semaphore &sem1, Semaphore &sem2) {
 924              		.loc 2 89 66 is_stmt 1
 925              		.cfi_startproc
 926              	.LVL65:
 927 03d8 130101FF 		addi	sp,sp,-16
 928              		.cfi_def_cfa_offset 16
 929 03dc 23341100 		sd	ra,8(sp)
 930 03e0 23308100 		sd	s0,0(sp)
 931              		.cfi_offset 1, -8
 932              		.cfi_offset 8, -16
 933 03e4 13040101 		addi	s0,sp,16
 934              		.cfi_def_cfa 8, 0
  90:src/syscall_cpp.cpp ****     return ::signal_and_wait(sem1.myHandle, sem2.myHandle);
 935              		.loc 2 90 5
 936              		.loc 2 90 29 is_stmt 0
 937 03e8 83B58500 		ld	a1,8(a1)
 938              	.LVL66:
 939 03ec 03358500 		ld	a0,8(a0)
 940              	.LVL67:
 941 03f0 97000000 		call	_Z15signal_and_waitP3SemS0_@plt
 941      E7800000 
 942              	.LVL68:
  91:src/syscall_cpp.cpp **** }
 943              		.loc 2 91 1
 944 03f8 83308100 		ld	ra,8(sp)
 945              		.cfi_restore 1
 946 03fc 03340100 		ld	s0,0(sp)
 947              		.cfi_restore 8
 948              		.cfi_def_cfa 2, 16
 949 0400 13010101 		addi	sp,sp,16
 950              		.cfi_def_cfa_offset 0
 951 0404 67800000 		jr	ra
 952              		.cfi_endproc
 953              	.LFE61:
 955              		.align	2
 956              		.globl	_ZN14PeriodicThread9terminateEv
 958              	_ZN14PeriodicThread9terminateEv:
GAS LISTING /tmp/cc0RRPuc.s 			page 23


 959              	.LFB62:
  92:src/syscall_cpp.cpp **** 
  93:src/syscall_cpp.cpp **** void PeriodicThread::terminate() {
 960              		.loc 2 93 34 is_stmt 1
 961              		.cfi_startproc
 962              	.LVL69:
 963 0408 130101FF 		addi	sp,sp,-16
 964              		.cfi_def_cfa_offset 16
 965 040c 23341100 		sd	ra,8(sp)
 966 0410 23308100 		sd	s0,0(sp)
 967              		.cfi_offset 1, -8
 968              		.cfi_offset 8, -16
 969 0414 13040101 		addi	s0,sp,16
 970              		.cfi_def_cfa 8, 0
  94:src/syscall_cpp.cpp ****     thread_exit();
 971              		.loc 2 94 5
 972              		.loc 2 94 16 is_stmt 0
 973 0418 97000000 		call	_Z11thread_exitv@plt
 973      E7800000 
 974              	.LVL70:
  95:src/syscall_cpp.cpp **** }
 975              		.loc 2 95 1
 976 0420 83308100 		ld	ra,8(sp)
 977              		.cfi_restore 1
 978 0424 03340100 		ld	s0,0(sp)
 979              		.cfi_restore 8
 980              		.cfi_def_cfa 2, 16
 981 0428 13010101 		addi	sp,sp,16
 982              		.cfi_def_cfa_offset 0
 983 042c 67800000 		jr	ra
 984              		.cfi_endproc
 985              	.LFE62:
 987              		.align	2
 988              		.globl	_ZN14PeriodicThreadC2Em
 990              	_ZN14PeriodicThreadC2Em:
 991              	.LFB64:
  96:src/syscall_cpp.cpp **** 
  97:src/syscall_cpp.cpp **** PeriodicThread::PeriodicThread(time_t period) {
 992              		.loc 2 97 1 is_stmt 1
 993              		.cfi_startproc
 994              	.LVL71:
 995 0430 130101FE 		addi	sp,sp,-32
 996              		.cfi_def_cfa_offset 32
 997 0434 233C1100 		sd	ra,24(sp)
 998 0438 23388100 		sd	s0,16(sp)
 999 043c 23349100 		sd	s1,8(sp)
 1000 0440 23302101 		sd	s2,0(sp)
 1001              		.cfi_offset 1, -8
 1002              		.cfi_offset 8, -16
 1003              		.cfi_offset 9, -24
 1004              		.cfi_offset 18, -32
 1005 0444 13040102 		addi	s0,sp,32
 1006              		.cfi_def_cfa 8, 0
 1007 0448 93040500 		mv	s1,a0
 1008 044c 13890500 		mv	s2,a1
 1009              	.LBB23:
 1010              		.loc 2 97 45 is_stmt 0
GAS LISTING /tmp/cc0RRPuc.s 			page 24


 1011 0450 97000000 		call	_ZN6ThreadC2Ev
 1011      E7800000 
 1012              	.LVL72:
 1013 0458 97070000 		lla	a5,_ZTV14PeriodicThread+16
 1013      93870700 
 1014 0460 23B0F400 		sd	a5,0(s1)
  98:src/syscall_cpp.cpp ****     this->period = period;
 1015              		.loc 2 98 5 is_stmt 1
 1016              		.loc 2 98 18 is_stmt 0
 1017 0464 23B02403 		sd	s2,32(s1)
 1018              	.LBE23:
  99:src/syscall_cpp.cpp **** }
 1019              		.loc 2 99 1
 1020 0468 83308101 		ld	ra,24(sp)
 1021              		.cfi_restore 1
 1022 046c 03340101 		ld	s0,16(sp)
 1023              		.cfi_restore 8
 1024              		.cfi_def_cfa 2, 32
 1025 0470 83348100 		ld	s1,8(sp)
 1026              		.cfi_restore 9
 1027              	.LVL73:
 1028 0474 03390100 		ld	s2,0(sp)
 1029              		.cfi_restore 18
 1030              	.LVL74:
 1031 0478 13010102 		addi	sp,sp,32
 1032              		.cfi_def_cfa_offset 0
 1033 047c 67800000 		jr	ra
 1034              		.cfi_endproc
 1035              	.LFE64:
 1037              		.globl	_ZN14PeriodicThreadC1Em
 1038              		.set	_ZN14PeriodicThreadC1Em,_ZN14PeriodicThreadC2Em
 1039              		.align	2
 1040              		.globl	_ZN7Console4getcEv
 1042              	_ZN7Console4getcEv:
 1043              	.LFB66:
 100:src/syscall_cpp.cpp **** 
 101:src/syscall_cpp.cpp **** char Console::getc() {
 1044              		.loc 2 101 22 is_stmt 1
 1045              		.cfi_startproc
 1046 0480 130101FF 		addi	sp,sp,-16
 1047              		.cfi_def_cfa_offset 16
 1048 0484 23341100 		sd	ra,8(sp)
 1049 0488 23308100 		sd	s0,0(sp)
 1050              		.cfi_offset 1, -8
 1051              		.cfi_offset 8, -16
 1052 048c 13040101 		addi	s0,sp,16
 1053              		.cfi_def_cfa 8, 0
 102:src/syscall_cpp.cpp ****     return getc();
 1054              		.loc 2 102 5
 1055              		.loc 2 102 16 is_stmt 0
 1056 0490 97000000 		call	_ZN7Console4getcEv
 1056      E7800000 
 1057              	.LVL75:
 103:src/syscall_cpp.cpp **** }
 1058              		.loc 2 103 1
 1059 0498 83308100 		ld	ra,8(sp)
 1060              		.cfi_restore 1
GAS LISTING /tmp/cc0RRPuc.s 			page 25


 1061 049c 03340100 		ld	s0,0(sp)
 1062              		.cfi_restore 8
 1063              		.cfi_def_cfa 2, 16
 1064 04a0 13010101 		addi	sp,sp,16
 1065              		.cfi_def_cfa_offset 0
 1066 04a4 67800000 		jr	ra
 1067              		.cfi_endproc
 1068              	.LFE66:
 1070              		.align	2
 1071              		.globl	_ZN7Console4putcEc
 1073              	_ZN7Console4putcEc:
 1074              	.LFB67:
 104:src/syscall_cpp.cpp **** 
 105:src/syscall_cpp.cpp **** void Console::putc(char c) {
 1075              		.loc 2 105 28 is_stmt 1
 1076              		.cfi_startproc
 1077              	.LVL76:
 1078 04a8 130101FF 		addi	sp,sp,-16
 1079              		.cfi_def_cfa_offset 16
 1080 04ac 23341100 		sd	ra,8(sp)
 1081 04b0 23308100 		sd	s0,0(sp)
 1082              		.cfi_offset 1, -8
 1083              		.cfi_offset 8, -16
 1084 04b4 13040101 		addi	s0,sp,16
 1085              		.cfi_def_cfa 8, 0
 106:src/syscall_cpp.cpp ****     putc(c);
 1086              		.loc 2 106 5
 1087              		.loc 2 106 9 is_stmt 0
 1088 04b8 97000000 		call	_ZN7Console4putcEc
 1088      E7800000 
 1089              	.LVL77:
 107:src/syscall_cpp.cpp **** }...
 1090              		.loc 2 107 1
 1091 04c0 83308100 		ld	ra,8(sp)
 1092              		.cfi_restore 1
 1093 04c4 03340100 		ld	s0,0(sp)
 1094              		.cfi_restore 8
 1095              		.cfi_def_cfa 2, 16
 1096 04c8 13010101 		addi	sp,sp,16
 1097              		.cfi_def_cfa_offset 0
 1098 04cc 67800000 		jr	ra
 1099              		.cfi_endproc
 1100              	.LFE67:
 1102              		.weak	_ZTV14PeriodicThread
 1103              		.section	.data.rel.ro.local._ZTV14PeriodicThread,"awG",@progbits,_ZTV14PeriodicThread,comdat
 1104              		.align	3
 1107              	_ZTV14PeriodicThread:
 1108 0000 00000000 		.dword	0
 1108      00000000 
 1109 0008 00000000 		.dword	0
 1109      00000000 
 1110 0010 00000000 		.dword	_ZN14PeriodicThreadD1Ev
 1110      00000000 
 1111 0018 00000000 		.dword	_ZN14PeriodicThreadD0Ev
 1111      00000000 
 1112 0020 00000000 		.dword	_ZN6Thread3runEv
 1112      00000000 
GAS LISTING /tmp/cc0RRPuc.s 			page 26


 1113 0028 00000000 		.dword	_ZN14PeriodicThread18periodicActivationEv
 1113      00000000 
 1114              		.weak	_ZTV6Thread
 1115              		.section	.data.rel.ro.local._ZTV6Thread,"awG",@progbits,_ZTV6Thread,comdat
 1116              		.align	3
 1119              	_ZTV6Thread:
 1120 0000 00000000 		.dword	0
 1120      00000000 
 1121 0008 00000000 		.dword	0
 1121      00000000 
 1122 0010 00000000 		.dword	_ZN6ThreadD1Ev
 1122      00000000 
 1123 0018 00000000 		.dword	_ZN6ThreadD0Ev
 1123      00000000 
 1124 0020 00000000 		.dword	_ZN6Thread3runEv
 1124      00000000 
 1125              		.weak	_ZTV9Semaphore
 1126              		.section	.data.rel.ro.local._ZTV9Semaphore,"awG",@progbits,_ZTV9Semaphore,comdat
 1127              		.align	3
 1130              	_ZTV9Semaphore:
 1131 0000 00000000 		.dword	0
 1131      00000000 
 1132 0008 00000000 		.dword	0
 1132      00000000 
 1133 0010 00000000 		.dword	_ZN9SemaphoreD1Ev
 1133      00000000 
 1134 0018 00000000 		.dword	_ZN9SemaphoreD0Ev
 1134      00000000 
 1135 0020 00000000 		.dword	_ZN9Semaphore4waitEv
 1135      00000000 
 1136 0028 00000000 		.dword	_ZN9Semaphore6signalEv
 1136      00000000 
 1137              		.text
 1138              	.Letext0:
 1139              		.file 4 "src/../h/../lib/hw.h"
 1140              		.file 5 "src/../h/syscall_c.hpp"
 1141              		.file 6 "src/../h/c_memory.hpp"
 1142              		.file 7 "src/../h/circular_buffer.hpp"
 6038              		.align	3
 6041              	DW.ref.__gxx_personality_v0:
 6042 0000 00000000 		.dword	__gxx_personality_v0
 6042      00000000 
 6043              		.ident	"GCC: (Ubuntu 9.4.0-1ubuntu1~20.04) 9.4.0"
 6044              		.section	.note.GNU-stack,"",@progbits
GAS LISTING /tmp/cc0RRPuc.s 			page 27

