GAS LISTING /tmp/ccbjqHaZ.s 			page 1


   1              		.file	"syscall_c.cpp"
   2              		.option pic
   3              		.option norelax
   4              		.text
   5              	.Ltext0:
   6              		.align	2
   7              		.globl	_Z7syscallmmmmm
   9              	_Z7syscallmmmmm:
  10              	.LFB25:
  11              		.file 1 "src/syscall_c.cpp"
   1:src/syscall_c.cpp **** #include "../h/syscall_c.hpp"
   2:src/syscall_c.cpp **** #include "../h/c_console.hpp"
   3:src/syscall_c.cpp **** 
   4:src/syscall_c.cpp **** 
   5:src/syscall_c.cpp **** void syscall(uint64 code, uint64 arg1, uint64 arg2, uint64 arg3, uint64 arg4) {
  12              		.loc 1 5 79
  13              		.cfi_startproc
  14              	.LVL0:
  15 0000 130101FF 		addi	sp,sp,-16
  16              		.cfi_def_cfa_offset 16
  17 0004 23348100 		sd	s0,8(sp)
  18              		.cfi_offset 8, -8
  19 0008 13040101 		addi	s0,sp,16
  20              		.cfi_def_cfa 8, 0
   6:src/syscall_c.cpp ****     __asm__ volatile("ecall");
  21              		.loc 1 6 5
  22              		.loc 1 6 30 is_stmt 0
  23              	#APP
  24              	# 6 "src/syscall_c.cpp" 1
   7              	}
  25              		ecall
  26              	# 0 "" 2
  27              		.loc 1 7 1
  28              	#NO_APP
  29 0010 03348100 		ld	s0,8(sp)
  30              		.cfi_restore 8
  31              		.cfi_def_cfa 2, 16
  32 0014 13010101 		addi	sp,sp,16
  33              		.cfi_def_cfa_offset 0
  34 0018 67800000 		jr	ra
  35              		.cfi_endproc
  36              	.LFE25:
  38              		.align	2
  39              		.globl	_Z9mem_allocm
  41              	_Z9mem_allocm:
  42              	.LFB26:
   8:src/syscall_c.cpp **** 
   9:src/syscall_c.cpp **** void *mem_alloc(size_t size) {
  43              		.loc 1 9 30 is_stmt 1
  44              		.cfi_startproc
  45              	.LVL1:
  10:src/syscall_c.cpp ****     if (size == 0) return nullptr;
  46              		.loc 1 10 5
  47 001c 63020504 		beqz	a0,.L5
   9:src/syscall_c.cpp ****     if (size == 0) return nullptr;
  48              		.loc 1 9 30 is_stmt 0
  49 0020 130101FF 		addi	sp,sp,-16
GAS LISTING /tmp/ccbjqHaZ.s 			page 2


  50              		.cfi_def_cfa_offset 16
  51 0024 23341100 		sd	ra,8(sp)
  52 0028 23308100 		sd	s0,0(sp)
  53              		.cfi_offset 1, -8
  54              		.cfi_offset 8, -16
  55 002c 13040101 		addi	s0,sp,16
  56              		.cfi_def_cfa 8, 0
  57 0030 93050500 		mv	a1,a0
  11:src/syscall_c.cpp ****     void volatile *ret;
  58              		.loc 1 11 5 is_stmt 1
  12:src/syscall_c.cpp ****     syscall(MEM_ALLOC, size);
  59              		.loc 1 12 5
  60              		.loc 1 12 12 is_stmt 0
  61 0034 13070000 		li	a4,0
  62 0038 93060000 		li	a3,0
  63 003c 13060000 		li	a2,0
  64 0040 13051000 		li	a0,1
  65              	.LVL2:
  66 0044 97000000 		call	_Z7syscallmmmmm
  66      E7800000 
  67              	.LVL3:
  13:src/syscall_c.cpp ****     __asm__ volatile ("mv %[ret], a0" : [ret] "=r"(ret));
  68              		.loc 1 13 5 is_stmt 1
  69              		.loc 1 13 57 is_stmt 0
  70              	#APP
  71              	# 13 "src/syscall_c.cpp" 1
  14              	    return (void *) ret;
  72              		mv a0, a0
  73              	# 0 "" 2
  74              	.LVL4:
  75              		.loc 1 14 5 is_stmt 1
  15:src/syscall_c.cpp **** }
  76              		.loc 1 15 1 is_stmt 0
  77              	#NO_APP
  78 0050 83308100 		ld	ra,8(sp)
  79              		.cfi_restore 1
  80 0054 03340100 		ld	s0,0(sp)
  81              		.cfi_restore 8
  82              		.cfi_def_cfa 2, 16
  83 0058 13010101 		addi	sp,sp,16
  84              		.cfi_def_cfa_offset 0
  85 005c 67800000 		jr	ra
  86              	.LVL5:
  87              	.L5:
  10:src/syscall_c.cpp ****     void volatile *ret;
  88              		.loc 1 10 27
  89 0060 13050000 		li	a0,0
  90              	.LVL6:
  91              		.loc 1 15 1
  92 0064 67800000 		ret
  93              		.cfi_endproc
  94              	.LFE26:
  96              		.align	2
  97              		.globl	_Z8mem_freePv
  99              	_Z8mem_freePv:
 100              	.LFB27:
  16:src/syscall_c.cpp **** 
GAS LISTING /tmp/ccbjqHaZ.s 			page 3


  17:src/syscall_c.cpp **** int mem_free(void *mem) {
 101              		.loc 1 17 25 is_stmt 1
 102              		.cfi_startproc
 103              	.LVL7:
 104 0068 130101FE 		addi	sp,sp,-32
 105              		.cfi_def_cfa_offset 32
 106 006c 233C1100 		sd	ra,24(sp)
 107 0070 23388100 		sd	s0,16(sp)
 108              		.cfi_offset 1, -8
 109              		.cfi_offset 8, -16
 110 0074 13040102 		addi	s0,sp,32
 111              		.cfi_def_cfa 8, 0
 112 0078 93050500 		mv	a1,a0
  18:src/syscall_c.cpp ****     int volatile ret;
 113              		.loc 1 18 5
  19:src/syscall_c.cpp ****     syscall(MEM_FREE, (uint64) mem);
 114              		.loc 1 19 5
 115              		.loc 1 19 12 is_stmt 0
 116 007c 13070000 		li	a4,0
 117 0080 93060000 		li	a3,0
 118 0084 13060000 		li	a2,0
 119 0088 13052000 		li	a0,2
 120              	.LVL8:
 121 008c 97000000 		call	_Z7syscallmmmmm
 121      E7800000 
 122              	.LVL9:
  20:src/syscall_c.cpp ****     __asm__ volatile ("mv %[ret], a0" : [ret] "=r"(ret));
 123              		.loc 1 20 5 is_stmt 1
 124              		.loc 1 20 57 is_stmt 0
 125              	#APP
 126              	# 20 "src/syscall_c.cpp" 1
  21              	    return ret;
 127              		mv a5, a0
 128              	# 0 "" 2
 129              	#NO_APP
 130 0098 2326F4FE 		sw	a5,-20(s0)
 131              		.loc 1 21 5 is_stmt 1
 132              		.loc 1 21 12 is_stmt 0
 133 009c 0325C4FE 		lw	a0,-20(s0)
  22:src/syscall_c.cpp **** }
 134              		.loc 1 22 1
 135 00a0 1B050500 		sext.w	a0,a0
 136 00a4 83308101 		ld	ra,24(sp)
 137              		.cfi_restore 1
 138 00a8 03340101 		ld	s0,16(sp)
 139              		.cfi_restore 8
 140              		.cfi_def_cfa 2, 32
 141 00ac 13010102 		addi	sp,sp,32
 142              		.cfi_def_cfa_offset 0
 143 00b0 67800000 		jr	ra
 144              		.cfi_endproc
 145              	.LFE27:
 147              		.align	2
 148              		.globl	_Z13thread_createPP3TCBPFvPvES2_
 150              	_Z13thread_createPP3TCBPFvPvES2_:
 151              	.LFB28:
  23:src/syscall_c.cpp **** 
GAS LISTING /tmp/ccbjqHaZ.s 			page 4


  24:src/syscall_c.cpp **** int thread_create(thread_t *handle, void(*start_routine)(void *), void *arg) {
 152              		.loc 1 24 78 is_stmt 1
 153              		.cfi_startproc
 154              	.LVL10:
 155 00b4 130101FC 		addi	sp,sp,-64
 156              		.cfi_def_cfa_offset 64
 157 00b8 233C1102 		sd	ra,56(sp)
 158 00bc 23388102 		sd	s0,48(sp)
 159 00c0 23349102 		sd	s1,40(sp)
 160 00c4 23302103 		sd	s2,32(sp)
 161 00c8 233C3101 		sd	s3,24(sp)
 162              		.cfi_offset 1, -8
 163              		.cfi_offset 8, -16
 164              		.cfi_offset 9, -24
 165              		.cfi_offset 18, -32
 166              		.cfi_offset 19, -40
 167 00cc 13040104 		addi	s0,sp,64
 168              		.cfi_def_cfa 8, 0
 169 00d0 13090500 		mv	s2,a0
 170 00d4 93840500 		mv	s1,a1
 171 00d8 93090600 		mv	s3,a2
  25:src/syscall_c.cpp ****     void *stack_space = nullptr;
 172              		.loc 1 25 5
 173              	.LVL11:
  26:src/syscall_c.cpp ****     if (start_routine) {
 174              		.loc 1 26 5
 175 00dc 638C0504 		beqz	a1,.L14
  27:src/syscall_c.cpp ****         stack_space = mem_alloc(DEFAULT_STACK_SIZE);
 176              		.loc 1 27 9
 177              		.loc 1 27 32 is_stmt 0
 178 00e0 37450000 		li	a0,16384
 179              	.LVL12:
 180 00e4 97000000 		call	_Z9mem_allocm
 180      E7800000 
 181              	.LVL13:
 182 00ec 13070500 		mv	a4,a0
 183              	.LVL14:
 184              	.L13:
  28:src/syscall_c.cpp ****     }
  29:src/syscall_c.cpp ****     int volatile ret;
 185              		.loc 1 29 5 is_stmt 1
  30:src/syscall_c.cpp ****     syscall(THREAD_CREATE, (uint64) handle, (uint64) start_routine, (uint64) arg, (uint64) stack_sp
 186              		.loc 1 30 5
 187              		.loc 1 30 12 is_stmt 0
 188 00f0 93860900 		mv	a3,s3
 189 00f4 13860400 		mv	a2,s1
 190 00f8 93050900 		mv	a1,s2
 191 00fc 13051001 		li	a0,17
 192 0100 97000000 		call	_Z7syscallmmmmm
 192      E7800000 
 193              	.LVL15:
  31:src/syscall_c.cpp ****     __asm__ volatile ("mv %[ret], a0" : [ret] "=r"(ret));
 194              		.loc 1 31 5 is_stmt 1
 195              		.loc 1 31 57 is_stmt 0
 196              	#APP
 197              	# 31 "src/syscall_c.cpp" 1
  32              	    return ret;
GAS LISTING /tmp/ccbjqHaZ.s 			page 5


 198              		mv a5, a0
 199              	# 0 "" 2
 200              	#NO_APP
 201 010c 2326F4FC 		sw	a5,-52(s0)
 202              		.loc 1 32 5 is_stmt 1
 203              		.loc 1 32 12 is_stmt 0
 204 0110 0325C4FC 		lw	a0,-52(s0)
  33:src/syscall_c.cpp **** }
 205              		.loc 1 33 1
 206 0114 1B050500 		sext.w	a0,a0
 207 0118 83308103 		ld	ra,56(sp)
 208              		.cfi_remember_state
 209              		.cfi_restore 1
 210 011c 03340103 		ld	s0,48(sp)
 211              		.cfi_restore 8
 212              		.cfi_def_cfa 2, 64
 213 0120 83348102 		ld	s1,40(sp)
 214              		.cfi_restore 9
 215              	.LVL16:
 216 0124 03390102 		ld	s2,32(sp)
 217              		.cfi_restore 18
 218              	.LVL17:
 219 0128 83398101 		ld	s3,24(sp)
 220              		.cfi_restore 19
 221              	.LVL18:
 222 012c 13010104 		addi	sp,sp,64
 223              		.cfi_def_cfa_offset 0
 224 0130 67800000 		jr	ra
 225              	.LVL19:
 226              	.L14:
 227              		.cfi_restore_state
  25:src/syscall_c.cpp ****     if (start_routine) {
 228              		.loc 1 25 11
 229 0134 13070000 		li	a4,0
 230 0138 6FF09FFB 		j	.L13
 231              		.cfi_endproc
 232              	.LFE28:
 234              		.align	2
 235              		.globl	_Z11thread_exitv
 237              	_Z11thread_exitv:
 238              	.LFB29:
  34:src/syscall_c.cpp **** 
  35:src/syscall_c.cpp **** int thread_exit() {
 239              		.loc 1 35 19 is_stmt 1
 240              		.cfi_startproc
 241 013c 130101FE 		addi	sp,sp,-32
 242              		.cfi_def_cfa_offset 32
 243 0140 233C1100 		sd	ra,24(sp)
 244 0144 23388100 		sd	s0,16(sp)
 245              		.cfi_offset 1, -8
 246              		.cfi_offset 8, -16
 247 0148 13040102 		addi	s0,sp,32
 248              		.cfi_def_cfa 8, 0
  36:src/syscall_c.cpp ****     int volatile ret;
 249              		.loc 1 36 5
  37:src/syscall_c.cpp ****     syscall(THREAD_EXIT);
 250              		.loc 1 37 5
GAS LISTING /tmp/ccbjqHaZ.s 			page 6


 251              		.loc 1 37 12 is_stmt 0
 252 014c 13070000 		li	a4,0
 253 0150 93060000 		li	a3,0
 254 0154 13060000 		li	a2,0
 255 0158 93050000 		li	a1,0
 256 015c 13052001 		li	a0,18
 257 0160 97000000 		call	_Z7syscallmmmmm
 257      E7800000 
 258              	.LVL20:
  38:src/syscall_c.cpp ****     __asm__ volatile ("mv %[ret], a0" : [ret] "=r"(ret));
 259              		.loc 1 38 5 is_stmt 1
 260              		.loc 1 38 57 is_stmt 0
 261              	#APP
 262              	# 38 "src/syscall_c.cpp" 1
  39              	    return ret;
 263              		mv a5, a0
 264              	# 0 "" 2
 265              	#NO_APP
 266 016c 2326F4FE 		sw	a5,-20(s0)
 267              		.loc 1 39 5 is_stmt 1
 268              		.loc 1 39 12 is_stmt 0
 269 0170 0325C4FE 		lw	a0,-20(s0)
  40:src/syscall_c.cpp **** }
 270              		.loc 1 40 1
 271 0174 1B050500 		sext.w	a0,a0
 272 0178 83308101 		ld	ra,24(sp)
 273              		.cfi_restore 1
 274 017c 03340101 		ld	s0,16(sp)
 275              		.cfi_restore 8
 276              		.cfi_def_cfa 2, 32
 277 0180 13010102 		addi	sp,sp,32
 278              		.cfi_def_cfa_offset 0
 279 0184 67800000 		jr	ra
 280              		.cfi_endproc
 281              	.LFE29:
 283              		.align	2
 284              		.globl	_Z15thread_dispatchv
 286              	_Z15thread_dispatchv:
 287              	.LFB30:
  41:src/syscall_c.cpp **** 
  42:src/syscall_c.cpp **** void thread_dispatch() {
 288              		.loc 1 42 24 is_stmt 1
 289              		.cfi_startproc
 290 0188 130101FF 		addi	sp,sp,-16
 291              		.cfi_def_cfa_offset 16
 292 018c 23341100 		sd	ra,8(sp)
 293 0190 23308100 		sd	s0,0(sp)
 294              		.cfi_offset 1, -8
 295              		.cfi_offset 8, -16
 296 0194 13040101 		addi	s0,sp,16
 297              		.cfi_def_cfa 8, 0
  43:src/syscall_c.cpp ****     syscall(THREAD_DISPATCH);
 298              		.loc 1 43 5
 299              		.loc 1 43 12 is_stmt 0
 300 0198 13070000 		li	a4,0
 301 019c 93060000 		li	a3,0
 302 01a0 13060000 		li	a2,0
GAS LISTING /tmp/ccbjqHaZ.s 			page 7


 303 01a4 93050000 		li	a1,0
 304 01a8 13053001 		li	a0,19
 305 01ac 97000000 		call	_Z7syscallmmmmm
 305      E7800000 
 306              	.LVL21:
  44:src/syscall_c.cpp **** }
 307              		.loc 1 44 1
 308 01b4 83308100 		ld	ra,8(sp)
 309              		.cfi_restore 1
 310 01b8 03340100 		ld	s0,0(sp)
 311              		.cfi_restore 8
 312              		.cfi_def_cfa 2, 16
 313 01bc 13010101 		addi	sp,sp,16
 314              		.cfi_def_cfa_offset 0
 315 01c0 67800000 		jr	ra
 316              		.cfi_endproc
 317              	.LFE30:
 319              		.align	2
 320              		.globl	_Z11thread_joinP3TCB
 322              	_Z11thread_joinP3TCB:
 323              	.LFB31:
  45:src/syscall_c.cpp **** 
  46:src/syscall_c.cpp **** void thread_join(thread_t handle) {
 324              		.loc 1 46 35 is_stmt 1
 325              		.cfi_startproc
 326              	.LVL22:
 327 01c4 130101FF 		addi	sp,sp,-16
 328              		.cfi_def_cfa_offset 16
 329 01c8 23341100 		sd	ra,8(sp)
 330 01cc 23308100 		sd	s0,0(sp)
 331              		.cfi_offset 1, -8
 332              		.cfi_offset 8, -16
 333 01d0 13040101 		addi	s0,sp,16
 334              		.cfi_def_cfa 8, 0
 335 01d4 93050500 		mv	a1,a0
  47:src/syscall_c.cpp ****     syscall(THREAD_JOIN, (uint64) handle);
 336              		.loc 1 47 5
 337              		.loc 1 47 12 is_stmt 0
 338 01d8 13070000 		li	a4,0
 339 01dc 93060000 		li	a3,0
 340 01e0 13060000 		li	a2,0
 341 01e4 13054001 		li	a0,20
 342              	.LVL23:
 343 01e8 97000000 		call	_Z7syscallmmmmm
 343      E7800000 
 344              	.LVL24:
  48:src/syscall_c.cpp **** }
 345              		.loc 1 48 1
 346 01f0 83308100 		ld	ra,8(sp)
 347              		.cfi_restore 1
 348 01f4 03340100 		ld	s0,0(sp)
 349              		.cfi_restore 8
 350              		.cfi_def_cfa 2, 16
 351 01f8 13010101 		addi	sp,sp,16
 352              		.cfi_def_cfa_offset 0
 353 01fc 67800000 		jr	ra
 354              		.cfi_endproc
GAS LISTING /tmp/ccbjqHaZ.s 			page 8


 355              	.LFE31:
 357              		.align	2
 358              		.globl	_Z11thread_joinP3TCBm
 360              	_Z11thread_joinP3TCBm:
 361              	.LFB32:
  49:src/syscall_c.cpp **** 
  50:src/syscall_c.cpp **** void thread_join(thread_t handle, time_t time) {
 362              		.loc 1 50 48 is_stmt 1
 363              		.cfi_startproc
 364              	.LVL25:
 365 0200 130101FE 		addi	sp,sp,-32
 366              		.cfi_def_cfa_offset 32
 367 0204 233C1100 		sd	ra,24(sp)
 368 0208 23388100 		sd	s0,16(sp)
 369 020c 23349100 		sd	s1,8(sp)
 370 0210 23302101 		sd	s2,0(sp)
 371              		.cfi_offset 1, -8
 372              		.cfi_offset 8, -16
 373              		.cfi_offset 9, -24
 374              		.cfi_offset 18, -32
 375 0214 13040102 		addi	s0,sp,32
 376              		.cfi_def_cfa 8, 0
 377 0218 13090500 		mv	s2,a0
 378 021c 93840500 		mv	s1,a1
  51:src/syscall_c.cpp ****     if (time == 0) thread_join(handle);
 379              		.loc 1 51 5
 380 0220 638C0502 		beqz	a1,.L25
 381              	.LVL26:
 382              	.L23:
  52:src/syscall_c.cpp ****     syscall(THREAD_JOIN_TIME, (uint64) handle, time);
 383              		.loc 1 52 5
 384              		.loc 1 52 12 is_stmt 0
 385 0224 13070000 		li	a4,0
 386 0228 93060000 		li	a3,0
 387 022c 13860400 		mv	a2,s1
 388 0230 93050900 		mv	a1,s2
 389 0234 13055001 		li	a0,21
 390 0238 97000000 		call	_Z7syscallmmmmm
 390      E7800000 
 391              	.LVL27:
  53:src/syscall_c.cpp **** }
 392              		.loc 1 53 1
 393 0240 83308101 		ld	ra,24(sp)
 394              		.cfi_remember_state
 395              		.cfi_restore 1
 396 0244 03340101 		ld	s0,16(sp)
 397              		.cfi_restore 8
 398              		.cfi_def_cfa 2, 32
 399 0248 83348100 		ld	s1,8(sp)
 400              		.cfi_restore 9
 401              	.LVL28:
 402 024c 03390100 		ld	s2,0(sp)
 403              		.cfi_restore 18
 404              	.LVL29:
 405 0250 13010102 		addi	sp,sp,32
 406              		.cfi_def_cfa_offset 0
 407 0254 67800000 		jr	ra
GAS LISTING /tmp/ccbjqHaZ.s 			page 9


 408              	.LVL30:
 409              	.L25:
 410              		.cfi_restore_state
  51:src/syscall_c.cpp ****     if (time == 0) thread_join(handle);
 411              		.loc 1 51 20 is_stmt 1 discriminator 1
  51:src/syscall_c.cpp ****     if (time == 0) thread_join(handle);
 412              		.loc 1 51 31 is_stmt 0 discriminator 1
 413 0258 97000000 		call	_Z11thread_joinP3TCB
 413      E7800000 
 414              	.LVL31:
 415 0260 6FF05FFC 		j	.L23
 416              		.cfi_endproc
 417              	.LFE32:
 419              		.align	2
 420              		.globl	_Z4forkv
 422              	_Z4forkv:
 423              	.LFB33:
  54:src/syscall_c.cpp **** 
  55:src/syscall_c.cpp **** int fork() {
 424              		.loc 1 55 12 is_stmt 1
 425              		.cfi_startproc
 426 0264 130101FE 		addi	sp,sp,-32
 427              		.cfi_def_cfa_offset 32
 428 0268 233C1100 		sd	ra,24(sp)
 429 026c 23388100 		sd	s0,16(sp)
 430              		.cfi_offset 1, -8
 431              		.cfi_offset 8, -16
 432 0270 13040102 		addi	s0,sp,32
 433              		.cfi_def_cfa 8, 0
  56:src/syscall_c.cpp ****     int volatile ret;
 434              		.loc 1 56 5
  57:src/syscall_c.cpp ****     syscall(THREAD_FORK);
 435              		.loc 1 57 5
 436              		.loc 1 57 12 is_stmt 0
 437 0274 13070000 		li	a4,0
 438 0278 93060000 		li	a3,0
 439 027c 13060000 		li	a2,0
 440 0280 93050000 		li	a1,0
 441 0284 13056001 		li	a0,22
 442 0288 97000000 		call	_Z7syscallmmmmm
 442      E7800000 
 443              	.LVL32:
  58:src/syscall_c.cpp ****     __asm__ volatile ("mv %[ret], a0" : [ret] "=r"(ret));
 444              		.loc 1 58 5 is_stmt 1
 445              		.loc 1 58 57 is_stmt 0
 446              	#APP
 447              	# 58 "src/syscall_c.cpp" 1
  59              	    return ret;
 448              		mv a5, a0
 449              	# 0 "" 2
 450              	#NO_APP
 451 0294 2326F4FE 		sw	a5,-20(s0)
 452              		.loc 1 59 5 is_stmt 1
 453              		.loc 1 59 12 is_stmt 0
 454 0298 0325C4FE 		lw	a0,-20(s0)
  60:src/syscall_c.cpp **** }
 455              		.loc 1 60 1
GAS LISTING /tmp/ccbjqHaZ.s 			page 10


 456 029c 1B050500 		sext.w	a0,a0
 457 02a0 83308101 		ld	ra,24(sp)
 458              		.cfi_restore 1
 459 02a4 03340101 		ld	s0,16(sp)
 460              		.cfi_restore 8
 461              		.cfi_def_cfa 2, 32
 462 02a8 13010102 		addi	sp,sp,32
 463              		.cfi_def_cfa_offset 0
 464 02ac 67800000 		jr	ra
 465              		.cfi_endproc
 466              	.LFE33:
 468              		.align	2
 469              		.globl	_Z11thread_killP3TCB
 471              	_Z11thread_killP3TCB:
 472              	.LFB34:
  61:src/syscall_c.cpp **** 
  62:src/syscall_c.cpp **** int thread_kill(thread_t handle) {
 473              		.loc 1 62 34 is_stmt 1
 474              		.cfi_startproc
 475              	.LVL33:
 476 02b0 130101FE 		addi	sp,sp,-32
 477              		.cfi_def_cfa_offset 32
 478 02b4 233C1100 		sd	ra,24(sp)
 479 02b8 23388100 		sd	s0,16(sp)
 480              		.cfi_offset 1, -8
 481              		.cfi_offset 8, -16
 482 02bc 13040102 		addi	s0,sp,32
 483              		.cfi_def_cfa 8, 0
 484 02c0 93050500 		mv	a1,a0
  63:src/syscall_c.cpp ****     int volatile ret;
 485              		.loc 1 63 5
  64:src/syscall_c.cpp ****     syscall(THREAD_KILL, (uint64) handle);
 486              		.loc 1 64 5
 487              		.loc 1 64 12 is_stmt 0
 488 02c4 13070000 		li	a4,0
 489 02c8 93060000 		li	a3,0
 490 02cc 13060000 		li	a2,0
 491 02d0 13057001 		li	a0,23
 492              	.LVL34:
 493 02d4 97000000 		call	_Z7syscallmmmmm
 493      E7800000 
 494              	.LVL35:
  65:src/syscall_c.cpp ****     __asm__ volatile ("mv %[ret], a0" : [ret] "=r"(ret));
 495              		.loc 1 65 5 is_stmt 1
 496              		.loc 1 65 57 is_stmt 0
 497              	#APP
 498              	# 65 "src/syscall_c.cpp" 1
  66              	    return ret;
 499              		mv a5, a0
 500              	# 0 "" 2
 501              	#NO_APP
 502 02e0 2326F4FE 		sw	a5,-20(s0)
 503              		.loc 1 66 5 is_stmt 1
 504              		.loc 1 66 12 is_stmt 0
 505 02e4 0325C4FE 		lw	a0,-20(s0)
  67:src/syscall_c.cpp **** }
 506              		.loc 1 67 1
GAS LISTING /tmp/ccbjqHaZ.s 			page 11


 507 02e8 1B050500 		sext.w	a0,a0
 508 02ec 83308101 		ld	ra,24(sp)
 509              		.cfi_restore 1
 510 02f0 03340101 		ld	s0,16(sp)
 511              		.cfi_restore 8
 512              		.cfi_def_cfa 2, 32
 513 02f4 13010102 		addi	sp,sp,32
 514              		.cfi_def_cfa_offset 0
 515 02f8 67800000 		jr	ra
 516              		.cfi_endproc
 517              	.LFE34:
 519              		.align	2
 520              		.globl	_Z8sem_openPP3Semj
 522              	_Z8sem_openPP3Semj:
 523              	.LFB35:
  68:src/syscall_c.cpp **** 
  69:src/syscall_c.cpp **** int sem_open(sem_t *handle, unsigned init) {
 524              		.loc 1 69 44 is_stmt 1
 525              		.cfi_startproc
 526              	.LVL36:
 527 02fc 130101FE 		addi	sp,sp,-32
 528              		.cfi_def_cfa_offset 32
 529 0300 233C1100 		sd	ra,24(sp)
 530 0304 23388100 		sd	s0,16(sp)
 531              		.cfi_offset 1, -8
 532              		.cfi_offset 8, -16
 533 0308 13040102 		addi	s0,sp,32
 534              		.cfi_def_cfa 8, 0
  70:src/syscall_c.cpp ****     int volatile ret;
 535              		.loc 1 70 5
  71:src/syscall_c.cpp ****     syscall(SEM_OPEN, (uint64) handle, init);
 536              		.loc 1 71 5
 537              		.loc 1 71 12 is_stmt 0
 538 030c 13070000 		li	a4,0
 539 0310 93060000 		li	a3,0
 540 0314 13960502 		slli	a2,a1,32
 541 0318 13560602 		srli	a2,a2,32
 542 031c 93050500 		mv	a1,a0
 543              	.LVL37:
 544 0320 13051002 		li	a0,33
 545              	.LVL38:
 546 0324 97000000 		call	_Z7syscallmmmmm
 546      E7800000 
 547              	.LVL39:
  72:src/syscall_c.cpp ****     __asm__ volatile ("mv %[ret], a0" : [ret] "=r"(ret));
 548              		.loc 1 72 5 is_stmt 1
 549              		.loc 1 72 57 is_stmt 0
 550              	#APP
 551              	# 72 "src/syscall_c.cpp" 1
  73              	    return ret;
 552              		mv a5, a0
 553              	# 0 "" 2
 554              	#NO_APP
 555 0330 2326F4FE 		sw	a5,-20(s0)
 556              		.loc 1 73 5 is_stmt 1
 557              		.loc 1 73 12 is_stmt 0
 558 0334 0325C4FE 		lw	a0,-20(s0)
GAS LISTING /tmp/ccbjqHaZ.s 			page 12


  74:src/syscall_c.cpp **** }
 559              		.loc 1 74 1
 560 0338 1B050500 		sext.w	a0,a0
 561 033c 83308101 		ld	ra,24(sp)
 562              		.cfi_restore 1
 563 0340 03340101 		ld	s0,16(sp)
 564              		.cfi_restore 8
 565              		.cfi_def_cfa 2, 32
 566 0344 13010102 		addi	sp,sp,32
 567              		.cfi_def_cfa_offset 0
 568 0348 67800000 		jr	ra
 569              		.cfi_endproc
 570              	.LFE35:
 572              		.align	2
 573              		.globl	_Z9sem_closeP3Sem
 575              	_Z9sem_closeP3Sem:
 576              	.LFB36:
  75:src/syscall_c.cpp **** 
  76:src/syscall_c.cpp **** int sem_close(sem_t id) {
 577              		.loc 1 76 25 is_stmt 1
 578              		.cfi_startproc
 579              	.LVL40:
 580 034c 130101FE 		addi	sp,sp,-32
 581              		.cfi_def_cfa_offset 32
 582 0350 233C1100 		sd	ra,24(sp)
 583 0354 23388100 		sd	s0,16(sp)
 584              		.cfi_offset 1, -8
 585              		.cfi_offset 8, -16
 586 0358 13040102 		addi	s0,sp,32
 587              		.cfi_def_cfa 8, 0
 588 035c 93050500 		mv	a1,a0
  77:src/syscall_c.cpp ****     int volatile ret;
 589              		.loc 1 77 5
  78:src/syscall_c.cpp ****     syscall(SEM_CLOSE, (uint64) id);
 590              		.loc 1 78 5
 591              		.loc 1 78 12 is_stmt 0
 592 0360 13070000 		li	a4,0
 593 0364 93060000 		li	a3,0
 594 0368 13060000 		li	a2,0
 595 036c 13052002 		li	a0,34
 596              	.LVL41:
 597 0370 97000000 		call	_Z7syscallmmmmm
 597      E7800000 
 598              	.LVL42:
  79:src/syscall_c.cpp ****     __asm__ volatile ("mv %[ret], a0" : [ret] "=r"(ret));
 599              		.loc 1 79 5 is_stmt 1
 600              		.loc 1 79 57 is_stmt 0
 601              	#APP
 602              	# 79 "src/syscall_c.cpp" 1
  80              	    return ret;
 603              		mv a5, a0
 604              	# 0 "" 2
 605              	#NO_APP
 606 037c 2326F4FE 		sw	a5,-20(s0)
 607              		.loc 1 80 5 is_stmt 1
 608              		.loc 1 80 12 is_stmt 0
 609 0380 0325C4FE 		lw	a0,-20(s0)
GAS LISTING /tmp/ccbjqHaZ.s 			page 13


  81:src/syscall_c.cpp **** }
 610              		.loc 1 81 1
 611 0384 1B050500 		sext.w	a0,a0
 612 0388 83308101 		ld	ra,24(sp)
 613              		.cfi_restore 1
 614 038c 03340101 		ld	s0,16(sp)
 615              		.cfi_restore 8
 616              		.cfi_def_cfa 2, 32
 617 0390 13010102 		addi	sp,sp,32
 618              		.cfi_def_cfa_offset 0
 619 0394 67800000 		jr	ra
 620              		.cfi_endproc
 621              	.LFE36:
 623              		.align	2
 624              		.globl	_Z8sem_waitP3Sem
 626              	_Z8sem_waitP3Sem:
 627              	.LFB37:
  82:src/syscall_c.cpp **** 
  83:src/syscall_c.cpp **** int sem_wait(sem_t id) {
 628              		.loc 1 83 24 is_stmt 1
 629              		.cfi_startproc
 630              	.LVL43:
 631 0398 130101FE 		addi	sp,sp,-32
 632              		.cfi_def_cfa_offset 32
 633 039c 233C1100 		sd	ra,24(sp)
 634 03a0 23388100 		sd	s0,16(sp)
 635              		.cfi_offset 1, -8
 636              		.cfi_offset 8, -16
 637 03a4 13040102 		addi	s0,sp,32
 638              		.cfi_def_cfa 8, 0
 639 03a8 93050500 		mv	a1,a0
  84:src/syscall_c.cpp ****     int volatile ret;
 640              		.loc 1 84 5
  85:src/syscall_c.cpp ****     syscall(SEM_WAIT, (uint64) id);
 641              		.loc 1 85 5
 642              		.loc 1 85 12 is_stmt 0
 643 03ac 13070000 		li	a4,0
 644 03b0 93060000 		li	a3,0
 645 03b4 13060000 		li	a2,0
 646 03b8 13053002 		li	a0,35
 647              	.LVL44:
 648 03bc 97000000 		call	_Z7syscallmmmmm
 648      E7800000 
 649              	.LVL45:
  86:src/syscall_c.cpp ****     __asm__ volatile ("mv %[ret], a0" : [ret] "=r"(ret));
 650              		.loc 1 86 5 is_stmt 1
 651              		.loc 1 86 57 is_stmt 0
 652              	#APP
 653              	# 86 "src/syscall_c.cpp" 1
  87              	    return ret;
 654              		mv a5, a0
 655              	# 0 "" 2
 656              	#NO_APP
 657 03c8 2326F4FE 		sw	a5,-20(s0)
 658              		.loc 1 87 5 is_stmt 1
 659              		.loc 1 87 12 is_stmt 0
 660 03cc 0325C4FE 		lw	a0,-20(s0)
GAS LISTING /tmp/ccbjqHaZ.s 			page 14


  88:src/syscall_c.cpp **** }
 661              		.loc 1 88 1
 662 03d0 1B050500 		sext.w	a0,a0
 663 03d4 83308101 		ld	ra,24(sp)
 664              		.cfi_restore 1
 665 03d8 03340101 		ld	s0,16(sp)
 666              		.cfi_restore 8
 667              		.cfi_def_cfa 2, 32
 668 03dc 13010102 		addi	sp,sp,32
 669              		.cfi_def_cfa_offset 0
 670 03e0 67800000 		jr	ra
 671              		.cfi_endproc
 672              	.LFE37:
 674              		.align	2
 675              		.globl	_Z10sem_signalP3Sem
 677              	_Z10sem_signalP3Sem:
 678              	.LFB38:
  89:src/syscall_c.cpp **** 
  90:src/syscall_c.cpp **** int sem_signal(sem_t id) {
 679              		.loc 1 90 26 is_stmt 1
 680              		.cfi_startproc
 681              	.LVL46:
 682 03e4 130101FE 		addi	sp,sp,-32
 683              		.cfi_def_cfa_offset 32
 684 03e8 233C1100 		sd	ra,24(sp)
 685 03ec 23388100 		sd	s0,16(sp)
 686              		.cfi_offset 1, -8
 687              		.cfi_offset 8, -16
 688 03f0 13040102 		addi	s0,sp,32
 689              		.cfi_def_cfa 8, 0
 690 03f4 93050500 		mv	a1,a0
  91:src/syscall_c.cpp ****     int volatile ret;
 691              		.loc 1 91 5
  92:src/syscall_c.cpp ****     syscall(SEM_SIGNAL, (uint64) id);
 692              		.loc 1 92 5
 693              		.loc 1 92 12 is_stmt 0
 694 03f8 13070000 		li	a4,0
 695 03fc 93060000 		li	a3,0
 696 0400 13060000 		li	a2,0
 697 0404 13054002 		li	a0,36
 698              	.LVL47:
 699 0408 97000000 		call	_Z7syscallmmmmm
 699      E7800000 
 700              	.LVL48:
  93:src/syscall_c.cpp ****     __asm__ volatile ("mv %[ret], a0" : [ret] "=r"(ret));
 701              		.loc 1 93 5 is_stmt 1
 702              		.loc 1 93 57 is_stmt 0
 703              	#APP
 704              	# 93 "src/syscall_c.cpp" 1
  94              	    return ret;
 705              		mv a5, a0
 706              	# 0 "" 2
 707              	#NO_APP
 708 0414 2326F4FE 		sw	a5,-20(s0)
 709              		.loc 1 94 5 is_stmt 1
 710              		.loc 1 94 12 is_stmt 0
 711 0418 0325C4FE 		lw	a0,-20(s0)
GAS LISTING /tmp/ccbjqHaZ.s 			page 15


  95:src/syscall_c.cpp **** }
 712              		.loc 1 95 1
 713 041c 1B050500 		sext.w	a0,a0
 714 0420 83308101 		ld	ra,24(sp)
 715              		.cfi_restore 1
 716 0424 03340101 		ld	s0,16(sp)
 717              		.cfi_restore 8
 718              		.cfi_def_cfa 2, 32
 719 0428 13010102 		addi	sp,sp,32
 720              		.cfi_def_cfa_offset 0
 721 042c 67800000 		jr	ra
 722              		.cfi_endproc
 723              	.LFE38:
 725              		.align	2
 726              		.globl	_Z15signal_and_waitP3SemS0_
 728              	_Z15signal_and_waitP3SemS0_:
 729              	.LFB39:
  96:src/syscall_c.cpp **** 
  97:src/syscall_c.cpp **** int signal_and_wait(sem_t signal, sem_t wait) {
 730              		.loc 1 97 47 is_stmt 1
 731              		.cfi_startproc
 732              	.LVL49:
 733 0430 130101FE 		addi	sp,sp,-32
 734              		.cfi_def_cfa_offset 32
 735 0434 233C1100 		sd	ra,24(sp)
 736 0438 23388100 		sd	s0,16(sp)
 737              		.cfi_offset 1, -8
 738              		.cfi_offset 8, -16
 739 043c 13040102 		addi	s0,sp,32
 740              		.cfi_def_cfa 8, 0
 741 0440 13860500 		mv	a2,a1
  98:src/syscall_c.cpp ****     int volatile ret;
 742              		.loc 1 98 5
  99:src/syscall_c.cpp ****     syscall(SIGNAL_WAIT, (uint64) signal, (uint64) wait);
 743              		.loc 1 99 5
 744              		.loc 1 99 12 is_stmt 0
 745 0444 13070000 		li	a4,0
 746 0448 93060000 		li	a3,0
 747 044c 93050500 		mv	a1,a0
 748              	.LVL50:
 749 0450 13055002 		li	a0,37
 750              	.LVL51:
 751 0454 97000000 		call	_Z7syscallmmmmm
 751      E7800000 
 752              	.LVL52:
 100:src/syscall_c.cpp ****     __asm__ volatile ("mv %[ret], a0" : [ret] "=r"(ret));
 753              		.loc 1 100 5 is_stmt 1
 754              		.loc 1 100 57 is_stmt 0
 755              	#APP
 756              	# 100 "src/syscall_c.cpp" 1
 101              	    return ret;
 757              		mv a5, a0
 758              	# 0 "" 2
 759              	#NO_APP
 760 0460 2326F4FE 		sw	a5,-20(s0)
 761              		.loc 1 101 5 is_stmt 1
 762              		.loc 1 101 12 is_stmt 0
GAS LISTING /tmp/ccbjqHaZ.s 			page 16


 763 0464 0325C4FE 		lw	a0,-20(s0)
 102:src/syscall_c.cpp **** }
 764              		.loc 1 102 1
 765 0468 1B050500 		sext.w	a0,a0
 766 046c 83308101 		ld	ra,24(sp)
 767              		.cfi_restore 1
 768 0470 03340101 		ld	s0,16(sp)
 769              		.cfi_restore 8
 770              		.cfi_def_cfa 2, 32
 771 0474 13010102 		addi	sp,sp,32
 772              		.cfi_def_cfa_offset 0
 773 0478 67800000 		jr	ra
 774              		.cfi_endproc
 775              	.LFE39:
 777              		.align	2
 778              		.globl	_Z10time_sleepm
 780              	_Z10time_sleepm:
 781              	.LFB40:
 103:src/syscall_c.cpp **** 
 104:src/syscall_c.cpp **** int time_sleep(time_t ms) {
 782              		.loc 1 104 27 is_stmt 1
 783              		.cfi_startproc
 784              	.LVL53:
 105:src/syscall_c.cpp ****     if (ms == 0) return -1;
 785              		.loc 1 105 5
 786 047c 63080504 		beqz	a0,.L42
 104:src/syscall_c.cpp ****     if (ms == 0) return -1;
 787              		.loc 1 104 27 is_stmt 0
 788 0480 130101FE 		addi	sp,sp,-32
 789              		.cfi_def_cfa_offset 32
 790 0484 233C1100 		sd	ra,24(sp)
 791 0488 23388100 		sd	s0,16(sp)
 792              		.cfi_offset 1, -8
 793              		.cfi_offset 8, -16
 794 048c 13040102 		addi	s0,sp,32
 795              		.cfi_def_cfa 8, 0
 796 0490 93050500 		mv	a1,a0
 106:src/syscall_c.cpp ****     int volatile ret;
 797              		.loc 1 106 5 is_stmt 1
 107:src/syscall_c.cpp ****     syscall(TIME_SLEEP, ms);
 798              		.loc 1 107 5
 799              		.loc 1 107 12 is_stmt 0
 800 0494 13070000 		li	a4,0
 801 0498 93060000 		li	a3,0
 802 049c 13060000 		li	a2,0
 803 04a0 13051003 		li	a0,49
 804              	.LVL54:
 805 04a4 97000000 		call	_Z7syscallmmmmm
 805      E7800000 
 806              	.LVL55:
 108:src/syscall_c.cpp ****     __asm__ volatile ("mv %[ret], a0" : [ret] "=r"(ret));
 807              		.loc 1 108 5 is_stmt 1
 808              		.loc 1 108 57 is_stmt 0
 809              	#APP
 810              	# 108 "src/syscall_c.cpp" 1
 109              	    return ret;
 811              		mv a5, a0
GAS LISTING /tmp/ccbjqHaZ.s 			page 17


 812              	# 0 "" 2
 813              	#NO_APP
 814 04b0 2326F4FE 		sw	a5,-20(s0)
 815              		.loc 1 109 5 is_stmt 1
 816              		.loc 1 109 12 is_stmt 0
 817 04b4 0325C4FE 		lw	a0,-20(s0)
 818 04b8 1B050500 		sext.w	a0,a0
 110:src/syscall_c.cpp **** }
 819              		.loc 1 110 1
 820 04bc 83308101 		ld	ra,24(sp)
 821              		.cfi_restore 1
 822 04c0 03340101 		ld	s0,16(sp)
 823              		.cfi_restore 8
 824              		.cfi_def_cfa 2, 32
 825 04c4 13010102 		addi	sp,sp,32
 826              		.cfi_def_cfa_offset 0
 827 04c8 67800000 		jr	ra
 828              	.LVL56:
 829              	.L42:
 105:src/syscall_c.cpp ****     int volatile ret;
 830              		.loc 1 105 26
 831 04cc 1305F0FF 		li	a0,-1
 832              	.LVL57:
 833              		.loc 1 110 1
 834 04d0 67800000 		ret
 835              		.cfi_endproc
 836              	.LFE40:
 838              		.align	2
 839              		.globl	_Z11thread_wakeP3TCB
 841              	_Z11thread_wakeP3TCB:
 842              	.LFB41:
 111:src/syscall_c.cpp **** 
 112:src/syscall_c.cpp **** int thread_wake(thread_t handle) {
 843              		.loc 1 112 34 is_stmt 1
 844              		.cfi_startproc
 845              	.LVL58:
 846 04d4 130101FE 		addi	sp,sp,-32
 847              		.cfi_def_cfa_offset 32
 848 04d8 233C1100 		sd	ra,24(sp)
 849 04dc 23388100 		sd	s0,16(sp)
 850              		.cfi_offset 1, -8
 851              		.cfi_offset 8, -16
 852 04e0 13040102 		addi	s0,sp,32
 853              		.cfi_def_cfa 8, 0
 854 04e4 93050500 		mv	a1,a0
 113:src/syscall_c.cpp ****     int volatile ret;
 855              		.loc 1 113 5
 114:src/syscall_c.cpp ****     syscall(TIME_SLEEP, (uint64) handle);
 856              		.loc 1 114 5
 857              		.loc 1 114 12 is_stmt 0
 858 04e8 13070000 		li	a4,0
 859 04ec 93060000 		li	a3,0
 860 04f0 13060000 		li	a2,0
 861 04f4 13051003 		li	a0,49
 862              	.LVL59:
 863 04f8 97000000 		call	_Z7syscallmmmmm
 863      E7800000 
GAS LISTING /tmp/ccbjqHaZ.s 			page 18


 864              	.LVL60:
 115:src/syscall_c.cpp ****     __asm__ volatile ("mv %[ret], a0" : [ret] "=r"(ret));
 865              		.loc 1 115 5 is_stmt 1
 866              		.loc 1 115 57 is_stmt 0
 867              	#APP
 868              	# 115 "src/syscall_c.cpp" 1
 116              	    return ret;
 869              		mv a5, a0
 870              	# 0 "" 2
 871              	#NO_APP
 872 0504 2326F4FE 		sw	a5,-20(s0)
 873              		.loc 1 116 5 is_stmt 1
 874              		.loc 1 116 12 is_stmt 0
 875 0508 0325C4FE 		lw	a0,-20(s0)
 117:src/syscall_c.cpp **** }
 876              		.loc 1 117 1
 877 050c 1B050500 		sext.w	a0,a0
 878 0510 83308101 		ld	ra,24(sp)
 879              		.cfi_restore 1
 880 0514 03340101 		ld	s0,16(sp)
 881              		.cfi_restore 8
 882              		.cfi_def_cfa 2, 32
 883 0518 13010102 		addi	sp,sp,32
 884              		.cfi_def_cfa_offset 0
 885 051c 67800000 		jr	ra
 886              		.cfi_endproc
 887              	.LFE41:
 889              		.align	2
 890              		.globl	_Z4getcv
 892              	_Z4getcv:
 893              	.LFB42:
 118:src/syscall_c.cpp **** 
 119:src/syscall_c.cpp **** char getc() {
 894              		.loc 1 119 13 is_stmt 1
 895              		.cfi_startproc
 896 0520 130101FE 		addi	sp,sp,-32
 897              		.cfi_def_cfa_offset 32
 898 0524 233C1100 		sd	ra,24(sp)
 899 0528 23388100 		sd	s0,16(sp)
 900              		.cfi_offset 1, -8
 901              		.cfi_offset 8, -16
 902 052c 13040102 		addi	s0,sp,32
 903              		.cfi_def_cfa 8, 0
 120:src/syscall_c.cpp ****     char volatile ret;
 904              		.loc 1 120 5
 121:src/syscall_c.cpp ****     syscall(GETC);
 905              		.loc 1 121 5
 906              		.loc 1 121 12 is_stmt 0
 907 0530 13070000 		li	a4,0
 908 0534 93060000 		li	a3,0
 909 0538 13060000 		li	a2,0
 910 053c 93050000 		li	a1,0
 911 0540 13051004 		li	a0,65
 912 0544 97000000 		call	_Z7syscallmmmmm
 912      E7800000 
 913              	.LVL61:
 122:src/syscall_c.cpp ****     __asm__ volatile ("mv %[ret], a0" : [ret] "=r"(ret));
GAS LISTING /tmp/ccbjqHaZ.s 			page 19


 914              		.loc 1 122 5 is_stmt 1
 915              		.loc 1 122 57 is_stmt 0
 916              	#APP
 917              	# 122 "src/syscall_c.cpp" 1
 123              	    return ret;
 918              		mv a5, a0
 919              	# 0 "" 2
 920              	#NO_APP
 921 0550 A307F4FE 		sb	a5,-17(s0)
 922              		.loc 1 123 5 is_stmt 1
 923              		.loc 1 123 12 is_stmt 0
 924 0554 0345F4FE 		lbu	a0,-17(s0)
 124:src/syscall_c.cpp **** }
 925              		.loc 1 124 1
 926 0558 1375F50F 		andi	a0,a0,0xff
 927 055c 83308101 		ld	ra,24(sp)
 928              		.cfi_restore 1
 929 0560 03340101 		ld	s0,16(sp)
 930              		.cfi_restore 8
 931              		.cfi_def_cfa 2, 32
 932 0564 13010102 		addi	sp,sp,32
 933              		.cfi_def_cfa_offset 0
 934 0568 67800000 		jr	ra
 935              		.cfi_endproc
 936              	.LFE42:
 938              		.align	2
 939              		.globl	_Z4putcc
 941              	_Z4putcc:
 942              	.LFB43:
 125:src/syscall_c.cpp **** 
 126:src/syscall_c.cpp **** void putc(char c) {
 943              		.loc 1 126 19 is_stmt 1
 944              		.cfi_startproc
 945              	.LVL62:
 946 056c 130101FF 		addi	sp,sp,-16
 947              		.cfi_def_cfa_offset 16
 948 0570 23341100 		sd	ra,8(sp)
 949 0574 23308100 		sd	s0,0(sp)
 950              		.cfi_offset 1, -8
 951              		.cfi_offset 8, -16
 952 0578 13040101 		addi	s0,sp,16
 953              		.cfi_def_cfa 8, 0
 954 057c 93050500 		mv	a1,a0
 127:src/syscall_c.cpp ****     syscall(PUTC, c);
 955              		.loc 1 127 5
 956              		.loc 1 127 12 is_stmt 0
 957 0580 13070000 		li	a4,0
 958 0584 93060000 		li	a3,0
 959 0588 13060000 		li	a2,0
 960 058c 13052004 		li	a0,66
 961              	.LVL63:
 962 0590 97000000 		call	_Z7syscallmmmmm
 962      E7800000 
 963              	.LVL64:
 128:src/syscall_c.cpp **** }
 964              		.loc 1 128 1
 965 0598 83308100 		ld	ra,8(sp)
GAS LISTING /tmp/ccbjqHaZ.s 			page 20


 966              		.cfi_restore 1
 967 059c 03340100 		ld	s0,0(sp)
 968              		.cfi_restore 8
 969              		.cfi_def_cfa 2, 16
 970 05a0 13010101 		addi	sp,sp,16
 971              		.cfi_def_cfa_offset 0
 972 05a4 67800000 		jr	ra
 973              		.cfi_endproc
 974              	.LFE43:
 976              		.align	2
 977              		.globl	_Z3scsv
 979              	_Z3scsv:
 980              	.LFB44:
 129:src/syscall_c.cpp **** 
 130:src/syscall_c.cpp **** uint64 scs() {
 981              		.loc 1 130 14 is_stmt 1
 982              		.cfi_startproc
 983 05a8 130101FE 		addi	sp,sp,-32
 984              		.cfi_def_cfa_offset 32
 985 05ac 233C8100 		sd	s0,24(sp)
 986              		.cfi_offset 8, -8
 987 05b0 13040102 		addi	s0,sp,32
 988              		.cfi_def_cfa 8, 0
 131:src/syscall_c.cpp ****     int volatile ret;
 989              		.loc 1 131 5
 132:src/syscall_c.cpp ****     Riscv::r_stvec();
 990              		.loc 1 132 5
 991              	.LBB4:
 992              	.LBB5:
 993              		.file 2 "src/../h/riscv.hpp"
   1:src/../h/riscv.hpp **** #ifndef PROJECT_BASE_RISCV_HPP
   2:src/../h/riscv.hpp **** #define PROJECT_BASE_RISCV_HPP
   3:src/../h/riscv.hpp **** 
   4:src/../h/riscv.hpp **** #include "../lib/hw.h"
   5:src/../h/riscv.hpp **** 
   6:src/../h/riscv.hpp **** extern "C" void supervisorTrap();
   7:src/../h/riscv.hpp **** 
   8:src/../h/riscv.hpp **** class Riscv {
   9:src/../h/riscv.hpp **** public:
  10:src/../h/riscv.hpp **** 
  11:src/../h/riscv.hpp ****     __attribute__((unused)) static void handleSupervisorTrap();
  12:src/../h/riscv.hpp **** 
  13:src/../h/riscv.hpp ****     static void handleTimerTrap();
  14:src/../h/riscv.hpp **** 
  15:src/../h/riscv.hpp ****     static void handleReadTrap();
  16:src/../h/riscv.hpp **** 
  17:src/../h/riscv.hpp ****     static void handleWriteTrap();
  18:src/../h/riscv.hpp **** 
  19:src/../h/riscv.hpp ****     static void popSppSpie();
  20:src/../h/riscv.hpp **** 
  21:src/../h/riscv.hpp ****     static void handleConsoleTrap();
  22:src/../h/riscv.hpp **** 
  23:src/../h/riscv.hpp ****     static void push();
  24:src/../h/riscv.hpp **** 
  25:src/../h/riscv.hpp ****     static void pop();
  26:src/../h/riscv.hpp **** 
  27:src/../h/riscv.hpp ****     // read register scause
GAS LISTING /tmp/ccbjqHaZ.s 			page 21


  28:src/../h/riscv.hpp ****     static uint64 r_scause();
  29:src/../h/riscv.hpp **** 
  30:src/../h/riscv.hpp ****     // write register scause
  31:src/../h/riscv.hpp ****     static void w_scause(uint64 scause);
  32:src/../h/riscv.hpp **** 
  33:src/../h/riscv.hpp ****     // read register sepc
  34:src/../h/riscv.hpp ****     static uint64 r_sepc();
  35:src/../h/riscv.hpp **** 
  36:src/../h/riscv.hpp ****     // write register sepc
  37:src/../h/riscv.hpp ****     static void w_sepc(uint64 sepc);
  38:src/../h/riscv.hpp **** 
  39:src/../h/riscv.hpp ****     // read register stvec
  40:src/../h/riscv.hpp ****     static uint64 r_stvec();
  41:src/../h/riscv.hpp **** 
  42:src/../h/riscv.hpp ****     // write register stvec
  43:src/../h/riscv.hpp ****     static void w_stvec(uint64 stvec);
  44:src/../h/riscv.hpp **** 
  45:src/../h/riscv.hpp ****     // read register stval
  46:src/../h/riscv.hpp ****     static uint64 r_stval();
  47:src/../h/riscv.hpp **** 
  48:src/../h/riscv.hpp ****     // write register stval
  49:src/../h/riscv.hpp ****     static void w_stval(uint64 stval);
  50:src/../h/riscv.hpp **** 
  51:src/../h/riscv.hpp ****     enum BitMaskSip {
  52:src/../h/riscv.hpp ****         SIP_SSIE = (1 << 1),
  53:src/../h/riscv.hpp ****         SIP_STIE = (1 << 5),
  54:src/../h/riscv.hpp ****         SIP_SEIE = (1 << 9),
  55:src/../h/riscv.hpp ****     };
  56:src/../h/riscv.hpp **** 
  57:src/../h/riscv.hpp ****     // mask set register sip
  58:src/../h/riscv.hpp ****     static void ms_sip(uint64 mask);
  59:src/../h/riscv.hpp **** 
  60:src/../h/riscv.hpp ****     // mask clear register sip
  61:src/../h/riscv.hpp ****     static void mc_sip(uint64 mask);
  62:src/../h/riscv.hpp **** 
  63:src/../h/riscv.hpp ****     // read register sip
  64:src/../h/riscv.hpp ****     static uint64 r_sip();
  65:src/../h/riscv.hpp **** 
  66:src/../h/riscv.hpp ****     // write register sip
  67:src/../h/riscv.hpp ****     static void w_sip(uint64 sip);
  68:src/../h/riscv.hpp **** 
  69:src/../h/riscv.hpp ****     enum BitMaskSstatus {
  70:src/../h/riscv.hpp ****         SSTATUS_SIE = (1 << 1),
  71:src/../h/riscv.hpp ****         SSTATUS_SPIE = (1 << 5),
  72:src/../h/riscv.hpp ****         SSTATUS_SPP = (1 << 8),
  73:src/../h/riscv.hpp ****     };
  74:src/../h/riscv.hpp **** 
  75:src/../h/riscv.hpp ****     // mask set register sstatus
  76:src/../h/riscv.hpp ****     static void ms_sstatus(uint64 mask);
  77:src/../h/riscv.hpp **** 
  78:src/../h/riscv.hpp ****     // mask clear register sstatus
  79:src/../h/riscv.hpp ****     static void mc_sstatus(uint64 mask);
  80:src/../h/riscv.hpp **** 
  81:src/../h/riscv.hpp ****     // read register sstatus
  82:src/../h/riscv.hpp ****     static uint64 r_sstatus();
  83:src/../h/riscv.hpp **** 
  84:src/../h/riscv.hpp ****     // write register sstatus
GAS LISTING /tmp/ccbjqHaZ.s 			page 22


  85:src/../h/riscv.hpp ****     static void w_sstatus(uint64 sstatus);
  86:src/../h/riscv.hpp **** 
  87:src/../h/riscv.hpp ****     static uint64 r_sscratch();
  88:src/../h/riscv.hpp **** 
  89:src/../h/riscv.hpp **** private:
  90:src/../h/riscv.hpp **** 
  91:src/../h/riscv.hpp **** };
  92:src/../h/riscv.hpp **** 
  93:src/../h/riscv.hpp **** inline uint64 Riscv::r_sscratch() {
  94:src/../h/riscv.hpp ****     uint64 volatile sscratch;
  95:src/../h/riscv.hpp ****     __asm__ volatile ("csrr %[scause], scause" : [scause] "=r"(sscratch));
  96:src/../h/riscv.hpp ****     return sscratch;
  97:src/../h/riscv.hpp **** }
  98:src/../h/riscv.hpp **** 
  99:src/../h/riscv.hpp **** inline uint64 Riscv::r_scause() {
 100:src/../h/riscv.hpp ****     uint64 volatile scause;
 101:src/../h/riscv.hpp ****     __asm__ volatile ("csrr %[scause], scause" : [scause] "=r"(scause));
 102:src/../h/riscv.hpp ****     return scause;
 103:src/../h/riscv.hpp **** }
 104:src/../h/riscv.hpp **** 
 105:src/../h/riscv.hpp **** inline void Riscv::w_scause(uint64 scause) {
 106:src/../h/riscv.hpp ****     __asm__ volatile ("csrw scause, %[scause]" : : [scause] "r"(scause));
 107:src/../h/riscv.hpp **** }
 108:src/../h/riscv.hpp **** 
 109:src/../h/riscv.hpp **** inline uint64 Riscv::r_sepc() {
 110:src/../h/riscv.hpp ****     uint64 volatile sepc;
 111:src/../h/riscv.hpp ****     __asm__ volatile ("csrr %[sepc], sepc" : [sepc] "=r"(sepc));
 112:src/../h/riscv.hpp ****     return sepc;
 113:src/../h/riscv.hpp **** }
 114:src/../h/riscv.hpp **** 
 115:src/../h/riscv.hpp **** inline void Riscv::w_sepc(uint64 sepc) {
 116:src/../h/riscv.hpp ****     __asm__ volatile ("csrw sepc, %[sepc]" : : [sepc] "r"(sepc));
 117:src/../h/riscv.hpp **** }
 118:src/../h/riscv.hpp **** 
 119:src/../h/riscv.hpp **** inline uint64 Riscv::r_stvec() {
 120:src/../h/riscv.hpp ****     uint64 volatile stvec;
 994              		.loc 2 120 5
 121:src/../h/riscv.hpp ****     __asm__ volatile ("csrr %[stvec], stvec" : [stvec] "=r"(stvec));
 995              		.loc 2 121 5
 996              		.loc 2 121 68 is_stmt 0
 997              	#APP
 998              	# 121 "src/../h/riscv.hpp" 1
 122              	    return stvec;
 999              		csrr a5, stvec
 1000              	# 0 "" 2
 1001              	#NO_APP
 1002 05b8 2330F4FE 		sd	a5,-32(s0)
 1003              		.loc 2 122 5 is_stmt 1
 1004              		.loc 2 122 12 is_stmt 0
 1005 05bc 833704FE 		ld	a5,-32(s0)
 1006              	.LBE5:
 1007              	.LBE4:
 133:src/syscall_c.cpp ****     __asm__ volatile ("mv %[ret], a0" : [ret] "=r"(ret));
 1008              		.loc 1 133 5 is_stmt 1
 1009              		.loc 1 133 57 is_stmt 0
 1010              	#APP
 1011              	# 133 "src/syscall_c.cpp" 1
GAS LISTING /tmp/ccbjqHaZ.s 			page 23


 134              	    return ret;
 1012              		mv a5, a0
 1013              	# 0 "" 2
 1014              	#NO_APP
 1015 05c4 2326F4FE 		sw	a5,-20(s0)
 1016              		.loc 1 134 5 is_stmt 1
 1017              		.loc 1 134 12 is_stmt 0
 1018 05c8 0325C4FE 		lw	a0,-20(s0)
 135:src/syscall_c.cpp **** }
 1019              		.loc 1 135 1
 1020 05cc 1B050500 		sext.w	a0,a0
 1021 05d0 03348101 		ld	s0,24(sp)
 1022              		.cfi_restore 8
 1023              		.cfi_def_cfa 2, 32
 1024 05d4 13010102 		addi	sp,sp,32
 1025              		.cfi_def_cfa_offset 0
 1026 05d8 67800000 		jr	ra
 1027              		.cfi_endproc
 1028              	.LFE44:
 1030              	.Letext0:
 1031              		.file 3 "src/../h/../lib/hw.h"
 1032              		.file 4 "src/../h/syscall_c.hpp"
 1033              		.file 5 "src/../h/circular_buffer.hpp"
GAS LISTING /tmp/ccbjqHaZ.s 			page 24


DEFINED SYMBOLS
                            *ABS*:0000000000000000 syscall_c.cpp
     /tmp/ccbjqHaZ.s:9      .text:0000000000000000 _Z7syscallmmmmm
     /tmp/ccbjqHaZ.s:13     .text:0000000000000000 .L0 
     /tmp/ccbjqHaZ.s:15     .text:0000000000000000 .L0 
     /tmp/ccbjqHaZ.s:16     .text:0000000000000004 .L0 
     /tmp/ccbjqHaZ.s:18     .text:0000000000000008 .L0 
     /tmp/ccbjqHaZ.s:20     .text:000000000000000c .L0 
     /tmp/ccbjqHaZ.s:22     .text:000000000000000c .L0 
   src/syscall_c.cpp:6      .text:000000000000000c .L0 
     /tmp/ccbjqHaZ.s:29     .text:0000000000000010 .L0 
     /tmp/ccbjqHaZ.s:30     .text:0000000000000014 .L0 
     /tmp/ccbjqHaZ.s:31     .text:0000000000000014 .L0 
     /tmp/ccbjqHaZ.s:33     .text:0000000000000018 .L0 
     /tmp/ccbjqHaZ.s:35     .text:000000000000001c .L0 
     /tmp/ccbjqHaZ.s:41     .text:000000000000001c _Z9mem_allocm
     /tmp/ccbjqHaZ.s:44     .text:000000000000001c .L0 
     /tmp/ccbjqHaZ.s:46     .text:000000000000001c .L0 
     /tmp/ccbjqHaZ.s:47     .text:000000000000001c .L0 
     /tmp/ccbjqHaZ.s:49     .text:0000000000000020 .L0 
     /tmp/ccbjqHaZ.s:50     .text:0000000000000024 .L0 
     /tmp/ccbjqHaZ.s:53     .text:000000000000002c .L0 
     /tmp/ccbjqHaZ.s:54     .text:000000000000002c .L0 
     /tmp/ccbjqHaZ.s:56     .text:0000000000000030 .L0 
     /tmp/ccbjqHaZ.s:59     .text:0000000000000034 .L0 
     /tmp/ccbjqHaZ.s:60     .text:0000000000000034 .L0 
     /tmp/ccbjqHaZ.s:61     .text:0000000000000034 .L0 
     /tmp/ccbjqHaZ.s:69     .text:000000000000004c .L0 
   src/syscall_c.cpp:13     .text:000000000000004c .L0 
     /tmp/ccbjqHaZ.s:76     .text:0000000000000050 .L0 
     /tmp/ccbjqHaZ.s:78     .text:0000000000000050 .L0 
     /tmp/ccbjqHaZ.s:79     .text:0000000000000054 .L0 
     /tmp/ccbjqHaZ.s:81     .text:0000000000000058 .L0 
     /tmp/ccbjqHaZ.s:82     .text:0000000000000058 .L0 
     /tmp/ccbjqHaZ.s:84     .text:000000000000005c .L0 
     /tmp/ccbjqHaZ.s:89     .text:0000000000000060 .L0 
     /tmp/ccbjqHaZ.s:92     .text:0000000000000064 .L0 
     /tmp/ccbjqHaZ.s:93     .text:0000000000000068 .L0 
     /tmp/ccbjqHaZ.s:99     .text:0000000000000068 _Z8mem_freePv
     /tmp/ccbjqHaZ.s:102    .text:0000000000000068 .L0 
     /tmp/ccbjqHaZ.s:104    .text:0000000000000068 .L0 
     /tmp/ccbjqHaZ.s:105    .text:000000000000006c .L0 
     /tmp/ccbjqHaZ.s:108    .text:0000000000000074 .L0 
     /tmp/ccbjqHaZ.s:109    .text:0000000000000074 .L0 
     /tmp/ccbjqHaZ.s:111    .text:0000000000000078 .L0 
     /tmp/ccbjqHaZ.s:114    .text:000000000000007c .L0 
     /tmp/ccbjqHaZ.s:115    .text:000000000000007c .L0 
     /tmp/ccbjqHaZ.s:116    .text:000000000000007c .L0 
     /tmp/ccbjqHaZ.s:124    .text:0000000000000094 .L0 
   src/syscall_c.cpp:20     .text:0000000000000094 .L0 
     /tmp/ccbjqHaZ.s:132    .text:000000000000009c .L0 
     /tmp/ccbjqHaZ.s:133    .text:000000000000009c .L0 
     /tmp/ccbjqHaZ.s:135    .text:00000000000000a0 .L0 
     /tmp/ccbjqHaZ.s:137    .text:00000000000000a8 .L0 
     /tmp/ccbjqHaZ.s:139    .text:00000000000000ac .L0 
     /tmp/ccbjqHaZ.s:140    .text:00000000000000ac .L0 
     /tmp/ccbjqHaZ.s:142    .text:00000000000000b0 .L0 
GAS LISTING /tmp/ccbjqHaZ.s 			page 25


     /tmp/ccbjqHaZ.s:144    .text:00000000000000b4 .L0 
     /tmp/ccbjqHaZ.s:150    .text:00000000000000b4 _Z13thread_createPP3TCBPFvPvES2_
     /tmp/ccbjqHaZ.s:153    .text:00000000000000b4 .L0 
     /tmp/ccbjqHaZ.s:155    .text:00000000000000b4 .L0 
     /tmp/ccbjqHaZ.s:156    .text:00000000000000b8 .L0 
     /tmp/ccbjqHaZ.s:162    .text:00000000000000cc .L0 
     /tmp/ccbjqHaZ.s:163    .text:00000000000000cc .L0 
     /tmp/ccbjqHaZ.s:164    .text:00000000000000cc .L0 
     /tmp/ccbjqHaZ.s:165    .text:00000000000000cc .L0 
     /tmp/ccbjqHaZ.s:166    .text:00000000000000cc .L0 
     /tmp/ccbjqHaZ.s:168    .text:00000000000000d0 .L0 
     /tmp/ccbjqHaZ.s:174    .text:00000000000000dc .L0 
     /tmp/ccbjqHaZ.s:175    .text:00000000000000dc .L0 
     /tmp/ccbjqHaZ.s:177    .text:00000000000000e0 .L0 
     /tmp/ccbjqHaZ.s:178    .text:00000000000000e0 .L0 
     /tmp/ccbjqHaZ.s:186    .text:00000000000000f0 .L0 
     /tmp/ccbjqHaZ.s:187    .text:00000000000000f0 .L0 
     /tmp/ccbjqHaZ.s:188    .text:00000000000000f0 .L0 
     /tmp/ccbjqHaZ.s:195    .text:0000000000000108 .L0 
   src/syscall_c.cpp:31     .text:0000000000000108 .L0 
     /tmp/ccbjqHaZ.s:203    .text:0000000000000110 .L0 
     /tmp/ccbjqHaZ.s:204    .text:0000000000000110 .L0 
     /tmp/ccbjqHaZ.s:206    .text:0000000000000114 .L0 
     /tmp/ccbjqHaZ.s:208    .text:000000000000011c .L0 
     /tmp/ccbjqHaZ.s:209    .text:000000000000011c .L0 
     /tmp/ccbjqHaZ.s:211    .text:0000000000000120 .L0 
     /tmp/ccbjqHaZ.s:212    .text:0000000000000120 .L0 
     /tmp/ccbjqHaZ.s:214    .text:0000000000000124 .L0 
     /tmp/ccbjqHaZ.s:217    .text:0000000000000128 .L0 
     /tmp/ccbjqHaZ.s:220    .text:000000000000012c .L0 
     /tmp/ccbjqHaZ.s:223    .text:0000000000000130 .L0 
     /tmp/ccbjqHaZ.s:227    .text:0000000000000134 .L0 
     /tmp/ccbjqHaZ.s:229    .text:0000000000000134 .L0 
     /tmp/ccbjqHaZ.s:231    .text:000000000000013c .L0 
     /tmp/ccbjqHaZ.s:237    .text:000000000000013c _Z11thread_exitv
     /tmp/ccbjqHaZ.s:240    .text:000000000000013c .L0 
     /tmp/ccbjqHaZ.s:241    .text:000000000000013c .L0 
     /tmp/ccbjqHaZ.s:242    .text:0000000000000140 .L0 
     /tmp/ccbjqHaZ.s:245    .text:0000000000000148 .L0 
     /tmp/ccbjqHaZ.s:246    .text:0000000000000148 .L0 
     /tmp/ccbjqHaZ.s:248    .text:000000000000014c .L0 
     /tmp/ccbjqHaZ.s:250    .text:000000000000014c .L0 
     /tmp/ccbjqHaZ.s:251    .text:000000000000014c .L0 
     /tmp/ccbjqHaZ.s:252    .text:000000000000014c .L0 
     /tmp/ccbjqHaZ.s:260    .text:0000000000000168 .L0 
   src/syscall_c.cpp:38     .text:0000000000000168 .L0 
     /tmp/ccbjqHaZ.s:268    .text:0000000000000170 .L0 
     /tmp/ccbjqHaZ.s:269    .text:0000000000000170 .L0 
     /tmp/ccbjqHaZ.s:271    .text:0000000000000174 .L0 
     /tmp/ccbjqHaZ.s:273    .text:000000000000017c .L0 
     /tmp/ccbjqHaZ.s:275    .text:0000000000000180 .L0 
     /tmp/ccbjqHaZ.s:276    .text:0000000000000180 .L0 
     /tmp/ccbjqHaZ.s:278    .text:0000000000000184 .L0 
     /tmp/ccbjqHaZ.s:280    .text:0000000000000188 .L0 
     /tmp/ccbjqHaZ.s:286    .text:0000000000000188 _Z15thread_dispatchv
     /tmp/ccbjqHaZ.s:289    .text:0000000000000188 .L0 
     /tmp/ccbjqHaZ.s:290    .text:0000000000000188 .L0 
GAS LISTING /tmp/ccbjqHaZ.s 			page 26


     /tmp/ccbjqHaZ.s:291    .text:000000000000018c .L0 
     /tmp/ccbjqHaZ.s:294    .text:0000000000000194 .L0 
     /tmp/ccbjqHaZ.s:295    .text:0000000000000194 .L0 
     /tmp/ccbjqHaZ.s:297    .text:0000000000000198 .L0 
     /tmp/ccbjqHaZ.s:299    .text:0000000000000198 .L0 
     /tmp/ccbjqHaZ.s:300    .text:0000000000000198 .L0 
     /tmp/ccbjqHaZ.s:308    .text:00000000000001b4 .L0 
     /tmp/ccbjqHaZ.s:309    .text:00000000000001b8 .L0 
     /tmp/ccbjqHaZ.s:311    .text:00000000000001bc .L0 
     /tmp/ccbjqHaZ.s:312    .text:00000000000001bc .L0 
     /tmp/ccbjqHaZ.s:314    .text:00000000000001c0 .L0 
     /tmp/ccbjqHaZ.s:316    .text:00000000000001c4 .L0 
     /tmp/ccbjqHaZ.s:322    .text:00000000000001c4 _Z11thread_joinP3TCB
     /tmp/ccbjqHaZ.s:325    .text:00000000000001c4 .L0 
     /tmp/ccbjqHaZ.s:327    .text:00000000000001c4 .L0 
     /tmp/ccbjqHaZ.s:328    .text:00000000000001c8 .L0 
     /tmp/ccbjqHaZ.s:331    .text:00000000000001d0 .L0 
     /tmp/ccbjqHaZ.s:332    .text:00000000000001d0 .L0 
     /tmp/ccbjqHaZ.s:334    .text:00000000000001d4 .L0 
     /tmp/ccbjqHaZ.s:337    .text:00000000000001d8 .L0 
     /tmp/ccbjqHaZ.s:338    .text:00000000000001d8 .L0 
     /tmp/ccbjqHaZ.s:346    .text:00000000000001f0 .L0 
     /tmp/ccbjqHaZ.s:347    .text:00000000000001f4 .L0 
     /tmp/ccbjqHaZ.s:349    .text:00000000000001f8 .L0 
     /tmp/ccbjqHaZ.s:350    .text:00000000000001f8 .L0 
     /tmp/ccbjqHaZ.s:352    .text:00000000000001fc .L0 
     /tmp/ccbjqHaZ.s:354    .text:0000000000000200 .L0 
     /tmp/ccbjqHaZ.s:360    .text:0000000000000200 _Z11thread_joinP3TCBm
     /tmp/ccbjqHaZ.s:363    .text:0000000000000200 .L0 
     /tmp/ccbjqHaZ.s:365    .text:0000000000000200 .L0 
     /tmp/ccbjqHaZ.s:366    .text:0000000000000204 .L0 
     /tmp/ccbjqHaZ.s:371    .text:0000000000000214 .L0 
     /tmp/ccbjqHaZ.s:372    .text:0000000000000214 .L0 
     /tmp/ccbjqHaZ.s:373    .text:0000000000000214 .L0 
     /tmp/ccbjqHaZ.s:374    .text:0000000000000214 .L0 
     /tmp/ccbjqHaZ.s:376    .text:0000000000000218 .L0 
     /tmp/ccbjqHaZ.s:380    .text:0000000000000220 .L0 
     /tmp/ccbjqHaZ.s:384    .text:0000000000000224 .L0 
     /tmp/ccbjqHaZ.s:385    .text:0000000000000224 .L0 
     /tmp/ccbjqHaZ.s:393    .text:0000000000000240 .L0 
     /tmp/ccbjqHaZ.s:394    .text:0000000000000244 .L0 
     /tmp/ccbjqHaZ.s:395    .text:0000000000000244 .L0 
     /tmp/ccbjqHaZ.s:397    .text:0000000000000248 .L0 
     /tmp/ccbjqHaZ.s:398    .text:0000000000000248 .L0 
     /tmp/ccbjqHaZ.s:400    .text:000000000000024c .L0 
     /tmp/ccbjqHaZ.s:403    .text:0000000000000250 .L0 
     /tmp/ccbjqHaZ.s:406    .text:0000000000000254 .L0 
     /tmp/ccbjqHaZ.s:410    .text:0000000000000258 .L0 
     /tmp/ccbjqHaZ.s:412    .text:0000000000000258 .L0 
     /tmp/ccbjqHaZ.s:413    .text:0000000000000258 .L0 
     /tmp/ccbjqHaZ.s:416    .text:0000000000000264 .L0 
     /tmp/ccbjqHaZ.s:422    .text:0000000000000264 _Z4forkv
     /tmp/ccbjqHaZ.s:425    .text:0000000000000264 .L0 
     /tmp/ccbjqHaZ.s:426    .text:0000000000000264 .L0 
     /tmp/ccbjqHaZ.s:427    .text:0000000000000268 .L0 
     /tmp/ccbjqHaZ.s:430    .text:0000000000000270 .L0 
     /tmp/ccbjqHaZ.s:431    .text:0000000000000270 .L0 
GAS LISTING /tmp/ccbjqHaZ.s 			page 27


     /tmp/ccbjqHaZ.s:433    .text:0000000000000274 .L0 
     /tmp/ccbjqHaZ.s:435    .text:0000000000000274 .L0 
     /tmp/ccbjqHaZ.s:436    .text:0000000000000274 .L0 
     /tmp/ccbjqHaZ.s:437    .text:0000000000000274 .L0 
     /tmp/ccbjqHaZ.s:445    .text:0000000000000290 .L0 
   src/syscall_c.cpp:58     .text:0000000000000290 .L0 
     /tmp/ccbjqHaZ.s:453    .text:0000000000000298 .L0 
     /tmp/ccbjqHaZ.s:454    .text:0000000000000298 .L0 
     /tmp/ccbjqHaZ.s:456    .text:000000000000029c .L0 
     /tmp/ccbjqHaZ.s:458    .text:00000000000002a4 .L0 
     /tmp/ccbjqHaZ.s:460    .text:00000000000002a8 .L0 
     /tmp/ccbjqHaZ.s:461    .text:00000000000002a8 .L0 
     /tmp/ccbjqHaZ.s:463    .text:00000000000002ac .L0 
     /tmp/ccbjqHaZ.s:465    .text:00000000000002b0 .L0 
     /tmp/ccbjqHaZ.s:471    .text:00000000000002b0 _Z11thread_killP3TCB
     /tmp/ccbjqHaZ.s:474    .text:00000000000002b0 .L0 
     /tmp/ccbjqHaZ.s:476    .text:00000000000002b0 .L0 
     /tmp/ccbjqHaZ.s:477    .text:00000000000002b4 .L0 
     /tmp/ccbjqHaZ.s:480    .text:00000000000002bc .L0 
     /tmp/ccbjqHaZ.s:481    .text:00000000000002bc .L0 
     /tmp/ccbjqHaZ.s:483    .text:00000000000002c0 .L0 
     /tmp/ccbjqHaZ.s:486    .text:00000000000002c4 .L0 
     /tmp/ccbjqHaZ.s:487    .text:00000000000002c4 .L0 
     /tmp/ccbjqHaZ.s:488    .text:00000000000002c4 .L0 
     /tmp/ccbjqHaZ.s:496    .text:00000000000002dc .L0 
   src/syscall_c.cpp:65     .text:00000000000002dc .L0 
     /tmp/ccbjqHaZ.s:504    .text:00000000000002e4 .L0 
     /tmp/ccbjqHaZ.s:505    .text:00000000000002e4 .L0 
     /tmp/ccbjqHaZ.s:507    .text:00000000000002e8 .L0 
     /tmp/ccbjqHaZ.s:509    .text:00000000000002f0 .L0 
     /tmp/ccbjqHaZ.s:511    .text:00000000000002f4 .L0 
     /tmp/ccbjqHaZ.s:512    .text:00000000000002f4 .L0 
     /tmp/ccbjqHaZ.s:514    .text:00000000000002f8 .L0 
     /tmp/ccbjqHaZ.s:516    .text:00000000000002fc .L0 
     /tmp/ccbjqHaZ.s:522    .text:00000000000002fc _Z8sem_openPP3Semj
     /tmp/ccbjqHaZ.s:525    .text:00000000000002fc .L0 
     /tmp/ccbjqHaZ.s:527    .text:00000000000002fc .L0 
     /tmp/ccbjqHaZ.s:528    .text:0000000000000300 .L0 
     /tmp/ccbjqHaZ.s:531    .text:0000000000000308 .L0 
     /tmp/ccbjqHaZ.s:532    .text:0000000000000308 .L0 
     /tmp/ccbjqHaZ.s:534    .text:000000000000030c .L0 
     /tmp/ccbjqHaZ.s:536    .text:000000000000030c .L0 
     /tmp/ccbjqHaZ.s:537    .text:000000000000030c .L0 
     /tmp/ccbjqHaZ.s:538    .text:000000000000030c .L0 
     /tmp/ccbjqHaZ.s:549    .text:000000000000032c .L0 
   src/syscall_c.cpp:72     .text:000000000000032c .L0 
     /tmp/ccbjqHaZ.s:557    .text:0000000000000334 .L0 
     /tmp/ccbjqHaZ.s:558    .text:0000000000000334 .L0 
     /tmp/ccbjqHaZ.s:560    .text:0000000000000338 .L0 
     /tmp/ccbjqHaZ.s:562    .text:0000000000000340 .L0 
     /tmp/ccbjqHaZ.s:564    .text:0000000000000344 .L0 
     /tmp/ccbjqHaZ.s:565    .text:0000000000000344 .L0 
     /tmp/ccbjqHaZ.s:567    .text:0000000000000348 .L0 
     /tmp/ccbjqHaZ.s:569    .text:000000000000034c .L0 
     /tmp/ccbjqHaZ.s:575    .text:000000000000034c _Z9sem_closeP3Sem
     /tmp/ccbjqHaZ.s:578    .text:000000000000034c .L0 
     /tmp/ccbjqHaZ.s:580    .text:000000000000034c .L0 
GAS LISTING /tmp/ccbjqHaZ.s 			page 28


     /tmp/ccbjqHaZ.s:581    .text:0000000000000350 .L0 
     /tmp/ccbjqHaZ.s:584    .text:0000000000000358 .L0 
     /tmp/ccbjqHaZ.s:585    .text:0000000000000358 .L0 
     /tmp/ccbjqHaZ.s:587    .text:000000000000035c .L0 
     /tmp/ccbjqHaZ.s:590    .text:0000000000000360 .L0 
     /tmp/ccbjqHaZ.s:591    .text:0000000000000360 .L0 
     /tmp/ccbjqHaZ.s:592    .text:0000000000000360 .L0 
     /tmp/ccbjqHaZ.s:600    .text:0000000000000378 .L0 
   src/syscall_c.cpp:79     .text:0000000000000378 .L0 
     /tmp/ccbjqHaZ.s:608    .text:0000000000000380 .L0 
     /tmp/ccbjqHaZ.s:609    .text:0000000000000380 .L0 
     /tmp/ccbjqHaZ.s:611    .text:0000000000000384 .L0 
     /tmp/ccbjqHaZ.s:613    .text:000000000000038c .L0 
     /tmp/ccbjqHaZ.s:615    .text:0000000000000390 .L0 
     /tmp/ccbjqHaZ.s:616    .text:0000000000000390 .L0 
     /tmp/ccbjqHaZ.s:618    .text:0000000000000394 .L0 
     /tmp/ccbjqHaZ.s:620    .text:0000000000000398 .L0 
     /tmp/ccbjqHaZ.s:626    .text:0000000000000398 _Z8sem_waitP3Sem
     /tmp/ccbjqHaZ.s:629    .text:0000000000000398 .L0 
     /tmp/ccbjqHaZ.s:631    .text:0000000000000398 .L0 
     /tmp/ccbjqHaZ.s:632    .text:000000000000039c .L0 
     /tmp/ccbjqHaZ.s:635    .text:00000000000003a4 .L0 
     /tmp/ccbjqHaZ.s:636    .text:00000000000003a4 .L0 
     /tmp/ccbjqHaZ.s:638    .text:00000000000003a8 .L0 
     /tmp/ccbjqHaZ.s:641    .text:00000000000003ac .L0 
     /tmp/ccbjqHaZ.s:642    .text:00000000000003ac .L0 
     /tmp/ccbjqHaZ.s:643    .text:00000000000003ac .L0 
     /tmp/ccbjqHaZ.s:651    .text:00000000000003c4 .L0 
   src/syscall_c.cpp:86     .text:00000000000003c4 .L0 
     /tmp/ccbjqHaZ.s:659    .text:00000000000003cc .L0 
     /tmp/ccbjqHaZ.s:660    .text:00000000000003cc .L0 
     /tmp/ccbjqHaZ.s:662    .text:00000000000003d0 .L0 
     /tmp/ccbjqHaZ.s:664    .text:00000000000003d8 .L0 
     /tmp/ccbjqHaZ.s:666    .text:00000000000003dc .L0 
     /tmp/ccbjqHaZ.s:667    .text:00000000000003dc .L0 
     /tmp/ccbjqHaZ.s:669    .text:00000000000003e0 .L0 
     /tmp/ccbjqHaZ.s:671    .text:00000000000003e4 .L0 
     /tmp/ccbjqHaZ.s:677    .text:00000000000003e4 _Z10sem_signalP3Sem
     /tmp/ccbjqHaZ.s:680    .text:00000000000003e4 .L0 
     /tmp/ccbjqHaZ.s:682    .text:00000000000003e4 .L0 
     /tmp/ccbjqHaZ.s:683    .text:00000000000003e8 .L0 
     /tmp/ccbjqHaZ.s:686    .text:00000000000003f0 .L0 
     /tmp/ccbjqHaZ.s:687    .text:00000000000003f0 .L0 
     /tmp/ccbjqHaZ.s:689    .text:00000000000003f4 .L0 
     /tmp/ccbjqHaZ.s:692    .text:00000000000003f8 .L0 
     /tmp/ccbjqHaZ.s:693    .text:00000000000003f8 .L0 
     /tmp/ccbjqHaZ.s:694    .text:00000000000003f8 .L0 
     /tmp/ccbjqHaZ.s:702    .text:0000000000000410 .L0 
   src/syscall_c.cpp:93     .text:0000000000000410 .L0 
     /tmp/ccbjqHaZ.s:710    .text:0000000000000418 .L0 
     /tmp/ccbjqHaZ.s:711    .text:0000000000000418 .L0 
     /tmp/ccbjqHaZ.s:713    .text:000000000000041c .L0 
     /tmp/ccbjqHaZ.s:715    .text:0000000000000424 .L0 
     /tmp/ccbjqHaZ.s:717    .text:0000000000000428 .L0 
     /tmp/ccbjqHaZ.s:718    .text:0000000000000428 .L0 
     /tmp/ccbjqHaZ.s:720    .text:000000000000042c .L0 
     /tmp/ccbjqHaZ.s:722    .text:0000000000000430 .L0 
GAS LISTING /tmp/ccbjqHaZ.s 			page 29


     /tmp/ccbjqHaZ.s:728    .text:0000000000000430 _Z15signal_and_waitP3SemS0_
     /tmp/ccbjqHaZ.s:731    .text:0000000000000430 .L0 
     /tmp/ccbjqHaZ.s:733    .text:0000000000000430 .L0 
     /tmp/ccbjqHaZ.s:734    .text:0000000000000434 .L0 
     /tmp/ccbjqHaZ.s:737    .text:000000000000043c .L0 
     /tmp/ccbjqHaZ.s:738    .text:000000000000043c .L0 
     /tmp/ccbjqHaZ.s:740    .text:0000000000000440 .L0 
     /tmp/ccbjqHaZ.s:743    .text:0000000000000444 .L0 
     /tmp/ccbjqHaZ.s:744    .text:0000000000000444 .L0 
     /tmp/ccbjqHaZ.s:745    .text:0000000000000444 .L0 
     /tmp/ccbjqHaZ.s:754    .text:000000000000045c .L0 
   src/syscall_c.cpp:100    .text:000000000000045c .L0 
     /tmp/ccbjqHaZ.s:762    .text:0000000000000464 .L0 
     /tmp/ccbjqHaZ.s:763    .text:0000000000000464 .L0 
     /tmp/ccbjqHaZ.s:765    .text:0000000000000468 .L0 
     /tmp/ccbjqHaZ.s:767    .text:0000000000000470 .L0 
     /tmp/ccbjqHaZ.s:769    .text:0000000000000474 .L0 
     /tmp/ccbjqHaZ.s:770    .text:0000000000000474 .L0 
     /tmp/ccbjqHaZ.s:772    .text:0000000000000478 .L0 
     /tmp/ccbjqHaZ.s:774    .text:000000000000047c .L0 
     /tmp/ccbjqHaZ.s:780    .text:000000000000047c _Z10time_sleepm
     /tmp/ccbjqHaZ.s:783    .text:000000000000047c .L0 
     /tmp/ccbjqHaZ.s:785    .text:000000000000047c .L0 
     /tmp/ccbjqHaZ.s:786    .text:000000000000047c .L0 
     /tmp/ccbjqHaZ.s:788    .text:0000000000000480 .L0 
     /tmp/ccbjqHaZ.s:789    .text:0000000000000484 .L0 
     /tmp/ccbjqHaZ.s:792    .text:000000000000048c .L0 
     /tmp/ccbjqHaZ.s:793    .text:000000000000048c .L0 
     /tmp/ccbjqHaZ.s:795    .text:0000000000000490 .L0 
     /tmp/ccbjqHaZ.s:798    .text:0000000000000494 .L0 
     /tmp/ccbjqHaZ.s:799    .text:0000000000000494 .L0 
     /tmp/ccbjqHaZ.s:800    .text:0000000000000494 .L0 
     /tmp/ccbjqHaZ.s:808    .text:00000000000004ac .L0 
   src/syscall_c.cpp:108    .text:00000000000004ac .L0 
     /tmp/ccbjqHaZ.s:816    .text:00000000000004b4 .L0 
     /tmp/ccbjqHaZ.s:817    .text:00000000000004b4 .L0 
     /tmp/ccbjqHaZ.s:820    .text:00000000000004bc .L0 
     /tmp/ccbjqHaZ.s:821    .text:00000000000004c0 .L0 
     /tmp/ccbjqHaZ.s:823    .text:00000000000004c4 .L0 
     /tmp/ccbjqHaZ.s:824    .text:00000000000004c4 .L0 
     /tmp/ccbjqHaZ.s:826    .text:00000000000004c8 .L0 
     /tmp/ccbjqHaZ.s:831    .text:00000000000004cc .L0 
     /tmp/ccbjqHaZ.s:834    .text:00000000000004d0 .L0 
     /tmp/ccbjqHaZ.s:835    .text:00000000000004d4 .L0 
     /tmp/ccbjqHaZ.s:841    .text:00000000000004d4 _Z11thread_wakeP3TCB
     /tmp/ccbjqHaZ.s:844    .text:00000000000004d4 .L0 
     /tmp/ccbjqHaZ.s:846    .text:00000000000004d4 .L0 
     /tmp/ccbjqHaZ.s:847    .text:00000000000004d8 .L0 
     /tmp/ccbjqHaZ.s:850    .text:00000000000004e0 .L0 
     /tmp/ccbjqHaZ.s:851    .text:00000000000004e0 .L0 
     /tmp/ccbjqHaZ.s:853    .text:00000000000004e4 .L0 
     /tmp/ccbjqHaZ.s:856    .text:00000000000004e8 .L0 
     /tmp/ccbjqHaZ.s:857    .text:00000000000004e8 .L0 
     /tmp/ccbjqHaZ.s:858    .text:00000000000004e8 .L0 
     /tmp/ccbjqHaZ.s:866    .text:0000000000000500 .L0 
   src/syscall_c.cpp:115    .text:0000000000000500 .L0 
     /tmp/ccbjqHaZ.s:874    .text:0000000000000508 .L0 
GAS LISTING /tmp/ccbjqHaZ.s 			page 30


     /tmp/ccbjqHaZ.s:875    .text:0000000000000508 .L0 
     /tmp/ccbjqHaZ.s:877    .text:000000000000050c .L0 
     /tmp/ccbjqHaZ.s:879    .text:0000000000000514 .L0 
     /tmp/ccbjqHaZ.s:881    .text:0000000000000518 .L0 
     /tmp/ccbjqHaZ.s:882    .text:0000000000000518 .L0 
     /tmp/ccbjqHaZ.s:884    .text:000000000000051c .L0 
     /tmp/ccbjqHaZ.s:886    .text:0000000000000520 .L0 
     /tmp/ccbjqHaZ.s:892    .text:0000000000000520 _Z4getcv
     /tmp/ccbjqHaZ.s:895    .text:0000000000000520 .L0 
     /tmp/ccbjqHaZ.s:896    .text:0000000000000520 .L0 
     /tmp/ccbjqHaZ.s:897    .text:0000000000000524 .L0 
     /tmp/ccbjqHaZ.s:900    .text:000000000000052c .L0 
     /tmp/ccbjqHaZ.s:901    .text:000000000000052c .L0 
     /tmp/ccbjqHaZ.s:903    .text:0000000000000530 .L0 
     /tmp/ccbjqHaZ.s:905    .text:0000000000000530 .L0 
     /tmp/ccbjqHaZ.s:906    .text:0000000000000530 .L0 
     /tmp/ccbjqHaZ.s:907    .text:0000000000000530 .L0 
     /tmp/ccbjqHaZ.s:915    .text:000000000000054c .L0 
   src/syscall_c.cpp:122    .text:000000000000054c .L0 
     /tmp/ccbjqHaZ.s:923    .text:0000000000000554 .L0 
     /tmp/ccbjqHaZ.s:924    .text:0000000000000554 .L0 
     /tmp/ccbjqHaZ.s:926    .text:0000000000000558 .L0 
     /tmp/ccbjqHaZ.s:928    .text:0000000000000560 .L0 
     /tmp/ccbjqHaZ.s:930    .text:0000000000000564 .L0 
     /tmp/ccbjqHaZ.s:931    .text:0000000000000564 .L0 
     /tmp/ccbjqHaZ.s:933    .text:0000000000000568 .L0 
     /tmp/ccbjqHaZ.s:935    .text:000000000000056c .L0 
     /tmp/ccbjqHaZ.s:941    .text:000000000000056c _Z4putcc
     /tmp/ccbjqHaZ.s:944    .text:000000000000056c .L0 
     /tmp/ccbjqHaZ.s:946    .text:000000000000056c .L0 
     /tmp/ccbjqHaZ.s:947    .text:0000000000000570 .L0 
     /tmp/ccbjqHaZ.s:950    .text:0000000000000578 .L0 
     /tmp/ccbjqHaZ.s:951    .text:0000000000000578 .L0 
     /tmp/ccbjqHaZ.s:953    .text:000000000000057c .L0 
     /tmp/ccbjqHaZ.s:956    .text:0000000000000580 .L0 
     /tmp/ccbjqHaZ.s:957    .text:0000000000000580 .L0 
     /tmp/ccbjqHaZ.s:965    .text:0000000000000598 .L0 
     /tmp/ccbjqHaZ.s:966    .text:000000000000059c .L0 
     /tmp/ccbjqHaZ.s:968    .text:00000000000005a0 .L0 
     /tmp/ccbjqHaZ.s:969    .text:00000000000005a0 .L0 
     /tmp/ccbjqHaZ.s:971    .text:00000000000005a4 .L0 
     /tmp/ccbjqHaZ.s:973    .text:00000000000005a8 .L0 
     /tmp/ccbjqHaZ.s:979    .text:00000000000005a8 _Z3scsv
     /tmp/ccbjqHaZ.s:982    .text:00000000000005a8 .L0 
     /tmp/ccbjqHaZ.s:983    .text:00000000000005a8 .L0 
     /tmp/ccbjqHaZ.s:984    .text:00000000000005ac .L0 
     /tmp/ccbjqHaZ.s:986    .text:00000000000005b0 .L0 
     /tmp/ccbjqHaZ.s:988    .text:00000000000005b4 .L0 
     /tmp/ccbjqHaZ.s:990    .text:00000000000005b4 .L0 
     /tmp/ccbjqHaZ.s:994    .text:00000000000005b4 .L0 
     /tmp/ccbjqHaZ.s:995    .text:00000000000005b4 .L0 
     /tmp/ccbjqHaZ.s:996    .text:00000000000005b4 .L0 
  src/../h/riscv.hpp:121    .text:00000000000005b4 .L0 
     /tmp/ccbjqHaZ.s:1004   .text:00000000000005bc .L0 
     /tmp/ccbjqHaZ.s:1005   .text:00000000000005bc .L0 
     /tmp/ccbjqHaZ.s:1009   .text:00000000000005c0 .L0 
   src/syscall_c.cpp:133    .text:00000000000005c0 .L0 
GAS LISTING /tmp/ccbjqHaZ.s 			page 31


     /tmp/ccbjqHaZ.s:1017   .text:00000000000005c8 .L0 
     /tmp/ccbjqHaZ.s:1018   .text:00000000000005c8 .L0 
     /tmp/ccbjqHaZ.s:1020   .text:00000000000005cc .L0 
     /tmp/ccbjqHaZ.s:1022   .text:00000000000005d4 .L0 
     /tmp/ccbjqHaZ.s:1023   .text:00000000000005d4 .L0 
     /tmp/ccbjqHaZ.s:1025   .text:00000000000005d8 .L0 
     /tmp/ccbjqHaZ.s:1027   .text:00000000000005dc .L0 
     /tmp/ccbjqHaZ.s:1034   .text:00000000000005dc .L0 
     /tmp/ccbjqHaZ.s:87     .text:0000000000000060 .L5
     /tmp/ccbjqHaZ.s:226    .text:0000000000000134 .L14
     /tmp/ccbjqHaZ.s:184    .text:00000000000000f0 .L13
     /tmp/ccbjqHaZ.s:409    .text:0000000000000258 .L25
     /tmp/ccbjqHaZ.s:382    .text:0000000000000224 .L23
     /tmp/ccbjqHaZ.s:829    .text:00000000000004cc .L42
     /tmp/ccbjqHaZ.s:2691   .debug_abbrev:0000000000000000 .Ldebug_abbrev0
     /tmp/ccbjqHaZ.s:3958   .debug_str:0000000000000650 .LASF139
     /tmp/ccbjqHaZ.s:3858   .debug_str:00000000000003ce .LASF140
     /tmp/ccbjqHaZ.s:3800   .debug_str:0000000000000241 .LASF141
     /tmp/ccbjqHaZ.s:5      .text:0000000000000000 .Ltext0
     /tmp/ccbjqHaZ.s:1030   .text:00000000000005dc .Letext0
     /tmp/ccbjqHaZ.s:3728   .debug_line:0000000000000000 .Ldebug_line0
     /tmp/ccbjqHaZ.s:3816   .debug_str:00000000000002c7 .LASF0
     /tmp/ccbjqHaZ.s:3842   .debug_str:000000000000037a .LASF1
     /tmp/ccbjqHaZ.s:3916   .debug_str:0000000000000542 .LASF2
     /tmp/ccbjqHaZ.s:3922   .debug_str:0000000000000574 .LASF4
     /tmp/ccbjqHaZ.s:3826   .debug_str:00000000000002f8 .LASF3
     /tmp/ccbjqHaZ.s:3746   .debug_str:0000000000000091 .LASF5
     /tmp/ccbjqHaZ.s:3892   .debug_str:00000000000004b2 .LASF6
     /tmp/ccbjqHaZ.s:3882   .debug_str:000000000000046c .LASF7
     /tmp/ccbjqHaZ.s:3834   .debug_str:0000000000000341 .LASF8
     /tmp/ccbjqHaZ.s:3796   .debug_str:0000000000000210 .LASF9
     /tmp/ccbjqHaZ.s:3804   .debug_str:000000000000026b .LASF10
     /tmp/ccbjqHaZ.s:3764   .debug_str:000000000000012b .LASF11
     /tmp/ccbjqHaZ.s:3792   .debug_str:00000000000001f8 .LASF12
     /tmp/ccbjqHaZ.s:3776   .debug_str:0000000000000193 .LASF13
     /tmp/ccbjqHaZ.s:3762   .debug_str:000000000000011b .LASF14
     /tmp/ccbjqHaZ.s:3944   .debug_str:000000000000060a .LASF15
     /tmp/ccbjqHaZ.s:3790   .debug_str:00000000000001e2 .LASF16
     /tmp/ccbjqHaZ.s:3932   .debug_str:00000000000005ac .LASF17
     /tmp/ccbjqHaZ.s:3742   .debug_str:0000000000000070 .LASF142
     /tmp/ccbjqHaZ.s:4022   .debug_str:000000000000088a .LASF18
     /tmp/ccbjqHaZ.s:3794   .debug_str:0000000000000207 .LASF19
     /tmp/ccbjqHaZ.s:3930   .debug_str:000000000000059e .LASF20
     /tmp/ccbjqHaZ.s:3894   .debug_str:00000000000004b9 .LASF21
     /tmp/ccbjqHaZ.s:3782   .debug_str:00000000000001b5 .LASF22
     /tmp/ccbjqHaZ.s:3920   .debug_str:0000000000000568 .LASF23
     /tmp/ccbjqHaZ.s:3956   .debug_str:000000000000063f .LASF24
     /tmp/ccbjqHaZ.s:3802   .debug_str:000000000000025f .LASF25
     /tmp/ccbjqHaZ.s:3740   .debug_str:0000000000000064 .LASF26
     /tmp/ccbjqHaZ.s:3768   .debug_str:0000000000000157 .LASF27
     /tmp/ccbjqHaZ.s:3772   .debug_str:0000000000000173 .LASF28
     /tmp/ccbjqHaZ.s:3866   .debug_str:0000000000000405 .LASF29
     /tmp/ccbjqHaZ.s:3954   .debug_str:0000000000000634 .LASF30
     /tmp/ccbjqHaZ.s:3978   .debug_str:0000000000000785 .LASF31
     /tmp/ccbjqHaZ.s:4008   .debug_str:000000000000080d .LASF32
     /tmp/ccbjqHaZ.s:3732   .debug_str:000000000000001c .LASF33
     /tmp/ccbjqHaZ.s:3830   .debug_str:000000000000031a .LASF34
GAS LISTING /tmp/ccbjqHaZ.s 			page 32


     /tmp/ccbjqHaZ.s:3864   .debug_str:0000000000000400 .LASF35
     /tmp/ccbjqHaZ.s:3992   .debug_str:00000000000007c5 .LASF36
     /tmp/ccbjqHaZ.s:3940   .debug_str:00000000000005f7 .LASF37
     /tmp/ccbjqHaZ.s:4006   .debug_str:0000000000000807 .LASF38
     /tmp/ccbjqHaZ.s:3848   .debug_str:000000000000039b .LASF39
     /tmp/ccbjqHaZ.s:3996   .debug_str:00000000000007d8 .LASF143
     /tmp/ccbjqHaZ.s:3888   .debug_str:000000000000048d .LASF40
     /tmp/ccbjqHaZ.s:3832   .debug_str:000000000000031f .LASF42
     /tmp/ccbjqHaZ.s:3960   .debug_str:0000000000000714 .LASF41
     /tmp/ccbjqHaZ.s:3766   .debug_str:000000000000013a .LASF43
     /tmp/ccbjqHaZ.s:3880   .debug_str:000000000000045d .LASF44
     /tmp/ccbjqHaZ.s:3964   .debug_str:0000000000000738 .LASF45
     /tmp/ccbjqHaZ.s:4000   .debug_str:00000000000007e8 .LASF46
     /tmp/ccbjqHaZ.s:4018   .debug_str:0000000000000865 .LASF47
     /tmp/ccbjqHaZ.s:3810   .debug_str:0000000000000292 .LASF48
     /tmp/ccbjqHaZ.s:3814   .debug_str:00000000000002af .LASF49
     /tmp/ccbjqHaZ.s:4010   .debug_str:0000000000000818 .LASF50
     /tmp/ccbjqHaZ.s:3756   .debug_str:00000000000000df .LASF51
     /tmp/ccbjqHaZ.s:3818   .debug_str:00000000000002d4 .LASF52
     /tmp/ccbjqHaZ.s:3738   .debug_str:0000000000000053 .LASF53
     /tmp/ccbjqHaZ.s:3910   .debug_str:000000000000051e .LASF144
     /tmp/ccbjqHaZ.s:3980   .debug_str:0000000000000791 .LASF54
     /tmp/ccbjqHaZ.s:3968   .debug_str:000000000000075c .LASF56
     /tmp/ccbjqHaZ.s:3912   .debug_str:000000000000052e .LASF58
     /tmp/ccbjqHaZ.s:3752   .debug_str:00000000000000b8 .LASF60
     /tmp/ccbjqHaZ.s:3896   .debug_str:00000000000004c5 .LASF55
     /tmp/ccbjqHaZ.s:3898   .debug_str:00000000000004cc .LASF57
     /tmp/ccbjqHaZ.s:3870   .debug_str:0000000000000416 .LASF59
     /tmp/ccbjqHaZ.s:3836   .debug_str:0000000000000354 .LASF61
     /tmp/ccbjqHaZ.s:4002   .debug_str:00000000000007f8 .LASF62
     /tmp/ccbjqHaZ.s:3962   .debug_str:0000000000000724 .LASF63
     /tmp/ccbjqHaZ.s:3868   .debug_str:000000000000040e .LASF64
     /tmp/ccbjqHaZ.s:3878   .debug_str:0000000000000449 .LASF65
     /tmp/ccbjqHaZ.s:3844   .debug_str:000000000000038d .LASF66
     /tmp/ccbjqHaZ.s:3902   .debug_str:00000000000004e9 .LASF67
     /tmp/ccbjqHaZ.s:4020   .debug_str:0000000000000882 .LASF68
     /tmp/ccbjqHaZ.s:3824   .debug_str:00000000000002e4 .LASF69
     /tmp/ccbjqHaZ.s:3780   .debug_str:00000000000001ae .LASF70
     /tmp/ccbjqHaZ.s:3924   .debug_str:000000000000057b .LASF71
     /tmp/ccbjqHaZ.s:3926   .debug_str:000000000000058e .LASF72
     /tmp/ccbjqHaZ.s:3770   .debug_str:0000000000000160 .LASF73
     /tmp/ccbjqHaZ.s:3788   .debug_str:00000000000001dc .LASF74
     /tmp/ccbjqHaZ.s:3812   .debug_str:000000000000029d .LASF75
     /tmp/ccbjqHaZ.s:3822   .debug_str:00000000000002de .LASF76
     /tmp/ccbjqHaZ.s:3784   .debug_str:00000000000001c5 .LASF77
     /tmp/ccbjqHaZ.s:3748   .debug_str:0000000000000098 .LASF78
     /tmp/ccbjqHaZ.s:3918   .debug_str:0000000000000550 .LASF79
     /tmp/ccbjqHaZ.s:3914   .debug_str:0000000000000537 .LASF80
     /tmp/ccbjqHaZ.s:4016   .debug_str:000000000000084d .LASF81
     /tmp/ccbjqHaZ.s:3998   .debug_str:00000000000007de .LASF82
     /tmp/ccbjqHaZ.s:3774   .debug_str:000000000000017d .LASF83
     /tmp/ccbjqHaZ.s:3994   .debug_str:00000000000007ce .LASF84
     /tmp/ccbjqHaZ.s:3860   .debug_str:00000000000003e0 .LASF85
     /tmp/ccbjqHaZ.s:3872   .debug_str:000000000000041d .LASF86
     /tmp/ccbjqHaZ.s:3758   .debug_str:00000000000000fe .LASF87
     /tmp/ccbjqHaZ.s:3952   .debug_str:000000000000062f .LASF88
     /tmp/ccbjqHaZ.s:3966   .debug_str:0000000000000754 .LASF145
GAS LISTING /tmp/ccbjqHaZ.s 			page 33


     /tmp/ccbjqHaZ.s:980    .text:00000000000005a8 .LFB44
     /tmp/ccbjqHaZ.s:1028   .text:00000000000005dc .LFE44
     /tmp/ccbjqHaZ.s:991    .text:00000000000005b4 .LBB4
     /tmp/ccbjqHaZ.s:1007   .text:00000000000005c0 .LBE4
     /tmp/ccbjqHaZ.s:3856   .debug_str:00000000000003c9 .LASF113
     /tmp/ccbjqHaZ.s:3946   .debug_str:0000000000000616 .LASF115
     /tmp/ccbjqHaZ.s:942    .text:000000000000056c .LFB43
     /tmp/ccbjqHaZ.s:974    .text:00000000000005a8 .LFE43
     /tmp/ccbjqHaZ.s:3311   .debug_loc:0000000000000000 .LLST20
     /tmp/ccbjqHaZ.s:963    .text:0000000000000598 .LVL64
     /tmp/ccbjqHaZ.s:3820   .debug_str:00000000000002d9 .LASF89
     /tmp/ccbjqHaZ.s:3988   .debug_str:00000000000007b0 .LASF91
     /tmp/ccbjqHaZ.s:893    .text:0000000000000520 .LFB42
     /tmp/ccbjqHaZ.s:936    .text:000000000000056c .LFE42
     /tmp/ccbjqHaZ.s:913    .text:000000000000054c .LVL61
     /tmp/ccbjqHaZ.s:3982   .debug_str:000000000000079a .LASF90
     /tmp/ccbjqHaZ.s:4012   .debug_str:000000000000082a .LASF92
     /tmp/ccbjqHaZ.s:842    .text:00000000000004d4 .LFB41
     /tmp/ccbjqHaZ.s:887    .text:0000000000000520 .LFE41
     /tmp/ccbjqHaZ.s:4004   .debug_str:0000000000000800 .LASF93
     /tmp/ccbjqHaZ.s:3325   .debug_loc:0000000000000039 .LLST19
     /tmp/ccbjqHaZ.s:864    .text:0000000000000500 .LVL60
     /tmp/ccbjqHaZ.s:3778   .debug_str:00000000000001a3 .LASF94
     /tmp/ccbjqHaZ.s:3890   .debug_str:00000000000004a2 .LASF95
     /tmp/ccbjqHaZ.s:781    .text:000000000000047c .LFB40
     /tmp/ccbjqHaZ.s:836    .text:00000000000004d4 .LFE40
     /tmp/ccbjqHaZ.s:3343   .debug_loc:0000000000000085 .LLST18
     /tmp/ccbjqHaZ.s:806    .text:00000000000004ac .LVL55
     /tmp/ccbjqHaZ.s:3936   .debug_str:00000000000005d3 .LASF96
     /tmp/ccbjqHaZ.s:3730   .debug_str:0000000000000000 .LASF97
     /tmp/ccbjqHaZ.s:729    .text:0000000000000430 .LFB39
     /tmp/ccbjqHaZ.s:775    .text:000000000000047c .LFE39
     /tmp/ccbjqHaZ.s:3948   .debug_str:000000000000061f .LASF98
     /tmp/ccbjqHaZ.s:3372   .debug_loc:00000000000000fa .LLST16
     /tmp/ccbjqHaZ.s:3786   .debug_str:00000000000001d7 .LASF99
     /tmp/ccbjqHaZ.s:3390   .debug_loc:0000000000000146 .LLST17
     /tmp/ccbjqHaZ.s:752    .text:000000000000045c .LVL52
     /tmp/ccbjqHaZ.s:3808   .debug_str:0000000000000287 .LASF100
     /tmp/ccbjqHaZ.s:3938   .debug_str:00000000000005e3 .LASF101
     /tmp/ccbjqHaZ.s:678    .text:00000000000003e4 .LFB38
     /tmp/ccbjqHaZ.s:723    .text:0000000000000430 .LFE38
     /tmp/ccbjqHaZ.s:3408   .debug_loc:0000000000000192 .LLST15
     /tmp/ccbjqHaZ.s:700    .text:0000000000000410 .LVL48
     /tmp/ccbjqHaZ.s:3928   .debug_str:0000000000000595 .LASF102
     /tmp/ccbjqHaZ.s:3850   .debug_str:00000000000003a0 .LASF103
     /tmp/ccbjqHaZ.s:627    .text:0000000000000398 .LFB37
     /tmp/ccbjqHaZ.s:672    .text:00000000000003e4 .LFE37
     /tmp/ccbjqHaZ.s:3426   .debug_loc:00000000000001de .LLST14
     /tmp/ccbjqHaZ.s:649    .text:00000000000003c4 .LVL45
     /tmp/ccbjqHaZ.s:3900   .debug_str:00000000000004df .LASF104
     /tmp/ccbjqHaZ.s:3754   .debug_str:00000000000000cd .LASF105
     /tmp/ccbjqHaZ.s:576    .text:000000000000034c .LFB36
     /tmp/ccbjqHaZ.s:621    .text:0000000000000398 .LFE36
     /tmp/ccbjqHaZ.s:3444   .debug_loc:000000000000022a .LLST13
     /tmp/ccbjqHaZ.s:598    .text:0000000000000378 .LVL42
     /tmp/ccbjqHaZ.s:3906   .debug_str:000000000000050d .LASF106
     /tmp/ccbjqHaZ.s:3744   .debug_str:000000000000007e .LASF107
GAS LISTING /tmp/ccbjqHaZ.s 			page 34


     /tmp/ccbjqHaZ.s:523    .text:00000000000002fc .LFB35
     /tmp/ccbjqHaZ.s:570    .text:000000000000034c .LFE35
     /tmp/ccbjqHaZ.s:3462   .debug_loc:0000000000000276 .LLST11
     /tmp/ccbjqHaZ.s:3760   .debug_str:0000000000000116 .LASF108
     /tmp/ccbjqHaZ.s:3480   .debug_loc:00000000000002c2 .LLST12
     /tmp/ccbjqHaZ.s:547    .text:000000000000032c .LVL39
     /tmp/ccbjqHaZ.s:3990   .debug_str:00000000000007b9 .LASF109
     /tmp/ccbjqHaZ.s:3734   .debug_str:0000000000000028 .LASF110
     /tmp/ccbjqHaZ.s:472    .text:00000000000002b0 .LFB34
     /tmp/ccbjqHaZ.s:517    .text:00000000000002fc .LFE34
     /tmp/ccbjqHaZ.s:3494   .debug_loc:00000000000002fb .LLST10
     /tmp/ccbjqHaZ.s:494    .text:00000000000002dc .LVL35
     /tmp/ccbjqHaZ.s:3986   .debug_str:00000000000007ab .LASF111
     /tmp/ccbjqHaZ.s:3884   .debug_str:000000000000047f .LASF112
     /tmp/ccbjqHaZ.s:423    .text:0000000000000264 .LFB33
     /tmp/ccbjqHaZ.s:466    .text:00000000000002b0 .LFE33
     /tmp/ccbjqHaZ.s:443    .text:0000000000000290 .LVL32
     /tmp/ccbjqHaZ.s:3874   .debug_str:0000000000000428 .LASF114
     /tmp/ccbjqHaZ.s:3736   .debug_str:000000000000003d .LASF116
     /tmp/ccbjqHaZ.s:361    .text:0000000000000200 .LFB32
     /tmp/ccbjqHaZ.s:417    .text:0000000000000264 .LFE32
     /tmp/ccbjqHaZ.s:3512   .debug_loc:0000000000000347 .LLST8
     /tmp/ccbjqHaZ.s:3886   .debug_str:0000000000000488 .LASF117
     /tmp/ccbjqHaZ.s:3538   .debug_loc:00000000000003b9 .LLST9
     /tmp/ccbjqHaZ.s:391    .text:0000000000000240 .LVL27
     /tmp/ccbjqHaZ.s:414    .text:0000000000000260 .LVL31
     /tmp/ccbjqHaZ.s:3876   .debug_str:0000000000000434 .LASF118
     /tmp/ccbjqHaZ.s:323    .text:00000000000001c4 .LFB31
     /tmp/ccbjqHaZ.s:355    .text:0000000000000200 .LFE31
     /tmp/ccbjqHaZ.s:3560   .debug_loc:0000000000000418 .LLST7
     /tmp/ccbjqHaZ.s:344    .text:00000000000001f0 .LVL24
     /tmp/ccbjqHaZ.s:3904   .debug_str:00000000000004fd .LASF119
     /tmp/ccbjqHaZ.s:3750   .debug_str:00000000000000a3 .LASF120
     /tmp/ccbjqHaZ.s:287    .text:0000000000000188 .LFB30
     /tmp/ccbjqHaZ.s:317    .text:00000000000001c4 .LFE30
     /tmp/ccbjqHaZ.s:306    .text:00000000000001b4 .LVL21
     /tmp/ccbjqHaZ.s:3854   .debug_str:00000000000003bd .LASF121
     /tmp/ccbjqHaZ.s:3934   .debug_str:00000000000005c2 .LASF122
     /tmp/ccbjqHaZ.s:238    .text:000000000000013c .LFB29
     /tmp/ccbjqHaZ.s:281    .text:0000000000000188 .LFE29
     /tmp/ccbjqHaZ.s:258    .text:0000000000000168 .LVL20
     /tmp/ccbjqHaZ.s:3942   .debug_str:00000000000005fc .LASF123
     /tmp/ccbjqHaZ.s:3798   .debug_str:0000000000000220 .LASF124
     /tmp/ccbjqHaZ.s:151    .text:00000000000000b4 .LFB28
     /tmp/ccbjqHaZ.s:232    .text:000000000000013c .LFE28
     /tmp/ccbjqHaZ.s:3578   .debug_loc:0000000000000464 .LLST3
     /tmp/ccbjqHaZ.s:3838   .debug_str:0000000000000367 .LASF125
     /tmp/ccbjqHaZ.s:3600   .debug_loc:00000000000004c3 .LLST4
     /tmp/ccbjqHaZ.s:3622   .debug_loc:0000000000000522 .LLST5
     /tmp/ccbjqHaZ.s:3852   .debug_str:00000000000003b1 .LASF126
     /tmp/ccbjqHaZ.s:3644   .debug_loc:0000000000000581 .LLST6
     /tmp/ccbjqHaZ.s:181    .text:00000000000000ec .LVL13
     /tmp/ccbjqHaZ.s:193    .text:0000000000000108 .LVL15
     /tmp/ccbjqHaZ.s:3950   .debug_str:0000000000000626 .LASF127
     /tmp/ccbjqHaZ.s:4014   .debug_str:000000000000083f .LASF128
     /tmp/ccbjqHaZ.s:100    .text:0000000000000068 .LFB27
     /tmp/ccbjqHaZ.s:145    .text:00000000000000b4 .LFE27
GAS LISTING /tmp/ccbjqHaZ.s 			page 35


     /tmp/ccbjqHaZ.s:3661   .debug_loc:00000000000005cc .LLST2
     /tmp/ccbjqHaZ.s:122    .text:0000000000000094 .LVL9
     /tmp/ccbjqHaZ.s:3862   .debug_str:00000000000003f6 .LASF129
     /tmp/ccbjqHaZ.s:3806   .debug_str:0000000000000279 .LASF130
     /tmp/ccbjqHaZ.s:42     .text:000000000000001c .LFB26
     /tmp/ccbjqHaZ.s:94     .text:0000000000000068 .LFE26
     /tmp/ccbjqHaZ.s:3840   .debug_str:0000000000000375 .LASF131
     /tmp/ccbjqHaZ.s:3679   .debug_loc:0000000000000618 .LLST0
     /tmp/ccbjqHaZ.s:3708   .debug_loc:000000000000068d .LLST1
     /tmp/ccbjqHaZ.s:67     .text:000000000000004c .LVL3
     /tmp/ccbjqHaZ.s:3908   .debug_str:0000000000000516 .LASF132
     /tmp/ccbjqHaZ.s:3828   .debug_str:000000000000030a .LASF133
     /tmp/ccbjqHaZ.s:10     .text:0000000000000000 .LFB25
     /tmp/ccbjqHaZ.s:36     .text:000000000000001c .LFE25
     /tmp/ccbjqHaZ.s:3984   .debug_str:00000000000007a6 .LASF134
     /tmp/ccbjqHaZ.s:3970   .debug_str:0000000000000771 .LASF135
     /tmp/ccbjqHaZ.s:3972   .debug_str:0000000000000776 .LASF136
     /tmp/ccbjqHaZ.s:3974   .debug_str:000000000000077b .LASF137
     /tmp/ccbjqHaZ.s:3976   .debug_str:0000000000000780 .LASF138
     /tmp/ccbjqHaZ.s:3846   .debug_str:0000000000000395 .LASF146
     /tmp/ccbjqHaZ.s:945    .text:000000000000056c .LVL62
     /tmp/ccbjqHaZ.s:961    .text:0000000000000590 .LVL63
     /tmp/ccbjqHaZ.s:845    .text:00000000000004d4 .LVL58
     /tmp/ccbjqHaZ.s:862    .text:00000000000004f8 .LVL59
     /tmp/ccbjqHaZ.s:784    .text:000000000000047c .LVL53
     /tmp/ccbjqHaZ.s:804    .text:00000000000004a4 .LVL54
     /tmp/ccbjqHaZ.s:828    .text:00000000000004cc .LVL56
     /tmp/ccbjqHaZ.s:832    .text:00000000000004d0 .LVL57
     /tmp/ccbjqHaZ.s:732    .text:0000000000000430 .LVL49
     /tmp/ccbjqHaZ.s:750    .text:0000000000000454 .LVL51
     /tmp/ccbjqHaZ.s:748    .text:0000000000000450 .LVL50
     /tmp/ccbjqHaZ.s:681    .text:00000000000003e4 .LVL46
     /tmp/ccbjqHaZ.s:698    .text:0000000000000408 .LVL47
     /tmp/ccbjqHaZ.s:630    .text:0000000000000398 .LVL43
     /tmp/ccbjqHaZ.s:647    .text:00000000000003bc .LVL44
     /tmp/ccbjqHaZ.s:579    .text:000000000000034c .LVL40
     /tmp/ccbjqHaZ.s:596    .text:0000000000000370 .LVL41
     /tmp/ccbjqHaZ.s:526    .text:00000000000002fc .LVL36
     /tmp/ccbjqHaZ.s:545    .text:0000000000000324 .LVL38
     /tmp/ccbjqHaZ.s:543    .text:0000000000000320 .LVL37
     /tmp/ccbjqHaZ.s:475    .text:00000000000002b0 .LVL33
     /tmp/ccbjqHaZ.s:492    .text:00000000000002d4 .LVL34
     /tmp/ccbjqHaZ.s:364    .text:0000000000000200 .LVL25
     /tmp/ccbjqHaZ.s:381    .text:0000000000000224 .LVL26
     /tmp/ccbjqHaZ.s:404    .text:0000000000000250 .LVL29
     /tmp/ccbjqHaZ.s:408    .text:0000000000000258 .LVL30
     /tmp/ccbjqHaZ.s:401    .text:000000000000024c .LVL28
     /tmp/ccbjqHaZ.s:326    .text:00000000000001c4 .LVL22
     /tmp/ccbjqHaZ.s:342    .text:00000000000001e8 .LVL23
     /tmp/ccbjqHaZ.s:154    .text:00000000000000b4 .LVL10
     /tmp/ccbjqHaZ.s:179    .text:00000000000000e4 .LVL12
     /tmp/ccbjqHaZ.s:218    .text:0000000000000128 .LVL17
     /tmp/ccbjqHaZ.s:225    .text:0000000000000134 .LVL19
     /tmp/ccbjqHaZ.s:215    .text:0000000000000124 .LVL16
     /tmp/ccbjqHaZ.s:221    .text:000000000000012c .LVL18
     /tmp/ccbjqHaZ.s:173    .text:00000000000000dc .LVL11
     /tmp/ccbjqHaZ.s:183    .text:00000000000000f0 .LVL14
GAS LISTING /tmp/ccbjqHaZ.s 			page 36


     /tmp/ccbjqHaZ.s:103    .text:0000000000000068 .LVL7
     /tmp/ccbjqHaZ.s:120    .text:000000000000008c .LVL8
     /tmp/ccbjqHaZ.s:45     .text:000000000000001c .LVL1
     /tmp/ccbjqHaZ.s:65     .text:0000000000000044 .LVL2
     /tmp/ccbjqHaZ.s:86     .text:0000000000000060 .LVL5
     /tmp/ccbjqHaZ.s:90     .text:0000000000000064 .LVL6
     /tmp/ccbjqHaZ.s:74     .text:0000000000000050 .LVL4
     /tmp/ccbjqHaZ.s:1035   .debug_info:0000000000000000 .Ldebug_info0

NO UNDEFINED SYMBOLS
