GAS LISTING /tmp/ccPW8Dfi.s 			page 1


   1              		.file	"syscall_cpp.cpp"
   2              		.option pic
   3              		.option norelax
   4              		.text
   5              	.Ltext0:
   6              		.section	.text._ZN6Thread3runEv,"axG",@progbits,_ZN6Thread3runEv,comdat
   7              		.align	2
   8              		.weak	_ZN6Thread3runEv
  10              	_ZN6Thread3runEv:
  11              	.LFB0:
  12              		.file 1 "src/../h/syscall_cpp.hpp"
   1:src/../h/syscall_cpp.hpp **** #ifndef _syscall_cpp
   2:src/../h/syscall_cpp.hpp **** #define _syscall_cpp
   3:src/../h/syscall_cpp.hpp **** 
   4:src/../h/syscall_cpp.hpp **** #include "../lib/hw.h"
   5:src/../h/syscall_cpp.hpp **** #include "syscall_c.hpp"
   6:src/../h/syscall_cpp.hpp **** 
   7:src/../h/syscall_cpp.hpp **** void *operator new(size_t);
   8:src/../h/syscall_cpp.hpp **** 
   9:src/../h/syscall_cpp.hpp **** void operator delete(void *);
  10:src/../h/syscall_cpp.hpp **** 
  11:src/../h/syscall_cpp.hpp **** 
  12:src/../h/syscall_cpp.hpp **** class Thread {
  13:src/../h/syscall_cpp.hpp **** public:
  14:src/../h/syscall_cpp.hpp ****     Thread(void (*body)(void *), void *arg);
  15:src/../h/syscall_cpp.hpp **** 
  16:src/../h/syscall_cpp.hpp ****     virtual ~Thread();
  17:src/../h/syscall_cpp.hpp **** 
  18:src/../h/syscall_cpp.hpp ****     int start();
  19:src/../h/syscall_cpp.hpp **** 
  20:src/../h/syscall_cpp.hpp ****     void join();
  21:src/../h/syscall_cpp.hpp **** 
  22:src/../h/syscall_cpp.hpp ****     void join(time_t);
  23:src/../h/syscall_cpp.hpp **** 
  24:src/../h/syscall_cpp.hpp ****     static int kill(Thread *);
  25:src/../h/syscall_cpp.hpp **** 
  26:src/../h/syscall_cpp.hpp ****     static void dispatch();
  27:src/../h/syscall_cpp.hpp **** 
  28:src/../h/syscall_cpp.hpp ****     static int sleep(time_t);
  29:src/../h/syscall_cpp.hpp **** 
  30:src/../h/syscall_cpp.hpp ****     static void threadStart(void *);
  31:src/../h/syscall_cpp.hpp **** 
  32:src/../h/syscall_cpp.hpp **** protected:
  33:src/../h/syscall_cpp.hpp ****     Thread();
  34:src/../h/syscall_cpp.hpp **** 
  35:src/../h/syscall_cpp.hpp ****     virtual void run() {}
  13              		.loc 1 35 18
  14              		.cfi_startproc
  15              	.LVL0:
  16 0000 130101FF 		addi	sp,sp,-16
  17              		.cfi_def_cfa_offset 16
  18 0004 23348100 		sd	s0,8(sp)
  19              		.cfi_offset 8, -8
  20 0008 13040101 		addi	s0,sp,16
  21              		.cfi_def_cfa 8, 0
  22              		.loc 1 35 25 is_stmt 0
  23 000c 03348100 		ld	s0,8(sp)
GAS LISTING /tmp/ccPW8Dfi.s 			page 2


  24              		.cfi_restore 8
  25              		.cfi_def_cfa 2, 16
  26 0010 13010101 		addi	sp,sp,16
  27              		.cfi_def_cfa_offset 0
  28 0014 67800000 		jr	ra
  29              		.cfi_endproc
  30              	.LFE0:
  32              		.section	.text._ZN14PeriodicThread18periodicActivationEv,"axG",@progbits,_ZN14PeriodicThread18peri
  33              		.align	2
  34              		.weak	_ZN14PeriodicThread18periodicActivationEv
  36              	_ZN14PeriodicThread18periodicActivationEv:
  37              	.LFB4:
  36:src/../h/syscall_cpp.hpp **** 
  37:src/../h/syscall_cpp.hpp **** private:
  38:src/../h/syscall_cpp.hpp ****     thread_t myHandle;
  39:src/../h/syscall_cpp.hpp **** 
  40:src/../h/syscall_cpp.hpp ****     void (*body)(void *);
  41:src/../h/syscall_cpp.hpp **** 
  42:src/../h/syscall_cpp.hpp ****     void *arg;
  43:src/../h/syscall_cpp.hpp **** };
  44:src/../h/syscall_cpp.hpp **** 
  45:src/../h/syscall_cpp.hpp **** 
  46:src/../h/syscall_cpp.hpp **** class Semaphore {
  47:src/../h/syscall_cpp.hpp **** public:
  48:src/../h/syscall_cpp.hpp **** 
  49:src/../h/syscall_cpp.hpp ****     explicit Semaphore(unsigned init);
  50:src/../h/syscall_cpp.hpp **** 
  51:src/../h/syscall_cpp.hpp ****     virtual ~Semaphore();
  52:src/../h/syscall_cpp.hpp **** 
  53:src/../h/syscall_cpp.hpp ****     virtual int wait();
  54:src/../h/syscall_cpp.hpp **** 
  55:src/../h/syscall_cpp.hpp ****     virtual int signal();
  56:src/../h/syscall_cpp.hpp **** 
  57:src/../h/syscall_cpp.hpp ****     static int signal_and_wait(Semaphore &sem1, Semaphore &sem2);
  58:src/../h/syscall_cpp.hpp **** 
  59:src/../h/syscall_cpp.hpp **** protected:
  60:src/../h/syscall_cpp.hpp ****     sem_t myHandle;
  61:src/../h/syscall_cpp.hpp **** 
  62:src/../h/syscall_cpp.hpp **** };
  63:src/../h/syscall_cpp.hpp **** 
  64:src/../h/syscall_cpp.hpp **** class Mutex : public Semaphore {
  65:src/../h/syscall_cpp.hpp **** public:
  66:src/../h/syscall_cpp.hpp ****     Mutex() : Semaphore(1) {}
  67:src/../h/syscall_cpp.hpp **** };
  68:src/../h/syscall_cpp.hpp **** 
  69:src/../h/syscall_cpp.hpp **** 
  70:src/../h/syscall_cpp.hpp **** class PeriodicThread : public Thread {
  71:src/../h/syscall_cpp.hpp **** public:
  72:src/../h/syscall_cpp.hpp ****     void terminate();
  73:src/../h/syscall_cpp.hpp **** 
  74:src/../h/syscall_cpp.hpp **** protected:
  75:src/../h/syscall_cpp.hpp ****     explicit PeriodicThread(time_t period);
  76:src/../h/syscall_cpp.hpp **** 
  77:src/../h/syscall_cpp.hpp ****     virtual void periodicActivation() {}
  38              		.loc 1 77 18 is_stmt 1
  39              		.cfi_startproc
  40              	.LVL1:
GAS LISTING /tmp/ccPW8Dfi.s 			page 3


  41 0000 130101FF 		addi	sp,sp,-16
  42              		.cfi_def_cfa_offset 16
  43 0004 23348100 		sd	s0,8(sp)
  44              		.cfi_offset 8, -8
  45 0008 13040101 		addi	s0,sp,16
  46              		.cfi_def_cfa 8, 0
  47              		.loc 1 77 40 is_stmt 0
  48 000c 03348100 		ld	s0,8(sp)
  49              		.cfi_restore 8
  50              		.cfi_def_cfa 2, 16
  51 0010 13010101 		addi	sp,sp,16
  52              		.cfi_def_cfa_offset 0
  53 0014 67800000 		jr	ra
  54              		.cfi_endproc
  55              	.LFE4:
  57              		.text
  58              		.align	2
  59              		.globl	_ZN6Thread11threadStartEPv
  61              	_ZN6Thread11threadStartEPv:
  62              	.LFB47:
  63              		.file 2 "src/syscall_cpp.cpp"
   1:src/syscall_cpp.cpp **** //
   2:src/syscall_cpp.cpp **** // Created by os on 5/27/23.
   3:src/syscall_cpp.cpp **** //
   4:src/syscall_cpp.cpp **** 
   5:src/syscall_cpp.cpp **** #include "../h/syscall_cpp.hpp"
   6:src/syscall_cpp.cpp **** #include "../h/c_thread.hpp"
   7:src/syscall_cpp.cpp **** 
   8:src/syscall_cpp.cpp **** void *operator new(size_t size) {
   9:src/syscall_cpp.cpp ****     return mem_alloc(size);
  10:src/syscall_cpp.cpp **** }
  11:src/syscall_cpp.cpp **** 
  12:src/syscall_cpp.cpp **** void *operator new[](size_t size) {
  13:src/syscall_cpp.cpp ****     return mem_alloc(size);
  14:src/syscall_cpp.cpp **** }
  15:src/syscall_cpp.cpp **** 
  16:src/syscall_cpp.cpp **** void operator delete(void *mem) {
  17:src/syscall_cpp.cpp ****     mem_free(mem);
  18:src/syscall_cpp.cpp **** }
  19:src/syscall_cpp.cpp **** 
  20:src/syscall_cpp.cpp **** void operator delete[](void *mem) {
  21:src/syscall_cpp.cpp ****     mem_free(mem);
  22:src/syscall_cpp.cpp **** }
  23:src/syscall_cpp.cpp **** 
  24:src/syscall_cpp.cpp **** Thread::Thread(void (*body)(void *), void *arg) {
  25:src/syscall_cpp.cpp ****     this->body = body;
  26:src/syscall_cpp.cpp ****     this->arg = arg;
  27:src/syscall_cpp.cpp **** }
  28:src/syscall_cpp.cpp **** 
  29:src/syscall_cpp.cpp **** Thread::~Thread() {
  30:src/syscall_cpp.cpp ****     if (myHandle->is_finished())
  31:src/syscall_cpp.cpp ****         delete myHandle;
  32:src/syscall_cpp.cpp **** }
  33:src/syscall_cpp.cpp **** 
  34:src/syscall_cpp.cpp **** int Thread::start() {
  35:src/syscall_cpp.cpp ****     return thread_create(&myHandle, &threadStart, this);
  36:src/syscall_cpp.cpp **** }
GAS LISTING /tmp/ccPW8Dfi.s 			page 4


  37:src/syscall_cpp.cpp **** 
  38:src/syscall_cpp.cpp **** void Thread::join() {
  39:src/syscall_cpp.cpp ****     thread_join(myHandle);
  40:src/syscall_cpp.cpp **** }
  41:src/syscall_cpp.cpp **** 
  42:src/syscall_cpp.cpp **** void Thread::join(time_t time) {
  43:src/syscall_cpp.cpp ****     thread_join(myHandle, time);
  44:src/syscall_cpp.cpp **** }
  45:src/syscall_cpp.cpp **** 
  46:src/syscall_cpp.cpp **** int Thread::kill(Thread *thread) {
  47:src/syscall_cpp.cpp ****     return thread_kill(thread->myHandle);
  48:src/syscall_cpp.cpp **** }
  49:src/syscall_cpp.cpp **** 
  50:src/syscall_cpp.cpp **** void Thread::dispatch() {
  51:src/syscall_cpp.cpp ****     thread_dispatch();
  52:src/syscall_cpp.cpp **** }
  53:src/syscall_cpp.cpp **** 
  54:src/syscall_cpp.cpp **** int Thread::sleep(time_t ms) {
  55:src/syscall_cpp.cpp ****     return time_sleep(ms);
  56:src/syscall_cpp.cpp **** }
  57:src/syscall_cpp.cpp **** 
  58:src/syscall_cpp.cpp **** Thread::Thread() {
  59:src/syscall_cpp.cpp ****     this->body = nullptr;
  60:src/syscall_cpp.cpp ****     this->arg = nullptr;
  61:src/syscall_cpp.cpp **** }
  62:src/syscall_cpp.cpp **** 
  63:src/syscall_cpp.cpp **** void Thread::threadStart(void *arg) {
  64              		.loc 2 63 37 is_stmt 1
  65              		.cfi_startproc
  66              	.LVL2:
  67 0000 130101FF 		addi	sp,sp,-16
  68              		.cfi_def_cfa_offset 16
  69 0004 23341100 		sd	ra,8(sp)
  70 0008 23308100 		sd	s0,0(sp)
  71              		.cfi_offset 1, -8
  72              		.cfi_offset 8, -16
  73 000c 13040101 		addi	s0,sp,16
  74              		.cfi_def_cfa 8, 0
  64:src/syscall_cpp.cpp ****     Thread *thread = (Thread *) arg;
  75              		.loc 2 64 5
  76              	.LVL3:
  65:src/syscall_cpp.cpp ****     if (thread->body) {
  77              		.loc 2 65 5
  78              		.loc 2 65 17 is_stmt 0
  79 0010 83370501 		ld	a5,16(a0)
  80              		.loc 2 65 5
  81 0014 638E0700 		beqz	a5,.L6
  66:src/syscall_cpp.cpp ****         thread->body(thread->arg);
  82              		.loc 2 66 9 is_stmt 1
  83              		.loc 2 66 21 is_stmt 0
  84 0018 03358501 		ld	a0,24(a0)
  85              	.LVL4:
  86 001c E7800700 		jalr	a5
  87              	.LVL5:
  88              	.L5:
  67:src/syscall_cpp.cpp ****     } else {
  68:src/syscall_cpp.cpp ****         thread->run();
GAS LISTING /tmp/ccPW8Dfi.s 			page 5


  69:src/syscall_cpp.cpp ****     }
  70:src/syscall_cpp.cpp **** }
  89              		.loc 2 70 1
  90 0020 83308100 		ld	ra,8(sp)
  91              		.cfi_remember_state
  92              		.cfi_restore 1
  93 0024 03340100 		ld	s0,0(sp)
  94              		.cfi_restore 8
  95              		.cfi_def_cfa 2, 16
  96 0028 13010101 		addi	sp,sp,16
  97              		.cfi_def_cfa_offset 0
  98 002c 67800000 		jr	ra
  99              	.LVL6:
 100              	.L6:
 101              		.cfi_restore_state
  68:src/syscall_cpp.cpp ****     }
 102              		.loc 2 68 9 is_stmt 1
  68:src/syscall_cpp.cpp ****     }
 103              		.loc 2 68 21 is_stmt 0
 104 0030 83370500 		ld	a5,0(a0)
 105 0034 83B70701 		ld	a5,16(a5)
  68:src/syscall_cpp.cpp ****     }
 106              		.loc 2 68 20
 107 0038 E7800700 		jalr	a5
 108              	.LVL7:
 109              		.loc 2 70 1
 110 003c 6FF05FFE 		j	.L5
 111              		.cfi_endproc
 112              	.LFE47:
 114              		.align	2
 115              		.globl	_ZN9SemaphoreD2Ev
 117              	_ZN9SemaphoreD2Ev:
 118              	.LFB52:
  71:src/syscall_cpp.cpp **** 
  72:src/syscall_cpp.cpp **** 
  73:src/syscall_cpp.cpp **** Semaphore::Semaphore(unsigned int init) {
  74:src/syscall_cpp.cpp ****     sem_open(&myHandle, init);
  75:src/syscall_cpp.cpp **** }
  76:src/syscall_cpp.cpp **** 
  77:src/syscall_cpp.cpp **** Semaphore::~Semaphore() {
 119              		.loc 2 77 1 is_stmt 1
 120              		.cfi_startproc
 121              		.cfi_personality 0x9b,DW.ref.__gxx_personality_v0
 122              		.cfi_lsda 0x1b,.LLSDA52
 123              	.LVL8:
 124 0040 130101FF 		addi	sp,sp,-16
 125              		.cfi_def_cfa_offset 16
 126 0044 23341100 		sd	ra,8(sp)
 127 0048 23308100 		sd	s0,0(sp)
 128              		.cfi_offset 1, -8
 129              		.cfi_offset 8, -16
 130 004c 13040101 		addi	s0,sp,16
 131              		.cfi_def_cfa 8, 0
 132              	.LBB8:
 133              		.loc 2 77 23 is_stmt 0
 134 0050 97070000 		lla	a5,_ZTV9Semaphore+16
 134      93870700 
GAS LISTING /tmp/ccPW8Dfi.s 			page 6


 135 0058 2330F500 		sd	a5,0(a0)
  78:src/syscall_cpp.cpp ****     sem_close(myHandle);
 136              		.loc 2 78 5 is_stmt 1
 137              		.loc 2 78 14 is_stmt 0
 138 005c 03358500 		ld	a0,8(a0)
 139              	.LVL9:
 140 0060 97000000 		call	_Z9sem_closeP3Sem@plt
 140      E7800000 
 141              	.LVL10:
 142              	.LBE8:
  79:src/syscall_cpp.cpp **** }
 143              		.loc 2 79 1
 144 0068 83308100 		ld	ra,8(sp)
 145              		.cfi_restore 1
 146 006c 03340100 		ld	s0,0(sp)
 147              		.cfi_restore 8
 148              		.cfi_def_cfa 2, 16
 149 0070 13010101 		addi	sp,sp,16
 150              		.cfi_def_cfa_offset 0
 151 0074 67800000 		jr	ra
 152              		.cfi_endproc
 153              	.LFE52:
 154              		.globl	__gxx_personality_v0
 155              		.section	.gcc_except_table,"a",@progbits
 156              	.LLSDA52:
 157 0000 FF       		.byte	0xff
 158 0001 FF       		.byte	0xff
 159 0002 03       		.byte	0x3
 160 0003 00       		.byte	0
 161              		.text
 163              		.globl	_ZN9SemaphoreD1Ev
 164              		.set	_ZN9SemaphoreD1Ev,_ZN9SemaphoreD2Ev
 165              		.align	2
 166              		.globl	_ZN9Semaphore4waitEv
 168              	_ZN9Semaphore4waitEv:
 169              	.LFB55:
  80:src/syscall_cpp.cpp **** 
  81:src/syscall_cpp.cpp **** int Semaphore::wait() {
 170              		.loc 2 81 23 is_stmt 1
 171              		.cfi_startproc
 172              	.LVL11:
 173 0078 130101FF 		addi	sp,sp,-16
 174              		.cfi_def_cfa_offset 16
 175 007c 23341100 		sd	ra,8(sp)
 176 0080 23308100 		sd	s0,0(sp)
 177              		.cfi_offset 1, -8
 178              		.cfi_offset 8, -16
 179 0084 13040101 		addi	s0,sp,16
 180              		.cfi_def_cfa 8, 0
  82:src/syscall_cpp.cpp ****     return sem_wait(myHandle);
 181              		.loc 2 82 5
 182              		.loc 2 82 20 is_stmt 0
 183 0088 03358500 		ld	a0,8(a0)
 184              	.LVL12:
 185 008c 97000000 		call	_Z8sem_waitP3Sem@plt
 185      E7800000 
 186              	.LVL13:
GAS LISTING /tmp/ccPW8Dfi.s 			page 7


  83:src/syscall_cpp.cpp **** }
 187              		.loc 2 83 1
 188 0094 83308100 		ld	ra,8(sp)
 189              		.cfi_restore 1
 190 0098 03340100 		ld	s0,0(sp)
 191              		.cfi_restore 8
 192              		.cfi_def_cfa 2, 16
 193 009c 13010101 		addi	sp,sp,16
 194              		.cfi_def_cfa_offset 0
 195 00a0 67800000 		jr	ra
 196              		.cfi_endproc
 197              	.LFE55:
 199              		.align	2
 200              		.globl	_ZN9Semaphore6signalEv
 202              	_ZN9Semaphore6signalEv:
 203              	.LFB56:
  84:src/syscall_cpp.cpp **** 
  85:src/syscall_cpp.cpp **** int Semaphore::signal() {
 204              		.loc 2 85 25 is_stmt 1
 205              		.cfi_startproc
 206              	.LVL14:
 207 00a4 130101FF 		addi	sp,sp,-16
 208              		.cfi_def_cfa_offset 16
 209 00a8 23341100 		sd	ra,8(sp)
 210 00ac 23308100 		sd	s0,0(sp)
 211              		.cfi_offset 1, -8
 212              		.cfi_offset 8, -16
 213 00b0 13040101 		addi	s0,sp,16
 214              		.cfi_def_cfa 8, 0
  86:src/syscall_cpp.cpp ****     return sem_signal(myHandle);
 215              		.loc 2 86 5
 216              		.loc 2 86 22 is_stmt 0
 217 00b4 03358500 		ld	a0,8(a0)
 218              	.LVL15:
 219 00b8 97000000 		call	_Z10sem_signalP3Sem@plt
 219      E7800000 
 220              	.LVL16:
  87:src/syscall_cpp.cpp **** }
 221              		.loc 2 87 1
 222 00c0 83308100 		ld	ra,8(sp)
 223              		.cfi_restore 1
 224 00c4 03340100 		ld	s0,0(sp)
 225              		.cfi_restore 8
 226              		.cfi_def_cfa 2, 16
 227 00c8 13010101 		addi	sp,sp,16
 228              		.cfi_def_cfa_offset 0
 229 00cc 67800000 		jr	ra
 230              		.cfi_endproc
 231              	.LFE56:
 233              		.align	2
 234              		.globl	_Znwm
 236              	_Znwm:
 237              	.LFB27:
   8:src/syscall_cpp.cpp ****     return mem_alloc(size);
 238              		.loc 2 8 33 is_stmt 1
 239              		.cfi_startproc
 240              	.LVL17:
GAS LISTING /tmp/ccPW8Dfi.s 			page 8


 241 00d0 130101FF 		addi	sp,sp,-16
 242              		.cfi_def_cfa_offset 16
 243 00d4 23341100 		sd	ra,8(sp)
 244 00d8 23308100 		sd	s0,0(sp)
 245              		.cfi_offset 1, -8
 246              		.cfi_offset 8, -16
 247 00dc 13040101 		addi	s0,sp,16
 248              		.cfi_def_cfa 8, 0
   9:src/syscall_cpp.cpp **** }
 249              		.loc 2 9 5
   9:src/syscall_cpp.cpp **** }
 250              		.loc 2 9 21 is_stmt 0
 251 00e0 97000000 		call	_Z9mem_allocm@plt
 251      E7800000 
 252              	.LVL18:
  10:src/syscall_cpp.cpp **** 
 253              		.loc 2 10 1
 254 00e8 83308100 		ld	ra,8(sp)
 255              		.cfi_restore 1
 256 00ec 03340100 		ld	s0,0(sp)
 257              		.cfi_restore 8
 258              		.cfi_def_cfa 2, 16
 259 00f0 13010101 		addi	sp,sp,16
 260              		.cfi_def_cfa_offset 0
 261 00f4 67800000 		jr	ra
 262              		.cfi_endproc
 263              	.LFE27:
 265              		.align	2
 266              		.globl	_Znam
 268              	_Znam:
 269              	.LFB28:
  12:src/syscall_cpp.cpp ****     return mem_alloc(size);
 270              		.loc 2 12 35 is_stmt 1
 271              		.cfi_startproc
 272              	.LVL19:
 273 00f8 130101FF 		addi	sp,sp,-16
 274              		.cfi_def_cfa_offset 16
 275 00fc 23341100 		sd	ra,8(sp)
 276 0100 23308100 		sd	s0,0(sp)
 277              		.cfi_offset 1, -8
 278              		.cfi_offset 8, -16
 279 0104 13040101 		addi	s0,sp,16
 280              		.cfi_def_cfa 8, 0
  13:src/syscall_cpp.cpp **** }
 281              		.loc 2 13 5
  13:src/syscall_cpp.cpp **** }
 282              		.loc 2 13 21 is_stmt 0
 283 0108 97000000 		call	_Z9mem_allocm@plt
 283      E7800000 
 284              	.LVL20:
  14:src/syscall_cpp.cpp **** 
 285              		.loc 2 14 1
 286 0110 83308100 		ld	ra,8(sp)
 287              		.cfi_restore 1
 288 0114 03340100 		ld	s0,0(sp)
 289              		.cfi_restore 8
 290              		.cfi_def_cfa 2, 16
GAS LISTING /tmp/ccPW8Dfi.s 			page 9


 291 0118 13010101 		addi	sp,sp,16
 292              		.cfi_def_cfa_offset 0
 293 011c 67800000 		jr	ra
 294              		.cfi_endproc
 295              	.LFE28:
 297              		.align	2
 298              		.globl	_ZdlPv
 300              	_ZdlPv:
 301              	.LFB29:
  16:src/syscall_cpp.cpp ****     mem_free(mem);
 302              		.loc 2 16 33 is_stmt 1
 303              		.cfi_startproc
 304              	.LVL21:
 305 0120 130101FF 		addi	sp,sp,-16
 306              		.cfi_def_cfa_offset 16
 307 0124 23341100 		sd	ra,8(sp)
 308 0128 23308100 		sd	s0,0(sp)
 309              		.cfi_offset 1, -8
 310              		.cfi_offset 8, -16
 311 012c 13040101 		addi	s0,sp,16
 312              		.cfi_def_cfa 8, 0
  17:src/syscall_cpp.cpp **** }
 313              		.loc 2 17 5
  17:src/syscall_cpp.cpp **** }
 314              		.loc 2 17 13 is_stmt 0
 315 0130 97000000 		call	_Z8mem_freePv@plt
 315      E7800000 
 316              	.LVL22:
  18:src/syscall_cpp.cpp **** 
 317              		.loc 2 18 1
 318 0138 83308100 		ld	ra,8(sp)
 319              		.cfi_restore 1
 320 013c 03340100 		ld	s0,0(sp)
 321              		.cfi_restore 8
 322              		.cfi_def_cfa 2, 16
 323 0140 13010101 		addi	sp,sp,16
 324              		.cfi_def_cfa_offset 0
 325 0144 67800000 		jr	ra
 326              		.cfi_endproc
 327              	.LFE29:
 329              		.align	2
 330              		.globl	_ZN6ThreadD2Ev
 332              	_ZN6ThreadD2Ev:
 333              	.LFB35:
  29:src/syscall_cpp.cpp ****     if (myHandle->is_finished())
 334              		.loc 2 29 1 is_stmt 1
 335              		.cfi_startproc
 336              		.cfi_personality 0x9b,DW.ref.__gxx_personality_v0
 337              		.cfi_lsda 0x1b,.LLSDA35
 338              	.LVL23:
 339              	.LBB9:
  29:src/syscall_cpp.cpp ****     if (myHandle->is_finished())
 340              		.loc 2 29 17 is_stmt 0
 341 0148 97070000 		lla	a5,_ZTV6Thread+16
 341      93870700 
 342 0150 2330F500 		sd	a5,0(a0)
  30:src/syscall_cpp.cpp ****         delete myHandle;
GAS LISTING /tmp/ccPW8Dfi.s 			page 10


 343              		.loc 2 30 5 is_stmt 1
  30:src/syscall_cpp.cpp ****         delete myHandle;
 344              		.loc 2 30 9 is_stmt 0
 345 0154 03358500 		ld	a0,8(a0)
 346              	.LVL24:
 347              	.LBB10:
 348              	.LBB11:
 349              		.file 3 "src/../h/c_thread.hpp"
   1:src/../h/c_thread.hpp **** #ifndef PROJECT_BASE_C_THREAD_HPP
   2:src/../h/c_thread.hpp **** #define PROJECT_BASE_C_THREAD_HPP
   3:src/../h/c_thread.hpp **** 
   4:src/../h/c_thread.hpp **** #include "syscall_c.hpp"
   5:src/../h/c_thread.hpp **** #include "../lib/hw.h"
   6:src/../h/c_thread.hpp **** #include "circular_buffer.hpp"
   7:src/../h/c_thread.hpp **** 
   8:src/../h/c_thread.hpp **** using run_t = void (*)(void *);
   9:src/../h/c_thread.hpp **** 
  10:src/../h/c_thread.hpp **** struct Context {
  11:src/../h/c_thread.hpp ****     uint64 ra;
  12:src/../h/c_thread.hpp ****     uint64 sp;
  13:src/../h/c_thread.hpp ****     uint64 sstatus;
  14:src/../h/c_thread.hpp ****     uint64 sepc;
  15:src/../h/c_thread.hpp **** };
  16:src/../h/c_thread.hpp **** 
  17:src/../h/c_thread.hpp **** enum Status {
  18:src/../h/c_thread.hpp ****     RUNNABLE, BLOCKED, SLEEPING, JOINED, FINISHED
  19:src/../h/c_thread.hpp **** };
  20:src/../h/c_thread.hpp **** 
  21:src/../h/c_thread.hpp **** class TCB final {
  22:src/../h/c_thread.hpp **** public:
  23:src/../h/c_thread.hpp ****     static int _thread_create(thread_t *, void(*)(void *), void *, void *);
  24:src/../h/c_thread.hpp **** 
  25:src/../h/c_thread.hpp ****     static void _thread_exit();
  26:src/../h/c_thread.hpp **** 
  27:src/../h/c_thread.hpp ****     static void _thread_dispatch();
  28:src/../h/c_thread.hpp **** 
  29:src/../h/c_thread.hpp ****     static void _thread_join(thread_t);
  30:src/../h/c_thread.hpp **** 
  31:src/../h/c_thread.hpp ****     static void _thread_join_time(thread_t, time_t);
  32:src/../h/c_thread.hpp **** 
  33:src/../h/c_thread.hpp ****     static int _fork();
  34:src/../h/c_thread.hpp **** 
  35:src/../h/c_thread.hpp ****     static int _kill(TCB *);
  36:src/../h/c_thread.hpp **** 
  37:src/../h/c_thread.hpp ****     static void thread_start();
  38:src/../h/c_thread.hpp **** 
  39:src/../h/c_thread.hpp ****     static void context_switch(Context *, Context *);
  40:src/../h/c_thread.hpp **** 
  41:src/../h/c_thread.hpp ****     static void yield();
  42:src/../h/c_thread.hpp **** 
  43:src/../h/c_thread.hpp ****     static TCB *destroy_thread(TCB *);
  44:src/../h/c_thread.hpp **** 
  45:src/../h/c_thread.hpp ****     static void duplicate(TCB *, TCB *);
  46:src/../h/c_thread.hpp **** 
  47:src/../h/c_thread.hpp ****     TCB(run_t, void *, void *, Context);
  48:src/../h/c_thread.hpp **** 
  49:src/../h/c_thread.hpp ****     TCB(TCB &);
GAS LISTING /tmp/ccPW8Dfi.s 			page 11


  50:src/../h/c_thread.hpp **** 
  51:src/../h/c_thread.hpp ****     bool is_runnable() const { return this->status == RUNNABLE; }
  52:src/../h/c_thread.hpp **** 
  53:src/../h/c_thread.hpp ****     bool is_blocked() const { return this->status == BLOCKED; }
  54:src/../h/c_thread.hpp **** 
  55:src/../h/c_thread.hpp ****     bool is_sleeping() const { return this->status == SLEEPING; }
  56:src/../h/c_thread.hpp **** 
  57:src/../h/c_thread.hpp ****     bool is_joined() const { return this->status == JOINED; }
  58:src/../h/c_thread.hpp **** 
  59:src/../h/c_thread.hpp ****     bool is_finished() const { return this->status == FINISHED; }
 350              		.loc 3 59 32 is_stmt 1
 351              		.loc 3 59 45 is_stmt 0
 352 0158 03278504 		lw	a4,72(a0)
 353              	.LVL25:
 354              	.LBE11:
 355              	.LBE10:
  30:src/syscall_cpp.cpp ****         delete myHandle;
 356              		.loc 2 30 5
 357 015c 93074000 		li	a5,4
 358 0160 6304F700 		beq	a4,a5,.L27
 359              	.L24:
 360 0164 67800000 		ret
 361              	.L27:
  31:src/syscall_cpp.cpp **** }
 362              		.loc 2 31 9 is_stmt 1
  31:src/syscall_cpp.cpp **** }
 363              		.loc 2 31 24 is_stmt 0
 364 0168 E30E05FE 		beqz	a0,.L24
 365              	.LBE9:
  29:src/syscall_cpp.cpp ****     if (myHandle->is_finished())
 366              		.loc 2 29 1 discriminator 1
 367 016c 130101FF 		addi	sp,sp,-16
 368              		.cfi_def_cfa_offset 16
 369 0170 23341100 		sd	ra,8(sp)
 370 0174 23308100 		sd	s0,0(sp)
 371              		.cfi_offset 1, -8
 372              		.cfi_offset 8, -16
 373 0178 13040101 		addi	s0,sp,16
 374              		.cfi_def_cfa 8, 0
 375              	.LBB12:
  31:src/syscall_cpp.cpp **** }
 376              		.loc 2 31 16 discriminator 1
 377 017c 97000000 		call	_ZdlPv
 377      E7800000 
 378              	.LVL26:
 379              	.LBE12:
  32:src/syscall_cpp.cpp **** 
 380              		.loc 2 32 1 discriminator 1
 381 0184 83308100 		ld	ra,8(sp)
 382              		.cfi_restore 1
 383 0188 03340100 		ld	s0,0(sp)
 384              		.cfi_restore 8
 385              		.cfi_def_cfa 2, 16
 386 018c 13010101 		addi	sp,sp,16
 387              		.cfi_def_cfa_offset 0
 388 0190 67800000 		jr	ra
 389              		.cfi_endproc
GAS LISTING /tmp/ccPW8Dfi.s 			page 12


 390              	.LFE35:
 391              		.section	.gcc_except_table
 392              	.LLSDA35:
 393 0004 FF       		.byte	0xff
 394 0005 FF       		.byte	0xff
 395 0006 03       		.byte	0x3
 396 0007 00       		.byte	0
 397              		.text
 399              		.globl	_ZN6ThreadD1Ev
 400              		.set	_ZN6ThreadD1Ev,_ZN6ThreadD2Ev
 401              		.section	.text._ZN14PeriodicThreadD2Ev,"axG",@progbits,_ZN14PeriodicThreadD5Ev,comdat
 402              		.align	2
 403              		.weak	_ZN14PeriodicThreadD2Ev
 405              	_ZN14PeriodicThreadD2Ev:
 406              	.LFB65:
  70:src/../h/syscall_cpp.hpp **** public:
 407              		.loc 1 70 7 is_stmt 1
 408              		.cfi_startproc
 409              	.LVL27:
 410 0000 130101FF 		addi	sp,sp,-16
 411              		.cfi_def_cfa_offset 16
 412 0004 23341100 		sd	ra,8(sp)
 413 0008 23308100 		sd	s0,0(sp)
 414              		.cfi_offset 1, -8
 415              		.cfi_offset 8, -16
 416 000c 13040101 		addi	s0,sp,16
 417              		.cfi_def_cfa 8, 0
 418              	.LBB13:
  70:src/../h/syscall_cpp.hpp **** public:
 419              		.loc 1 70 7 is_stmt 0
 420 0010 97070000 		lla	a5,_ZTV14PeriodicThread+16
 420      93870700 
 421 0018 2330F500 		sd	a5,0(a0)
 422 001c 97000000 		call	_ZN6ThreadD2Ev
 422      E7800000 
 423              	.LVL28:
 424              	.LBE13:
 425 0024 83308100 		ld	ra,8(sp)
 426              		.cfi_restore 1
 427 0028 03340100 		ld	s0,0(sp)
 428              		.cfi_restore 8
 429              		.cfi_def_cfa 2, 16
 430 002c 13010101 		addi	sp,sp,16
 431              		.cfi_def_cfa_offset 0
 432 0030 67800000 		jr	ra
 433              		.cfi_endproc
 434              	.LFE65:
 436              		.weak	_ZN14PeriodicThreadD1Ev
 437              		.set	_ZN14PeriodicThreadD1Ev,_ZN14PeriodicThreadD2Ev
 438              		.text
 439              		.align	2
 440              		.globl	_ZN6ThreadD0Ev
 442              	_ZN6ThreadD0Ev:
 443              	.LFB37:
  29:src/syscall_cpp.cpp ****     if (myHandle->is_finished())
 444              		.loc 2 29 1 is_stmt 1
 445              		.cfi_startproc
GAS LISTING /tmp/ccPW8Dfi.s 			page 13


 446              	.LVL29:
 447 0194 130101FE 		addi	sp,sp,-32
 448              		.cfi_def_cfa_offset 32
 449 0198 233C1100 		sd	ra,24(sp)
 450 019c 23388100 		sd	s0,16(sp)
 451 01a0 23349100 		sd	s1,8(sp)
 452              		.cfi_offset 1, -8
 453              		.cfi_offset 8, -16
 454              		.cfi_offset 9, -24
 455 01a4 13040102 		addi	s0,sp,32
 456              		.cfi_def_cfa 8, 0
 457 01a8 93040500 		mv	s1,a0
  32:src/syscall_cpp.cpp **** 
 458              		.loc 2 32 1 is_stmt 0
 459 01ac 97000000 		call	_ZN6ThreadD1Ev
 459      E7800000 
 460              	.LVL30:
 461 01b4 13850400 		mv	a0,s1
 462 01b8 97000000 		call	_ZdlPv
 462      E7800000 
 463              	.LVL31:
 464 01c0 83308101 		ld	ra,24(sp)
 465              		.cfi_restore 1
 466 01c4 03340101 		ld	s0,16(sp)
 467              		.cfi_restore 8
 468              		.cfi_def_cfa 2, 32
 469 01c8 83348100 		ld	s1,8(sp)
 470              		.cfi_restore 9
 471              	.LVL32:
 472 01cc 13010102 		addi	sp,sp,32
 473              		.cfi_def_cfa_offset 0
 474 01d0 67800000 		jr	ra
 475              		.cfi_endproc
 476              	.LFE37:
 478              		.align	2
 479              		.globl	_ZN9SemaphoreD0Ev
 481              	_ZN9SemaphoreD0Ev:
 482              	.LFB54:
  77:src/syscall_cpp.cpp ****     sem_close(myHandle);
 483              		.loc 2 77 1 is_stmt 1
 484              		.cfi_startproc
 485              	.LVL33:
 486 01d4 130101FE 		addi	sp,sp,-32
 487              		.cfi_def_cfa_offset 32
 488 01d8 233C1100 		sd	ra,24(sp)
 489 01dc 23388100 		sd	s0,16(sp)
 490 01e0 23349100 		sd	s1,8(sp)
 491              		.cfi_offset 1, -8
 492              		.cfi_offset 8, -16
 493              		.cfi_offset 9, -24
 494 01e4 13040102 		addi	s0,sp,32
 495              		.cfi_def_cfa 8, 0
 496 01e8 93040500 		mv	s1,a0
  79:src/syscall_cpp.cpp **** 
 497              		.loc 2 79 1 is_stmt 0
 498 01ec 97000000 		call	_ZN9SemaphoreD1Ev
 498      E7800000 
GAS LISTING /tmp/ccPW8Dfi.s 			page 14


 499              	.LVL34:
 500 01f4 13850400 		mv	a0,s1
 501 01f8 97000000 		call	_ZdlPv
 501      E7800000 
 502              	.LVL35:
 503 0200 83308101 		ld	ra,24(sp)
 504              		.cfi_restore 1
 505 0204 03340101 		ld	s0,16(sp)
 506              		.cfi_restore 8
 507              		.cfi_def_cfa 2, 32
 508 0208 83348100 		ld	s1,8(sp)
 509              		.cfi_restore 9
 510              	.LVL36:
 511 020c 13010102 		addi	sp,sp,32
 512              		.cfi_def_cfa_offset 0
 513 0210 67800000 		jr	ra
 514              		.cfi_endproc
 515              	.LFE54:
 517              		.section	.text._ZN14PeriodicThreadD0Ev,"axG",@progbits,_ZN14PeriodicThreadD5Ev,comdat
 518              		.align	2
 519              		.weak	_ZN14PeriodicThreadD0Ev
 521              	_ZN14PeriodicThreadD0Ev:
 522              	.LFB67:
  70:src/../h/syscall_cpp.hpp **** public:
 523              		.loc 1 70 7 is_stmt 1
 524              		.cfi_startproc
 525              	.LVL37:
 526 0000 130101FE 		addi	sp,sp,-32
 527              		.cfi_def_cfa_offset 32
 528 0004 233C1100 		sd	ra,24(sp)
 529 0008 23388100 		sd	s0,16(sp)
 530 000c 23349100 		sd	s1,8(sp)
 531              		.cfi_offset 1, -8
 532              		.cfi_offset 8, -16
 533              		.cfi_offset 9, -24
 534 0010 13040102 		addi	s0,sp,32
 535              		.cfi_def_cfa 8, 0
 536 0014 93040500 		mv	s1,a0
 537              	.LVL38:
 538              	.LBB14:
 539              	.LBB15:
  70:src/../h/syscall_cpp.hpp **** public:
 540              		.loc 1 70 7 is_stmt 0
 541 0018 97070000 		lla	a5,_ZTV14PeriodicThread+16
 541      93870700 
 542 0020 2330F500 		sd	a5,0(a0)
 543 0024 97000000 		call	_ZN6ThreadD2Ev
 543      E7800000 
 544              	.LVL39:
 545              	.LBE15:
 546              	.LBE14:
 547 002c 13850400 		mv	a0,s1
 548 0030 97000000 		call	_ZdlPv
 548      E7800000 
 549              	.LVL40:
 550 0038 83308101 		ld	ra,24(sp)
 551              		.cfi_restore 1
GAS LISTING /tmp/ccPW8Dfi.s 			page 15


 552 003c 03340101 		ld	s0,16(sp)
 553              		.cfi_restore 8
 554              		.cfi_def_cfa 2, 32
 555 0040 83348100 		ld	s1,8(sp)
 556              		.cfi_restore 9
 557              	.LVL41:
 558 0044 13010102 		addi	sp,sp,32
 559              		.cfi_def_cfa_offset 0
 560 0048 67800000 		jr	ra
 561              		.cfi_endproc
 562              	.LFE67:
 564              		.text
 565              		.align	2
 566              		.globl	_ZdaPv
 568              	_ZdaPv:
 569              	.LFB30:
  20:src/syscall_cpp.cpp ****     mem_free(mem);
 570              		.loc 2 20 35 is_stmt 1
 571              		.cfi_startproc
 572              	.LVL42:
 573 0214 130101FF 		addi	sp,sp,-16
 574              		.cfi_def_cfa_offset 16
 575 0218 23341100 		sd	ra,8(sp)
 576 021c 23308100 		sd	s0,0(sp)
 577              		.cfi_offset 1, -8
 578              		.cfi_offset 8, -16
 579 0220 13040101 		addi	s0,sp,16
 580              		.cfi_def_cfa 8, 0
  21:src/syscall_cpp.cpp **** }
 581              		.loc 2 21 5
  21:src/syscall_cpp.cpp **** }
 582              		.loc 2 21 13 is_stmt 0
 583 0224 97000000 		call	_Z8mem_freePv@plt
 583      E7800000 
 584              	.LVL43:
  22:src/syscall_cpp.cpp **** 
 585              		.loc 2 22 1
 586 022c 83308100 		ld	ra,8(sp)
 587              		.cfi_restore 1
 588 0230 03340100 		ld	s0,0(sp)
 589              		.cfi_restore 8
 590              		.cfi_def_cfa 2, 16
 591 0234 13010101 		addi	sp,sp,16
 592              		.cfi_def_cfa_offset 0
 593 0238 67800000 		jr	ra
 594              		.cfi_endproc
 595              	.LFE30:
 597              		.align	2
 598              		.globl	_ZN6ThreadC2EPFvPvES0_
 600              	_ZN6ThreadC2EPFvPvES0_:
 601              	.LFB32:
  24:src/syscall_cpp.cpp ****     this->body = body;
 602              		.loc 2 24 1 is_stmt 1
 603              		.cfi_startproc
 604              	.LVL44:
 605 023c 130101FF 		addi	sp,sp,-16
 606              		.cfi_def_cfa_offset 16
GAS LISTING /tmp/ccPW8Dfi.s 			page 16


 607 0240 23348100 		sd	s0,8(sp)
 608              		.cfi_offset 8, -8
 609 0244 13040101 		addi	s0,sp,16
 610              		.cfi_def_cfa 8, 0
 611              	.LBB16:
  24:src/syscall_cpp.cpp ****     this->body = body;
 612              		.loc 2 24 47 is_stmt 0
 613 0248 97070000 		lla	a5,_ZTV6Thread+16
 613      93870700 
 614 0250 2330F500 		sd	a5,0(a0)
  25:src/syscall_cpp.cpp ****     this->arg = arg;
 615              		.loc 2 25 5 is_stmt 1
  25:src/syscall_cpp.cpp ****     this->arg = arg;
 616              		.loc 2 25 16 is_stmt 0
 617 0254 2338B500 		sd	a1,16(a0)
  26:src/syscall_cpp.cpp **** }
 618              		.loc 2 26 5 is_stmt 1
  26:src/syscall_cpp.cpp **** }
 619              		.loc 2 26 15 is_stmt 0
 620 0258 233CC500 		sd	a2,24(a0)
 621              	.LBE16:
  27:src/syscall_cpp.cpp **** 
 622              		.loc 2 27 1
 623 025c 03348100 		ld	s0,8(sp)
 624              		.cfi_restore 8
 625              		.cfi_def_cfa 2, 16
 626 0260 13010101 		addi	sp,sp,16
 627              		.cfi_def_cfa_offset 0
 628 0264 67800000 		jr	ra
 629              		.cfi_endproc
 630              	.LFE32:
 632              		.globl	_ZN6ThreadC1EPFvPvES0_
 633              		.set	_ZN6ThreadC1EPFvPvES0_,_ZN6ThreadC2EPFvPvES0_
 634              		.align	2
 635              		.globl	_ZN6Thread5startEv
 637              	_ZN6Thread5startEv:
 638              	.LFB38:
  34:src/syscall_cpp.cpp ****     return thread_create(&myHandle, &threadStart, this);
 639              		.loc 2 34 21 is_stmt 1
 640              		.cfi_startproc
 641              	.LVL45:
 642 0268 130101FF 		addi	sp,sp,-16
 643              		.cfi_def_cfa_offset 16
 644 026c 23341100 		sd	ra,8(sp)
 645 0270 23308100 		sd	s0,0(sp)
 646              		.cfi_offset 1, -8
 647              		.cfi_offset 8, -16
 648 0274 13040101 		addi	s0,sp,16
 649              		.cfi_def_cfa 8, 0
  35:src/syscall_cpp.cpp **** }
 650              		.loc 2 35 5
  35:src/syscall_cpp.cpp **** }
 651              		.loc 2 35 25 is_stmt 0
 652 0278 13060500 		mv	a2,a0
 653 027c 97050000 		lla	a1,_ZN6Thread11threadStartEPv
 653      93850500 
 654 0284 13058500 		addi	a0,a0,8
GAS LISTING /tmp/ccPW8Dfi.s 			page 17


 655              	.LVL46:
 656 0288 97000000 		call	_Z13thread_createPP3TCBPFvPvES2_@plt
 656      E7800000 
 657              	.LVL47:
  36:src/syscall_cpp.cpp **** 
 658              		.loc 2 36 1
 659 0290 83308100 		ld	ra,8(sp)
 660              		.cfi_restore 1
 661 0294 03340100 		ld	s0,0(sp)
 662              		.cfi_restore 8
 663              		.cfi_def_cfa 2, 16
 664 0298 13010101 		addi	sp,sp,16
 665              		.cfi_def_cfa_offset 0
 666 029c 67800000 		jr	ra
 667              		.cfi_endproc
 668              	.LFE38:
 670              		.align	2
 671              		.globl	_ZN6Thread4joinEv
 673              	_ZN6Thread4joinEv:
 674              	.LFB39:
  38:src/syscall_cpp.cpp ****     thread_join(myHandle);
 675              		.loc 2 38 21 is_stmt 1
 676              		.cfi_startproc
 677              	.LVL48:
 678 02a0 130101FF 		addi	sp,sp,-16
 679              		.cfi_def_cfa_offset 16
 680 02a4 23341100 		sd	ra,8(sp)
 681 02a8 23308100 		sd	s0,0(sp)
 682              		.cfi_offset 1, -8
 683              		.cfi_offset 8, -16
 684 02ac 13040101 		addi	s0,sp,16
 685              		.cfi_def_cfa 8, 0
  39:src/syscall_cpp.cpp **** }
 686              		.loc 2 39 5
  39:src/syscall_cpp.cpp **** }
 687              		.loc 2 39 16 is_stmt 0
 688 02b0 03358500 		ld	a0,8(a0)
 689              	.LVL49:
 690 02b4 97000000 		call	_Z11thread_joinP3TCB@plt
 690      E7800000 
 691              	.LVL50:
  40:src/syscall_cpp.cpp **** 
 692              		.loc 2 40 1
 693 02bc 83308100 		ld	ra,8(sp)
 694              		.cfi_restore 1
 695 02c0 03340100 		ld	s0,0(sp)
 696              		.cfi_restore 8
 697              		.cfi_def_cfa 2, 16
 698 02c4 13010101 		addi	sp,sp,16
 699              		.cfi_def_cfa_offset 0
 700 02c8 67800000 		jr	ra
 701              		.cfi_endproc
 702              	.LFE39:
 704              		.align	2
 705              		.globl	_ZN6Thread4joinEm
 707              	_ZN6Thread4joinEm:
 708              	.LFB40:
GAS LISTING /tmp/ccPW8Dfi.s 			page 18


  42:src/syscall_cpp.cpp ****     thread_join(myHandle, time);
 709              		.loc 2 42 32 is_stmt 1
 710              		.cfi_startproc
 711              	.LVL51:
 712 02cc 130101FF 		addi	sp,sp,-16
 713              		.cfi_def_cfa_offset 16
 714 02d0 23341100 		sd	ra,8(sp)
 715 02d4 23308100 		sd	s0,0(sp)
 716              		.cfi_offset 1, -8
 717              		.cfi_offset 8, -16
 718 02d8 13040101 		addi	s0,sp,16
 719              		.cfi_def_cfa 8, 0
  43:src/syscall_cpp.cpp **** }
 720              		.loc 2 43 5
  43:src/syscall_cpp.cpp **** }
 721              		.loc 2 43 16 is_stmt 0
 722 02dc 03358500 		ld	a0,8(a0)
 723              	.LVL52:
 724 02e0 97000000 		call	_Z11thread_joinP3TCBm@plt
 724      E7800000 
 725              	.LVL53:
  44:src/syscall_cpp.cpp **** 
 726              		.loc 2 44 1
 727 02e8 83308100 		ld	ra,8(sp)
 728              		.cfi_restore 1
 729 02ec 03340100 		ld	s0,0(sp)
 730              		.cfi_restore 8
 731              		.cfi_def_cfa 2, 16
 732 02f0 13010101 		addi	sp,sp,16
 733              		.cfi_def_cfa_offset 0
 734 02f4 67800000 		jr	ra
 735              		.cfi_endproc
 736              	.LFE40:
 738              		.align	2
 739              		.globl	_ZN6Thread4killEPS_
 741              	_ZN6Thread4killEPS_:
 742              	.LFB41:
  46:src/syscall_cpp.cpp ****     return thread_kill(thread->myHandle);
 743              		.loc 2 46 34 is_stmt 1
 744              		.cfi_startproc
 745              	.LVL54:
 746 02f8 130101FF 		addi	sp,sp,-16
 747              		.cfi_def_cfa_offset 16
 748 02fc 23341100 		sd	ra,8(sp)
 749 0300 23308100 		sd	s0,0(sp)
 750              		.cfi_offset 1, -8
 751              		.cfi_offset 8, -16
 752 0304 13040101 		addi	s0,sp,16
 753              		.cfi_def_cfa 8, 0
  47:src/syscall_cpp.cpp **** }
 754              		.loc 2 47 5
  47:src/syscall_cpp.cpp **** }
 755              		.loc 2 47 23 is_stmt 0
 756 0308 03358500 		ld	a0,8(a0)
 757              	.LVL55:
 758 030c 97000000 		call	_Z11thread_killP3TCB@plt
 758      E7800000 
GAS LISTING /tmp/ccPW8Dfi.s 			page 19


 759              	.LVL56:
  48:src/syscall_cpp.cpp **** 
 760              		.loc 2 48 1
 761 0314 83308100 		ld	ra,8(sp)
 762              		.cfi_restore 1
 763 0318 03340100 		ld	s0,0(sp)
 764              		.cfi_restore 8
 765              		.cfi_def_cfa 2, 16
 766 031c 13010101 		addi	sp,sp,16
 767              		.cfi_def_cfa_offset 0
 768 0320 67800000 		jr	ra
 769              		.cfi_endproc
 770              	.LFE41:
 772              		.align	2
 773              		.globl	_ZN6Thread8dispatchEv
 775              	_ZN6Thread8dispatchEv:
 776              	.LFB42:
  50:src/syscall_cpp.cpp ****     thread_dispatch();
 777              		.loc 2 50 25 is_stmt 1
 778              		.cfi_startproc
 779 0324 130101FF 		addi	sp,sp,-16
 780              		.cfi_def_cfa_offset 16
 781 0328 23341100 		sd	ra,8(sp)
 782 032c 23308100 		sd	s0,0(sp)
 783              		.cfi_offset 1, -8
 784              		.cfi_offset 8, -16
 785 0330 13040101 		addi	s0,sp,16
 786              		.cfi_def_cfa 8, 0
  51:src/syscall_cpp.cpp **** }
 787              		.loc 2 51 5
  51:src/syscall_cpp.cpp **** }
 788              		.loc 2 51 20 is_stmt 0
 789 0334 97000000 		call	_Z15thread_dispatchv@plt
 789      E7800000 
 790              	.LVL57:
  52:src/syscall_cpp.cpp **** 
 791              		.loc 2 52 1
 792 033c 83308100 		ld	ra,8(sp)
 793              		.cfi_restore 1
 794 0340 03340100 		ld	s0,0(sp)
 795              		.cfi_restore 8
 796              		.cfi_def_cfa 2, 16
 797 0344 13010101 		addi	sp,sp,16
 798              		.cfi_def_cfa_offset 0
 799 0348 67800000 		jr	ra
 800              		.cfi_endproc
 801              	.LFE42:
 803              		.align	2
 804              		.globl	_ZN6Thread5sleepEm
 806              	_ZN6Thread5sleepEm:
 807              	.LFB43:
  54:src/syscall_cpp.cpp ****     return time_sleep(ms);
 808              		.loc 2 54 30 is_stmt 1
 809              		.cfi_startproc
 810              	.LVL58:
 811 034c 130101FF 		addi	sp,sp,-16
 812              		.cfi_def_cfa_offset 16
GAS LISTING /tmp/ccPW8Dfi.s 			page 20


 813 0350 23341100 		sd	ra,8(sp)
 814 0354 23308100 		sd	s0,0(sp)
 815              		.cfi_offset 1, -8
 816              		.cfi_offset 8, -16
 817 0358 13040101 		addi	s0,sp,16
 818              		.cfi_def_cfa 8, 0
  55:src/syscall_cpp.cpp **** }
 819              		.loc 2 55 5
  55:src/syscall_cpp.cpp **** }
 820              		.loc 2 55 22 is_stmt 0
 821 035c 97000000 		call	_Z10time_sleepm@plt
 821      E7800000 
 822              	.LVL59:
  56:src/syscall_cpp.cpp **** 
 823              		.loc 2 56 1
 824 0364 83308100 		ld	ra,8(sp)
 825              		.cfi_restore 1
 826 0368 03340100 		ld	s0,0(sp)
 827              		.cfi_restore 8
 828              		.cfi_def_cfa 2, 16
 829 036c 13010101 		addi	sp,sp,16
 830              		.cfi_def_cfa_offset 0
 831 0370 67800000 		jr	ra
 832              		.cfi_endproc
 833              	.LFE43:
 835              		.align	2
 836              		.globl	_ZN6ThreadC2Ev
 838              	_ZN6ThreadC2Ev:
 839              	.LFB45:
  58:src/syscall_cpp.cpp ****     this->body = nullptr;
 840              		.loc 2 58 1 is_stmt 1
 841              		.cfi_startproc
 842              	.LVL60:
 843 0374 130101FF 		addi	sp,sp,-16
 844              		.cfi_def_cfa_offset 16
 845 0378 23348100 		sd	s0,8(sp)
 846              		.cfi_offset 8, -8
 847 037c 13040101 		addi	s0,sp,16
 848              		.cfi_def_cfa 8, 0
 849              	.LBB17:
  58:src/syscall_cpp.cpp ****     this->body = nullptr;
 850              		.loc 2 58 16 is_stmt 0
 851 0380 97070000 		lla	a5,_ZTV6Thread+16
 851      93870700 
 852 0388 2330F500 		sd	a5,0(a0)
  59:src/syscall_cpp.cpp ****     this->arg = nullptr;
 853              		.loc 2 59 5 is_stmt 1
  59:src/syscall_cpp.cpp ****     this->arg = nullptr;
 854              		.loc 2 59 16 is_stmt 0
 855 038c 23380500 		sd	zero,16(a0)
  60:src/syscall_cpp.cpp **** }
 856              		.loc 2 60 5 is_stmt 1
  60:src/syscall_cpp.cpp **** }
 857              		.loc 2 60 15 is_stmt 0
 858 0390 233C0500 		sd	zero,24(a0)
 859              	.LBE17:
  61:src/syscall_cpp.cpp **** 
GAS LISTING /tmp/ccPW8Dfi.s 			page 21


 860              		.loc 2 61 1
 861 0394 03348100 		ld	s0,8(sp)
 862              		.cfi_restore 8
 863              		.cfi_def_cfa 2, 16
 864 0398 13010101 		addi	sp,sp,16
 865              		.cfi_def_cfa_offset 0
 866 039c 67800000 		jr	ra
 867              		.cfi_endproc
 868              	.LFE45:
 870              		.globl	_ZN6ThreadC1Ev
 871              		.set	_ZN6ThreadC1Ev,_ZN6ThreadC2Ev
 872              		.align	2
 873              		.globl	_ZN9SemaphoreC2Ej
 875              	_ZN9SemaphoreC2Ej:
 876              	.LFB49:
  73:src/syscall_cpp.cpp ****     sem_open(&myHandle, init);
 877              		.loc 2 73 1 is_stmt 1
 878              		.cfi_startproc
 879              	.LVL61:
 880 03a0 130101FF 		addi	sp,sp,-16
 881              		.cfi_def_cfa_offset 16
 882 03a4 23341100 		sd	ra,8(sp)
 883 03a8 23308100 		sd	s0,0(sp)
 884              		.cfi_offset 1, -8
 885              		.cfi_offset 8, -16
 886 03ac 13040101 		addi	s0,sp,16
 887              		.cfi_def_cfa 8, 0
 888              	.LBB18:
  73:src/syscall_cpp.cpp ****     sem_open(&myHandle, init);
 889              		.loc 2 73 39 is_stmt 0
 890 03b0 97070000 		lla	a5,_ZTV9Semaphore+16
 890      93870700 
 891 03b8 2330F500 		sd	a5,0(a0)
  74:src/syscall_cpp.cpp **** }
 892              		.loc 2 74 5 is_stmt 1
  74:src/syscall_cpp.cpp **** }
 893              		.loc 2 74 13 is_stmt 0
 894 03bc 13058500 		addi	a0,a0,8
 895              	.LVL62:
 896 03c0 97000000 		call	_Z8sem_openPP3Semj@plt
 896      E7800000 
 897              	.LVL63:
 898              	.LBE18:
  75:src/syscall_cpp.cpp **** 
 899              		.loc 2 75 1
 900 03c8 83308100 		ld	ra,8(sp)
 901              		.cfi_restore 1
 902 03cc 03340100 		ld	s0,0(sp)
 903              		.cfi_restore 8
 904              		.cfi_def_cfa 2, 16
 905 03d0 13010101 		addi	sp,sp,16
 906              		.cfi_def_cfa_offset 0
 907 03d4 67800000 		jr	ra
 908              		.cfi_endproc
 909              	.LFE49:
 911              		.globl	_ZN9SemaphoreC1Ej
 912              		.set	_ZN9SemaphoreC1Ej,_ZN9SemaphoreC2Ej
GAS LISTING /tmp/ccPW8Dfi.s 			page 22


 913              		.align	2
 914              		.globl	_ZN9Semaphore15signal_and_waitERS_S0_
 916              	_ZN9Semaphore15signal_and_waitERS_S0_:
 917              	.LFB57:
  88:src/syscall_cpp.cpp **** 
  89:src/syscall_cpp.cpp **** int Semaphore::signal_and_wait(Semaphore &sem1, Semaphore &sem2) {
 918              		.loc 2 89 66 is_stmt 1
 919              		.cfi_startproc
 920              	.LVL64:
 921 03d8 130101FF 		addi	sp,sp,-16
 922              		.cfi_def_cfa_offset 16
 923 03dc 23341100 		sd	ra,8(sp)
 924 03e0 23308100 		sd	s0,0(sp)
 925              		.cfi_offset 1, -8
 926              		.cfi_offset 8, -16
 927 03e4 13040101 		addi	s0,sp,16
 928              		.cfi_def_cfa 8, 0
  90:src/syscall_cpp.cpp ****     return ::signal_and_wait(sem1.myHandle, sem2.myHandle);
 929              		.loc 2 90 5
 930              		.loc 2 90 29 is_stmt 0
 931 03e8 83B58500 		ld	a1,8(a1)
 932              	.LVL65:
 933 03ec 03358500 		ld	a0,8(a0)
 934              	.LVL66:
 935 03f0 97000000 		call	_Z15signal_and_waitP3SemS0_@plt
 935      E7800000 
 936              	.LVL67:
  91:src/syscall_cpp.cpp **** }
 937              		.loc 2 91 1
 938 03f8 83308100 		ld	ra,8(sp)
 939              		.cfi_restore 1
 940 03fc 03340100 		ld	s0,0(sp)
 941              		.cfi_restore 8
 942              		.cfi_def_cfa 2, 16
 943 0400 13010101 		addi	sp,sp,16
 944              		.cfi_def_cfa_offset 0
 945 0404 67800000 		jr	ra
 946              		.cfi_endproc
 947              	.LFE57:
 949              		.align	2
 950              		.globl	_ZN14PeriodicThread9terminateEv
 952              	_ZN14PeriodicThread9terminateEv:
 953              	.LFB58:
  92:src/syscall_cpp.cpp **** 
  93:src/syscall_cpp.cpp **** void PeriodicThread::terminate() {
 954              		.loc 2 93 34 is_stmt 1
 955              		.cfi_startproc
 956              	.LVL68:
 957 0408 130101FF 		addi	sp,sp,-16
 958              		.cfi_def_cfa_offset 16
 959 040c 23341100 		sd	ra,8(sp)
 960 0410 23308100 		sd	s0,0(sp)
 961              		.cfi_offset 1, -8
 962              		.cfi_offset 8, -16
 963 0414 13040101 		addi	s0,sp,16
 964              		.cfi_def_cfa 8, 0
  94:src/syscall_cpp.cpp ****     thread_exit();
GAS LISTING /tmp/ccPW8Dfi.s 			page 23


 965              		.loc 2 94 5
 966              		.loc 2 94 16 is_stmt 0
 967 0418 97000000 		call	_Z11thread_exitv@plt
 967      E7800000 
 968              	.LVL69:
  95:src/syscall_cpp.cpp **** }
 969              		.loc 2 95 1
 970 0420 83308100 		ld	ra,8(sp)
 971              		.cfi_restore 1
 972 0424 03340100 		ld	s0,0(sp)
 973              		.cfi_restore 8
 974              		.cfi_def_cfa 2, 16
 975 0428 13010101 		addi	sp,sp,16
 976              		.cfi_def_cfa_offset 0
 977 042c 67800000 		jr	ra
 978              		.cfi_endproc
 979              	.LFE58:
 981              		.align	2
 982              		.globl	_ZN14PeriodicThreadC2Em
 984              	_ZN14PeriodicThreadC2Em:
 985              	.LFB60:
  96:src/syscall_cpp.cpp **** 
  97:src/syscall_cpp.cpp **** PeriodicThread::PeriodicThread(time_t period) {
 986              		.loc 2 97 1 is_stmt 1
 987              		.cfi_startproc
 988              	.LVL70:
 989 0430 130101FE 		addi	sp,sp,-32
 990              		.cfi_def_cfa_offset 32
 991 0434 233C1100 		sd	ra,24(sp)
 992 0438 23388100 		sd	s0,16(sp)
 993 043c 23349100 		sd	s1,8(sp)
 994 0440 23302101 		sd	s2,0(sp)
 995              		.cfi_offset 1, -8
 996              		.cfi_offset 8, -16
 997              		.cfi_offset 9, -24
 998              		.cfi_offset 18, -32
 999 0444 13040102 		addi	s0,sp,32
 1000              		.cfi_def_cfa 8, 0
 1001 0448 93040500 		mv	s1,a0
 1002 044c 13890500 		mv	s2,a1
 1003              	.LBB19:
 1004              		.loc 2 97 45 is_stmt 0
 1005 0450 97000000 		call	_ZN6ThreadC2Ev
 1005      E7800000 
 1006              	.LVL71:
 1007 0458 97070000 		lla	a5,_ZTV14PeriodicThread+16
 1007      93870700 
 1008 0460 23B0F400 		sd	a5,0(s1)
  98:src/syscall_cpp.cpp ****     this->period = period;
 1009              		.loc 2 98 5 is_stmt 1
 1010              		.loc 2 98 18 is_stmt 0
 1011 0464 23B02403 		sd	s2,32(s1)
 1012              	.LBE19:
  99:src/syscall_cpp.cpp **** }
 1013              		.loc 2 99 1
 1014 0468 83308101 		ld	ra,24(sp)
 1015              		.cfi_restore 1
GAS LISTING /tmp/ccPW8Dfi.s 			page 24


 1016 046c 03340101 		ld	s0,16(sp)
 1017              		.cfi_restore 8
 1018              		.cfi_def_cfa 2, 32
 1019 0470 83348100 		ld	s1,8(sp)
 1020              		.cfi_restore 9
 1021              	.LVL72:
 1022 0474 03390100 		ld	s2,0(sp)
 1023              		.cfi_restore 18
 1024              	.LVL73:
 1025 0478 13010102 		addi	sp,sp,32
 1026              		.cfi_def_cfa_offset 0
 1027 047c 67800000 		jr	ra
 1028              		.cfi_endproc
 1029              	.LFE60:
 1031              		.globl	_ZN14PeriodicThreadC1Em
 1032              		.set	_ZN14PeriodicThreadC1Em,_ZN14PeriodicThreadC2Em
 1033              		.align	2
 1034              		.globl	_ZN7Console4getcEv
 1036              	_ZN7Console4getcEv:
 1037              	.LFB62:
 100:src/syscall_cpp.cpp **** 
 101:src/syscall_cpp.cpp **** char Console::getc() {
 1038              		.loc 2 101 22 is_stmt 1
 1039              		.cfi_startproc
 1040 0480 130101FF 		addi	sp,sp,-16
 1041              		.cfi_def_cfa_offset 16
 1042 0484 23341100 		sd	ra,8(sp)
 1043 0488 23308100 		sd	s0,0(sp)
 1044              		.cfi_offset 1, -8
 1045              		.cfi_offset 8, -16
 1046 048c 13040101 		addi	s0,sp,16
 1047              		.cfi_def_cfa 8, 0
 102:src/syscall_cpp.cpp ****     return getc();
 1048              		.loc 2 102 5
 1049              		.loc 2 102 16 is_stmt 0
 1050 0490 97000000 		call	_ZN7Console4getcEv
 1050      E7800000 
 1051              	.LVL74:
 103:src/syscall_cpp.cpp **** }
 1052              		.loc 2 103 1
 1053 0498 83308100 		ld	ra,8(sp)
 1054              		.cfi_restore 1
 1055 049c 03340100 		ld	s0,0(sp)
 1056              		.cfi_restore 8
 1057              		.cfi_def_cfa 2, 16
 1058 04a0 13010101 		addi	sp,sp,16
 1059              		.cfi_def_cfa_offset 0
 1060 04a4 67800000 		jr	ra
 1061              		.cfi_endproc
 1062              	.LFE62:
 1064              		.align	2
 1065              		.globl	_ZN7Console4putcEc
 1067              	_ZN7Console4putcEc:
 1068              	.LFB63:
 104:src/syscall_cpp.cpp **** 
 105:src/syscall_cpp.cpp **** void Console::putc(char c) {
 1069              		.loc 2 105 28 is_stmt 1
GAS LISTING /tmp/ccPW8Dfi.s 			page 25


 1070              		.cfi_startproc
 1071              	.LVL75:
 1072 04a8 130101FF 		addi	sp,sp,-16
 1073              		.cfi_def_cfa_offset 16
 1074 04ac 23341100 		sd	ra,8(sp)
 1075 04b0 23308100 		sd	s0,0(sp)
 1076              		.cfi_offset 1, -8
 1077              		.cfi_offset 8, -16
 1078 04b4 13040101 		addi	s0,sp,16
 1079              		.cfi_def_cfa 8, 0
 106:src/syscall_cpp.cpp ****     putc(c);
 1080              		.loc 2 106 5
 1081              		.loc 2 106 9 is_stmt 0
 1082 04b8 97000000 		call	_ZN7Console4putcEc
 1082      E7800000 
 1083              	.LVL76:
 107:src/syscall_cpp.cpp **** }...
 1084              		.loc 2 107 1
 1085 04c0 83308100 		ld	ra,8(sp)
 1086              		.cfi_restore 1
 1087 04c4 03340100 		ld	s0,0(sp)
 1088              		.cfi_restore 8
 1089              		.cfi_def_cfa 2, 16
 1090 04c8 13010101 		addi	sp,sp,16
 1091              		.cfi_def_cfa_offset 0
 1092 04cc 67800000 		jr	ra
 1093              		.cfi_endproc
 1094              	.LFE63:
 1096              		.weak	_ZTV14PeriodicThread
 1097              		.section	.data.rel.ro.local._ZTV14PeriodicThread,"awG",@progbits,_ZTV14PeriodicThread,comdat
 1098              		.align	3
 1101              	_ZTV14PeriodicThread:
 1102 0000 00000000 		.dword	0
 1102      00000000 
 1103 0008 00000000 		.dword	0
 1103      00000000 
 1104 0010 00000000 		.dword	_ZN14PeriodicThreadD1Ev
 1104      00000000 
 1105 0018 00000000 		.dword	_ZN14PeriodicThreadD0Ev
 1105      00000000 
 1106 0020 00000000 		.dword	_ZN6Thread3runEv
 1106      00000000 
 1107 0028 00000000 		.dword	_ZN14PeriodicThread18periodicActivationEv
 1107      00000000 
 1108              		.weak	_ZTV6Thread
 1109              		.section	.data.rel.ro.local._ZTV6Thread,"awG",@progbits,_ZTV6Thread,comdat
 1110              		.align	3
 1113              	_ZTV6Thread:
 1114 0000 00000000 		.dword	0
 1114      00000000 
 1115 0008 00000000 		.dword	0
 1115      00000000 
 1116 0010 00000000 		.dword	_ZN6ThreadD1Ev
 1116      00000000 
 1117 0018 00000000 		.dword	_ZN6ThreadD0Ev
 1117      00000000 
 1118 0020 00000000 		.dword	_ZN6Thread3runEv
GAS LISTING /tmp/ccPW8Dfi.s 			page 26


 1118      00000000 
 1119              		.weak	_ZTV9Semaphore
 1120              		.section	.data.rel.ro.local._ZTV9Semaphore,"awG",@progbits,_ZTV9Semaphore,comdat
 1121              		.align	3
 1124              	_ZTV9Semaphore:
 1125 0000 00000000 		.dword	0
 1125      00000000 
 1126 0008 00000000 		.dword	0
 1126      00000000 
 1127 0010 00000000 		.dword	_ZN9SemaphoreD1Ev
 1127      00000000 
 1128 0018 00000000 		.dword	_ZN9SemaphoreD0Ev
 1128      00000000 
 1129 0020 00000000 		.dword	_ZN9Semaphore4waitEv
 1129      00000000 
 1130 0028 00000000 		.dword	_ZN9Semaphore6signalEv
 1130      00000000 
 1131              		.text
 1132              	.Letext0:
 1133              		.file 4 "src/../h/../lib/hw.h"
 1134              		.file 5 "src/../h/syscall_c.hpp"
 1135              		.file 6 "src/../h/circular_buffer.hpp"
 5667              		.align	3
 5670              	DW.ref.__gxx_personality_v0:
 5671 0000 00000000 		.dword	__gxx_personality_v0
 5671      00000000 
 5672              		.ident	"GCC: (Ubuntu 9.4.0-1ubuntu1~20.04) 9.4.0"
 5673              		.section	.note.GNU-stack,"",@progbits
GAS LISTING /tmp/ccPW8Dfi.s 			page 27


DEFINED SYMBOLS
                            *ABS*:0000000000000000 syscall_cpp.cpp
     /tmp/ccPW8Dfi.s:10     .text._ZN6Thread3runEv:0000000000000000 _ZN6Thread3runEv
     /tmp/ccPW8Dfi.s:14     .text._ZN6Thread3runEv:0000000000000000 .L0 
     /tmp/ccPW8Dfi.s:16     .text._ZN6Thread3runEv:0000000000000000 .L0 
     /tmp/ccPW8Dfi.s:17     .text._ZN6Thread3runEv:0000000000000004 .L0 
     /tmp/ccPW8Dfi.s:19     .text._ZN6Thread3runEv:0000000000000008 .L0 
     /tmp/ccPW8Dfi.s:21     .text._ZN6Thread3runEv:000000000000000c .L0 
     /tmp/ccPW8Dfi.s:23     .text._ZN6Thread3runEv:000000000000000c .L0 
     /tmp/ccPW8Dfi.s:24     .text._ZN6Thread3runEv:0000000000000010 .L0 
     /tmp/ccPW8Dfi.s:25     .text._ZN6Thread3runEv:0000000000000010 .L0 
     /tmp/ccPW8Dfi.s:27     .text._ZN6Thread3runEv:0000000000000014 .L0 
     /tmp/ccPW8Dfi.s:29     .text._ZN6Thread3runEv:0000000000000018 .L0 
     /tmp/ccPW8Dfi.s:36     .text._ZN14PeriodicThread18periodicActivationEv:0000000000000000 _ZN14PeriodicThread18periodicActivationEv
     /tmp/ccPW8Dfi.s:39     .text._ZN14PeriodicThread18periodicActivationEv:0000000000000000 .L0 
     /tmp/ccPW8Dfi.s:41     .text._ZN14PeriodicThread18periodicActivationEv:0000000000000000 .L0 
     /tmp/ccPW8Dfi.s:42     .text._ZN14PeriodicThread18periodicActivationEv:0000000000000004 .L0 
     /tmp/ccPW8Dfi.s:44     .text._ZN14PeriodicThread18periodicActivationEv:0000000000000008 .L0 
     /tmp/ccPW8Dfi.s:46     .text._ZN14PeriodicThread18periodicActivationEv:000000000000000c .L0 
     /tmp/ccPW8Dfi.s:48     .text._ZN14PeriodicThread18periodicActivationEv:000000000000000c .L0 
     /tmp/ccPW8Dfi.s:49     .text._ZN14PeriodicThread18periodicActivationEv:0000000000000010 .L0 
     /tmp/ccPW8Dfi.s:50     .text._ZN14PeriodicThread18periodicActivationEv:0000000000000010 .L0 
     /tmp/ccPW8Dfi.s:52     .text._ZN14PeriodicThread18periodicActivationEv:0000000000000014 .L0 
     /tmp/ccPW8Dfi.s:54     .text._ZN14PeriodicThread18periodicActivationEv:0000000000000018 .L0 
     /tmp/ccPW8Dfi.s:61     .text:0000000000000000 _ZN6Thread11threadStartEPv
     /tmp/ccPW8Dfi.s:65     .text:0000000000000000 .L0 
     /tmp/ccPW8Dfi.s:67     .text:0000000000000000 .L0 
     /tmp/ccPW8Dfi.s:68     .text:0000000000000004 .L0 
     /tmp/ccPW8Dfi.s:71     .text:000000000000000c .L0 
     /tmp/ccPW8Dfi.s:72     .text:000000000000000c .L0 
     /tmp/ccPW8Dfi.s:74     .text:0000000000000010 .L0 
     /tmp/ccPW8Dfi.s:77     .text:0000000000000010 .L0 
     /tmp/ccPW8Dfi.s:78     .text:0000000000000010 .L0 
     /tmp/ccPW8Dfi.s:79     .text:0000000000000010 .L0 
     /tmp/ccPW8Dfi.s:81     .text:0000000000000014 .L0 
     /tmp/ccPW8Dfi.s:83     .text:0000000000000018 .L0 
     /tmp/ccPW8Dfi.s:84     .text:0000000000000018 .L0 
     /tmp/ccPW8Dfi.s:90     .text:0000000000000020 .L0 
     /tmp/ccPW8Dfi.s:91     .text:0000000000000024 .L0 
     /tmp/ccPW8Dfi.s:92     .text:0000000000000024 .L0 
     /tmp/ccPW8Dfi.s:94     .text:0000000000000028 .L0 
     /tmp/ccPW8Dfi.s:95     .text:0000000000000028 .L0 
     /tmp/ccPW8Dfi.s:97     .text:000000000000002c .L0 
     /tmp/ccPW8Dfi.s:101    .text:0000000000000030 .L0 
     /tmp/ccPW8Dfi.s:103    .text:0000000000000030 .L0 
     /tmp/ccPW8Dfi.s:104    .text:0000000000000030 .L0 
     /tmp/ccPW8Dfi.s:107    .text:0000000000000038 .L0 
     /tmp/ccPW8Dfi.s:110    .text:000000000000003c .L0 
     /tmp/ccPW8Dfi.s:111    .text:0000000000000040 .L0 
     /tmp/ccPW8Dfi.s:117    .text:0000000000000040 _ZN9SemaphoreD2Ev
     /tmp/ccPW8Dfi.s:120    .text:0000000000000040 .L0 
     /tmp/ccPW8Dfi.s:5670   .data.rel.local.DW.ref.__gxx_personality_v0:0000000000000000 DW.ref.__gxx_personality_v0
     /tmp/ccPW8Dfi.s:124    .text:0000000000000040 .L0 
     /tmp/ccPW8Dfi.s:125    .text:0000000000000044 .L0 
     /tmp/ccPW8Dfi.s:128    .text:000000000000004c .L0 
     /tmp/ccPW8Dfi.s:129    .text:000000000000004c .L0 
     /tmp/ccPW8Dfi.s:131    .text:0000000000000050 .L0 
GAS LISTING /tmp/ccPW8Dfi.s 			page 28


     /tmp/ccPW8Dfi.s:1124   .data.rel.ro.local._ZTV9Semaphore:0000000000000000 _ZTV9Semaphore
     /tmp/ccPW8Dfi.s:134    .text:0000000000000050 .L0 
     /tmp/ccPW8Dfi.s:137    .text:000000000000005c .L0 
     /tmp/ccPW8Dfi.s:138    .text:000000000000005c .L0 
     /tmp/ccPW8Dfi.s:144    .text:0000000000000068 .L0 
     /tmp/ccPW8Dfi.s:145    .text:000000000000006c .L0 
     /tmp/ccPW8Dfi.s:147    .text:0000000000000070 .L0 
     /tmp/ccPW8Dfi.s:148    .text:0000000000000070 .L0 
     /tmp/ccPW8Dfi.s:150    .text:0000000000000074 .L0 
     /tmp/ccPW8Dfi.s:152    .text:0000000000000078 .L0 
     /tmp/ccPW8Dfi.s:117    .text:0000000000000040 _ZN9SemaphoreD1Ev
     /tmp/ccPW8Dfi.s:168    .text:0000000000000078 _ZN9Semaphore4waitEv
     /tmp/ccPW8Dfi.s:171    .text:0000000000000078 .L0 
     /tmp/ccPW8Dfi.s:173    .text:0000000000000078 .L0 
     /tmp/ccPW8Dfi.s:174    .text:000000000000007c .L0 
     /tmp/ccPW8Dfi.s:177    .text:0000000000000084 .L0 
     /tmp/ccPW8Dfi.s:178    .text:0000000000000084 .L0 
     /tmp/ccPW8Dfi.s:180    .text:0000000000000088 .L0 
     /tmp/ccPW8Dfi.s:182    .text:0000000000000088 .L0 
     /tmp/ccPW8Dfi.s:183    .text:0000000000000088 .L0 
     /tmp/ccPW8Dfi.s:188    .text:0000000000000094 .L0 
     /tmp/ccPW8Dfi.s:189    .text:0000000000000098 .L0 
     /tmp/ccPW8Dfi.s:191    .text:000000000000009c .L0 
     /tmp/ccPW8Dfi.s:192    .text:000000000000009c .L0 
     /tmp/ccPW8Dfi.s:194    .text:00000000000000a0 .L0 
     /tmp/ccPW8Dfi.s:196    .text:00000000000000a4 .L0 
     /tmp/ccPW8Dfi.s:202    .text:00000000000000a4 _ZN9Semaphore6signalEv
     /tmp/ccPW8Dfi.s:205    .text:00000000000000a4 .L0 
     /tmp/ccPW8Dfi.s:207    .text:00000000000000a4 .L0 
     /tmp/ccPW8Dfi.s:208    .text:00000000000000a8 .L0 
     /tmp/ccPW8Dfi.s:211    .text:00000000000000b0 .L0 
     /tmp/ccPW8Dfi.s:212    .text:00000000000000b0 .L0 
     /tmp/ccPW8Dfi.s:214    .text:00000000000000b4 .L0 
     /tmp/ccPW8Dfi.s:216    .text:00000000000000b4 .L0 
     /tmp/ccPW8Dfi.s:217    .text:00000000000000b4 .L0 
     /tmp/ccPW8Dfi.s:222    .text:00000000000000c0 .L0 
     /tmp/ccPW8Dfi.s:223    .text:00000000000000c4 .L0 
     /tmp/ccPW8Dfi.s:225    .text:00000000000000c8 .L0 
     /tmp/ccPW8Dfi.s:226    .text:00000000000000c8 .L0 
     /tmp/ccPW8Dfi.s:228    .text:00000000000000cc .L0 
     /tmp/ccPW8Dfi.s:230    .text:00000000000000d0 .L0 
     /tmp/ccPW8Dfi.s:236    .text:00000000000000d0 _Znwm
     /tmp/ccPW8Dfi.s:239    .text:00000000000000d0 .L0 
     /tmp/ccPW8Dfi.s:241    .text:00000000000000d0 .L0 
     /tmp/ccPW8Dfi.s:242    .text:00000000000000d4 .L0 
     /tmp/ccPW8Dfi.s:245    .text:00000000000000dc .L0 
     /tmp/ccPW8Dfi.s:246    .text:00000000000000dc .L0 
     /tmp/ccPW8Dfi.s:248    .text:00000000000000e0 .L0 
     /tmp/ccPW8Dfi.s:250    .text:00000000000000e0 .L0 
     /tmp/ccPW8Dfi.s:251    .text:00000000000000e0 .L0 
     /tmp/ccPW8Dfi.s:254    .text:00000000000000e8 .L0 
     /tmp/ccPW8Dfi.s:255    .text:00000000000000ec .L0 
     /tmp/ccPW8Dfi.s:257    .text:00000000000000f0 .L0 
     /tmp/ccPW8Dfi.s:258    .text:00000000000000f0 .L0 
     /tmp/ccPW8Dfi.s:260    .text:00000000000000f4 .L0 
     /tmp/ccPW8Dfi.s:262    .text:00000000000000f8 .L0 
     /tmp/ccPW8Dfi.s:268    .text:00000000000000f8 _Znam
GAS LISTING /tmp/ccPW8Dfi.s 			page 29


     /tmp/ccPW8Dfi.s:271    .text:00000000000000f8 .L0 
     /tmp/ccPW8Dfi.s:273    .text:00000000000000f8 .L0 
     /tmp/ccPW8Dfi.s:274    .text:00000000000000fc .L0 
     /tmp/ccPW8Dfi.s:277    .text:0000000000000104 .L0 
     /tmp/ccPW8Dfi.s:278    .text:0000000000000104 .L0 
     /tmp/ccPW8Dfi.s:280    .text:0000000000000108 .L0 
     /tmp/ccPW8Dfi.s:282    .text:0000000000000108 .L0 
     /tmp/ccPW8Dfi.s:283    .text:0000000000000108 .L0 
     /tmp/ccPW8Dfi.s:286    .text:0000000000000110 .L0 
     /tmp/ccPW8Dfi.s:287    .text:0000000000000114 .L0 
     /tmp/ccPW8Dfi.s:289    .text:0000000000000118 .L0 
     /tmp/ccPW8Dfi.s:290    .text:0000000000000118 .L0 
     /tmp/ccPW8Dfi.s:292    .text:000000000000011c .L0 
     /tmp/ccPW8Dfi.s:294    .text:0000000000000120 .L0 
     /tmp/ccPW8Dfi.s:300    .text:0000000000000120 _ZdlPv
     /tmp/ccPW8Dfi.s:303    .text:0000000000000120 .L0 
     /tmp/ccPW8Dfi.s:305    .text:0000000000000120 .L0 
     /tmp/ccPW8Dfi.s:306    .text:0000000000000124 .L0 
     /tmp/ccPW8Dfi.s:309    .text:000000000000012c .L0 
     /tmp/ccPW8Dfi.s:310    .text:000000000000012c .L0 
     /tmp/ccPW8Dfi.s:312    .text:0000000000000130 .L0 
     /tmp/ccPW8Dfi.s:314    .text:0000000000000130 .L0 
     /tmp/ccPW8Dfi.s:315    .text:0000000000000130 .L0 
     /tmp/ccPW8Dfi.s:318    .text:0000000000000138 .L0 
     /tmp/ccPW8Dfi.s:319    .text:000000000000013c .L0 
     /tmp/ccPW8Dfi.s:321    .text:0000000000000140 .L0 
     /tmp/ccPW8Dfi.s:322    .text:0000000000000140 .L0 
     /tmp/ccPW8Dfi.s:324    .text:0000000000000144 .L0 
     /tmp/ccPW8Dfi.s:326    .text:0000000000000148 .L0 
     /tmp/ccPW8Dfi.s:332    .text:0000000000000148 _ZN6ThreadD2Ev
     /tmp/ccPW8Dfi.s:335    .text:0000000000000148 .L0 
     /tmp/ccPW8Dfi.s:340    .text:0000000000000148 .L0 
     /tmp/ccPW8Dfi.s:1113   .data.rel.ro.local._ZTV6Thread:0000000000000000 _ZTV6Thread
     /tmp/ccPW8Dfi.s:341    .text:0000000000000148 .L0 
     /tmp/ccPW8Dfi.s:344    .text:0000000000000154 .L0 
     /tmp/ccPW8Dfi.s:345    .text:0000000000000154 .L0 
     /tmp/ccPW8Dfi.s:351    .text:0000000000000158 .L0 
     /tmp/ccPW8Dfi.s:352    .text:0000000000000158 .L0 
     /tmp/ccPW8Dfi.s:357    .text:000000000000015c .L0 
     /tmp/ccPW8Dfi.s:363    .text:0000000000000168 .L0 
     /tmp/ccPW8Dfi.s:364    .text:0000000000000168 .L0 
     /tmp/ccPW8Dfi.s:367    .text:000000000000016c .L0 
     /tmp/ccPW8Dfi.s:368    .text:0000000000000170 .L0 
     /tmp/ccPW8Dfi.s:371    .text:0000000000000178 .L0 
     /tmp/ccPW8Dfi.s:372    .text:0000000000000178 .L0 
     /tmp/ccPW8Dfi.s:374    .text:000000000000017c .L0 
     /tmp/ccPW8Dfi.s:377    .text:000000000000017c .L0 
     /tmp/ccPW8Dfi.s:381    .text:0000000000000184 .L0 
     /tmp/ccPW8Dfi.s:382    .text:0000000000000188 .L0 
     /tmp/ccPW8Dfi.s:384    .text:000000000000018c .L0 
     /tmp/ccPW8Dfi.s:385    .text:000000000000018c .L0 
     /tmp/ccPW8Dfi.s:387    .text:0000000000000190 .L0 
     /tmp/ccPW8Dfi.s:389    .text:0000000000000194 .L0 
     /tmp/ccPW8Dfi.s:332    .text:0000000000000148 _ZN6ThreadD1Ev
     /tmp/ccPW8Dfi.s:405    .text._ZN14PeriodicThreadD2Ev:0000000000000000 _ZN14PeriodicThreadD2Ev
     /tmp/ccPW8Dfi.s:408    .text._ZN14PeriodicThreadD2Ev:0000000000000000 .L0 
     /tmp/ccPW8Dfi.s:410    .text._ZN14PeriodicThreadD2Ev:0000000000000000 .L0 
GAS LISTING /tmp/ccPW8Dfi.s 			page 30


     /tmp/ccPW8Dfi.s:411    .text._ZN14PeriodicThreadD2Ev:0000000000000004 .L0 
     /tmp/ccPW8Dfi.s:414    .text._ZN14PeriodicThreadD2Ev:000000000000000c .L0 
     /tmp/ccPW8Dfi.s:415    .text._ZN14PeriodicThreadD2Ev:000000000000000c .L0 
     /tmp/ccPW8Dfi.s:417    .text._ZN14PeriodicThreadD2Ev:0000000000000010 .L0 
     /tmp/ccPW8Dfi.s:1101   .data.rel.ro.local._ZTV14PeriodicThread:0000000000000000 _ZTV14PeriodicThread
     /tmp/ccPW8Dfi.s:420    .text._ZN14PeriodicThreadD2Ev:0000000000000010 .L0 
     /tmp/ccPW8Dfi.s:426    .text._ZN14PeriodicThreadD2Ev:0000000000000028 .L0 
     /tmp/ccPW8Dfi.s:428    .text._ZN14PeriodicThreadD2Ev:000000000000002c .L0 
     /tmp/ccPW8Dfi.s:429    .text._ZN14PeriodicThreadD2Ev:000000000000002c .L0 
     /tmp/ccPW8Dfi.s:431    .text._ZN14PeriodicThreadD2Ev:0000000000000030 .L0 
     /tmp/ccPW8Dfi.s:433    .text._ZN14PeriodicThreadD2Ev:0000000000000034 .L0 
     /tmp/ccPW8Dfi.s:405    .text._ZN14PeriodicThreadD2Ev:0000000000000000 _ZN14PeriodicThreadD1Ev
     /tmp/ccPW8Dfi.s:442    .text:0000000000000194 _ZN6ThreadD0Ev
     /tmp/ccPW8Dfi.s:445    .text:0000000000000194 .L0 
     /tmp/ccPW8Dfi.s:447    .text:0000000000000194 .L0 
     /tmp/ccPW8Dfi.s:448    .text:0000000000000198 .L0 
     /tmp/ccPW8Dfi.s:452    .text:00000000000001a4 .L0 
     /tmp/ccPW8Dfi.s:453    .text:00000000000001a4 .L0 
     /tmp/ccPW8Dfi.s:454    .text:00000000000001a4 .L0 
     /tmp/ccPW8Dfi.s:456    .text:00000000000001a8 .L0 
     /tmp/ccPW8Dfi.s:459    .text:00000000000001ac .L0 
     /tmp/ccPW8Dfi.s:465    .text:00000000000001c4 .L0 
     /tmp/ccPW8Dfi.s:467    .text:00000000000001c8 .L0 
     /tmp/ccPW8Dfi.s:468    .text:00000000000001c8 .L0 
     /tmp/ccPW8Dfi.s:470    .text:00000000000001cc .L0 
     /tmp/ccPW8Dfi.s:473    .text:00000000000001d0 .L0 
     /tmp/ccPW8Dfi.s:475    .text:00000000000001d4 .L0 
     /tmp/ccPW8Dfi.s:481    .text:00000000000001d4 _ZN9SemaphoreD0Ev
     /tmp/ccPW8Dfi.s:484    .text:00000000000001d4 .L0 
     /tmp/ccPW8Dfi.s:486    .text:00000000000001d4 .L0 
     /tmp/ccPW8Dfi.s:487    .text:00000000000001d8 .L0 
     /tmp/ccPW8Dfi.s:491    .text:00000000000001e4 .L0 
     /tmp/ccPW8Dfi.s:492    .text:00000000000001e4 .L0 
     /tmp/ccPW8Dfi.s:493    .text:00000000000001e4 .L0 
     /tmp/ccPW8Dfi.s:495    .text:00000000000001e8 .L0 
     /tmp/ccPW8Dfi.s:498    .text:00000000000001ec .L0 
     /tmp/ccPW8Dfi.s:504    .text:0000000000000204 .L0 
     /tmp/ccPW8Dfi.s:506    .text:0000000000000208 .L0 
     /tmp/ccPW8Dfi.s:507    .text:0000000000000208 .L0 
     /tmp/ccPW8Dfi.s:509    .text:000000000000020c .L0 
     /tmp/ccPW8Dfi.s:512    .text:0000000000000210 .L0 
     /tmp/ccPW8Dfi.s:514    .text:0000000000000214 .L0 
     /tmp/ccPW8Dfi.s:521    .text._ZN14PeriodicThreadD0Ev:0000000000000000 _ZN14PeriodicThreadD0Ev
     /tmp/ccPW8Dfi.s:524    .text._ZN14PeriodicThreadD0Ev:0000000000000000 .L0 
     /tmp/ccPW8Dfi.s:526    .text._ZN14PeriodicThreadD0Ev:0000000000000000 .L0 
     /tmp/ccPW8Dfi.s:527    .text._ZN14PeriodicThreadD0Ev:0000000000000004 .L0 
     /tmp/ccPW8Dfi.s:531    .text._ZN14PeriodicThreadD0Ev:0000000000000010 .L0 
     /tmp/ccPW8Dfi.s:532    .text._ZN14PeriodicThreadD0Ev:0000000000000010 .L0 
     /tmp/ccPW8Dfi.s:533    .text._ZN14PeriodicThreadD0Ev:0000000000000010 .L0 
     /tmp/ccPW8Dfi.s:535    .text._ZN14PeriodicThreadD0Ev:0000000000000014 .L0 
     /tmp/ccPW8Dfi.s:541    .text._ZN14PeriodicThreadD0Ev:0000000000000018 .L0 
     /tmp/ccPW8Dfi.s:551    .text._ZN14PeriodicThreadD0Ev:000000000000003c .L0 
     /tmp/ccPW8Dfi.s:553    .text._ZN14PeriodicThreadD0Ev:0000000000000040 .L0 
     /tmp/ccPW8Dfi.s:554    .text._ZN14PeriodicThreadD0Ev:0000000000000040 .L0 
     /tmp/ccPW8Dfi.s:556    .text._ZN14PeriodicThreadD0Ev:0000000000000044 .L0 
     /tmp/ccPW8Dfi.s:559    .text._ZN14PeriodicThreadD0Ev:0000000000000048 .L0 
     /tmp/ccPW8Dfi.s:561    .text._ZN14PeriodicThreadD0Ev:000000000000004c .L0 
GAS LISTING /tmp/ccPW8Dfi.s 			page 31


     /tmp/ccPW8Dfi.s:568    .text:0000000000000214 _ZdaPv
     /tmp/ccPW8Dfi.s:571    .text:0000000000000214 .L0 
     /tmp/ccPW8Dfi.s:573    .text:0000000000000214 .L0 
     /tmp/ccPW8Dfi.s:574    .text:0000000000000218 .L0 
     /tmp/ccPW8Dfi.s:577    .text:0000000000000220 .L0 
     /tmp/ccPW8Dfi.s:578    .text:0000000000000220 .L0 
     /tmp/ccPW8Dfi.s:580    .text:0000000000000224 .L0 
     /tmp/ccPW8Dfi.s:582    .text:0000000000000224 .L0 
     /tmp/ccPW8Dfi.s:583    .text:0000000000000224 .L0 
     /tmp/ccPW8Dfi.s:586    .text:000000000000022c .L0 
     /tmp/ccPW8Dfi.s:587    .text:0000000000000230 .L0 
     /tmp/ccPW8Dfi.s:589    .text:0000000000000234 .L0 
     /tmp/ccPW8Dfi.s:590    .text:0000000000000234 .L0 
     /tmp/ccPW8Dfi.s:592    .text:0000000000000238 .L0 
     /tmp/ccPW8Dfi.s:594    .text:000000000000023c .L0 
     /tmp/ccPW8Dfi.s:600    .text:000000000000023c _ZN6ThreadC2EPFvPvES0_
     /tmp/ccPW8Dfi.s:603    .text:000000000000023c .L0 
     /tmp/ccPW8Dfi.s:605    .text:000000000000023c .L0 
     /tmp/ccPW8Dfi.s:606    .text:0000000000000240 .L0 
     /tmp/ccPW8Dfi.s:608    .text:0000000000000244 .L0 
     /tmp/ccPW8Dfi.s:610    .text:0000000000000248 .L0 
     /tmp/ccPW8Dfi.s:613    .text:0000000000000248 .L0 
     /tmp/ccPW8Dfi.s:616    .text:0000000000000254 .L0 
     /tmp/ccPW8Dfi.s:617    .text:0000000000000254 .L0 
     /tmp/ccPW8Dfi.s:619    .text:0000000000000258 .L0 
     /tmp/ccPW8Dfi.s:620    .text:0000000000000258 .L0 
     /tmp/ccPW8Dfi.s:623    .text:000000000000025c .L0 
     /tmp/ccPW8Dfi.s:624    .text:0000000000000260 .L0 
     /tmp/ccPW8Dfi.s:625    .text:0000000000000260 .L0 
     /tmp/ccPW8Dfi.s:627    .text:0000000000000264 .L0 
     /tmp/ccPW8Dfi.s:629    .text:0000000000000268 .L0 
     /tmp/ccPW8Dfi.s:600    .text:000000000000023c _ZN6ThreadC1EPFvPvES0_
     /tmp/ccPW8Dfi.s:637    .text:0000000000000268 _ZN6Thread5startEv
     /tmp/ccPW8Dfi.s:640    .text:0000000000000268 .L0 
     /tmp/ccPW8Dfi.s:642    .text:0000000000000268 .L0 
     /tmp/ccPW8Dfi.s:643    .text:000000000000026c .L0 
     /tmp/ccPW8Dfi.s:646    .text:0000000000000274 .L0 
     /tmp/ccPW8Dfi.s:647    .text:0000000000000274 .L0 
     /tmp/ccPW8Dfi.s:649    .text:0000000000000278 .L0 
     /tmp/ccPW8Dfi.s:651    .text:0000000000000278 .L0 
     /tmp/ccPW8Dfi.s:652    .text:0000000000000278 .L0 
     /tmp/ccPW8Dfi.s:659    .text:0000000000000290 .L0 
     /tmp/ccPW8Dfi.s:660    .text:0000000000000294 .L0 
     /tmp/ccPW8Dfi.s:662    .text:0000000000000298 .L0 
     /tmp/ccPW8Dfi.s:663    .text:0000000000000298 .L0 
     /tmp/ccPW8Dfi.s:665    .text:000000000000029c .L0 
     /tmp/ccPW8Dfi.s:667    .text:00000000000002a0 .L0 
     /tmp/ccPW8Dfi.s:673    .text:00000000000002a0 _ZN6Thread4joinEv
     /tmp/ccPW8Dfi.s:676    .text:00000000000002a0 .L0 
     /tmp/ccPW8Dfi.s:678    .text:00000000000002a0 .L0 
     /tmp/ccPW8Dfi.s:679    .text:00000000000002a4 .L0 
     /tmp/ccPW8Dfi.s:682    .text:00000000000002ac .L0 
     /tmp/ccPW8Dfi.s:683    .text:00000000000002ac .L0 
     /tmp/ccPW8Dfi.s:685    .text:00000000000002b0 .L0 
     /tmp/ccPW8Dfi.s:687    .text:00000000000002b0 .L0 
     /tmp/ccPW8Dfi.s:688    .text:00000000000002b0 .L0 
     /tmp/ccPW8Dfi.s:693    .text:00000000000002bc .L0 
GAS LISTING /tmp/ccPW8Dfi.s 			page 32


     /tmp/ccPW8Dfi.s:694    .text:00000000000002c0 .L0 
     /tmp/ccPW8Dfi.s:696    .text:00000000000002c4 .L0 
     /tmp/ccPW8Dfi.s:697    .text:00000000000002c4 .L0 
     /tmp/ccPW8Dfi.s:699    .text:00000000000002c8 .L0 
     /tmp/ccPW8Dfi.s:701    .text:00000000000002cc .L0 
     /tmp/ccPW8Dfi.s:707    .text:00000000000002cc _ZN6Thread4joinEm
     /tmp/ccPW8Dfi.s:710    .text:00000000000002cc .L0 
     /tmp/ccPW8Dfi.s:712    .text:00000000000002cc .L0 
     /tmp/ccPW8Dfi.s:713    .text:00000000000002d0 .L0 
     /tmp/ccPW8Dfi.s:716    .text:00000000000002d8 .L0 
     /tmp/ccPW8Dfi.s:717    .text:00000000000002d8 .L0 
     /tmp/ccPW8Dfi.s:719    .text:00000000000002dc .L0 
     /tmp/ccPW8Dfi.s:721    .text:00000000000002dc .L0 
     /tmp/ccPW8Dfi.s:722    .text:00000000000002dc .L0 
     /tmp/ccPW8Dfi.s:727    .text:00000000000002e8 .L0 
     /tmp/ccPW8Dfi.s:728    .text:00000000000002ec .L0 
     /tmp/ccPW8Dfi.s:730    .text:00000000000002f0 .L0 
     /tmp/ccPW8Dfi.s:731    .text:00000000000002f0 .L0 
     /tmp/ccPW8Dfi.s:733    .text:00000000000002f4 .L0 
     /tmp/ccPW8Dfi.s:735    .text:00000000000002f8 .L0 
     /tmp/ccPW8Dfi.s:741    .text:00000000000002f8 _ZN6Thread4killEPS_
     /tmp/ccPW8Dfi.s:744    .text:00000000000002f8 .L0 
     /tmp/ccPW8Dfi.s:746    .text:00000000000002f8 .L0 
     /tmp/ccPW8Dfi.s:747    .text:00000000000002fc .L0 
     /tmp/ccPW8Dfi.s:750    .text:0000000000000304 .L0 
     /tmp/ccPW8Dfi.s:751    .text:0000000000000304 .L0 
     /tmp/ccPW8Dfi.s:753    .text:0000000000000308 .L0 
     /tmp/ccPW8Dfi.s:755    .text:0000000000000308 .L0 
     /tmp/ccPW8Dfi.s:756    .text:0000000000000308 .L0 
     /tmp/ccPW8Dfi.s:761    .text:0000000000000314 .L0 
     /tmp/ccPW8Dfi.s:762    .text:0000000000000318 .L0 
     /tmp/ccPW8Dfi.s:764    .text:000000000000031c .L0 
     /tmp/ccPW8Dfi.s:765    .text:000000000000031c .L0 
     /tmp/ccPW8Dfi.s:767    .text:0000000000000320 .L0 
     /tmp/ccPW8Dfi.s:769    .text:0000000000000324 .L0 
     /tmp/ccPW8Dfi.s:775    .text:0000000000000324 _ZN6Thread8dispatchEv
     /tmp/ccPW8Dfi.s:778    .text:0000000000000324 .L0 
     /tmp/ccPW8Dfi.s:779    .text:0000000000000324 .L0 
     /tmp/ccPW8Dfi.s:780    .text:0000000000000328 .L0 
     /tmp/ccPW8Dfi.s:783    .text:0000000000000330 .L0 
     /tmp/ccPW8Dfi.s:784    .text:0000000000000330 .L0 
     /tmp/ccPW8Dfi.s:786    .text:0000000000000334 .L0 
     /tmp/ccPW8Dfi.s:788    .text:0000000000000334 .L0 
     /tmp/ccPW8Dfi.s:789    .text:0000000000000334 .L0 
     /tmp/ccPW8Dfi.s:792    .text:000000000000033c .L0 
     /tmp/ccPW8Dfi.s:793    .text:0000000000000340 .L0 
     /tmp/ccPW8Dfi.s:795    .text:0000000000000344 .L0 
     /tmp/ccPW8Dfi.s:796    .text:0000000000000344 .L0 
     /tmp/ccPW8Dfi.s:798    .text:0000000000000348 .L0 
     /tmp/ccPW8Dfi.s:800    .text:000000000000034c .L0 
     /tmp/ccPW8Dfi.s:806    .text:000000000000034c _ZN6Thread5sleepEm
     /tmp/ccPW8Dfi.s:809    .text:000000000000034c .L0 
     /tmp/ccPW8Dfi.s:811    .text:000000000000034c .L0 
     /tmp/ccPW8Dfi.s:812    .text:0000000000000350 .L0 
     /tmp/ccPW8Dfi.s:815    .text:0000000000000358 .L0 
     /tmp/ccPW8Dfi.s:816    .text:0000000000000358 .L0 
     /tmp/ccPW8Dfi.s:818    .text:000000000000035c .L0 
GAS LISTING /tmp/ccPW8Dfi.s 			page 33


     /tmp/ccPW8Dfi.s:820    .text:000000000000035c .L0 
     /tmp/ccPW8Dfi.s:821    .text:000000000000035c .L0 
     /tmp/ccPW8Dfi.s:824    .text:0000000000000364 .L0 
     /tmp/ccPW8Dfi.s:825    .text:0000000000000368 .L0 
     /tmp/ccPW8Dfi.s:827    .text:000000000000036c .L0 
     /tmp/ccPW8Dfi.s:828    .text:000000000000036c .L0 
     /tmp/ccPW8Dfi.s:830    .text:0000000000000370 .L0 
     /tmp/ccPW8Dfi.s:832    .text:0000000000000374 .L0 
     /tmp/ccPW8Dfi.s:838    .text:0000000000000374 _ZN6ThreadC2Ev
     /tmp/ccPW8Dfi.s:841    .text:0000000000000374 .L0 
     /tmp/ccPW8Dfi.s:843    .text:0000000000000374 .L0 
     /tmp/ccPW8Dfi.s:844    .text:0000000000000378 .L0 
     /tmp/ccPW8Dfi.s:846    .text:000000000000037c .L0 
     /tmp/ccPW8Dfi.s:848    .text:0000000000000380 .L0 
     /tmp/ccPW8Dfi.s:851    .text:0000000000000380 .L0 
     /tmp/ccPW8Dfi.s:854    .text:000000000000038c .L0 
     /tmp/ccPW8Dfi.s:855    .text:000000000000038c .L0 
     /tmp/ccPW8Dfi.s:857    .text:0000000000000390 .L0 
     /tmp/ccPW8Dfi.s:858    .text:0000000000000390 .L0 
     /tmp/ccPW8Dfi.s:861    .text:0000000000000394 .L0 
     /tmp/ccPW8Dfi.s:862    .text:0000000000000398 .L0 
     /tmp/ccPW8Dfi.s:863    .text:0000000000000398 .L0 
     /tmp/ccPW8Dfi.s:865    .text:000000000000039c .L0 
     /tmp/ccPW8Dfi.s:867    .text:00000000000003a0 .L0 
     /tmp/ccPW8Dfi.s:838    .text:0000000000000374 _ZN6ThreadC1Ev
     /tmp/ccPW8Dfi.s:875    .text:00000000000003a0 _ZN9SemaphoreC2Ej
     /tmp/ccPW8Dfi.s:878    .text:00000000000003a0 .L0 
     /tmp/ccPW8Dfi.s:880    .text:00000000000003a0 .L0 
     /tmp/ccPW8Dfi.s:881    .text:00000000000003a4 .L0 
     /tmp/ccPW8Dfi.s:884    .text:00000000000003ac .L0 
     /tmp/ccPW8Dfi.s:885    .text:00000000000003ac .L0 
     /tmp/ccPW8Dfi.s:887    .text:00000000000003b0 .L0 
     /tmp/ccPW8Dfi.s:890    .text:00000000000003b0 .L0 
     /tmp/ccPW8Dfi.s:893    .text:00000000000003bc .L0 
     /tmp/ccPW8Dfi.s:894    .text:00000000000003bc .L0 
     /tmp/ccPW8Dfi.s:900    .text:00000000000003c8 .L0 
     /tmp/ccPW8Dfi.s:901    .text:00000000000003cc .L0 
     /tmp/ccPW8Dfi.s:903    .text:00000000000003d0 .L0 
     /tmp/ccPW8Dfi.s:904    .text:00000000000003d0 .L0 
     /tmp/ccPW8Dfi.s:906    .text:00000000000003d4 .L0 
     /tmp/ccPW8Dfi.s:908    .text:00000000000003d8 .L0 
     /tmp/ccPW8Dfi.s:875    .text:00000000000003a0 _ZN9SemaphoreC1Ej
     /tmp/ccPW8Dfi.s:916    .text:00000000000003d8 _ZN9Semaphore15signal_and_waitERS_S0_
     /tmp/ccPW8Dfi.s:919    .text:00000000000003d8 .L0 
     /tmp/ccPW8Dfi.s:921    .text:00000000000003d8 .L0 
     /tmp/ccPW8Dfi.s:922    .text:00000000000003dc .L0 
     /tmp/ccPW8Dfi.s:925    .text:00000000000003e4 .L0 
     /tmp/ccPW8Dfi.s:926    .text:00000000000003e4 .L0 
     /tmp/ccPW8Dfi.s:928    .text:00000000000003e8 .L0 
     /tmp/ccPW8Dfi.s:930    .text:00000000000003e8 .L0 
     /tmp/ccPW8Dfi.s:931    .text:00000000000003e8 .L0 
     /tmp/ccPW8Dfi.s:938    .text:00000000000003f8 .L0 
     /tmp/ccPW8Dfi.s:939    .text:00000000000003fc .L0 
     /tmp/ccPW8Dfi.s:941    .text:0000000000000400 .L0 
     /tmp/ccPW8Dfi.s:942    .text:0000000000000400 .L0 
     /tmp/ccPW8Dfi.s:944    .text:0000000000000404 .L0 
     /tmp/ccPW8Dfi.s:946    .text:0000000000000408 .L0 
GAS LISTING /tmp/ccPW8Dfi.s 			page 34


     /tmp/ccPW8Dfi.s:952    .text:0000000000000408 _ZN14PeriodicThread9terminateEv
     /tmp/ccPW8Dfi.s:955    .text:0000000000000408 .L0 
     /tmp/ccPW8Dfi.s:957    .text:0000000000000408 .L0 
     /tmp/ccPW8Dfi.s:958    .text:000000000000040c .L0 
     /tmp/ccPW8Dfi.s:961    .text:0000000000000414 .L0 
     /tmp/ccPW8Dfi.s:962    .text:0000000000000414 .L0 
     /tmp/ccPW8Dfi.s:964    .text:0000000000000418 .L0 
     /tmp/ccPW8Dfi.s:966    .text:0000000000000418 .L0 
     /tmp/ccPW8Dfi.s:967    .text:0000000000000418 .L0 
     /tmp/ccPW8Dfi.s:970    .text:0000000000000420 .L0 
     /tmp/ccPW8Dfi.s:971    .text:0000000000000424 .L0 
     /tmp/ccPW8Dfi.s:973    .text:0000000000000428 .L0 
     /tmp/ccPW8Dfi.s:974    .text:0000000000000428 .L0 
     /tmp/ccPW8Dfi.s:976    .text:000000000000042c .L0 
     /tmp/ccPW8Dfi.s:978    .text:0000000000000430 .L0 
     /tmp/ccPW8Dfi.s:984    .text:0000000000000430 _ZN14PeriodicThreadC2Em
     /tmp/ccPW8Dfi.s:987    .text:0000000000000430 .L0 
     /tmp/ccPW8Dfi.s:989    .text:0000000000000430 .L0 
     /tmp/ccPW8Dfi.s:990    .text:0000000000000434 .L0 
     /tmp/ccPW8Dfi.s:995    .text:0000000000000444 .L0 
     /tmp/ccPW8Dfi.s:996    .text:0000000000000444 .L0 
     /tmp/ccPW8Dfi.s:997    .text:0000000000000444 .L0 
     /tmp/ccPW8Dfi.s:998    .text:0000000000000444 .L0 
     /tmp/ccPW8Dfi.s:1000   .text:0000000000000448 .L0 
     /tmp/ccPW8Dfi.s:1005   .text:0000000000000450 .L0 
     /tmp/ccPW8Dfi.s:1010   .text:0000000000000464 .L0 
     /tmp/ccPW8Dfi.s:1011   .text:0000000000000464 .L0 
     /tmp/ccPW8Dfi.s:1014   .text:0000000000000468 .L0 
     /tmp/ccPW8Dfi.s:1015   .text:000000000000046c .L0 
     /tmp/ccPW8Dfi.s:1017   .text:0000000000000470 .L0 
     /tmp/ccPW8Dfi.s:1018   .text:0000000000000470 .L0 
     /tmp/ccPW8Dfi.s:1020   .text:0000000000000474 .L0 
     /tmp/ccPW8Dfi.s:1023   .text:0000000000000478 .L0 
     /tmp/ccPW8Dfi.s:1026   .text:000000000000047c .L0 
     /tmp/ccPW8Dfi.s:1028   .text:0000000000000480 .L0 
     /tmp/ccPW8Dfi.s:984    .text:0000000000000430 _ZN14PeriodicThreadC1Em
     /tmp/ccPW8Dfi.s:1036   .text:0000000000000480 _ZN7Console4getcEv
     /tmp/ccPW8Dfi.s:1039   .text:0000000000000480 .L0 
     /tmp/ccPW8Dfi.s:1040   .text:0000000000000480 .L0 
     /tmp/ccPW8Dfi.s:1041   .text:0000000000000484 .L0 
     /tmp/ccPW8Dfi.s:1044   .text:000000000000048c .L0 
     /tmp/ccPW8Dfi.s:1045   .text:000000000000048c .L0 
     /tmp/ccPW8Dfi.s:1047   .text:0000000000000490 .L0 
     /tmp/ccPW8Dfi.s:1049   .text:0000000000000490 .L0 
     /tmp/ccPW8Dfi.s:1050   .text:0000000000000490 .L0 
     /tmp/ccPW8Dfi.s:1053   .text:0000000000000498 .L0 
     /tmp/ccPW8Dfi.s:1054   .text:000000000000049c .L0 
     /tmp/ccPW8Dfi.s:1056   .text:00000000000004a0 .L0 
     /tmp/ccPW8Dfi.s:1057   .text:00000000000004a0 .L0 
     /tmp/ccPW8Dfi.s:1059   .text:00000000000004a4 .L0 
     /tmp/ccPW8Dfi.s:1061   .text:00000000000004a8 .L0 
     /tmp/ccPW8Dfi.s:1067   .text:00000000000004a8 _ZN7Console4putcEc
     /tmp/ccPW8Dfi.s:1070   .text:00000000000004a8 .L0 
     /tmp/ccPW8Dfi.s:1072   .text:00000000000004a8 .L0 
     /tmp/ccPW8Dfi.s:1073   .text:00000000000004ac .L0 
     /tmp/ccPW8Dfi.s:1076   .text:00000000000004b4 .L0 
     /tmp/ccPW8Dfi.s:1077   .text:00000000000004b4 .L0 
GAS LISTING /tmp/ccPW8Dfi.s 			page 35


     /tmp/ccPW8Dfi.s:1079   .text:00000000000004b8 .L0 
     /tmp/ccPW8Dfi.s:1081   .text:00000000000004b8 .L0 
     /tmp/ccPW8Dfi.s:1082   .text:00000000000004b8 .L0 
     /tmp/ccPW8Dfi.s:1085   .text:00000000000004c0 .L0 
     /tmp/ccPW8Dfi.s:1086   .text:00000000000004c4 .L0 
     /tmp/ccPW8Dfi.s:1088   .text:00000000000004c8 .L0 
     /tmp/ccPW8Dfi.s:1089   .text:00000000000004c8 .L0 
     /tmp/ccPW8Dfi.s:1091   .text:00000000000004cc .L0 
     /tmp/ccPW8Dfi.s:1093   .text:00000000000004d0 .L0 
     /tmp/ccPW8Dfi.s:32     .text._ZN6Thread3runEv:0000000000000018 .L0 
     /tmp/ccPW8Dfi.s:57     .text._ZN14PeriodicThread18periodicActivationEv:0000000000000018 .L0 
     /tmp/ccPW8Dfi.s:1136   .text:00000000000004d0 .L0 
     /tmp/ccPW8Dfi.s:438    .text._ZN14PeriodicThreadD2Ev:0000000000000034 .L0 
     /tmp/ccPW8Dfi.s:564    .text._ZN14PeriodicThreadD0Ev:000000000000004c .L0 
     /tmp/ccPW8Dfi.s:134    .text:0000000000000050 .L0 
     /tmp/ccPW8Dfi.s:341    .text:0000000000000148 .L0 
     /tmp/ccPW8Dfi.s:613    .text:0000000000000248 .L0 
     /tmp/ccPW8Dfi.s:653    .text:000000000000027c .L0 
     /tmp/ccPW8Dfi.s:851    .text:0000000000000380 .L0 
     /tmp/ccPW8Dfi.s:890    .text:00000000000003b0 .L0 
     /tmp/ccPW8Dfi.s:1007   .text:0000000000000458 .L0 
     /tmp/ccPW8Dfi.s:100    .text:0000000000000030 .L6
     /tmp/ccPW8Dfi.s:88     .text:0000000000000020 .L5
     /tmp/ccPW8Dfi.s:361    .text:0000000000000168 .L27
     /tmp/ccPW8Dfi.s:359    .text:0000000000000164 .L24
     /tmp/ccPW8Dfi.s:420    .text._ZN14PeriodicThreadD2Ev:0000000000000010 .L0 
     /tmp/ccPW8Dfi.s:541    .text._ZN14PeriodicThreadD0Ev:0000000000000018 .L0 
     /tmp/ccPW8Dfi.s:3384   .debug_abbrev:0000000000000000 .Ldebug_abbrev0
     /tmp/ccPW8Dfi.s:5574   .debug_str:0000000000000a70 .LASF211
     /tmp/ccPW8Dfi.s:5390   .debug_str:000000000000057e .LASF212
     /tmp/ccPW8Dfi.s:5342   .debug_str:00000000000003d9 .LASF213
     /tmp/ccPW8Dfi.s:5204   .debug_ranges:0000000000000000 .Ldebug_ranges0
     /tmp/ccPW8Dfi.s:5218   .debug_line:0000000000000000 .Ldebug_line0
     /tmp/ccPW8Dfi.s:5380   .debug_str:000000000000052b .LASF0
     /tmp/ccPW8Dfi.s:5412   .debug_str:0000000000000623 .LASF1
     /tmp/ccPW8Dfi.s:5512   .debug_str:00000000000008dc .LASF2
     /tmp/ccPW8Dfi.s:5516   .debug_str:00000000000008f9 .LASF4
     /tmp/ccPW8Dfi.s:5392   .debug_str:0000000000000592 .LASF3
     /tmp/ccPW8Dfi.s:5242   .debug_str:00000000000000d2 .LASF5
     /tmp/ccPW8Dfi.s:5484   .debug_str:0000000000000836 .LASF6
     /tmp/ccPW8Dfi.s:5470   .debug_str:00000000000007c3 .LASF7
     /tmp/ccPW8Dfi.s:5402   .debug_str:00000000000005f8 .LASF8
     /tmp/ccPW8Dfi.s:5338   .debug_str:00000000000003a8 .LASF9
     /tmp/ccPW8Dfi.s:5350   .debug_str:000000000000043f .LASF10
     /tmp/ccPW8Dfi.s:5280   .debug_str:00000000000001d5 .LASF11
     /tmp/ccPW8Dfi.s:5332   .debug_str:0000000000000386 .LASF12
     /tmp/ccPW8Dfi.s:5296   .debug_str:0000000000000257 .LASF13
     /tmp/ccPW8Dfi.s:5278   .debug_str:00000000000001c5 .LASF14
     /tmp/ccPW8Dfi.s:5548   .debug_str:00000000000009da .LASF15
     /tmp/ccPW8Dfi.s:5318   .debug_str:0000000000000326 .LASF16
     /tmp/ccPW8Dfi.s:5536   .debug_str:000000000000097e .LASF17
     /tmp/ccPW8Dfi.s:5626   .debug_str:0000000000000cfc .LASF18
     /tmp/ccPW8Dfi.s:5416   .debug_str:000000000000063c .LASF27
     /tmp/ccPW8Dfi.s:5236   .debug_str:000000000000008c .LASF29
     /tmp/ccPW8Dfi.s:5570   .debug_str:0000000000000a5b .LASF19
     /tmp/ccPW8Dfi.s:5428   .debug_str:000000000000068c .LASF21
     /tmp/ccPW8Dfi.s:5532   .debug_str:000000000000095a .LASF20
GAS LISTING /tmp/ccPW8Dfi.s 			page 36


     /tmp/ccPW8Dfi.s:5578   .debug_str:0000000000000b3b .LASF22
     /tmp/ccPW8Dfi.s:5608   .debug_str:0000000000000c78 .LASF23
     /tmp/ccPW8Dfi.s:5352   .debug_str:000000000000044d .LASF25
     /tmp/ccPW8Dfi.s:5504   .debug_str:000000000000089e .LASF24
     /tmp/ccPW8Dfi.s:5478   .debug_str:00000000000007fa .LASF26
     /tmp/ccPW8Dfi.s:5264   .debug_str:0000000000000177 .LASF86
     /tmp/ccPW8Dfi.s:5452   .debug_str:000000000000075b .LASF88
     /tmp/ccPW8Dfi.s:5594   .debug_str:0000000000000c0a .LASF28
     /tmp/ccPW8Dfi.s:5624   .debug_str:0000000000000cea .LASF30
     /tmp/ccPW8Dfi.s:5472   .debug_str:00000000000007d6 .LASF31
     /tmp/ccPW8Dfi.s:5654   .debug_str:0000000000000dd2 .LASF32
     /tmp/ccPW8Dfi.s:5424   .debug_str:0000000000000673 .LASF33
     /tmp/ccPW8Dfi.s:5300   .debug_str:0000000000000272 .LASF34
     /tmp/ccPW8Dfi.s:5414   .debug_str:0000000000000636 .LASF35
     /tmp/ccPW8Dfi.s:5580   .debug_str:0000000000000b57 .LASF36
     /tmp/ccPW8Dfi.s:5434   .debug_str:00000000000006bc .LASF37
     /tmp/ccPW8Dfi.s:5590   .debug_str:0000000000000bc8 .LASF38
     /tmp/ccPW8Dfi.s:5628   .debug_str:0000000000000d05 .LASF39
     /tmp/ccPW8Dfi.s:5308   .debug_str:00000000000002d5 .LASF40
     /tmp/ccPW8Dfi.s:5438   .debug_str:00000000000006d0 .LASF41
     /tmp/ccPW8Dfi.s:5550   .debug_str:00000000000009e6 .LASF42
     /tmp/ccPW8Dfi.s:5596   .debug_str:0000000000000c10 .LASF43
     /tmp/ccPW8Dfi.s:5620   .debug_str:0000000000000ccb .LASF45
     /tmp/ccPW8Dfi.s:5636   .debug_str:0000000000000d40 .LASF44
     /tmp/ccPW8Dfi.s:5260   .debug_str:0000000000000145 .LASF46
     /tmp/ccPW8Dfi.s:5480   .debug_str:000000000000081a .LASF47
     /tmp/ccPW8Dfi.s:5304   .debug_str:00000000000002aa .LASF48
     /tmp/ccPW8Dfi.s:5426   .debug_str:0000000000000682 .LASF49
     /tmp/ccPW8Dfi.s:5648   .debug_str:0000000000000da7 .LASF50
     /tmp/ccPW8Dfi.s:5466   .debug_str:00000000000007b0 .LASF51
     /tmp/ccPW8Dfi.s:5446   .debug_str:000000000000072a .LASF52
     /tmp/ccPW8Dfi.s:5276   .debug_str:00000000000001b7 .LASF53
     /tmp/ccPW8Dfi.s:5378   .debug_str:0000000000000525 .LASF54
     /tmp/ccPW8Dfi.s:5244   .debug_str:00000000000000d9 .LASF55
     /tmp/ccPW8Dfi.s:5258   .debug_str:000000000000013f .LASF56
     /tmp/ccPW8Dfi.s:5520   .debug_str:000000000000090c .LASF57
     /tmp/ccPW8Dfi.s:5458   .debug_str:000000000000078a .LASF58
     /tmp/ccPW8Dfi.s:5274   .debug_str:00000000000001a6 .LASF59
     /tmp/ccPW8Dfi.s:5430   .debug_str:00000000000006a4 .LASF60
     /tmp/ccPW8Dfi.s:5330   .debug_str:0000000000000375 .LASF61
     /tmp/ccPW8Dfi.s:5544   .debug_str:00000000000009be .LASF62
     /tmp/ccPW8Dfi.s:5384   .debug_str:000000000000053d .LASF63
     /tmp/ccPW8Dfi.s:5250   .debug_str:0000000000000110 .LASF64
     /tmp/ccPW8Dfi.s:5316   .debug_str:000000000000030d .LASF65
     /tmp/ccPW8Dfi.s:5356   .debug_str:0000000000000475 .LASF66
     /tmp/ccPW8Dfi.s:5262   .debug_str:000000000000015c .LASF67
     /tmp/ccPW8Dfi.s:5584   .debug_str:0000000000000b8d .LASF68
     /tmp/ccPW8Dfi.s:5386   .debug_str:0000000000000557 .LASF69
     /tmp/ccPW8Dfi.s:5394   .debug_str:00000000000005a4 .LASF70
     /tmp/ccPW8Dfi.s:5634   .debug_str:0000000000000d26 .LASF71
     /tmp/ccPW8Dfi.s:5334   .debug_str:0000000000000395 .LASF72
     /tmp/ccPW8Dfi.s:5572   .debug_str:0000000000000a68 .LASF73
     /tmp/ccPW8Dfi.s:5610   .debug_str:0000000000000c85 .LASF74
     /tmp/ccPW8Dfi.s:5366   .debug_str:00000000000004a8 .LASF75
     /tmp/ccPW8Dfi.s:5650   .debug_str:0000000000000dbc .LASF76
     /tmp/ccPW8Dfi.s:5312   .debug_str:00000000000002f3 .LASF77
     /tmp/ccPW8Dfi.s:5598   .debug_str:0000000000000c1c .LASF78
GAS LISTING /tmp/ccPW8Dfi.s 			page 37


     /tmp/ccPW8Dfi.s:5622   .debug_str:0000000000000ce3 .LASF79
     /tmp/ccPW8Dfi.s:5500   .debug_str:000000000000088a .LASF80
     /tmp/ccPW8Dfi.s:5600   .debug_str:0000000000000c24 .LASF81
     /tmp/ccPW8Dfi.s:5420   .debug_str:000000000000065d .LASF82
     /tmp/ccPW8Dfi.s:5558   .debug_str:0000000000000a1b .LASF83
     /tmp/ccPW8Dfi.s:5638   .debug_str:0000000000000d4b .LASF84
     /tmp/ccPW8Dfi.s:5464   .debug_str:00000000000007a8 .LASF85
     /tmp/ccPW8Dfi.s:5382   .debug_str:0000000000000538 .LASF87
     /tmp/ccPW8Dfi.s:5302   .debug_str:0000000000000297 .LASF89
     /tmp/ccPW8Dfi.s:5436   .debug_str:00000000000006cb .LASF118
     /tmp/ccPW8Dfi.s:5314   .debug_str:00000000000002fa .LASF214
     /tmp/ccPW8Dfi.s:5560   .debug_str:0000000000000a20 .LASF90
     /tmp/ccPW8Dfi.s:5498   .debug_str:0000000000000885 .LASF91
     /tmp/ccPW8Dfi.s:5400   .debug_str:00000000000005f2 .LASF92
     /tmp/ccPW8Dfi.s:5556   .debug_str:0000000000000a13 .LASF215
     /tmp/ccPW8Dfi.s:5630   .debug_str:0000000000000d0f .LASF93
     /tmp/ccPW8Dfi.s:5618   .debug_str:0000000000000cc6 .LASF94
     /tmp/ccPW8Dfi.s:5646   .debug_str:0000000000000da0 .LASF216
     /tmp/ccPW8Dfi.s:5404   .debug_str:000000000000060b .LASF95
     /tmp/ccPW8Dfi.s:5224   .debug_str:0000000000000046 .LASF96
     /tmp/ccPW8Dfi.s:5284   .debug_str:00000000000001f6 .LASF97
     /tmp/ccPW8Dfi.s:5576   .debug_str:0000000000000b34 .LASF98
     /tmp/ccPW8Dfi.s:5270   .debug_str:000000000000018d .LASF99
     /tmp/ccPW8Dfi.s:5228   .debug_str:0000000000000057 .LASF100
     /tmp/ccPW8Dfi.s:5490   .debug_str:000000000000085b .LASF101
     /tmp/ccPW8Dfi.s:5642   .debug_str:0000000000000d64 .LASF102
     /tmp/ccPW8Dfi.s:5398   .debug_str:00000000000005cb .LASF103
     /tmp/ccPW8Dfi.s:5370   .debug_str:00000000000004d6 .LASF217
     /tmp/ccPW8Dfi.s:5408   .debug_str:0000000000000619 .LASF104
     /tmp/ccPW8Dfi.s:5592   .debug_str:0000000000000be4 .LASF105
     /tmp/ccPW8Dfi.s:5502   .debug_str:0000000000000895 .LASF106
     /tmp/ccPW8Dfi.s:5288   .debug_str:000000000000020e .LASF107
     /tmp/ccPW8Dfi.s:5602   .debug_str:0000000000000c2e .LASF108
     /tmp/ccPW8Dfi.s:5368   .debug_str:00000000000004ad .LASF109
     /tmp/ccPW8Dfi.s:5294   .debug_str:0000000000000250 .LASF110
     /tmp/ccPW8Dfi.s:5606   .debug_str:0000000000000c50 .LASF111
     /tmp/ccPW8Dfi.s:5358   .debug_str:0000000000000485 .LASF112
     /tmp/ccPW8Dfi.s:5324   .debug_str:000000000000035a .LASF113
     /tmp/ccPW8Dfi.s:5540   .debug_str:00000000000009a5 .LASF114
     /tmp/ccPW8Dfi.s:5450   .debug_str:0000000000000756 .LASF115
     /tmp/ccPW8Dfi.s:5410   .debug_str:000000000000061e .LASF116
     /tmp/ccPW8Dfi.s:5226   .debug_str:000000000000004e .LASF117
     /tmp/ccPW8Dfi.s:5616   .debug_str:0000000000000cbc .LASF119
     /tmp/ccPW8Dfi.s:5568   .debug_str:0000000000000a46 .LASF128
     /tmp/ccPW8Dfi.s:5652   .debug_str:0000000000000dc2 .LASF130
     /tmp/ccPW8Dfi.s:5564   .debug_str:0000000000000a2f .LASF120
     /tmp/ccPW8Dfi.s:5492   .debug_str:0000000000000860 .LASF133
     /tmp/ccPW8Dfi.s:5522   .debug_str:000000000000091c .LASF135
     /tmp/ccPW8Dfi.s:5310   .debug_str:00000000000002ee .LASF121
     /tmp/ccPW8Dfi.s:5586   .debug_str:0000000000000b9c .LASF123
     /tmp/ccPW8Dfi.s:5554   .debug_str:0000000000000a0c .LASF122
     /tmp/ccPW8Dfi.s:5588   .debug_str:0000000000000bb1 .LASF124
     /tmp/ccPW8Dfi.s:5348   .debug_str:000000000000042f .LASF125
     /tmp/ccPW8Dfi.s:5582   .debug_str:0000000000000b67 .LASF126
     /tmp/ccPW8Dfi.s:5320   .debug_str:000000000000033c .LASF150
     /tmp/ccPW8Dfi.s:5376   .debug_str:0000000000000515 .LASF218
     /tmp/ccPW8Dfi.s:5364   .debug_str:00000000000004a1 .LASF127
GAS LISTING /tmp/ccPW8Dfi.s 			page 38


     /tmp/ccPW8Dfi.s:5292   .debug_str:000000000000023e .LASF129
     /tmp/ccPW8Dfi.s:5506   .debug_str:00000000000008b0 .LASF131
     /tmp/ccPW8Dfi.s:5660   .debug_str:0000000000000e06 .LASF132
     /tmp/ccPW8Dfi.s:5530   .debug_str:0000000000000952 .LASF134
     /tmp/ccPW8Dfi.s:5326   .debug_str:0000000000000360 .LASF136
     /tmp/ccPW8Dfi.s:5526   .debug_str:0000000000000943 .LASF137
     /tmp/ccPW8Dfi.s:5238   .debug_str:00000000000000b5 .LASF138
     /tmp/ccPW8Dfi.s:5566   .debug_str:0000000000000a41 .LASF139
     /tmp/ccPW8Dfi.s:5486   .debug_str:000000000000083d .LASF140
     /tmp/ccPW8Dfi.s:5476   .debug_str:00000000000007e8 .LASF141
     /tmp/ccPW8Dfi.s:5290   .debug_str:0000000000000239 .LASF142
     /tmp/ccPW8Dfi.s:5448   .debug_str:0000000000000742 .LASF143
     /tmp/ccPW8Dfi.s:5268   .debug_str:0000000000000184 .LASF144
     /tmp/ccPW8Dfi.s:5644   .debug_str:0000000000000d8a .LASF145
     /tmp/ccPW8Dfi.s:5454   .debug_str:000000000000076b .LASF146
     /tmp/ccPW8Dfi.s:5488   .debug_str:000000000000084f .LASF147
     /tmp/ccPW8Dfi.s:5444   .debug_str:000000000000070f .LASF148
     /tmp/ccPW8Dfi.s:5658   .debug_str:0000000000000df7 .LASF149
     /tmp/ccPW8Dfi.s:5374   .debug_str:0000000000000504 .LASF219
     /tmp/ccPW8Dfi.s:5232   .debug_str:0000000000000077 .LASF151
     /tmp/ccPW8Dfi.s:5286   .debug_str:00000000000001ff .LASF152
     /tmp/ccPW8Dfi.s:5604   .debug_str:0000000000000c36 .LASF153
     /tmp/ccPW8Dfi.s:5612   .debug_str:0000000000000c8a .LASF154
     /tmp/ccPW8Dfi.s:5562   .debug_str:0000000000000a25 .LASF155
     /tmp/ccPW8Dfi.s:5344   .debug_str:00000000000003f7 .LASF156
     /tmp/ccPW8Dfi.s:5552   .debug_str:00000000000009f4 .LASF157
     /tmp/ccPW8Dfi.s:5306   .debug_str:00000000000002c2 .LASF158
     /tmp/ccPW8Dfi.s:5222   .debug_str:000000000000001c .LASF220
     /tmp/ccPW8Dfi.s:5266   .debug_str:000000000000017d .LASF159
     /tmp/ccPW8Dfi.s:5460   .debug_str:0000000000000791 .LASF160
     /tmp/ccPW8Dfi.s:5346   .debug_str:0000000000000417 .LASF221
     /tmp/ccPW8Dfi.s:5336   .debug_str:00000000000003a3 .LASF161
     /tmp/ccPW8Dfi.s:5240   .debug_str:00000000000000c8 .LASF162
     /tmp/ccPW8Dfi.s:5662   .debug_str:0000000000000e1d .LASF163
     /tmp/ccPW8Dfi.s:522    .text._ZN14PeriodicThreadD0Ev:0000000000000000 .LFB67
     /tmp/ccPW8Dfi.s:562    .text._ZN14PeriodicThreadD0Ev:000000000000004c .LFE67
     /tmp/ccPW8Dfi.s:4720   .debug_loc:0000000000000000 .LLST13
     /tmp/ccPW8Dfi.s:538    .text._ZN14PeriodicThreadD0Ev:0000000000000018 .LBB14
     /tmp/ccPW8Dfi.s:546    .text._ZN14PeriodicThreadD0Ev:000000000000002c .LBE14
     /tmp/ccPW8Dfi.s:4738   .debug_loc:000000000000004c .LLST14
     /tmp/ccPW8Dfi.s:544    .text._ZN14PeriodicThreadD0Ev:000000000000002c .LVL39
     /tmp/ccPW8Dfi.s:549    .text._ZN14PeriodicThreadD0Ev:0000000000000038 .LVL40
     /tmp/ccPW8Dfi.s:5510   .debug_str:00000000000008c4 .LASF164
     /tmp/ccPW8Dfi.s:406    .text._ZN14PeriodicThreadD2Ev:0000000000000000 .LFB65
     /tmp/ccPW8Dfi.s:434    .text._ZN14PeriodicThreadD2Ev:0000000000000034 .LFE65
     /tmp/ccPW8Dfi.s:4749   .debug_loc:0000000000000082 .LLST10
     /tmp/ccPW8Dfi.s:423    .text._ZN14PeriodicThreadD2Ev:0000000000000024 .LVL28
     /tmp/ccPW8Dfi.s:1068   .text:00000000000004a8 .LFB63
     /tmp/ccPW8Dfi.s:1094   .text:00000000000004d0 .LFE63
     /tmp/ccPW8Dfi.s:4763   .debug_loc:00000000000000bb .LLST29
     /tmp/ccPW8Dfi.s:1083   .text:00000000000004c0 .LVL76
     /tmp/ccPW8Dfi.s:1037   .text:0000000000000480 .LFB62
     /tmp/ccPW8Dfi.s:1062   .text:00000000000004a8 .LFE62
     /tmp/ccPW8Dfi.s:1051   .text:0000000000000498 .LVL74
     /tmp/ccPW8Dfi.s:5396   .debug_str:00000000000005b3 .LASF165
     /tmp/ccPW8Dfi.s:985    .text:0000000000000430 .LFB60
     /tmp/ccPW8Dfi.s:1029   .text:0000000000000480 .LFE60
GAS LISTING /tmp/ccPW8Dfi.s 			page 39


     /tmp/ccPW8Dfi.s:4777   .debug_loc:00000000000000f4 .LLST27
     /tmp/ccPW8Dfi.s:4795   .debug_loc:0000000000000140 .LLST28
     /tmp/ccPW8Dfi.s:1006   .text:0000000000000458 .LVL71
     /tmp/ccPW8Dfi.s:953    .text:0000000000000408 .LFB58
     /tmp/ccPW8Dfi.s:979    .text:0000000000000430 .LFE58
     /tmp/ccPW8Dfi.s:4814   .debug_loc:000000000000018d .LLST26
     /tmp/ccPW8Dfi.s:968    .text:0000000000000420 .LVL69
     /tmp/ccPW8Dfi.s:917    .text:00000000000003d8 .LFB57
     /tmp/ccPW8Dfi.s:947    .text:0000000000000408 .LFE57
     /tmp/ccPW8Dfi.s:5362   .debug_str:000000000000049c .LASF166
     /tmp/ccPW8Dfi.s:4828   .debug_loc:00000000000001c6 .LLST24
     /tmp/ccPW8Dfi.s:5406   .debug_str:0000000000000614 .LASF167
     /tmp/ccPW8Dfi.s:4842   .debug_loc:00000000000001ff .LLST25
     /tmp/ccPW8Dfi.s:936    .text:00000000000003f8 .LVL67
     /tmp/ccPW8Dfi.s:203    .text:00000000000000a4 .LFB56
     /tmp/ccPW8Dfi.s:231    .text:00000000000000d0 .LFE56
     /tmp/ccPW8Dfi.s:4856   .debug_loc:0000000000000238 .LLST4
     /tmp/ccPW8Dfi.s:220    .text:00000000000000c0 .LVL16
     /tmp/ccPW8Dfi.s:169    .text:0000000000000078 .LFB55
     /tmp/ccPW8Dfi.s:197    .text:00000000000000a4 .LFE55
     /tmp/ccPW8Dfi.s:4870   .debug_loc:0000000000000271 .LLST3
     /tmp/ccPW8Dfi.s:186    .text:0000000000000094 .LVL13
     /tmp/ccPW8Dfi.s:5418   .debug_str:000000000000064b .LASF168
     /tmp/ccPW8Dfi.s:482    .text:00000000000001d4 .LFB54
     /tmp/ccPW8Dfi.s:515    .text:0000000000000214 .LFE54
     /tmp/ccPW8Dfi.s:4884   .debug_loc:00000000000002aa .LLST12
     /tmp/ccPW8Dfi.s:499    .text:00000000000001f4 .LVL34
     /tmp/ccPW8Dfi.s:502    .text:0000000000000200 .LVL35
     /tmp/ccPW8Dfi.s:5248   .debug_str:00000000000000fe .LASF169
     /tmp/ccPW8Dfi.s:118    .text:0000000000000040 .LFB52
     /tmp/ccPW8Dfi.s:153    .text:0000000000000078 .LFE52
     /tmp/ccPW8Dfi.s:4902   .debug_loc:00000000000002f6 .LLST2
     /tmp/ccPW8Dfi.s:141    .text:0000000000000068 .LVL10
     /tmp/ccPW8Dfi.s:5282   .debug_str:00000000000001e4 .LASF170
     /tmp/ccPW8Dfi.s:876    .text:00000000000003a0 .LFB49
     /tmp/ccPW8Dfi.s:909    .text:00000000000003d8 .LFE49
     /tmp/ccPW8Dfi.s:4916   .debug_loc:000000000000032f .LLST22
     /tmp/ccPW8Dfi.s:4936   .debug_loc:000000000000037d .LLST23
     /tmp/ccPW8Dfi.s:897    .text:00000000000003c8 .LVL63
     /tmp/ccPW8Dfi.s:62     .text:0000000000000000 .LFB47
     /tmp/ccPW8Dfi.s:112    .text:0000000000000040 .LFE47
     /tmp/ccPW8Dfi.s:4950   .debug_loc:00000000000003b6 .LLST0
     /tmp/ccPW8Dfi.s:5508   .debug_str:00000000000008bd .LASF171
     /tmp/ccPW8Dfi.s:4975   .debug_loc:0000000000000418 .LLST1
     /tmp/ccPW8Dfi.s:108    .text:000000000000003c .LVL7
     /tmp/ccPW8Dfi.s:5514   .debug_str:00000000000008ea .LASF172
     /tmp/ccPW8Dfi.s:839    .text:0000000000000374 .LFB45
     /tmp/ccPW8Dfi.s:868    .text:00000000000003a0 .LFE45
     /tmp/ccPW8Dfi.s:807    .text:000000000000034c .LFB43
     /tmp/ccPW8Dfi.s:833    .text:0000000000000374 .LFE43
     /tmp/ccPW8Dfi.s:5000   .debug_loc:000000000000047a .LLST21
     /tmp/ccPW8Dfi.s:822    .text:0000000000000364 .LVL59
     /tmp/ccPW8Dfi.s:776    .text:0000000000000324 .LFB42
     /tmp/ccPW8Dfi.s:801    .text:000000000000034c .LFE42
     /tmp/ccPW8Dfi.s:790    .text:000000000000033c .LVL57
     /tmp/ccPW8Dfi.s:742    .text:00000000000002f8 .LFB41
     /tmp/ccPW8Dfi.s:770    .text:0000000000000324 .LFE41
GAS LISTING /tmp/ccPW8Dfi.s 			page 40


     /tmp/ccPW8Dfi.s:5014   .debug_loc:00000000000004b3 .LLST20
     /tmp/ccPW8Dfi.s:759    .text:0000000000000314 .LVL56
     /tmp/ccPW8Dfi.s:708    .text:00000000000002cc .LFB40
     /tmp/ccPW8Dfi.s:736    .text:00000000000002f8 .LFE40
     /tmp/ccPW8Dfi.s:5028   .debug_loc:00000000000004ec .LLST18
     /tmp/ccPW8Dfi.s:5474   .debug_str:00000000000007e3 .LASF173
     /tmp/ccPW8Dfi.s:5042   .debug_loc:0000000000000525 .LLST19
     /tmp/ccPW8Dfi.s:725    .text:00000000000002e8 .LVL53
     /tmp/ccPW8Dfi.s:674    .text:00000000000002a0 .LFB39
     /tmp/ccPW8Dfi.s:702    .text:00000000000002cc .LFE39
     /tmp/ccPW8Dfi.s:5056   .debug_loc:000000000000055e .LLST17
     /tmp/ccPW8Dfi.s:691    .text:00000000000002bc .LVL50
     /tmp/ccPW8Dfi.s:638    .text:0000000000000268 .LFB38
     /tmp/ccPW8Dfi.s:668    .text:00000000000002a0 .LFE38
     /tmp/ccPW8Dfi.s:5070   .debug_loc:0000000000000597 .LLST16
     /tmp/ccPW8Dfi.s:657    .text:0000000000000290 .LVL47
     /tmp/ccPW8Dfi.s:5422   .debug_str:0000000000000664 .LASF174
     /tmp/ccPW8Dfi.s:443    .text:0000000000000194 .LFB37
     /tmp/ccPW8Dfi.s:476    .text:00000000000001d4 .LFE37
     /tmp/ccPW8Dfi.s:5088   .debug_loc:00000000000005e3 .LLST11
     /tmp/ccPW8Dfi.s:460    .text:00000000000001b4 .LVL30
     /tmp/ccPW8Dfi.s:463    .text:00000000000001c0 .LVL31
     /tmp/ccPW8Dfi.s:5632   .debug_str:0000000000000d17 .LASF175
     /tmp/ccPW8Dfi.s:333    .text:0000000000000148 .LFB35
     /tmp/ccPW8Dfi.s:390    .text:0000000000000194 .LFE35
     /tmp/ccPW8Dfi.s:5106   .debug_loc:000000000000062f .LLST8
     /tmp/ccPW8Dfi.s:347    .text:0000000000000158 .LBB10
     /tmp/ccPW8Dfi.s:355    .text:000000000000015c .LBE10
     /tmp/ccPW8Dfi.s:5120   .debug_loc:0000000000000668 .LLST9
     /tmp/ccPW8Dfi.s:378    .text:0000000000000184 .LVL26
     /tmp/ccPW8Dfi.s:5614   .debug_str:0000000000000ca5 .LASF176
     /tmp/ccPW8Dfi.s:601    .text:000000000000023c .LFB32
     /tmp/ccPW8Dfi.s:630    .text:0000000000000268 .LFE32
     /tmp/ccPW8Dfi.s:5534   .debug_str:000000000000096b .LASF177
     /tmp/ccPW8Dfi.s:5462   .debug_str:00000000000007a1 .LASF178
     /tmp/ccPW8Dfi.s:569    .text:0000000000000214 .LFB30
     /tmp/ccPW8Dfi.s:595    .text:000000000000023c .LFE30
     /tmp/ccPW8Dfi.s:5127   .debug_loc:000000000000068b .LLST15
     /tmp/ccPW8Dfi.s:584    .text:000000000000022c .LVL43
     /tmp/ccPW8Dfi.s:5234   .debug_str:000000000000007c .LASF179
     /tmp/ccPW8Dfi.s:5468   .debug_str:00000000000007bc .LASF180
     /tmp/ccPW8Dfi.s:301    .text:0000000000000120 .LFB29
     /tmp/ccPW8Dfi.s:327    .text:0000000000000148 .LFE29
     /tmp/ccPW8Dfi.s:5141   .debug_loc:00000000000006c4 .LLST7
     /tmp/ccPW8Dfi.s:316    .text:0000000000000138 .LVL22
     /tmp/ccPW8Dfi.s:5272   .debug_str:0000000000000196 .LASF181
     /tmp/ccPW8Dfi.s:5254   .debug_str:0000000000000127 .LASF182
     /tmp/ccPW8Dfi.s:269    .text:00000000000000f8 .LFB28
     /tmp/ccPW8Dfi.s:295    .text:0000000000000120 .LFE28
     /tmp/ccPW8Dfi.s:5155   .debug_loc:00000000000006fd .LLST6
     /tmp/ccPW8Dfi.s:284    .text:0000000000000110 .LVL20
     /tmp/ccPW8Dfi.s:5656   .debug_str:0000000000000dea .LASF183
     /tmp/ccPW8Dfi.s:5328   .debug_str:000000000000036f .LASF184
     /tmp/ccPW8Dfi.s:237    .text:00000000000000d0 .LFB27
     /tmp/ccPW8Dfi.s:263    .text:00000000000000f8 .LFE27
     /tmp/ccPW8Dfi.s:5169   .debug_loc:0000000000000736 .LLST5
     /tmp/ccPW8Dfi.s:252    .text:00000000000000e8 .LVL18
GAS LISTING /tmp/ccPW8Dfi.s 			page 41


     /tmp/ccPW8Dfi.s:37     .text._ZN14PeriodicThread18periodicActivationEv:0000000000000000 .LFB4
     /tmp/ccPW8Dfi.s:55     .text._ZN14PeriodicThread18periodicActivationEv:0000000000000018 .LFE4
     /tmp/ccPW8Dfi.s:11     .text._ZN6Thread3runEv:0000000000000000 .LFB0
     /tmp/ccPW8Dfi.s:30     .text._ZN6Thread3runEv:0000000000000018 .LFE0
     /tmp/ccPW8Dfi.s:5538   .debug_str:0000000000000994 .LASF185
     /tmp/ccPW8Dfi.s:5388   .debug_str:0000000000000572 .LASF187
     /tmp/ccPW8Dfi.s:5220   .debug_str:0000000000000000 .LASF186
     /tmp/ccPW8Dfi.s:5542   .debug_str:00000000000009aa .LASF188
     /tmp/ccPW8Dfi.s:5230   .debug_str:000000000000006c .LASF189
     /tmp/ccPW8Dfi.s:5432   .debug_str:00000000000006ab .LASF190
     /tmp/ccPW8Dfi.s:5528   .debug_str:0000000000000949 .LASF191
     /tmp/ccPW8Dfi.s:5256   .debug_str:000000000000012d .LASF192
     /tmp/ccPW8Dfi.s:5494   .debug_str:000000000000086b .LASF193
     /tmp/ccPW8Dfi.s:5640   .debug_str:0000000000000d51 .LASF194
     /tmp/ccPW8Dfi.s:5252   .debug_str:000000000000011e .LASF195
     /tmp/ccPW8Dfi.s:5482   .debug_str:0000000000000826 .LASF196
     /tmp/ccPW8Dfi.s:5298   .debug_str:0000000000000267 .LASF197
     /tmp/ccPW8Dfi.s:5246   .debug_str:00000000000000e9 .LASF198
     /tmp/ccPW8Dfi.s:5496   .debug_str:0000000000000875 .LASF199
     /tmp/ccPW8Dfi.s:5322   .debug_str:0000000000000345 .LASF200
     /tmp/ccPW8Dfi.s:5518   .debug_str:0000000000000900 .LASF201
     /tmp/ccPW8Dfi.s:5440   .debug_str:00000000000006ef .LASF202
     /tmp/ccPW8Dfi.s:5456   .debug_str:000000000000077e .LASF203
     /tmp/ccPW8Dfi.s:5524   .debug_str:000000000000092e .LASF204
     /tmp/ccPW8Dfi.s:5340   .debug_str:00000000000003b8 .LASF205
     /tmp/ccPW8Dfi.s:5546   .debug_str:00000000000009cc .LASF206
     /tmp/ccPW8Dfi.s:5354   .debug_str:0000000000000467 .LASF207
     /tmp/ccPW8Dfi.s:5372   .debug_str:00000000000004fb .LASF208
     /tmp/ccPW8Dfi.s:5360   .debug_str:000000000000048e .LASF209
     /tmp/ccPW8Dfi.s:5442   .debug_str:0000000000000705 .LASF210
     /tmp/ccPW8Dfi.s:525    .text._ZN14PeriodicThreadD0Ev:0000000000000000 .LVL37
     /tmp/ccPW8Dfi.s:557    .text._ZN14PeriodicThreadD0Ev:0000000000000044 .LVL41
     /tmp/ccPW8Dfi.s:537    .text._ZN14PeriodicThreadD0Ev:0000000000000018 .LVL38
     /tmp/ccPW8Dfi.s:409    .text._ZN14PeriodicThreadD2Ev:0000000000000000 .LVL27
     /tmp/ccPW8Dfi.s:1071   .text:00000000000004a8 .LVL75
     /tmp/ccPW8Dfi.s:988    .text:0000000000000430 .LVL70
     /tmp/ccPW8Dfi.s:1021   .text:0000000000000474 .LVL72
     /tmp/ccPW8Dfi.s:1024   .text:0000000000000478 .LVL73
     /tmp/ccPW8Dfi.s:956    .text:0000000000000408 .LVL68
     /tmp/ccPW8Dfi.s:920    .text:00000000000003d8 .LVL64
     /tmp/ccPW8Dfi.s:934    .text:00000000000003f0 .LVL66
     /tmp/ccPW8Dfi.s:932    .text:00000000000003ec .LVL65
     /tmp/ccPW8Dfi.s:206    .text:00000000000000a4 .LVL14
     /tmp/ccPW8Dfi.s:218    .text:00000000000000b8 .LVL15
     /tmp/ccPW8Dfi.s:172    .text:0000000000000078 .LVL11
     /tmp/ccPW8Dfi.s:184    .text:000000000000008c .LVL12
     /tmp/ccPW8Dfi.s:485    .text:00000000000001d4 .LVL33
     /tmp/ccPW8Dfi.s:510    .text:000000000000020c .LVL36
     /tmp/ccPW8Dfi.s:123    .text:0000000000000040 .LVL8
     /tmp/ccPW8Dfi.s:139    .text:0000000000000060 .LVL9
     /tmp/ccPW8Dfi.s:879    .text:00000000000003a0 .LVL61
     /tmp/ccPW8Dfi.s:895    .text:00000000000003c0 .LVL62
     /tmp/ccPW8Dfi.s:66     .text:0000000000000000 .LVL2
     /tmp/ccPW8Dfi.s:85     .text:000000000000001c .LVL4
     /tmp/ccPW8Dfi.s:99     .text:0000000000000030 .LVL6
     /tmp/ccPW8Dfi.s:76     .text:0000000000000010 .LVL3
     /tmp/ccPW8Dfi.s:810    .text:000000000000034c .LVL58
GAS LISTING /tmp/ccPW8Dfi.s 			page 42


     /tmp/ccPW8Dfi.s:745    .text:00000000000002f8 .LVL54
     /tmp/ccPW8Dfi.s:757    .text:000000000000030c .LVL55
     /tmp/ccPW8Dfi.s:711    .text:00000000000002cc .LVL51
     /tmp/ccPW8Dfi.s:723    .text:00000000000002e0 .LVL52
     /tmp/ccPW8Dfi.s:677    .text:00000000000002a0 .LVL48
     /tmp/ccPW8Dfi.s:689    .text:00000000000002b4 .LVL49
     /tmp/ccPW8Dfi.s:641    .text:0000000000000268 .LVL45
     /tmp/ccPW8Dfi.s:655    .text:0000000000000288 .LVL46
     /tmp/ccPW8Dfi.s:446    .text:0000000000000194 .LVL29
     /tmp/ccPW8Dfi.s:471    .text:00000000000001cc .LVL32
     /tmp/ccPW8Dfi.s:338    .text:0000000000000148 .LVL23
     /tmp/ccPW8Dfi.s:346    .text:0000000000000158 .LVL24
     /tmp/ccPW8Dfi.s:353    .text:000000000000015c .LVL25
     /tmp/ccPW8Dfi.s:572    .text:0000000000000214 .LVL42
     /tmp/ccPW8Dfi.s:304    .text:0000000000000120 .LVL21
     /tmp/ccPW8Dfi.s:272    .text:00000000000000f8 .LVL19
     /tmp/ccPW8Dfi.s:240    .text:00000000000000d0 .LVL17
     /tmp/ccPW8Dfi.s:1137   .debug_info:0000000000000000 .Ldebug_info0
     /tmp/ccPW8Dfi.s:5      .text:0000000000000000 .Ltext0
     /tmp/ccPW8Dfi.s:1132   .text:00000000000004d0 .Letext0
     /tmp/ccPW8Dfi.s:156    .gcc_except_table:0000000000000000 .LLSDA52
     /tmp/ccPW8Dfi.s:392    .gcc_except_table:0000000000000004 .LLSDA35
                           .group:0000000000000000 _ZN14PeriodicThreadD5Ev

UNDEFINED SYMBOLS
_Z9sem_closeP3Sem
__gxx_personality_v0
_Z8sem_waitP3Sem
_Z10sem_signalP3Sem
_Z9mem_allocm
_Z8mem_freePv
_Z13thread_createPP3TCBPFvPvES2_
_Z11thread_joinP3TCB
_Z11thread_joinP3TCBm
_Z11thread_killP3TCB
_Z15thread_dispatchv
_Z10time_sleepm
_Z8sem_openPP3Semj
_Z15signal_and_waitP3SemS0_
_Z11thread_exitv
