GAS LISTING /tmp/ccSTWq0T.s 			page 1


   1              		.file	"syscall_cpp.cpp"
   2              		.option pic
   3              		.option norelax
   4              		.text
   5              	.Ltext0:
   6              		.section	.text._ZN6Thread3runEv,"axG",@progbits,_ZN6Thread3runEv,comdat
   7              		.align	2
   8              		.weak	_ZN6Thread3runEv
  10              	_ZN6Thread3runEv:
  11              	.LFB0:
  12              		.file 1 "src/../h/syscall_cpp.hpp"
   1:src/../h/syscall_cpp.hpp **** #ifndef _syscall_cpp
   2:src/../h/syscall_cpp.hpp **** #define _syscall_cpp
   3:src/../h/syscall_cpp.hpp **** 
   4:src/../h/syscall_cpp.hpp **** #include "../lib/hw.h"
   5:src/../h/syscall_cpp.hpp **** #include "syscall_c.hpp"
   6:src/../h/syscall_cpp.hpp **** 
   7:src/../h/syscall_cpp.hpp **** void *operator new(size_t);
   8:src/../h/syscall_cpp.hpp **** 
   9:src/../h/syscall_cpp.hpp **** void operator delete(void *);
  10:src/../h/syscall_cpp.hpp **** 
  11:src/../h/syscall_cpp.hpp **** 
  12:src/../h/syscall_cpp.hpp **** class Thread {
  13:src/../h/syscall_cpp.hpp **** public:
  14:src/../h/syscall_cpp.hpp ****     Thread(void (*body)(void *), void *arg);
  15:src/../h/syscall_cpp.hpp **** 
  16:src/../h/syscall_cpp.hpp ****     virtual ~Thread();
  17:src/../h/syscall_cpp.hpp **** 
  18:src/../h/syscall_cpp.hpp ****     int start();
  19:src/../h/syscall_cpp.hpp **** 
  20:src/../h/syscall_cpp.hpp ****     void join();
  21:src/../h/syscall_cpp.hpp **** 
  22:src/../h/syscall_cpp.hpp ****     void join(time_t);
  23:src/../h/syscall_cpp.hpp **** 
  24:src/../h/syscall_cpp.hpp ****     static int kill(Thread *);
  25:src/../h/syscall_cpp.hpp **** 
  26:src/../h/syscall_cpp.hpp ****     static void dispatch();
  27:src/../h/syscall_cpp.hpp **** 
  28:src/../h/syscall_cpp.hpp ****     static int sleep(time_t);
  29:src/../h/syscall_cpp.hpp **** 
  30:src/../h/syscall_cpp.hpp ****     static void threadStart(void *);
  31:src/../h/syscall_cpp.hpp **** 
  32:src/../h/syscall_cpp.hpp **** protected:
  33:src/../h/syscall_cpp.hpp ****     Thread();
  34:src/../h/syscall_cpp.hpp **** 
  35:src/../h/syscall_cpp.hpp ****     virtual void run() {}
  13              		.loc 1 35 18
  14              		.cfi_startproc
  15              	.LVL0:
  16 0000 130101FF 		addi	sp,sp,-16
  17              		.cfi_def_cfa_offset 16
  18 0004 23348100 		sd	s0,8(sp)
  19              		.cfi_offset 8, -8
  20 0008 13040101 		addi	s0,sp,16
  21              		.cfi_def_cfa 8, 0
  22              		.loc 1 35 25 is_stmt 0
  23 000c 03348100 		ld	s0,8(sp)
GAS LISTING /tmp/ccSTWq0T.s 			page 2


  24              		.cfi_restore 8
  25              		.cfi_def_cfa 2, 16
  26 0010 13010101 		addi	sp,sp,16
  27              		.cfi_def_cfa_offset 0
  28 0014 67800000 		jr	ra
  29              		.cfi_endproc
  30              	.LFE0:
  32              		.section	.text._ZN14PeriodicThread18periodicActivationEv,"axG",@progbits,_ZN14PeriodicThread18peri
  33              		.align	2
  34              		.weak	_ZN14PeriodicThread18periodicActivationEv
  36              	_ZN14PeriodicThread18periodicActivationEv:
  37              	.LFB4:
  36:src/../h/syscall_cpp.hpp **** 
  37:src/../h/syscall_cpp.hpp **** private:
  38:src/../h/syscall_cpp.hpp ****     thread_t myHandle;
  39:src/../h/syscall_cpp.hpp **** 
  40:src/../h/syscall_cpp.hpp ****     void (*body)(void *);
  41:src/../h/syscall_cpp.hpp **** 
  42:src/../h/syscall_cpp.hpp ****     void *arg;
  43:src/../h/syscall_cpp.hpp **** };
  44:src/../h/syscall_cpp.hpp **** 
  45:src/../h/syscall_cpp.hpp **** 
  46:src/../h/syscall_cpp.hpp **** class Semaphore {
  47:src/../h/syscall_cpp.hpp **** public:
  48:src/../h/syscall_cpp.hpp **** 
  49:src/../h/syscall_cpp.hpp ****     explicit Semaphore(unsigned init);
  50:src/../h/syscall_cpp.hpp **** 
  51:src/../h/syscall_cpp.hpp ****     virtual ~Semaphore();
  52:src/../h/syscall_cpp.hpp **** 
  53:src/../h/syscall_cpp.hpp ****     virtual int wait();
  54:src/../h/syscall_cpp.hpp **** 
  55:src/../h/syscall_cpp.hpp ****     virtual int signal();
  56:src/../h/syscall_cpp.hpp **** 
  57:src/../h/syscall_cpp.hpp ****     static int signal_and_wait(Semaphore &sem1, Semaphore &sem2);
  58:src/../h/syscall_cpp.hpp **** 
  59:src/../h/syscall_cpp.hpp **** protected:
  60:src/../h/syscall_cpp.hpp ****     sem_t myHandle;
  61:src/../h/syscall_cpp.hpp **** 
  62:src/../h/syscall_cpp.hpp **** };
  63:src/../h/syscall_cpp.hpp **** 
  64:src/../h/syscall_cpp.hpp **** class Mutex : public Semaphore {
  65:src/../h/syscall_cpp.hpp **** public:
  66:src/../h/syscall_cpp.hpp ****     Mutex() : Semaphore(1) {}
  67:src/../h/syscall_cpp.hpp **** };
  68:src/../h/syscall_cpp.hpp **** 
  69:src/../h/syscall_cpp.hpp **** 
  70:src/../h/syscall_cpp.hpp **** class PeriodicThread : public Thread {
  71:src/../h/syscall_cpp.hpp **** public:
  72:src/../h/syscall_cpp.hpp ****     void terminate();
  73:src/../h/syscall_cpp.hpp **** 
  74:src/../h/syscall_cpp.hpp **** protected:
  75:src/../h/syscall_cpp.hpp ****     explicit PeriodicThread(time_t period);
  76:src/../h/syscall_cpp.hpp **** 
  77:src/../h/syscall_cpp.hpp ****     virtual void periodicActivation() {}
  38              		.loc 1 77 18 is_stmt 1
  39              		.cfi_startproc
  40              	.LVL1:
GAS LISTING /tmp/ccSTWq0T.s 			page 3


  41 0000 130101FF 		addi	sp,sp,-16
  42              		.cfi_def_cfa_offset 16
  43 0004 23348100 		sd	s0,8(sp)
  44              		.cfi_offset 8, -8
  45 0008 13040101 		addi	s0,sp,16
  46              		.cfi_def_cfa 8, 0
  47              		.loc 1 77 40 is_stmt 0
  48 000c 03348100 		ld	s0,8(sp)
  49              		.cfi_restore 8
  50              		.cfi_def_cfa 2, 16
  51 0010 13010101 		addi	sp,sp,16
  52              		.cfi_def_cfa_offset 0
  53 0014 67800000 		jr	ra
  54              		.cfi_endproc
  55              	.LFE4:
  57              		.text
  58              		.align	2
  59              		.globl	_ZN6Thread11threadStartEPv
  61              	_ZN6Thread11threadStartEPv:
  62              	.LFB47:
  63              		.file 2 "src/syscall_cpp.cpp"
   1:src/syscall_cpp.cpp **** //
   2:src/syscall_cpp.cpp **** // Created by os on 5/27/23.
   3:src/syscall_cpp.cpp **** //
   4:src/syscall_cpp.cpp **** 
   5:src/syscall_cpp.cpp **** #include "../h/syscall_cpp.hpp"
   6:src/syscall_cpp.cpp **** #include "../h/c_thread.hpp"
   7:src/syscall_cpp.cpp **** 
   8:src/syscall_cpp.cpp **** void *operator new(size_t size) {
   9:src/syscall_cpp.cpp ****     return mem_alloc(size);
  10:src/syscall_cpp.cpp **** }
  11:src/syscall_cpp.cpp **** 
  12:src/syscall_cpp.cpp **** void *operator new[](size_t size) {
  13:src/syscall_cpp.cpp ****     return mem_alloc(size);
  14:src/syscall_cpp.cpp **** }
  15:src/syscall_cpp.cpp **** 
  16:src/syscall_cpp.cpp **** void operator delete(void *mem) {
  17:src/syscall_cpp.cpp ****     mem_free(mem);
  18:src/syscall_cpp.cpp **** }
  19:src/syscall_cpp.cpp **** 
  20:src/syscall_cpp.cpp **** void operator delete[](void *mem) {
  21:src/syscall_cpp.cpp ****     mem_free(mem);
  22:src/syscall_cpp.cpp **** }
  23:src/syscall_cpp.cpp **** 
  24:src/syscall_cpp.cpp **** Thread::Thread(void (*body)(void *), void *arg) {
  25:src/syscall_cpp.cpp ****     this->body = body;
  26:src/syscall_cpp.cpp ****     this->arg = arg;
  27:src/syscall_cpp.cpp **** }
  28:src/syscall_cpp.cpp **** 
  29:src/syscall_cpp.cpp **** Thread::~Thread() {
  30:src/syscall_cpp.cpp ****     if (myHandle->is_finished())
  31:src/syscall_cpp.cpp ****         delete myHandle;
  32:src/syscall_cpp.cpp **** }
  33:src/syscall_cpp.cpp **** 
  34:src/syscall_cpp.cpp **** int Thread::start() {
  35:src/syscall_cpp.cpp ****     return thread_create(&myHandle, &threadStart, this);
  36:src/syscall_cpp.cpp **** }
GAS LISTING /tmp/ccSTWq0T.s 			page 4


  37:src/syscall_cpp.cpp **** 
  38:src/syscall_cpp.cpp **** void Thread::join() {
  39:src/syscall_cpp.cpp ****     thread_join(myHandle);
  40:src/syscall_cpp.cpp **** }
  41:src/syscall_cpp.cpp **** 
  42:src/syscall_cpp.cpp **** void Thread::join(time_t time) {
  43:src/syscall_cpp.cpp ****     thread_join(myHandle, time);
  44:src/syscall_cpp.cpp **** }
  45:src/syscall_cpp.cpp **** 
  46:src/syscall_cpp.cpp **** int Thread::kill(Thread *thread) {
  47:src/syscall_cpp.cpp ****     return thread_kill(thread->myHandle);
  48:src/syscall_cpp.cpp **** }
  49:src/syscall_cpp.cpp **** 
  50:src/syscall_cpp.cpp **** void Thread::dispatch() {
  51:src/syscall_cpp.cpp ****     thread_dispatch();
  52:src/syscall_cpp.cpp **** }
  53:src/syscall_cpp.cpp **** 
  54:src/syscall_cpp.cpp **** int Thread::sleep(time_t ms) {
  55:src/syscall_cpp.cpp ****     return time_sleep(ms);
  56:src/syscall_cpp.cpp **** }
  57:src/syscall_cpp.cpp **** 
  58:src/syscall_cpp.cpp **** Thread::Thread() {
  59:src/syscall_cpp.cpp ****     this->body = nullptr;
  60:src/syscall_cpp.cpp ****     this->arg = nullptr;
  61:src/syscall_cpp.cpp **** }
  62:src/syscall_cpp.cpp **** 
  63:src/syscall_cpp.cpp **** void Thread::threadStart(void *arg) {
  64              		.loc 2 63 37 is_stmt 1
  65              		.cfi_startproc
  66              	.LVL2:
  67 0000 130101FF 		addi	sp,sp,-16
  68              		.cfi_def_cfa_offset 16
  69 0004 23341100 		sd	ra,8(sp)
  70 0008 23308100 		sd	s0,0(sp)
  71              		.cfi_offset 1, -8
  72              		.cfi_offset 8, -16
  73 000c 13040101 		addi	s0,sp,16
  74              		.cfi_def_cfa 8, 0
  64:src/syscall_cpp.cpp ****     Thread *thread = (Thread *) arg;
  75              		.loc 2 64 5
  76              	.LVL3:
  65:src/syscall_cpp.cpp ****     if (thread->body) {
  77              		.loc 2 65 5
  78              		.loc 2 65 17 is_stmt 0
  79 0010 83370501 		ld	a5,16(a0)
  80              		.loc 2 65 5
  81 0014 638E0700 		beqz	a5,.L6
  66:src/syscall_cpp.cpp ****         thread->body(thread->arg);
  82              		.loc 2 66 9 is_stmt 1
  83              		.loc 2 66 21 is_stmt 0
  84 0018 03358501 		ld	a0,24(a0)
  85              	.LVL4:
  86 001c E7800700 		jalr	a5
  87              	.LVL5:
  88              	.L5:
  67:src/syscall_cpp.cpp ****     } else {
  68:src/syscall_cpp.cpp ****         thread->run();
GAS LISTING /tmp/ccSTWq0T.s 			page 5


  69:src/syscall_cpp.cpp ****     }
  70:src/syscall_cpp.cpp **** }
  89              		.loc 2 70 1
  90 0020 83308100 		ld	ra,8(sp)
  91              		.cfi_remember_state
  92              		.cfi_restore 1
  93 0024 03340100 		ld	s0,0(sp)
  94              		.cfi_restore 8
  95              		.cfi_def_cfa 2, 16
  96 0028 13010101 		addi	sp,sp,16
  97              		.cfi_def_cfa_offset 0
  98 002c 67800000 		jr	ra
  99              	.LVL6:
 100              	.L6:
 101              		.cfi_restore_state
  68:src/syscall_cpp.cpp ****     }
 102              		.loc 2 68 9 is_stmt 1
  68:src/syscall_cpp.cpp ****     }
 103              		.loc 2 68 21 is_stmt 0
 104 0030 83370500 		ld	a5,0(a0)
 105 0034 83B70701 		ld	a5,16(a5)
  68:src/syscall_cpp.cpp ****     }
 106              		.loc 2 68 20
 107 0038 E7800700 		jalr	a5
 108              	.LVL7:
 109              		.loc 2 70 1
 110 003c 6FF05FFE 		j	.L5
 111              		.cfi_endproc
 112              	.LFE47:
 114              		.align	2
 115              		.globl	_ZN9SemaphoreD2Ev
 117              	_ZN9SemaphoreD2Ev:
 118              	.LFB52:
  71:src/syscall_cpp.cpp **** 
  72:src/syscall_cpp.cpp **** 
  73:src/syscall_cpp.cpp **** Semaphore::Semaphore(unsigned int init) {
  74:src/syscall_cpp.cpp ****     sem_open(&myHandle, init);
  75:src/syscall_cpp.cpp **** }
  76:src/syscall_cpp.cpp **** 
  77:src/syscall_cpp.cpp **** Semaphore::~Semaphore() {
 119              		.loc 2 77 1 is_stmt 1
 120              		.cfi_startproc
 121              		.cfi_personality 0x9b,DW.ref.__gxx_personality_v0
 122              		.cfi_lsda 0x1b,.LLSDA52
 123              	.LVL8:
 124 0040 130101FF 		addi	sp,sp,-16
 125              		.cfi_def_cfa_offset 16
 126 0044 23341100 		sd	ra,8(sp)
 127 0048 23308100 		sd	s0,0(sp)
 128              		.cfi_offset 1, -8
 129              		.cfi_offset 8, -16
 130 004c 13040101 		addi	s0,sp,16
 131              		.cfi_def_cfa 8, 0
 132              	.LBB8:
 133              		.loc 2 77 23 is_stmt 0
 134 0050 97070000 		lla	a5,_ZTV9Semaphore+16
 134      93870700 
GAS LISTING /tmp/ccSTWq0T.s 			page 6


 135 0058 2330F500 		sd	a5,0(a0)
  78:src/syscall_cpp.cpp ****     sem_close(myHandle);
 136              		.loc 2 78 5 is_stmt 1
 137              		.loc 2 78 14 is_stmt 0
 138 005c 03358500 		ld	a0,8(a0)
 139              	.LVL9:
 140 0060 97000000 		call	_Z9sem_closeP3Sem@plt
 140      E7800000 
 141              	.LVL10:
 142              	.LBE8:
  79:src/syscall_cpp.cpp **** }
 143              		.loc 2 79 1
 144 0068 83308100 		ld	ra,8(sp)
 145              		.cfi_restore 1
 146 006c 03340100 		ld	s0,0(sp)
 147              		.cfi_restore 8
 148              		.cfi_def_cfa 2, 16
 149 0070 13010101 		addi	sp,sp,16
 150              		.cfi_def_cfa_offset 0
 151 0074 67800000 		jr	ra
 152              		.cfi_endproc
 153              	.LFE52:
 154              		.globl	__gxx_personality_v0
 155              		.section	.gcc_except_table,"a",@progbits
 156              	.LLSDA52:
 157 0000 FF       		.byte	0xff
 158 0001 FF       		.byte	0xff
 159 0002 03       		.byte	0x3
 160 0003 00       		.byte	0
 161              		.text
 163              		.globl	_ZN9SemaphoreD1Ev
 164              		.set	_ZN9SemaphoreD1Ev,_ZN9SemaphoreD2Ev
 165              		.align	2
 166              		.globl	_ZN9Semaphore4waitEv
 168              	_ZN9Semaphore4waitEv:
 169              	.LFB55:
  80:src/syscall_cpp.cpp **** 
  81:src/syscall_cpp.cpp **** int Semaphore::wait() {
 170              		.loc 2 81 23 is_stmt 1
 171              		.cfi_startproc
 172              	.LVL11:
 173 0078 130101FF 		addi	sp,sp,-16
 174              		.cfi_def_cfa_offset 16
 175 007c 23341100 		sd	ra,8(sp)
 176 0080 23308100 		sd	s0,0(sp)
 177              		.cfi_offset 1, -8
 178              		.cfi_offset 8, -16
 179 0084 13040101 		addi	s0,sp,16
 180              		.cfi_def_cfa 8, 0
  82:src/syscall_cpp.cpp ****     return sem_wait(myHandle);
 181              		.loc 2 82 5
 182              		.loc 2 82 20 is_stmt 0
 183 0088 03358500 		ld	a0,8(a0)
 184              	.LVL12:
 185 008c 97000000 		call	_Z8sem_waitP3Sem@plt
 185      E7800000 
 186              	.LVL13:
GAS LISTING /tmp/ccSTWq0T.s 			page 7


  83:src/syscall_cpp.cpp **** }
 187              		.loc 2 83 1
 188 0094 83308100 		ld	ra,8(sp)
 189              		.cfi_restore 1
 190 0098 03340100 		ld	s0,0(sp)
 191              		.cfi_restore 8
 192              		.cfi_def_cfa 2, 16
 193 009c 13010101 		addi	sp,sp,16
 194              		.cfi_def_cfa_offset 0
 195 00a0 67800000 		jr	ra
 196              		.cfi_endproc
 197              	.LFE55:
 199              		.align	2
 200              		.globl	_ZN9Semaphore6signalEv
 202              	_ZN9Semaphore6signalEv:
 203              	.LFB56:
  84:src/syscall_cpp.cpp **** 
  85:src/syscall_cpp.cpp **** int Semaphore::signal() {
 204              		.loc 2 85 25 is_stmt 1
 205              		.cfi_startproc
 206              	.LVL14:
 207 00a4 130101FF 		addi	sp,sp,-16
 208              		.cfi_def_cfa_offset 16
 209 00a8 23341100 		sd	ra,8(sp)
 210 00ac 23308100 		sd	s0,0(sp)
 211              		.cfi_offset 1, -8
 212              		.cfi_offset 8, -16
 213 00b0 13040101 		addi	s0,sp,16
 214              		.cfi_def_cfa 8, 0
  86:src/syscall_cpp.cpp ****     return sem_signal(myHandle);
 215              		.loc 2 86 5
 216              		.loc 2 86 22 is_stmt 0
 217 00b4 03358500 		ld	a0,8(a0)
 218              	.LVL15:
 219 00b8 97000000 		call	_Z10sem_signalP3Sem@plt
 219      E7800000 
 220              	.LVL16:
  87:src/syscall_cpp.cpp **** }
 221              		.loc 2 87 1
 222 00c0 83308100 		ld	ra,8(sp)
 223              		.cfi_restore 1
 224 00c4 03340100 		ld	s0,0(sp)
 225              		.cfi_restore 8
 226              		.cfi_def_cfa 2, 16
 227 00c8 13010101 		addi	sp,sp,16
 228              		.cfi_def_cfa_offset 0
 229 00cc 67800000 		jr	ra
 230              		.cfi_endproc
 231              	.LFE56:
 233              		.align	2
 234              		.globl	_Znwm
 236              	_Znwm:
 237              	.LFB27:
   8:src/syscall_cpp.cpp ****     return mem_alloc(size);
 238              		.loc 2 8 33 is_stmt 1
 239              		.cfi_startproc
 240              	.LVL17:
GAS LISTING /tmp/ccSTWq0T.s 			page 8


 241 00d0 130101FF 		addi	sp,sp,-16
 242              		.cfi_def_cfa_offset 16
 243 00d4 23341100 		sd	ra,8(sp)
 244 00d8 23308100 		sd	s0,0(sp)
 245              		.cfi_offset 1, -8
 246              		.cfi_offset 8, -16
 247 00dc 13040101 		addi	s0,sp,16
 248              		.cfi_def_cfa 8, 0
   9:src/syscall_cpp.cpp **** }
 249              		.loc 2 9 5
   9:src/syscall_cpp.cpp **** }
 250              		.loc 2 9 21 is_stmt 0
 251 00e0 97000000 		call	_Z9mem_allocm@plt
 251      E7800000 
 252              	.LVL18:
  10:src/syscall_cpp.cpp **** 
 253              		.loc 2 10 1
 254 00e8 83308100 		ld	ra,8(sp)
 255              		.cfi_restore 1
 256 00ec 03340100 		ld	s0,0(sp)
 257              		.cfi_restore 8
 258              		.cfi_def_cfa 2, 16
 259 00f0 13010101 		addi	sp,sp,16
 260              		.cfi_def_cfa_offset 0
 261 00f4 67800000 		jr	ra
 262              		.cfi_endproc
 263              	.LFE27:
 265              		.align	2
 266              		.globl	_Znam
 268              	_Znam:
 269              	.LFB28:
  12:src/syscall_cpp.cpp ****     return mem_alloc(size);
 270              		.loc 2 12 35 is_stmt 1
 271              		.cfi_startproc
 272              	.LVL19:
 273 00f8 130101FF 		addi	sp,sp,-16
 274              		.cfi_def_cfa_offset 16
 275 00fc 23341100 		sd	ra,8(sp)
 276 0100 23308100 		sd	s0,0(sp)
 277              		.cfi_offset 1, -8
 278              		.cfi_offset 8, -16
 279 0104 13040101 		addi	s0,sp,16
 280              		.cfi_def_cfa 8, 0
  13:src/syscall_cpp.cpp **** }
 281              		.loc 2 13 5
  13:src/syscall_cpp.cpp **** }
 282              		.loc 2 13 21 is_stmt 0
 283 0108 97000000 		call	_Z9mem_allocm@plt
 283      E7800000 
 284              	.LVL20:
  14:src/syscall_cpp.cpp **** 
 285              		.loc 2 14 1
 286 0110 83308100 		ld	ra,8(sp)
 287              		.cfi_restore 1
 288 0114 03340100 		ld	s0,0(sp)
 289              		.cfi_restore 8
 290              		.cfi_def_cfa 2, 16
GAS LISTING /tmp/ccSTWq0T.s 			page 9


 291 0118 13010101 		addi	sp,sp,16
 292              		.cfi_def_cfa_offset 0
 293 011c 67800000 		jr	ra
 294              		.cfi_endproc
 295              	.LFE28:
 297              		.align	2
 298              		.globl	_ZdlPv
 300              	_ZdlPv:
 301              	.LFB29:
  16:src/syscall_cpp.cpp ****     mem_free(mem);
 302              		.loc 2 16 33 is_stmt 1
 303              		.cfi_startproc
 304              	.LVL21:
 305 0120 130101FF 		addi	sp,sp,-16
 306              		.cfi_def_cfa_offset 16
 307 0124 23341100 		sd	ra,8(sp)
 308 0128 23308100 		sd	s0,0(sp)
 309              		.cfi_offset 1, -8
 310              		.cfi_offset 8, -16
 311 012c 13040101 		addi	s0,sp,16
 312              		.cfi_def_cfa 8, 0
  17:src/syscall_cpp.cpp **** }
 313              		.loc 2 17 5
  17:src/syscall_cpp.cpp **** }
 314              		.loc 2 17 13 is_stmt 0
 315 0130 97000000 		call	_Z8mem_freePv@plt
 315      E7800000 
 316              	.LVL22:
  18:src/syscall_cpp.cpp **** 
 317              		.loc 2 18 1
 318 0138 83308100 		ld	ra,8(sp)
 319              		.cfi_restore 1
 320 013c 03340100 		ld	s0,0(sp)
 321              		.cfi_restore 8
 322              		.cfi_def_cfa 2, 16
 323 0140 13010101 		addi	sp,sp,16
 324              		.cfi_def_cfa_offset 0
 325 0144 67800000 		jr	ra
 326              		.cfi_endproc
 327              	.LFE29:
 329              		.align	2
 330              		.globl	_ZN6ThreadD2Ev
 332              	_ZN6ThreadD2Ev:
 333              	.LFB35:
  29:src/syscall_cpp.cpp ****     if (myHandle->is_finished())
 334              		.loc 2 29 1 is_stmt 1
 335              		.cfi_startproc
 336              		.cfi_personality 0x9b,DW.ref.__gxx_personality_v0
 337              		.cfi_lsda 0x1b,.LLSDA35
 338              	.LVL23:
 339              	.LBB9:
  29:src/syscall_cpp.cpp ****     if (myHandle->is_finished())
 340              		.loc 2 29 17 is_stmt 0
 341 0148 97070000 		lla	a5,_ZTV6Thread+16
 341      93870700 
 342 0150 2330F500 		sd	a5,0(a0)
  30:src/syscall_cpp.cpp ****         delete myHandle;
GAS LISTING /tmp/ccSTWq0T.s 			page 10


 343              		.loc 2 30 5 is_stmt 1
  30:src/syscall_cpp.cpp ****         delete myHandle;
 344              		.loc 2 30 9 is_stmt 0
 345 0154 03358500 		ld	a0,8(a0)
 346              	.LVL24:
 347              	.LBB10:
 348              	.LBB11:
 349              		.file 3 "src/../h/c_thread.hpp"
   1:src/../h/c_thread.hpp **** #ifndef PROJECT_BASE_C_THREAD_HPP
   2:src/../h/c_thread.hpp **** #define PROJECT_BASE_C_THREAD_HPP
   3:src/../h/c_thread.hpp **** 
   4:src/../h/c_thread.hpp **** #include "syscall_c.hpp"
   5:src/../h/c_thread.hpp **** #include "../lib/hw.h"
   6:src/../h/c_thread.hpp **** #include "circular_buffer.hpp"
   7:src/../h/c_thread.hpp **** 
   8:src/../h/c_thread.hpp **** using run_t = void (*)(void *);
   9:src/../h/c_thread.hpp **** 
  10:src/../h/c_thread.hpp **** struct Context {
  11:src/../h/c_thread.hpp ****     uint64 ra;
  12:src/../h/c_thread.hpp ****     uint64 sp;
  13:src/../h/c_thread.hpp ****     uint64 sstatus;
  14:src/../h/c_thread.hpp ****     uint64 sepc;
  15:src/../h/c_thread.hpp **** };
  16:src/../h/c_thread.hpp **** 
  17:src/../h/c_thread.hpp **** enum Status {
  18:src/../h/c_thread.hpp ****     RUNNABLE, BLOCKED, SLEEPING, JOINED, FINISHED
  19:src/../h/c_thread.hpp **** };
  20:src/../h/c_thread.hpp **** 
  21:src/../h/c_thread.hpp **** class TCB final {
  22:src/../h/c_thread.hpp **** public:
  23:src/../h/c_thread.hpp ****     static int _thread_create(thread_t *, void(*)(void *), void *, void *);
  24:src/../h/c_thread.hpp **** 
  25:src/../h/c_thread.hpp ****     static void _thread_exit();
  26:src/../h/c_thread.hpp **** 
  27:src/../h/c_thread.hpp ****     static void _thread_dispatch();
  28:src/../h/c_thread.hpp **** 
  29:src/../h/c_thread.hpp ****     static void _thread_join(thread_t);
  30:src/../h/c_thread.hpp **** 
  31:src/../h/c_thread.hpp ****     static void _thread_join_time(thread_t, time_t);
  32:src/../h/c_thread.hpp **** 
  33:src/../h/c_thread.hpp ****     static int _fork();
  34:src/../h/c_thread.hpp **** 
  35:src/../h/c_thread.hpp ****     static int _kill(TCB *);
  36:src/../h/c_thread.hpp **** 
  37:src/../h/c_thread.hpp ****     static void thread_start();
  38:src/../h/c_thread.hpp **** 
  39:src/../h/c_thread.hpp ****     static void context_switch(Context *, Context *);
  40:src/../h/c_thread.hpp **** 
  41:src/../h/c_thread.hpp ****     static void context_inherit(Context*);
  42:src/../h/c_thread.hpp **** 
  43:src/../h/c_thread.hpp ****     static TCB *destroy_thread(TCB *);
  44:src/../h/c_thread.hpp **** 
  45:src/../h/c_thread.hpp ****     static void duplicate(TCB *, TCB *);
  46:src/../h/c_thread.hpp **** 
  47:src/../h/c_thread.hpp ****     TCB(run_t, void *, void *, Context);
  48:src/../h/c_thread.hpp **** 
  49:src/../h/c_thread.hpp ****     TCB(TCB &);
GAS LISTING /tmp/ccSTWq0T.s 			page 11


  50:src/../h/c_thread.hpp **** 
  51:src/../h/c_thread.hpp ****     bool is_runnable() const { return this->status == RUNNABLE; }
  52:src/../h/c_thread.hpp **** 
  53:src/../h/c_thread.hpp ****     bool is_blocked() const { return this->status == BLOCKED; }
  54:src/../h/c_thread.hpp **** 
  55:src/../h/c_thread.hpp ****     bool is_sleeping() const { return this->status == SLEEPING; }
  56:src/../h/c_thread.hpp **** 
  57:src/../h/c_thread.hpp ****     bool is_joined() const { return this->status == JOINED; }
  58:src/../h/c_thread.hpp **** 
  59:src/../h/c_thread.hpp ****     bool is_finished() const { return this->status == FINISHED; }
 350              		.loc 3 59 32 is_stmt 1
 351              		.loc 3 59 45 is_stmt 0
 352 0158 03278504 		lw	a4,72(a0)
 353              	.LVL25:
 354              	.LBE11:
 355              	.LBE10:
  30:src/syscall_cpp.cpp ****         delete myHandle;
 356              		.loc 2 30 5
 357 015c 93074000 		li	a5,4
 358 0160 6304F700 		beq	a4,a5,.L27
 359              	.L24:
 360 0164 67800000 		ret
 361              	.L27:
  31:src/syscall_cpp.cpp **** }
 362              		.loc 2 31 9 is_stmt 1
  31:src/syscall_cpp.cpp **** }
 363              		.loc 2 31 24 is_stmt 0
 364 0168 E30E05FE 		beqz	a0,.L24
 365              	.LBE9:
  29:src/syscall_cpp.cpp ****     if (myHandle->is_finished())
 366              		.loc 2 29 1 discriminator 1
 367 016c 130101FF 		addi	sp,sp,-16
 368              		.cfi_def_cfa_offset 16
 369 0170 23341100 		sd	ra,8(sp)
 370 0174 23308100 		sd	s0,0(sp)
 371              		.cfi_offset 1, -8
 372              		.cfi_offset 8, -16
 373 0178 13040101 		addi	s0,sp,16
 374              		.cfi_def_cfa 8, 0
 375              	.LBB12:
  31:src/syscall_cpp.cpp **** }
 376              		.loc 2 31 16 discriminator 1
 377 017c 97000000 		call	_ZdlPv
 377      E7800000 
 378              	.LVL26:
 379              	.LBE12:
  32:src/syscall_cpp.cpp **** 
 380              		.loc 2 32 1 discriminator 1
 381 0184 83308100 		ld	ra,8(sp)
 382              		.cfi_restore 1
 383 0188 03340100 		ld	s0,0(sp)
 384              		.cfi_restore 8
 385              		.cfi_def_cfa 2, 16
 386 018c 13010101 		addi	sp,sp,16
 387              		.cfi_def_cfa_offset 0
 388 0190 67800000 		jr	ra
 389              		.cfi_endproc
GAS LISTING /tmp/ccSTWq0T.s 			page 12


 390              	.LFE35:
 391              		.section	.gcc_except_table
 392              	.LLSDA35:
 393 0004 FF       		.byte	0xff
 394 0005 FF       		.byte	0xff
 395 0006 03       		.byte	0x3
 396 0007 00       		.byte	0
 397              		.text
 399              		.globl	_ZN6ThreadD1Ev
 400              		.set	_ZN6ThreadD1Ev,_ZN6ThreadD2Ev
 401              		.section	.text._ZN14PeriodicThreadD2Ev,"axG",@progbits,_ZN14PeriodicThreadD5Ev,comdat
 402              		.align	2
 403              		.weak	_ZN14PeriodicThreadD2Ev
 405              	_ZN14PeriodicThreadD2Ev:
 406              	.LFB66:
  70:src/../h/syscall_cpp.hpp **** public:
 407              		.loc 1 70 7 is_stmt 1
 408              		.cfi_startproc
 409              	.LVL27:
 410 0000 130101FF 		addi	sp,sp,-16
 411              		.cfi_def_cfa_offset 16
 412 0004 23341100 		sd	ra,8(sp)
 413 0008 23308100 		sd	s0,0(sp)
 414              		.cfi_offset 1, -8
 415              		.cfi_offset 8, -16
 416 000c 13040101 		addi	s0,sp,16
 417              		.cfi_def_cfa 8, 0
 418              	.LBB13:
  70:src/../h/syscall_cpp.hpp **** public:
 419              		.loc 1 70 7 is_stmt 0
 420 0010 97070000 		lla	a5,_ZTV14PeriodicThread+16
 420      93870700 
 421 0018 2330F500 		sd	a5,0(a0)
 422 001c 97000000 		call	_ZN6ThreadD2Ev
 422      E7800000 
 423              	.LVL28:
 424              	.LBE13:
 425 0024 83308100 		ld	ra,8(sp)
 426              		.cfi_restore 1
 427 0028 03340100 		ld	s0,0(sp)
 428              		.cfi_restore 8
 429              		.cfi_def_cfa 2, 16
 430 002c 13010101 		addi	sp,sp,16
 431              		.cfi_def_cfa_offset 0
 432 0030 67800000 		jr	ra
 433              		.cfi_endproc
 434              	.LFE66:
 436              		.weak	_ZN14PeriodicThreadD1Ev
 437              		.set	_ZN14PeriodicThreadD1Ev,_ZN14PeriodicThreadD2Ev
 438              		.text
 439              		.align	2
 440              		.globl	_ZN6ThreadD0Ev
 442              	_ZN6ThreadD0Ev:
 443              	.LFB37:
  29:src/syscall_cpp.cpp ****     if (myHandle->is_finished())
 444              		.loc 2 29 1 is_stmt 1
 445              		.cfi_startproc
GAS LISTING /tmp/ccSTWq0T.s 			page 13


 446              	.LVL29:
 447 0194 130101FE 		addi	sp,sp,-32
 448              		.cfi_def_cfa_offset 32
 449 0198 233C1100 		sd	ra,24(sp)
 450 019c 23388100 		sd	s0,16(sp)
 451 01a0 23349100 		sd	s1,8(sp)
 452              		.cfi_offset 1, -8
 453              		.cfi_offset 8, -16
 454              		.cfi_offset 9, -24
 455 01a4 13040102 		addi	s0,sp,32
 456              		.cfi_def_cfa 8, 0
 457 01a8 93040500 		mv	s1,a0
  32:src/syscall_cpp.cpp **** 
 458              		.loc 2 32 1 is_stmt 0
 459 01ac 97000000 		call	_ZN6ThreadD1Ev
 459      E7800000 
 460              	.LVL30:
 461 01b4 13850400 		mv	a0,s1
 462 01b8 97000000 		call	_ZdlPv
 462      E7800000 
 463              	.LVL31:
 464 01c0 83308101 		ld	ra,24(sp)
 465              		.cfi_restore 1
 466 01c4 03340101 		ld	s0,16(sp)
 467              		.cfi_restore 8
 468              		.cfi_def_cfa 2, 32
 469 01c8 83348100 		ld	s1,8(sp)
 470              		.cfi_restore 9
 471              	.LVL32:
 472 01cc 13010102 		addi	sp,sp,32
 473              		.cfi_def_cfa_offset 0
 474 01d0 67800000 		jr	ra
 475              		.cfi_endproc
 476              	.LFE37:
 478              		.align	2
 479              		.globl	_ZN9SemaphoreD0Ev
 481              	_ZN9SemaphoreD0Ev:
 482              	.LFB54:
  77:src/syscall_cpp.cpp ****     sem_close(myHandle);
 483              		.loc 2 77 1 is_stmt 1
 484              		.cfi_startproc
 485              	.LVL33:
 486 01d4 130101FE 		addi	sp,sp,-32
 487              		.cfi_def_cfa_offset 32
 488 01d8 233C1100 		sd	ra,24(sp)
 489 01dc 23388100 		sd	s0,16(sp)
 490 01e0 23349100 		sd	s1,8(sp)
 491              		.cfi_offset 1, -8
 492              		.cfi_offset 8, -16
 493              		.cfi_offset 9, -24
 494 01e4 13040102 		addi	s0,sp,32
 495              		.cfi_def_cfa 8, 0
 496 01e8 93040500 		mv	s1,a0
  79:src/syscall_cpp.cpp **** 
 497              		.loc 2 79 1 is_stmt 0
 498 01ec 97000000 		call	_ZN9SemaphoreD1Ev
 498      E7800000 
GAS LISTING /tmp/ccSTWq0T.s 			page 14


 499              	.LVL34:
 500 01f4 13850400 		mv	a0,s1
 501 01f8 97000000 		call	_ZdlPv
 501      E7800000 
 502              	.LVL35:
 503 0200 83308101 		ld	ra,24(sp)
 504              		.cfi_restore 1
 505 0204 03340101 		ld	s0,16(sp)
 506              		.cfi_restore 8
 507              		.cfi_def_cfa 2, 32
 508 0208 83348100 		ld	s1,8(sp)
 509              		.cfi_restore 9
 510              	.LVL36:
 511 020c 13010102 		addi	sp,sp,32
 512              		.cfi_def_cfa_offset 0
 513 0210 67800000 		jr	ra
 514              		.cfi_endproc
 515              	.LFE54:
 517              		.section	.text._ZN14PeriodicThreadD0Ev,"axG",@progbits,_ZN14PeriodicThreadD5Ev,comdat
 518              		.align	2
 519              		.weak	_ZN14PeriodicThreadD0Ev
 521              	_ZN14PeriodicThreadD0Ev:
 522              	.LFB68:
  70:src/../h/syscall_cpp.hpp **** public:
 523              		.loc 1 70 7 is_stmt 1
 524              		.cfi_startproc
 525              	.LVL37:
 526 0000 130101FE 		addi	sp,sp,-32
 527              		.cfi_def_cfa_offset 32
 528 0004 233C1100 		sd	ra,24(sp)
 529 0008 23388100 		sd	s0,16(sp)
 530 000c 23349100 		sd	s1,8(sp)
 531              		.cfi_offset 1, -8
 532              		.cfi_offset 8, -16
 533              		.cfi_offset 9, -24
 534 0010 13040102 		addi	s0,sp,32
 535              		.cfi_def_cfa 8, 0
 536 0014 93040500 		mv	s1,a0
 537              	.LVL38:
 538              	.LBB14:
 539              	.LBB15:
  70:src/../h/syscall_cpp.hpp **** public:
 540              		.loc 1 70 7 is_stmt 0
 541 0018 97070000 		lla	a5,_ZTV14PeriodicThread+16
 541      93870700 
 542 0020 2330F500 		sd	a5,0(a0)
 543 0024 97000000 		call	_ZN6ThreadD2Ev
 543      E7800000 
 544              	.LVL39:
 545              	.LBE15:
 546              	.LBE14:
 547 002c 13850400 		mv	a0,s1
 548 0030 97000000 		call	_ZdlPv
 548      E7800000 
 549              	.LVL40:
 550 0038 83308101 		ld	ra,24(sp)
 551              		.cfi_restore 1
GAS LISTING /tmp/ccSTWq0T.s 			page 15


 552 003c 03340101 		ld	s0,16(sp)
 553              		.cfi_restore 8
 554              		.cfi_def_cfa 2, 32
 555 0040 83348100 		ld	s1,8(sp)
 556              		.cfi_restore 9
 557              	.LVL41:
 558 0044 13010102 		addi	sp,sp,32
 559              		.cfi_def_cfa_offset 0
 560 0048 67800000 		jr	ra
 561              		.cfi_endproc
 562              	.LFE68:
 564              		.text
 565              		.align	2
 566              		.globl	_ZdaPv
 568              	_ZdaPv:
 569              	.LFB30:
  20:src/syscall_cpp.cpp ****     mem_free(mem);
 570              		.loc 2 20 35 is_stmt 1
 571              		.cfi_startproc
 572              	.LVL42:
 573 0214 130101FF 		addi	sp,sp,-16
 574              		.cfi_def_cfa_offset 16
 575 0218 23341100 		sd	ra,8(sp)
 576 021c 23308100 		sd	s0,0(sp)
 577              		.cfi_offset 1, -8
 578              		.cfi_offset 8, -16
 579 0220 13040101 		addi	s0,sp,16
 580              		.cfi_def_cfa 8, 0
  21:src/syscall_cpp.cpp **** }
 581              		.loc 2 21 5
  21:src/syscall_cpp.cpp **** }
 582              		.loc 2 21 13 is_stmt 0
 583 0224 97000000 		call	_Z8mem_freePv@plt
 583      E7800000 
 584              	.LVL43:
  22:src/syscall_cpp.cpp **** 
 585              		.loc 2 22 1
 586 022c 83308100 		ld	ra,8(sp)
 587              		.cfi_restore 1
 588 0230 03340100 		ld	s0,0(sp)
 589              		.cfi_restore 8
 590              		.cfi_def_cfa 2, 16
 591 0234 13010101 		addi	sp,sp,16
 592              		.cfi_def_cfa_offset 0
 593 0238 67800000 		jr	ra
 594              		.cfi_endproc
 595              	.LFE30:
 597              		.align	2
 598              		.globl	_ZN6ThreadC2EPFvPvES0_
 600              	_ZN6ThreadC2EPFvPvES0_:
 601              	.LFB32:
  24:src/syscall_cpp.cpp ****     this->body = body;
 602              		.loc 2 24 1 is_stmt 1
 603              		.cfi_startproc
 604              	.LVL44:
 605 023c 130101FF 		addi	sp,sp,-16
 606              		.cfi_def_cfa_offset 16
GAS LISTING /tmp/ccSTWq0T.s 			page 16


 607 0240 23348100 		sd	s0,8(sp)
 608              		.cfi_offset 8, -8
 609 0244 13040101 		addi	s0,sp,16
 610              		.cfi_def_cfa 8, 0
 611              	.LBB16:
  24:src/syscall_cpp.cpp ****     this->body = body;
 612              		.loc 2 24 47 is_stmt 0
 613 0248 97070000 		lla	a5,_ZTV6Thread+16
 613      93870700 
 614 0250 2330F500 		sd	a5,0(a0)
  25:src/syscall_cpp.cpp ****     this->arg = arg;
 615              		.loc 2 25 5 is_stmt 1
  25:src/syscall_cpp.cpp ****     this->arg = arg;
 616              		.loc 2 25 16 is_stmt 0
 617 0254 2338B500 		sd	a1,16(a0)
  26:src/syscall_cpp.cpp **** }
 618              		.loc 2 26 5 is_stmt 1
  26:src/syscall_cpp.cpp **** }
 619              		.loc 2 26 15 is_stmt 0
 620 0258 233CC500 		sd	a2,24(a0)
 621              	.LBE16:
  27:src/syscall_cpp.cpp **** 
 622              		.loc 2 27 1
 623 025c 03348100 		ld	s0,8(sp)
 624              		.cfi_restore 8
 625              		.cfi_def_cfa 2, 16
 626 0260 13010101 		addi	sp,sp,16
 627              		.cfi_def_cfa_offset 0
 628 0264 67800000 		jr	ra
 629              		.cfi_endproc
 630              	.LFE32:
 632              		.globl	_ZN6ThreadC1EPFvPvES0_
 633              		.set	_ZN6ThreadC1EPFvPvES0_,_ZN6ThreadC2EPFvPvES0_
 634              		.align	2
 635              		.globl	_ZN6Thread5startEv
 637              	_ZN6Thread5startEv:
 638              	.LFB38:
  34:src/syscall_cpp.cpp ****     return thread_create(&myHandle, &threadStart, this);
 639              		.loc 2 34 21 is_stmt 1
 640              		.cfi_startproc
 641              	.LVL45:
 642 0268 130101FF 		addi	sp,sp,-16
 643              		.cfi_def_cfa_offset 16
 644 026c 23341100 		sd	ra,8(sp)
 645 0270 23308100 		sd	s0,0(sp)
 646              		.cfi_offset 1, -8
 647              		.cfi_offset 8, -16
 648 0274 13040101 		addi	s0,sp,16
 649              		.cfi_def_cfa 8, 0
  35:src/syscall_cpp.cpp **** }
 650              		.loc 2 35 5
  35:src/syscall_cpp.cpp **** }
 651              		.loc 2 35 25 is_stmt 0
 652 0278 13060500 		mv	a2,a0
 653 027c 97050000 		lla	a1,_ZN6Thread11threadStartEPv
 653      93850500 
 654 0284 13058500 		addi	a0,a0,8
GAS LISTING /tmp/ccSTWq0T.s 			page 17


 655              	.LVL46:
 656 0288 97000000 		call	_Z13thread_createPP3TCBPFvPvES2_@plt
 656      E7800000 
 657              	.LVL47:
  36:src/syscall_cpp.cpp **** 
 658              		.loc 2 36 1
 659 0290 83308100 		ld	ra,8(sp)
 660              		.cfi_restore 1
 661 0294 03340100 		ld	s0,0(sp)
 662              		.cfi_restore 8
 663              		.cfi_def_cfa 2, 16
 664 0298 13010101 		addi	sp,sp,16
 665              		.cfi_def_cfa_offset 0
 666 029c 67800000 		jr	ra
 667              		.cfi_endproc
 668              	.LFE38:
 670              		.align	2
 671              		.globl	_ZN6Thread4joinEv
 673              	_ZN6Thread4joinEv:
 674              	.LFB39:
  38:src/syscall_cpp.cpp ****     thread_join(myHandle);
 675              		.loc 2 38 21 is_stmt 1
 676              		.cfi_startproc
 677              	.LVL48:
 678 02a0 130101FF 		addi	sp,sp,-16
 679              		.cfi_def_cfa_offset 16
 680 02a4 23341100 		sd	ra,8(sp)
 681 02a8 23308100 		sd	s0,0(sp)
 682              		.cfi_offset 1, -8
 683              		.cfi_offset 8, -16
 684 02ac 13040101 		addi	s0,sp,16
 685              		.cfi_def_cfa 8, 0
  39:src/syscall_cpp.cpp **** }
 686              		.loc 2 39 5
  39:src/syscall_cpp.cpp **** }
 687              		.loc 2 39 16 is_stmt 0
 688 02b0 03358500 		ld	a0,8(a0)
 689              	.LVL49:
 690 02b4 97000000 		call	_Z11thread_joinP3TCB@plt
 690      E7800000 
 691              	.LVL50:
  40:src/syscall_cpp.cpp **** 
 692              		.loc 2 40 1
 693 02bc 83308100 		ld	ra,8(sp)
 694              		.cfi_restore 1
 695 02c0 03340100 		ld	s0,0(sp)
 696              		.cfi_restore 8
 697              		.cfi_def_cfa 2, 16
 698 02c4 13010101 		addi	sp,sp,16
 699              		.cfi_def_cfa_offset 0
 700 02c8 67800000 		jr	ra
 701              		.cfi_endproc
 702              	.LFE39:
 704              		.align	2
 705              		.globl	_ZN6Thread4joinEm
 707              	_ZN6Thread4joinEm:
 708              	.LFB40:
GAS LISTING /tmp/ccSTWq0T.s 			page 18


  42:src/syscall_cpp.cpp ****     thread_join(myHandle, time);
 709              		.loc 2 42 32 is_stmt 1
 710              		.cfi_startproc
 711              	.LVL51:
 712 02cc 130101FF 		addi	sp,sp,-16
 713              		.cfi_def_cfa_offset 16
 714 02d0 23341100 		sd	ra,8(sp)
 715 02d4 23308100 		sd	s0,0(sp)
 716              		.cfi_offset 1, -8
 717              		.cfi_offset 8, -16
 718 02d8 13040101 		addi	s0,sp,16
 719              		.cfi_def_cfa 8, 0
  43:src/syscall_cpp.cpp **** }
 720              		.loc 2 43 5
  43:src/syscall_cpp.cpp **** }
 721              		.loc 2 43 16 is_stmt 0
 722 02dc 03358500 		ld	a0,8(a0)
 723              	.LVL52:
 724 02e0 97000000 		call	_Z11thread_joinP3TCBm@plt
 724      E7800000 
 725              	.LVL53:
  44:src/syscall_cpp.cpp **** 
 726              		.loc 2 44 1
 727 02e8 83308100 		ld	ra,8(sp)
 728              		.cfi_restore 1
 729 02ec 03340100 		ld	s0,0(sp)
 730              		.cfi_restore 8
 731              		.cfi_def_cfa 2, 16
 732 02f0 13010101 		addi	sp,sp,16
 733              		.cfi_def_cfa_offset 0
 734 02f4 67800000 		jr	ra
 735              		.cfi_endproc
 736              	.LFE40:
 738              		.align	2
 739              		.globl	_ZN6Thread4killEPS_
 741              	_ZN6Thread4killEPS_:
 742              	.LFB41:
  46:src/syscall_cpp.cpp ****     return thread_kill(thread->myHandle);
 743              		.loc 2 46 34 is_stmt 1
 744              		.cfi_startproc
 745              	.LVL54:
 746 02f8 130101FF 		addi	sp,sp,-16
 747              		.cfi_def_cfa_offset 16
 748 02fc 23341100 		sd	ra,8(sp)
 749 0300 23308100 		sd	s0,0(sp)
 750              		.cfi_offset 1, -8
 751              		.cfi_offset 8, -16
 752 0304 13040101 		addi	s0,sp,16
 753              		.cfi_def_cfa 8, 0
  47:src/syscall_cpp.cpp **** }
 754              		.loc 2 47 5
  47:src/syscall_cpp.cpp **** }
 755              		.loc 2 47 23 is_stmt 0
 756 0308 03358500 		ld	a0,8(a0)
 757              	.LVL55:
 758 030c 97000000 		call	_Z11thread_killP3TCB@plt
 758      E7800000 
GAS LISTING /tmp/ccSTWq0T.s 			page 19


 759              	.LVL56:
  48:src/syscall_cpp.cpp **** 
 760              		.loc 2 48 1
 761 0314 83308100 		ld	ra,8(sp)
 762              		.cfi_restore 1
 763 0318 03340100 		ld	s0,0(sp)
 764              		.cfi_restore 8
 765              		.cfi_def_cfa 2, 16
 766 031c 13010101 		addi	sp,sp,16
 767              		.cfi_def_cfa_offset 0
 768 0320 67800000 		jr	ra
 769              		.cfi_endproc
 770              	.LFE41:
 772              		.align	2
 773              		.globl	_ZN6Thread8dispatchEv
 775              	_ZN6Thread8dispatchEv:
 776              	.LFB42:
  50:src/syscall_cpp.cpp ****     thread_dispatch();
 777              		.loc 2 50 25 is_stmt 1
 778              		.cfi_startproc
 779 0324 130101FF 		addi	sp,sp,-16
 780              		.cfi_def_cfa_offset 16
 781 0328 23341100 		sd	ra,8(sp)
 782 032c 23308100 		sd	s0,0(sp)
 783              		.cfi_offset 1, -8
 784              		.cfi_offset 8, -16
 785 0330 13040101 		addi	s0,sp,16
 786              		.cfi_def_cfa 8, 0
  51:src/syscall_cpp.cpp **** }
 787              		.loc 2 51 5
  51:src/syscall_cpp.cpp **** }
 788              		.loc 2 51 20 is_stmt 0
 789 0334 97000000 		call	_Z15thread_dispatchv@plt
 789      E7800000 
 790              	.LVL57:
  52:src/syscall_cpp.cpp **** 
 791              		.loc 2 52 1
 792 033c 83308100 		ld	ra,8(sp)
 793              		.cfi_restore 1
 794 0340 03340100 		ld	s0,0(sp)
 795              		.cfi_restore 8
 796              		.cfi_def_cfa 2, 16
 797 0344 13010101 		addi	sp,sp,16
 798              		.cfi_def_cfa_offset 0
 799 0348 67800000 		jr	ra
 800              		.cfi_endproc
 801              	.LFE42:
 803              		.align	2
 804              		.globl	_ZN6Thread5sleepEm
 806              	_ZN6Thread5sleepEm:
 807              	.LFB43:
  54:src/syscall_cpp.cpp ****     return time_sleep(ms);
 808              		.loc 2 54 30 is_stmt 1
 809              		.cfi_startproc
 810              	.LVL58:
 811 034c 130101FF 		addi	sp,sp,-16
 812              		.cfi_def_cfa_offset 16
GAS LISTING /tmp/ccSTWq0T.s 			page 20


 813 0350 23341100 		sd	ra,8(sp)
 814 0354 23308100 		sd	s0,0(sp)
 815              		.cfi_offset 1, -8
 816              		.cfi_offset 8, -16
 817 0358 13040101 		addi	s0,sp,16
 818              		.cfi_def_cfa 8, 0
  55:src/syscall_cpp.cpp **** }
 819              		.loc 2 55 5
  55:src/syscall_cpp.cpp **** }
 820              		.loc 2 55 22 is_stmt 0
 821 035c 97000000 		call	_Z10time_sleepm@plt
 821      E7800000 
 822              	.LVL59:
  56:src/syscall_cpp.cpp **** 
 823              		.loc 2 56 1
 824 0364 83308100 		ld	ra,8(sp)
 825              		.cfi_restore 1
 826 0368 03340100 		ld	s0,0(sp)
 827              		.cfi_restore 8
 828              		.cfi_def_cfa 2, 16
 829 036c 13010101 		addi	sp,sp,16
 830              		.cfi_def_cfa_offset 0
 831 0370 67800000 		jr	ra
 832              		.cfi_endproc
 833              	.LFE43:
 835              		.align	2
 836              		.globl	_ZN14PeriodicThread3runEv
 838              	_ZN14PeriodicThread3runEv:
 839              	.LFB62:
  88:src/syscall_cpp.cpp **** 
  89:src/syscall_cpp.cpp **** int Semaphore::signal_and_wait(Semaphore &sem1, Semaphore &sem2) {
  90:src/syscall_cpp.cpp ****     return ::signal_and_wait(sem1.myHandle, sem2.myHandle);
  91:src/syscall_cpp.cpp **** }
  92:src/syscall_cpp.cpp **** 
  93:src/syscall_cpp.cpp **** void PeriodicThread::terminate() {
  94:src/syscall_cpp.cpp ****     this->period = 0;
  95:src/syscall_cpp.cpp **** }
  96:src/syscall_cpp.cpp **** 
  97:src/syscall_cpp.cpp **** PeriodicThread::PeriodicThread(time_t period) {
  98:src/syscall_cpp.cpp ****     this->period = period;
  99:src/syscall_cpp.cpp **** }
 100:src/syscall_cpp.cpp **** 
 101:src/syscall_cpp.cpp **** void PeriodicThread::run() {
 840              		.loc 2 101 28 is_stmt 1
 841              		.cfi_startproc
 842              	.LVL60:
 843 0374 130101FE 		addi	sp,sp,-32
 844              		.cfi_def_cfa_offset 32
 845 0378 233C1100 		sd	ra,24(sp)
 846 037c 23388100 		sd	s0,16(sp)
 847 0380 23349100 		sd	s1,8(sp)
 848              		.cfi_offset 1, -8
 849              		.cfi_offset 8, -16
 850              		.cfi_offset 9, -24
 851 0384 13040102 		addi	s0,sp,32
 852              		.cfi_def_cfa 8, 0
 853 0388 93040500 		mv	s1,a0
GAS LISTING /tmp/ccSTWq0T.s 			page 21


 854              	.LVL61:
 855              	.L54:
 102:src/syscall_cpp.cpp ****     while (this->period != 0) {
 856              		.loc 2 102 5
 857              		.loc 2 102 25
 858              		.loc 2 102 18 is_stmt 0
 859 038c 03B50402 		ld	a0,32(s1)
 860              		.loc 2 102 25
 861 0390 63000502 		beqz	a0,.L52
 103:src/syscall_cpp.cpp ****         Thread::sleep(period);
 862              		.loc 2 103 9 is_stmt 1
 863              		.loc 2 103 22 is_stmt 0
 864 0394 97000000 		call	_ZN6Thread5sleepEm
 864      E7800000 
 865              	.LVL62:
 104:src/syscall_cpp.cpp ****         this->periodicActivation();
 866              		.loc 2 104 9 is_stmt 1
 867              		.loc 2 104 34 is_stmt 0
 868 039c 83B70400 		ld	a5,0(s1)
 869 03a0 83B78701 		ld	a5,24(a5)
 870              		.loc 2 104 33
 871 03a4 13850400 		mv	a0,s1
 872 03a8 E7800700 		jalr	a5
 873              	.LVL63:
 102:src/syscall_cpp.cpp ****     while (this->period != 0) {
 874              		.loc 2 102 5
 875 03ac 6FF01FFE 		j	.L54
 876              	.L52:
 105:src/syscall_cpp.cpp ****     }
 106:src/syscall_cpp.cpp **** }
 877              		.loc 2 106 1
 878 03b0 83308101 		ld	ra,24(sp)
 879              		.cfi_restore 1
 880 03b4 03340101 		ld	s0,16(sp)
 881              		.cfi_restore 8
 882              		.cfi_def_cfa 2, 32
 883 03b8 83348100 		ld	s1,8(sp)
 884              		.cfi_restore 9
 885              	.LVL64:
 886 03bc 13010102 		addi	sp,sp,32
 887              		.cfi_def_cfa_offset 0
 888 03c0 67800000 		jr	ra
 889              		.cfi_endproc
 890              	.LFE62:
 892              		.align	2
 893              		.globl	_ZN6ThreadC2Ev
 895              	_ZN6ThreadC2Ev:
 896              	.LFB45:
  58:src/syscall_cpp.cpp ****     this->body = nullptr;
 897              		.loc 2 58 1 is_stmt 1
 898              		.cfi_startproc
 899              	.LVL65:
 900 03c4 130101FF 		addi	sp,sp,-16
 901              		.cfi_def_cfa_offset 16
 902 03c8 23348100 		sd	s0,8(sp)
 903              		.cfi_offset 8, -8
 904 03cc 13040101 		addi	s0,sp,16
GAS LISTING /tmp/ccSTWq0T.s 			page 22


 905              		.cfi_def_cfa 8, 0
 906              	.LBB17:
  58:src/syscall_cpp.cpp ****     this->body = nullptr;
 907              		.loc 2 58 16 is_stmt 0
 908 03d0 97070000 		lla	a5,_ZTV6Thread+16
 908      93870700 
 909 03d8 2330F500 		sd	a5,0(a0)
  59:src/syscall_cpp.cpp ****     this->arg = nullptr;
 910              		.loc 2 59 5 is_stmt 1
  59:src/syscall_cpp.cpp ****     this->arg = nullptr;
 911              		.loc 2 59 16 is_stmt 0
 912 03dc 23380500 		sd	zero,16(a0)
  60:src/syscall_cpp.cpp **** }
 913              		.loc 2 60 5 is_stmt 1
  60:src/syscall_cpp.cpp **** }
 914              		.loc 2 60 15 is_stmt 0
 915 03e0 233C0500 		sd	zero,24(a0)
 916              	.LBE17:
  61:src/syscall_cpp.cpp **** 
 917              		.loc 2 61 1
 918 03e4 03348100 		ld	s0,8(sp)
 919              		.cfi_restore 8
 920              		.cfi_def_cfa 2, 16
 921 03e8 13010101 		addi	sp,sp,16
 922              		.cfi_def_cfa_offset 0
 923 03ec 67800000 		jr	ra
 924              		.cfi_endproc
 925              	.LFE45:
 927              		.globl	_ZN6ThreadC1Ev
 928              		.set	_ZN6ThreadC1Ev,_ZN6ThreadC2Ev
 929              		.align	2
 930              		.globl	_ZN9SemaphoreC2Ej
 932              	_ZN9SemaphoreC2Ej:
 933              	.LFB49:
  73:src/syscall_cpp.cpp ****     sem_open(&myHandle, init);
 934              		.loc 2 73 1 is_stmt 1
 935              		.cfi_startproc
 936              	.LVL66:
 937 03f0 130101FF 		addi	sp,sp,-16
 938              		.cfi_def_cfa_offset 16
 939 03f4 23341100 		sd	ra,8(sp)
 940 03f8 23308100 		sd	s0,0(sp)
 941              		.cfi_offset 1, -8
 942              		.cfi_offset 8, -16
 943 03fc 13040101 		addi	s0,sp,16
 944              		.cfi_def_cfa 8, 0
 945              	.LBB18:
  73:src/syscall_cpp.cpp ****     sem_open(&myHandle, init);
 946              		.loc 2 73 39 is_stmt 0
 947 0400 97070000 		lla	a5,_ZTV9Semaphore+16
 947      93870700 
 948 0408 2330F500 		sd	a5,0(a0)
  74:src/syscall_cpp.cpp **** }
 949              		.loc 2 74 5 is_stmt 1
  74:src/syscall_cpp.cpp **** }
 950              		.loc 2 74 13 is_stmt 0
 951 040c 13058500 		addi	a0,a0,8
GAS LISTING /tmp/ccSTWq0T.s 			page 23


 952              	.LVL67:
 953 0410 97000000 		call	_Z8sem_openPP3Semj@plt
 953      E7800000 
 954              	.LVL68:
 955              	.LBE18:
  75:src/syscall_cpp.cpp **** 
 956              		.loc 2 75 1
 957 0418 83308100 		ld	ra,8(sp)
 958              		.cfi_restore 1
 959 041c 03340100 		ld	s0,0(sp)
 960              		.cfi_restore 8
 961              		.cfi_def_cfa 2, 16
 962 0420 13010101 		addi	sp,sp,16
 963              		.cfi_def_cfa_offset 0
 964 0424 67800000 		jr	ra
 965              		.cfi_endproc
 966              	.LFE49:
 968              		.globl	_ZN9SemaphoreC1Ej
 969              		.set	_ZN9SemaphoreC1Ej,_ZN9SemaphoreC2Ej
 970              		.align	2
 971              		.globl	_ZN9Semaphore15signal_and_waitERS_S0_
 973              	_ZN9Semaphore15signal_and_waitERS_S0_:
 974              	.LFB57:
  89:src/syscall_cpp.cpp ****     return ::signal_and_wait(sem1.myHandle, sem2.myHandle);
 975              		.loc 2 89 66 is_stmt 1
 976              		.cfi_startproc
 977              	.LVL69:
 978 0428 130101FF 		addi	sp,sp,-16
 979              		.cfi_def_cfa_offset 16
 980 042c 23341100 		sd	ra,8(sp)
 981 0430 23308100 		sd	s0,0(sp)
 982              		.cfi_offset 1, -8
 983              		.cfi_offset 8, -16
 984 0434 13040101 		addi	s0,sp,16
 985              		.cfi_def_cfa 8, 0
  90:src/syscall_cpp.cpp **** }
 986              		.loc 2 90 5
  90:src/syscall_cpp.cpp **** }
 987              		.loc 2 90 29 is_stmt 0
 988 0438 83B58500 		ld	a1,8(a1)
 989              	.LVL70:
 990 043c 03358500 		ld	a0,8(a0)
 991              	.LVL71:
 992 0440 97000000 		call	_Z15signal_and_waitP3SemS0_@plt
 992      E7800000 
 993              	.LVL72:
  91:src/syscall_cpp.cpp **** 
 994              		.loc 2 91 1
 995 0448 83308100 		ld	ra,8(sp)
 996              		.cfi_restore 1
 997 044c 03340100 		ld	s0,0(sp)
 998              		.cfi_restore 8
 999              		.cfi_def_cfa 2, 16
 1000 0450 13010101 		addi	sp,sp,16
 1001              		.cfi_def_cfa_offset 0
 1002 0454 67800000 		jr	ra
 1003              		.cfi_endproc
GAS LISTING /tmp/ccSTWq0T.s 			page 24


 1004              	.LFE57:
 1006              		.align	2
 1007              		.globl	_ZN14PeriodicThread9terminateEv
 1009              	_ZN14PeriodicThread9terminateEv:
 1010              	.LFB58:
  93:src/syscall_cpp.cpp ****     this->period = 0;
 1011              		.loc 2 93 34 is_stmt 1
 1012              		.cfi_startproc
 1013              	.LVL73:
 1014 0458 130101FF 		addi	sp,sp,-16
 1015              		.cfi_def_cfa_offset 16
 1016 045c 23348100 		sd	s0,8(sp)
 1017              		.cfi_offset 8, -8
 1018 0460 13040101 		addi	s0,sp,16
 1019              		.cfi_def_cfa 8, 0
  94:src/syscall_cpp.cpp **** }
 1020              		.loc 2 94 5
  94:src/syscall_cpp.cpp **** }
 1021              		.loc 2 94 18 is_stmt 0
 1022 0464 23300502 		sd	zero,32(a0)
  95:src/syscall_cpp.cpp **** 
 1023              		.loc 2 95 1
 1024 0468 03348100 		ld	s0,8(sp)
 1025              		.cfi_restore 8
 1026              		.cfi_def_cfa 2, 16
 1027 046c 13010101 		addi	sp,sp,16
 1028              		.cfi_def_cfa_offset 0
 1029 0470 67800000 		jr	ra
 1030              		.cfi_endproc
 1031              	.LFE58:
 1033              		.align	2
 1034              		.globl	_ZN14PeriodicThreadC2Em
 1036              	_ZN14PeriodicThreadC2Em:
 1037              	.LFB60:
  97:src/syscall_cpp.cpp ****     this->period = period;
 1038              		.loc 2 97 1 is_stmt 1
 1039              		.cfi_startproc
 1040              	.LVL74:
 1041 0474 130101FE 		addi	sp,sp,-32
 1042              		.cfi_def_cfa_offset 32
 1043 0478 233C1100 		sd	ra,24(sp)
 1044 047c 23388100 		sd	s0,16(sp)
 1045 0480 23349100 		sd	s1,8(sp)
 1046 0484 23302101 		sd	s2,0(sp)
 1047              		.cfi_offset 1, -8
 1048              		.cfi_offset 8, -16
 1049              		.cfi_offset 9, -24
 1050              		.cfi_offset 18, -32
 1051 0488 13040102 		addi	s0,sp,32
 1052              		.cfi_def_cfa 8, 0
 1053 048c 93040500 		mv	s1,a0
 1054 0490 13890500 		mv	s2,a1
 1055              	.LBB19:
  97:src/syscall_cpp.cpp ****     this->period = period;
 1056              		.loc 2 97 45 is_stmt 0
 1057 0494 97000000 		call	_ZN6ThreadC2Ev
 1057      E7800000 
GAS LISTING /tmp/ccSTWq0T.s 			page 25


 1058              	.LVL75:
 1059 049c 97070000 		lla	a5,_ZTV14PeriodicThread+16
 1059      93870700 
 1060 04a4 23B0F400 		sd	a5,0(s1)
  98:src/syscall_cpp.cpp **** }
 1061              		.loc 2 98 5 is_stmt 1
  98:src/syscall_cpp.cpp **** }
 1062              		.loc 2 98 18 is_stmt 0
 1063 04a8 23B02403 		sd	s2,32(s1)
 1064              	.LBE19:
  99:src/syscall_cpp.cpp **** 
 1065              		.loc 2 99 1
 1066 04ac 83308101 		ld	ra,24(sp)
 1067              		.cfi_restore 1
 1068 04b0 03340101 		ld	s0,16(sp)
 1069              		.cfi_restore 8
 1070              		.cfi_def_cfa 2, 32
 1071 04b4 83348100 		ld	s1,8(sp)
 1072              		.cfi_restore 9
 1073              	.LVL76:
 1074 04b8 03390100 		ld	s2,0(sp)
 1075              		.cfi_restore 18
 1076              	.LVL77:
 1077 04bc 13010102 		addi	sp,sp,32
 1078              		.cfi_def_cfa_offset 0
 1079 04c0 67800000 		jr	ra
 1080              		.cfi_endproc
 1081              	.LFE60:
 1083              		.globl	_ZN14PeriodicThreadC1Em
 1084              		.set	_ZN14PeriodicThreadC1Em,_ZN14PeriodicThreadC2Em
 1085              		.align	2
 1086              		.globl	_ZN7Console4getcEv
 1088              	_ZN7Console4getcEv:
 1089              	.LFB63:
 107:src/syscall_cpp.cpp **** 
 108:src/syscall_cpp.cpp **** char Console::getc() {
 1090              		.loc 2 108 22 is_stmt 1
 1091              		.cfi_startproc
 1092 04c4 130101FF 		addi	sp,sp,-16
 1093              		.cfi_def_cfa_offset 16
 1094 04c8 23341100 		sd	ra,8(sp)
 1095 04cc 23308100 		sd	s0,0(sp)
 1096              		.cfi_offset 1, -8
 1097              		.cfi_offset 8, -16
 1098 04d0 13040101 		addi	s0,sp,16
 1099              		.cfi_def_cfa 8, 0
 109:src/syscall_cpp.cpp ****     return ::getc();
 1100              		.loc 2 109 5
 1101              		.loc 2 109 18 is_stmt 0
 1102 04d4 97000000 		call	_Z4getcv@plt
 1102      E7800000 
 1103              	.LVL78:
 110:src/syscall_cpp.cpp **** }
 1104              		.loc 2 110 1
 1105 04dc 83308100 		ld	ra,8(sp)
 1106              		.cfi_restore 1
 1107 04e0 03340100 		ld	s0,0(sp)
GAS LISTING /tmp/ccSTWq0T.s 			page 26


 1108              		.cfi_restore 8
 1109              		.cfi_def_cfa 2, 16
 1110 04e4 13010101 		addi	sp,sp,16
 1111              		.cfi_def_cfa_offset 0
 1112 04e8 67800000 		jr	ra
 1113              		.cfi_endproc
 1114              	.LFE63:
 1116              		.align	2
 1117              		.globl	_ZN7Console4putcEc
 1119              	_ZN7Console4putcEc:
 1120              	.LFB64:
 111:src/syscall_cpp.cpp **** 
 112:src/syscall_cpp.cpp **** void Console::putc(char c) {
 1121              		.loc 2 112 28 is_stmt 1
 1122              		.cfi_startproc
 1123              	.LVL79:
 1124 04ec 130101FF 		addi	sp,sp,-16
 1125              		.cfi_def_cfa_offset 16
 1126 04f0 23341100 		sd	ra,8(sp)
 1127 04f4 23308100 		sd	s0,0(sp)
 1128              		.cfi_offset 1, -8
 1129              		.cfi_offset 8, -16
 1130 04f8 13040101 		addi	s0,sp,16
 1131              		.cfi_def_cfa 8, 0
 113:src/syscall_cpp.cpp ****     ::putc(c);
 1132              		.loc 2 113 5
 1133              		.loc 2 113 11 is_stmt 0
 1134 04fc 97000000 		call	_Z4putcc@plt
 1134      E7800000 
 1135              	.LVL80:
 114:src/syscall_cpp.cpp **** }...
 1136              		.loc 2 114 1
 1137 0504 83308100 		ld	ra,8(sp)
 1138              		.cfi_restore 1
 1139 0508 03340100 		ld	s0,0(sp)
 1140              		.cfi_restore 8
 1141              		.cfi_def_cfa 2, 16
 1142 050c 13010101 		addi	sp,sp,16
 1143              		.cfi_def_cfa_offset 0
 1144 0510 67800000 		jr	ra
 1145              		.cfi_endproc
 1146              	.LFE64:
 1148              		.weak	_ZTV6Thread
 1149              		.section	.data.rel.ro.local._ZTV6Thread,"awG",@progbits,_ZTV6Thread,comdat
 1150              		.align	3
 1153              	_ZTV6Thread:
 1154 0000 00000000 		.dword	0
 1154      00000000 
 1155 0008 00000000 		.dword	0
 1155      00000000 
 1156 0010 00000000 		.dword	_ZN6ThreadD1Ev
 1156      00000000 
 1157 0018 00000000 		.dword	_ZN6ThreadD0Ev
 1157      00000000 
 1158 0020 00000000 		.dword	_ZN6Thread3runEv
 1158      00000000 
 1159              		.weak	_ZTV9Semaphore
GAS LISTING /tmp/ccSTWq0T.s 			page 27


 1160              		.section	.data.rel.ro.local._ZTV9Semaphore,"awG",@progbits,_ZTV9Semaphore,comdat
 1161              		.align	3
 1164              	_ZTV9Semaphore:
 1165 0000 00000000 		.dword	0
 1165      00000000 
 1166 0008 00000000 		.dword	0
 1166      00000000 
 1167 0010 00000000 		.dword	_ZN9SemaphoreD1Ev
 1167      00000000 
 1168 0018 00000000 		.dword	_ZN9SemaphoreD0Ev
 1168      00000000 
 1169 0020 00000000 		.dword	_ZN9Semaphore4waitEv
 1169      00000000 
 1170 0028 00000000 		.dword	_ZN9Semaphore6signalEv
 1170      00000000 
 1171              		.weak	_ZTV14PeriodicThread
 1172              		.section	.data.rel.ro.local._ZTV14PeriodicThread,"awG",@progbits,_ZTV14PeriodicThread,comdat
 1173              		.align	3
 1176              	_ZTV14PeriodicThread:
 1177 0000 00000000 		.dword	0
 1177      00000000 
 1178 0008 00000000 		.dword	0
 1178      00000000 
 1179 0010 00000000 		.dword	_ZN14PeriodicThreadD1Ev
 1179      00000000 
 1180 0018 00000000 		.dword	_ZN14PeriodicThreadD0Ev
 1180      00000000 
 1181 0020 00000000 		.dword	_ZN14PeriodicThread3runEv
 1181      00000000 
 1182 0028 00000000 		.dword	_ZN14PeriodicThread18periodicActivationEv
 1182      00000000 
 1183              		.text
 1184              	.Letext0:
 1185              		.file 4 "src/../h/../lib/hw.h"
 1186              		.file 5 "src/../h/syscall_c.hpp"
 1187              		.file 6 "src/../h/circular_buffer.hpp"
 5775              		.align	3
 5778              	DW.ref.__gxx_personality_v0:
 5779 0000 00000000 		.dword	__gxx_personality_v0
 5779      00000000 
 5780              		.ident	"GCC: (Ubuntu 9.4.0-1ubuntu1~20.04) 9.4.0"
 5781              		.section	.note.GNU-stack,"",@progbits
GAS LISTING /tmp/ccSTWq0T.s 			page 28


DEFINED SYMBOLS
                            *ABS*:0000000000000000 syscall_cpp.cpp
     /tmp/ccSTWq0T.s:10     .text._ZN6Thread3runEv:0000000000000000 _ZN6Thread3runEv
     /tmp/ccSTWq0T.s:14     .text._ZN6Thread3runEv:0000000000000000 .L0 
     /tmp/ccSTWq0T.s:16     .text._ZN6Thread3runEv:0000000000000000 .L0 
     /tmp/ccSTWq0T.s:17     .text._ZN6Thread3runEv:0000000000000004 .L0 
     /tmp/ccSTWq0T.s:19     .text._ZN6Thread3runEv:0000000000000008 .L0 
     /tmp/ccSTWq0T.s:21     .text._ZN6Thread3runEv:000000000000000c .L0 
     /tmp/ccSTWq0T.s:23     .text._ZN6Thread3runEv:000000000000000c .L0 
     /tmp/ccSTWq0T.s:24     .text._ZN6Thread3runEv:0000000000000010 .L0 
     /tmp/ccSTWq0T.s:25     .text._ZN6Thread3runEv:0000000000000010 .L0 
     /tmp/ccSTWq0T.s:27     .text._ZN6Thread3runEv:0000000000000014 .L0 
     /tmp/ccSTWq0T.s:29     .text._ZN6Thread3runEv:0000000000000018 .L0 
     /tmp/ccSTWq0T.s:36     .text._ZN14PeriodicThread18periodicActivationEv:0000000000000000 _ZN14PeriodicThread18periodicActivationEv
     /tmp/ccSTWq0T.s:39     .text._ZN14PeriodicThread18periodicActivationEv:0000000000000000 .L0 
     /tmp/ccSTWq0T.s:41     .text._ZN14PeriodicThread18periodicActivationEv:0000000000000000 .L0 
     /tmp/ccSTWq0T.s:42     .text._ZN14PeriodicThread18periodicActivationEv:0000000000000004 .L0 
     /tmp/ccSTWq0T.s:44     .text._ZN14PeriodicThread18periodicActivationEv:0000000000000008 .L0 
     /tmp/ccSTWq0T.s:46     .text._ZN14PeriodicThread18periodicActivationEv:000000000000000c .L0 
     /tmp/ccSTWq0T.s:48     .text._ZN14PeriodicThread18periodicActivationEv:000000000000000c .L0 
     /tmp/ccSTWq0T.s:49     .text._ZN14PeriodicThread18periodicActivationEv:0000000000000010 .L0 
     /tmp/ccSTWq0T.s:50     .text._ZN14PeriodicThread18periodicActivationEv:0000000000000010 .L0 
     /tmp/ccSTWq0T.s:52     .text._ZN14PeriodicThread18periodicActivationEv:0000000000000014 .L0 
     /tmp/ccSTWq0T.s:54     .text._ZN14PeriodicThread18periodicActivationEv:0000000000000018 .L0 
     /tmp/ccSTWq0T.s:61     .text:0000000000000000 _ZN6Thread11threadStartEPv
     /tmp/ccSTWq0T.s:65     .text:0000000000000000 .L0 
     /tmp/ccSTWq0T.s:67     .text:0000000000000000 .L0 
     /tmp/ccSTWq0T.s:68     .text:0000000000000004 .L0 
     /tmp/ccSTWq0T.s:71     .text:000000000000000c .L0 
     /tmp/ccSTWq0T.s:72     .text:000000000000000c .L0 
     /tmp/ccSTWq0T.s:74     .text:0000000000000010 .L0 
     /tmp/ccSTWq0T.s:77     .text:0000000000000010 .L0 
     /tmp/ccSTWq0T.s:78     .text:0000000000000010 .L0 
     /tmp/ccSTWq0T.s:79     .text:0000000000000010 .L0 
     /tmp/ccSTWq0T.s:81     .text:0000000000000014 .L0 
     /tmp/ccSTWq0T.s:83     .text:0000000000000018 .L0 
     /tmp/ccSTWq0T.s:84     .text:0000000000000018 .L0 
     /tmp/ccSTWq0T.s:90     .text:0000000000000020 .L0 
     /tmp/ccSTWq0T.s:91     .text:0000000000000024 .L0 
     /tmp/ccSTWq0T.s:92     .text:0000000000000024 .L0 
     /tmp/ccSTWq0T.s:94     .text:0000000000000028 .L0 
     /tmp/ccSTWq0T.s:95     .text:0000000000000028 .L0 
     /tmp/ccSTWq0T.s:97     .text:000000000000002c .L0 
     /tmp/ccSTWq0T.s:101    .text:0000000000000030 .L0 
     /tmp/ccSTWq0T.s:103    .text:0000000000000030 .L0 
     /tmp/ccSTWq0T.s:104    .text:0000000000000030 .L0 
     /tmp/ccSTWq0T.s:107    .text:0000000000000038 .L0 
     /tmp/ccSTWq0T.s:110    .text:000000000000003c .L0 
     /tmp/ccSTWq0T.s:111    .text:0000000000000040 .L0 
     /tmp/ccSTWq0T.s:117    .text:0000000000000040 _ZN9SemaphoreD2Ev
     /tmp/ccSTWq0T.s:120    .text:0000000000000040 .L0 
     /tmp/ccSTWq0T.s:5778   .data.rel.local.DW.ref.__gxx_personality_v0:0000000000000000 DW.ref.__gxx_personality_v0
     /tmp/ccSTWq0T.s:124    .text:0000000000000040 .L0 
     /tmp/ccSTWq0T.s:125    .text:0000000000000044 .L0 
     /tmp/ccSTWq0T.s:128    .text:000000000000004c .L0 
     /tmp/ccSTWq0T.s:129    .text:000000000000004c .L0 
     /tmp/ccSTWq0T.s:131    .text:0000000000000050 .L0 
GAS LISTING /tmp/ccSTWq0T.s 			page 29


     /tmp/ccSTWq0T.s:1164   .data.rel.ro.local._ZTV9Semaphore:0000000000000000 _ZTV9Semaphore
     /tmp/ccSTWq0T.s:134    .text:0000000000000050 .L0 
     /tmp/ccSTWq0T.s:137    .text:000000000000005c .L0 
     /tmp/ccSTWq0T.s:138    .text:000000000000005c .L0 
     /tmp/ccSTWq0T.s:144    .text:0000000000000068 .L0 
     /tmp/ccSTWq0T.s:145    .text:000000000000006c .L0 
     /tmp/ccSTWq0T.s:147    .text:0000000000000070 .L0 
     /tmp/ccSTWq0T.s:148    .text:0000000000000070 .L0 
     /tmp/ccSTWq0T.s:150    .text:0000000000000074 .L0 
     /tmp/ccSTWq0T.s:152    .text:0000000000000078 .L0 
     /tmp/ccSTWq0T.s:117    .text:0000000000000040 _ZN9SemaphoreD1Ev
     /tmp/ccSTWq0T.s:168    .text:0000000000000078 _ZN9Semaphore4waitEv
     /tmp/ccSTWq0T.s:171    .text:0000000000000078 .L0 
     /tmp/ccSTWq0T.s:173    .text:0000000000000078 .L0 
     /tmp/ccSTWq0T.s:174    .text:000000000000007c .L0 
     /tmp/ccSTWq0T.s:177    .text:0000000000000084 .L0 
     /tmp/ccSTWq0T.s:178    .text:0000000000000084 .L0 
     /tmp/ccSTWq0T.s:180    .text:0000000000000088 .L0 
     /tmp/ccSTWq0T.s:182    .text:0000000000000088 .L0 
     /tmp/ccSTWq0T.s:183    .text:0000000000000088 .L0 
     /tmp/ccSTWq0T.s:188    .text:0000000000000094 .L0 
     /tmp/ccSTWq0T.s:189    .text:0000000000000098 .L0 
     /tmp/ccSTWq0T.s:191    .text:000000000000009c .L0 
     /tmp/ccSTWq0T.s:192    .text:000000000000009c .L0 
     /tmp/ccSTWq0T.s:194    .text:00000000000000a0 .L0 
     /tmp/ccSTWq0T.s:196    .text:00000000000000a4 .L0 
     /tmp/ccSTWq0T.s:202    .text:00000000000000a4 _ZN9Semaphore6signalEv
     /tmp/ccSTWq0T.s:205    .text:00000000000000a4 .L0 
     /tmp/ccSTWq0T.s:207    .text:00000000000000a4 .L0 
     /tmp/ccSTWq0T.s:208    .text:00000000000000a8 .L0 
     /tmp/ccSTWq0T.s:211    .text:00000000000000b0 .L0 
     /tmp/ccSTWq0T.s:212    .text:00000000000000b0 .L0 
     /tmp/ccSTWq0T.s:214    .text:00000000000000b4 .L0 
     /tmp/ccSTWq0T.s:216    .text:00000000000000b4 .L0 
     /tmp/ccSTWq0T.s:217    .text:00000000000000b4 .L0 
     /tmp/ccSTWq0T.s:222    .text:00000000000000c0 .L0 
     /tmp/ccSTWq0T.s:223    .text:00000000000000c4 .L0 
     /tmp/ccSTWq0T.s:225    .text:00000000000000c8 .L0 
     /tmp/ccSTWq0T.s:226    .text:00000000000000c8 .L0 
     /tmp/ccSTWq0T.s:228    .text:00000000000000cc .L0 
     /tmp/ccSTWq0T.s:230    .text:00000000000000d0 .L0 
     /tmp/ccSTWq0T.s:236    .text:00000000000000d0 _Znwm
     /tmp/ccSTWq0T.s:239    .text:00000000000000d0 .L0 
     /tmp/ccSTWq0T.s:241    .text:00000000000000d0 .L0 
     /tmp/ccSTWq0T.s:242    .text:00000000000000d4 .L0 
     /tmp/ccSTWq0T.s:245    .text:00000000000000dc .L0 
     /tmp/ccSTWq0T.s:246    .text:00000000000000dc .L0 
     /tmp/ccSTWq0T.s:248    .text:00000000000000e0 .L0 
     /tmp/ccSTWq0T.s:250    .text:00000000000000e0 .L0 
     /tmp/ccSTWq0T.s:251    .text:00000000000000e0 .L0 
     /tmp/ccSTWq0T.s:254    .text:00000000000000e8 .L0 
     /tmp/ccSTWq0T.s:255    .text:00000000000000ec .L0 
     /tmp/ccSTWq0T.s:257    .text:00000000000000f0 .L0 
     /tmp/ccSTWq0T.s:258    .text:00000000000000f0 .L0 
     /tmp/ccSTWq0T.s:260    .text:00000000000000f4 .L0 
     /tmp/ccSTWq0T.s:262    .text:00000000000000f8 .L0 
     /tmp/ccSTWq0T.s:268    .text:00000000000000f8 _Znam
GAS LISTING /tmp/ccSTWq0T.s 			page 30


     /tmp/ccSTWq0T.s:271    .text:00000000000000f8 .L0 
     /tmp/ccSTWq0T.s:273    .text:00000000000000f8 .L0 
     /tmp/ccSTWq0T.s:274    .text:00000000000000fc .L0 
     /tmp/ccSTWq0T.s:277    .text:0000000000000104 .L0 
     /tmp/ccSTWq0T.s:278    .text:0000000000000104 .L0 
     /tmp/ccSTWq0T.s:280    .text:0000000000000108 .L0 
     /tmp/ccSTWq0T.s:282    .text:0000000000000108 .L0 
     /tmp/ccSTWq0T.s:283    .text:0000000000000108 .L0 
     /tmp/ccSTWq0T.s:286    .text:0000000000000110 .L0 
     /tmp/ccSTWq0T.s:287    .text:0000000000000114 .L0 
     /tmp/ccSTWq0T.s:289    .text:0000000000000118 .L0 
     /tmp/ccSTWq0T.s:290    .text:0000000000000118 .L0 
     /tmp/ccSTWq0T.s:292    .text:000000000000011c .L0 
     /tmp/ccSTWq0T.s:294    .text:0000000000000120 .L0 
     /tmp/ccSTWq0T.s:300    .text:0000000000000120 _ZdlPv
     /tmp/ccSTWq0T.s:303    .text:0000000000000120 .L0 
     /tmp/ccSTWq0T.s:305    .text:0000000000000120 .L0 
     /tmp/ccSTWq0T.s:306    .text:0000000000000124 .L0 
     /tmp/ccSTWq0T.s:309    .text:000000000000012c .L0 
     /tmp/ccSTWq0T.s:310    .text:000000000000012c .L0 
     /tmp/ccSTWq0T.s:312    .text:0000000000000130 .L0 
     /tmp/ccSTWq0T.s:314    .text:0000000000000130 .L0 
     /tmp/ccSTWq0T.s:315    .text:0000000000000130 .L0 
     /tmp/ccSTWq0T.s:318    .text:0000000000000138 .L0 
     /tmp/ccSTWq0T.s:319    .text:000000000000013c .L0 
     /tmp/ccSTWq0T.s:321    .text:0000000000000140 .L0 
     /tmp/ccSTWq0T.s:322    .text:0000000000000140 .L0 
     /tmp/ccSTWq0T.s:324    .text:0000000000000144 .L0 
     /tmp/ccSTWq0T.s:326    .text:0000000000000148 .L0 
     /tmp/ccSTWq0T.s:332    .text:0000000000000148 _ZN6ThreadD2Ev
     /tmp/ccSTWq0T.s:335    .text:0000000000000148 .L0 
     /tmp/ccSTWq0T.s:340    .text:0000000000000148 .L0 
     /tmp/ccSTWq0T.s:1153   .data.rel.ro.local._ZTV6Thread:0000000000000000 _ZTV6Thread
     /tmp/ccSTWq0T.s:341    .text:0000000000000148 .L0 
     /tmp/ccSTWq0T.s:344    .text:0000000000000154 .L0 
     /tmp/ccSTWq0T.s:345    .text:0000000000000154 .L0 
     /tmp/ccSTWq0T.s:351    .text:0000000000000158 .L0 
     /tmp/ccSTWq0T.s:352    .text:0000000000000158 .L0 
     /tmp/ccSTWq0T.s:357    .text:000000000000015c .L0 
     /tmp/ccSTWq0T.s:363    .text:0000000000000168 .L0 
     /tmp/ccSTWq0T.s:364    .text:0000000000000168 .L0 
     /tmp/ccSTWq0T.s:367    .text:000000000000016c .L0 
     /tmp/ccSTWq0T.s:368    .text:0000000000000170 .L0 
     /tmp/ccSTWq0T.s:371    .text:0000000000000178 .L0 
     /tmp/ccSTWq0T.s:372    .text:0000000000000178 .L0 
     /tmp/ccSTWq0T.s:374    .text:000000000000017c .L0 
     /tmp/ccSTWq0T.s:377    .text:000000000000017c .L0 
     /tmp/ccSTWq0T.s:381    .text:0000000000000184 .L0 
     /tmp/ccSTWq0T.s:382    .text:0000000000000188 .L0 
     /tmp/ccSTWq0T.s:384    .text:000000000000018c .L0 
     /tmp/ccSTWq0T.s:385    .text:000000000000018c .L0 
     /tmp/ccSTWq0T.s:387    .text:0000000000000190 .L0 
     /tmp/ccSTWq0T.s:389    .text:0000000000000194 .L0 
     /tmp/ccSTWq0T.s:332    .text:0000000000000148 _ZN6ThreadD1Ev
     /tmp/ccSTWq0T.s:405    .text._ZN14PeriodicThreadD2Ev:0000000000000000 _ZN14PeriodicThreadD2Ev
     /tmp/ccSTWq0T.s:408    .text._ZN14PeriodicThreadD2Ev:0000000000000000 .L0 
     /tmp/ccSTWq0T.s:410    .text._ZN14PeriodicThreadD2Ev:0000000000000000 .L0 
GAS LISTING /tmp/ccSTWq0T.s 			page 31


     /tmp/ccSTWq0T.s:411    .text._ZN14PeriodicThreadD2Ev:0000000000000004 .L0 
     /tmp/ccSTWq0T.s:414    .text._ZN14PeriodicThreadD2Ev:000000000000000c .L0 
     /tmp/ccSTWq0T.s:415    .text._ZN14PeriodicThreadD2Ev:000000000000000c .L0 
     /tmp/ccSTWq0T.s:417    .text._ZN14PeriodicThreadD2Ev:0000000000000010 .L0 
     /tmp/ccSTWq0T.s:1176   .data.rel.ro.local._ZTV14PeriodicThread:0000000000000000 _ZTV14PeriodicThread
     /tmp/ccSTWq0T.s:420    .text._ZN14PeriodicThreadD2Ev:0000000000000010 .L0 
     /tmp/ccSTWq0T.s:426    .text._ZN14PeriodicThreadD2Ev:0000000000000028 .L0 
     /tmp/ccSTWq0T.s:428    .text._ZN14PeriodicThreadD2Ev:000000000000002c .L0 
     /tmp/ccSTWq0T.s:429    .text._ZN14PeriodicThreadD2Ev:000000000000002c .L0 
     /tmp/ccSTWq0T.s:431    .text._ZN14PeriodicThreadD2Ev:0000000000000030 .L0 
     /tmp/ccSTWq0T.s:433    .text._ZN14PeriodicThreadD2Ev:0000000000000034 .L0 
     /tmp/ccSTWq0T.s:405    .text._ZN14PeriodicThreadD2Ev:0000000000000000 _ZN14PeriodicThreadD1Ev
     /tmp/ccSTWq0T.s:442    .text:0000000000000194 _ZN6ThreadD0Ev
     /tmp/ccSTWq0T.s:445    .text:0000000000000194 .L0 
     /tmp/ccSTWq0T.s:447    .text:0000000000000194 .L0 
     /tmp/ccSTWq0T.s:448    .text:0000000000000198 .L0 
     /tmp/ccSTWq0T.s:452    .text:00000000000001a4 .L0 
     /tmp/ccSTWq0T.s:453    .text:00000000000001a4 .L0 
     /tmp/ccSTWq0T.s:454    .text:00000000000001a4 .L0 
     /tmp/ccSTWq0T.s:456    .text:00000000000001a8 .L0 
     /tmp/ccSTWq0T.s:459    .text:00000000000001ac .L0 
     /tmp/ccSTWq0T.s:465    .text:00000000000001c4 .L0 
     /tmp/ccSTWq0T.s:467    .text:00000000000001c8 .L0 
     /tmp/ccSTWq0T.s:468    .text:00000000000001c8 .L0 
     /tmp/ccSTWq0T.s:470    .text:00000000000001cc .L0 
     /tmp/ccSTWq0T.s:473    .text:00000000000001d0 .L0 
     /tmp/ccSTWq0T.s:475    .text:00000000000001d4 .L0 
     /tmp/ccSTWq0T.s:481    .text:00000000000001d4 _ZN9SemaphoreD0Ev
     /tmp/ccSTWq0T.s:484    .text:00000000000001d4 .L0 
     /tmp/ccSTWq0T.s:486    .text:00000000000001d4 .L0 
     /tmp/ccSTWq0T.s:487    .text:00000000000001d8 .L0 
     /tmp/ccSTWq0T.s:491    .text:00000000000001e4 .L0 
     /tmp/ccSTWq0T.s:492    .text:00000000000001e4 .L0 
     /tmp/ccSTWq0T.s:493    .text:00000000000001e4 .L0 
     /tmp/ccSTWq0T.s:495    .text:00000000000001e8 .L0 
     /tmp/ccSTWq0T.s:498    .text:00000000000001ec .L0 
     /tmp/ccSTWq0T.s:504    .text:0000000000000204 .L0 
     /tmp/ccSTWq0T.s:506    .text:0000000000000208 .L0 
     /tmp/ccSTWq0T.s:507    .text:0000000000000208 .L0 
     /tmp/ccSTWq0T.s:509    .text:000000000000020c .L0 
     /tmp/ccSTWq0T.s:512    .text:0000000000000210 .L0 
     /tmp/ccSTWq0T.s:514    .text:0000000000000214 .L0 
     /tmp/ccSTWq0T.s:521    .text._ZN14PeriodicThreadD0Ev:0000000000000000 _ZN14PeriodicThreadD0Ev
     /tmp/ccSTWq0T.s:524    .text._ZN14PeriodicThreadD0Ev:0000000000000000 .L0 
     /tmp/ccSTWq0T.s:526    .text._ZN14PeriodicThreadD0Ev:0000000000000000 .L0 
     /tmp/ccSTWq0T.s:527    .text._ZN14PeriodicThreadD0Ev:0000000000000004 .L0 
     /tmp/ccSTWq0T.s:531    .text._ZN14PeriodicThreadD0Ev:0000000000000010 .L0 
     /tmp/ccSTWq0T.s:532    .text._ZN14PeriodicThreadD0Ev:0000000000000010 .L0 
     /tmp/ccSTWq0T.s:533    .text._ZN14PeriodicThreadD0Ev:0000000000000010 .L0 
     /tmp/ccSTWq0T.s:535    .text._ZN14PeriodicThreadD0Ev:0000000000000014 .L0 
     /tmp/ccSTWq0T.s:541    .text._ZN14PeriodicThreadD0Ev:0000000000000018 .L0 
     /tmp/ccSTWq0T.s:551    .text._ZN14PeriodicThreadD0Ev:000000000000003c .L0 
     /tmp/ccSTWq0T.s:553    .text._ZN14PeriodicThreadD0Ev:0000000000000040 .L0 
     /tmp/ccSTWq0T.s:554    .text._ZN14PeriodicThreadD0Ev:0000000000000040 .L0 
     /tmp/ccSTWq0T.s:556    .text._ZN14PeriodicThreadD0Ev:0000000000000044 .L0 
     /tmp/ccSTWq0T.s:559    .text._ZN14PeriodicThreadD0Ev:0000000000000048 .L0 
     /tmp/ccSTWq0T.s:561    .text._ZN14PeriodicThreadD0Ev:000000000000004c .L0 
GAS LISTING /tmp/ccSTWq0T.s 			page 32


     /tmp/ccSTWq0T.s:568    .text:0000000000000214 _ZdaPv
     /tmp/ccSTWq0T.s:571    .text:0000000000000214 .L0 
     /tmp/ccSTWq0T.s:573    .text:0000000000000214 .L0 
     /tmp/ccSTWq0T.s:574    .text:0000000000000218 .L0 
     /tmp/ccSTWq0T.s:577    .text:0000000000000220 .L0 
     /tmp/ccSTWq0T.s:578    .text:0000000000000220 .L0 
     /tmp/ccSTWq0T.s:580    .text:0000000000000224 .L0 
     /tmp/ccSTWq0T.s:582    .text:0000000000000224 .L0 
     /tmp/ccSTWq0T.s:583    .text:0000000000000224 .L0 
     /tmp/ccSTWq0T.s:586    .text:000000000000022c .L0 
     /tmp/ccSTWq0T.s:587    .text:0000000000000230 .L0 
     /tmp/ccSTWq0T.s:589    .text:0000000000000234 .L0 
     /tmp/ccSTWq0T.s:590    .text:0000000000000234 .L0 
     /tmp/ccSTWq0T.s:592    .text:0000000000000238 .L0 
     /tmp/ccSTWq0T.s:594    .text:000000000000023c .L0 
     /tmp/ccSTWq0T.s:600    .text:000000000000023c _ZN6ThreadC2EPFvPvES0_
     /tmp/ccSTWq0T.s:603    .text:000000000000023c .L0 
     /tmp/ccSTWq0T.s:605    .text:000000000000023c .L0 
     /tmp/ccSTWq0T.s:606    .text:0000000000000240 .L0 
     /tmp/ccSTWq0T.s:608    .text:0000000000000244 .L0 
     /tmp/ccSTWq0T.s:610    .text:0000000000000248 .L0 
     /tmp/ccSTWq0T.s:613    .text:0000000000000248 .L0 
     /tmp/ccSTWq0T.s:616    .text:0000000000000254 .L0 
     /tmp/ccSTWq0T.s:617    .text:0000000000000254 .L0 
     /tmp/ccSTWq0T.s:619    .text:0000000000000258 .L0 
     /tmp/ccSTWq0T.s:620    .text:0000000000000258 .L0 
     /tmp/ccSTWq0T.s:623    .text:000000000000025c .L0 
     /tmp/ccSTWq0T.s:624    .text:0000000000000260 .L0 
     /tmp/ccSTWq0T.s:625    .text:0000000000000260 .L0 
     /tmp/ccSTWq0T.s:627    .text:0000000000000264 .L0 
     /tmp/ccSTWq0T.s:629    .text:0000000000000268 .L0 
     /tmp/ccSTWq0T.s:600    .text:000000000000023c _ZN6ThreadC1EPFvPvES0_
     /tmp/ccSTWq0T.s:637    .text:0000000000000268 _ZN6Thread5startEv
     /tmp/ccSTWq0T.s:640    .text:0000000000000268 .L0 
     /tmp/ccSTWq0T.s:642    .text:0000000000000268 .L0 
     /tmp/ccSTWq0T.s:643    .text:000000000000026c .L0 
     /tmp/ccSTWq0T.s:646    .text:0000000000000274 .L0 
     /tmp/ccSTWq0T.s:647    .text:0000000000000274 .L0 
     /tmp/ccSTWq0T.s:649    .text:0000000000000278 .L0 
     /tmp/ccSTWq0T.s:651    .text:0000000000000278 .L0 
     /tmp/ccSTWq0T.s:652    .text:0000000000000278 .L0 
     /tmp/ccSTWq0T.s:659    .text:0000000000000290 .L0 
     /tmp/ccSTWq0T.s:660    .text:0000000000000294 .L0 
     /tmp/ccSTWq0T.s:662    .text:0000000000000298 .L0 
     /tmp/ccSTWq0T.s:663    .text:0000000000000298 .L0 
     /tmp/ccSTWq0T.s:665    .text:000000000000029c .L0 
     /tmp/ccSTWq0T.s:667    .text:00000000000002a0 .L0 
     /tmp/ccSTWq0T.s:673    .text:00000000000002a0 _ZN6Thread4joinEv
     /tmp/ccSTWq0T.s:676    .text:00000000000002a0 .L0 
     /tmp/ccSTWq0T.s:678    .text:00000000000002a0 .L0 
     /tmp/ccSTWq0T.s:679    .text:00000000000002a4 .L0 
     /tmp/ccSTWq0T.s:682    .text:00000000000002ac .L0 
     /tmp/ccSTWq0T.s:683    .text:00000000000002ac .L0 
     /tmp/ccSTWq0T.s:685    .text:00000000000002b0 .L0 
     /tmp/ccSTWq0T.s:687    .text:00000000000002b0 .L0 
     /tmp/ccSTWq0T.s:688    .text:00000000000002b0 .L0 
     /tmp/ccSTWq0T.s:693    .text:00000000000002bc .L0 
GAS LISTING /tmp/ccSTWq0T.s 			page 33


     /tmp/ccSTWq0T.s:694    .text:00000000000002c0 .L0 
     /tmp/ccSTWq0T.s:696    .text:00000000000002c4 .L0 
     /tmp/ccSTWq0T.s:697    .text:00000000000002c4 .L0 
     /tmp/ccSTWq0T.s:699    .text:00000000000002c8 .L0 
     /tmp/ccSTWq0T.s:701    .text:00000000000002cc .L0 
     /tmp/ccSTWq0T.s:707    .text:00000000000002cc _ZN6Thread4joinEm
     /tmp/ccSTWq0T.s:710    .text:00000000000002cc .L0 
     /tmp/ccSTWq0T.s:712    .text:00000000000002cc .L0 
     /tmp/ccSTWq0T.s:713    .text:00000000000002d0 .L0 
     /tmp/ccSTWq0T.s:716    .text:00000000000002d8 .L0 
     /tmp/ccSTWq0T.s:717    .text:00000000000002d8 .L0 
     /tmp/ccSTWq0T.s:719    .text:00000000000002dc .L0 
     /tmp/ccSTWq0T.s:721    .text:00000000000002dc .L0 
     /tmp/ccSTWq0T.s:722    .text:00000000000002dc .L0 
     /tmp/ccSTWq0T.s:727    .text:00000000000002e8 .L0 
     /tmp/ccSTWq0T.s:728    .text:00000000000002ec .L0 
     /tmp/ccSTWq0T.s:730    .text:00000000000002f0 .L0 
     /tmp/ccSTWq0T.s:731    .text:00000000000002f0 .L0 
     /tmp/ccSTWq0T.s:733    .text:00000000000002f4 .L0 
     /tmp/ccSTWq0T.s:735    .text:00000000000002f8 .L0 
     /tmp/ccSTWq0T.s:741    .text:00000000000002f8 _ZN6Thread4killEPS_
     /tmp/ccSTWq0T.s:744    .text:00000000000002f8 .L0 
     /tmp/ccSTWq0T.s:746    .text:00000000000002f8 .L0 
     /tmp/ccSTWq0T.s:747    .text:00000000000002fc .L0 
     /tmp/ccSTWq0T.s:750    .text:0000000000000304 .L0 
     /tmp/ccSTWq0T.s:751    .text:0000000000000304 .L0 
     /tmp/ccSTWq0T.s:753    .text:0000000000000308 .L0 
     /tmp/ccSTWq0T.s:755    .text:0000000000000308 .L0 
     /tmp/ccSTWq0T.s:756    .text:0000000000000308 .L0 
     /tmp/ccSTWq0T.s:761    .text:0000000000000314 .L0 
     /tmp/ccSTWq0T.s:762    .text:0000000000000318 .L0 
     /tmp/ccSTWq0T.s:764    .text:000000000000031c .L0 
     /tmp/ccSTWq0T.s:765    .text:000000000000031c .L0 
     /tmp/ccSTWq0T.s:767    .text:0000000000000320 .L0 
     /tmp/ccSTWq0T.s:769    .text:0000000000000324 .L0 
     /tmp/ccSTWq0T.s:775    .text:0000000000000324 _ZN6Thread8dispatchEv
     /tmp/ccSTWq0T.s:778    .text:0000000000000324 .L0 
     /tmp/ccSTWq0T.s:779    .text:0000000000000324 .L0 
     /tmp/ccSTWq0T.s:780    .text:0000000000000328 .L0 
     /tmp/ccSTWq0T.s:783    .text:0000000000000330 .L0 
     /tmp/ccSTWq0T.s:784    .text:0000000000000330 .L0 
     /tmp/ccSTWq0T.s:786    .text:0000000000000334 .L0 
     /tmp/ccSTWq0T.s:788    .text:0000000000000334 .L0 
     /tmp/ccSTWq0T.s:789    .text:0000000000000334 .L0 
     /tmp/ccSTWq0T.s:792    .text:000000000000033c .L0 
     /tmp/ccSTWq0T.s:793    .text:0000000000000340 .L0 
     /tmp/ccSTWq0T.s:795    .text:0000000000000344 .L0 
     /tmp/ccSTWq0T.s:796    .text:0000000000000344 .L0 
     /tmp/ccSTWq0T.s:798    .text:0000000000000348 .L0 
     /tmp/ccSTWq0T.s:800    .text:000000000000034c .L0 
     /tmp/ccSTWq0T.s:806    .text:000000000000034c _ZN6Thread5sleepEm
     /tmp/ccSTWq0T.s:809    .text:000000000000034c .L0 
     /tmp/ccSTWq0T.s:811    .text:000000000000034c .L0 
     /tmp/ccSTWq0T.s:812    .text:0000000000000350 .L0 
     /tmp/ccSTWq0T.s:815    .text:0000000000000358 .L0 
     /tmp/ccSTWq0T.s:816    .text:0000000000000358 .L0 
     /tmp/ccSTWq0T.s:818    .text:000000000000035c .L0 
GAS LISTING /tmp/ccSTWq0T.s 			page 34


     /tmp/ccSTWq0T.s:820    .text:000000000000035c .L0 
     /tmp/ccSTWq0T.s:821    .text:000000000000035c .L0 
     /tmp/ccSTWq0T.s:824    .text:0000000000000364 .L0 
     /tmp/ccSTWq0T.s:825    .text:0000000000000368 .L0 
     /tmp/ccSTWq0T.s:827    .text:000000000000036c .L0 
     /tmp/ccSTWq0T.s:828    .text:000000000000036c .L0 
     /tmp/ccSTWq0T.s:830    .text:0000000000000370 .L0 
     /tmp/ccSTWq0T.s:832    .text:0000000000000374 .L0 
     /tmp/ccSTWq0T.s:838    .text:0000000000000374 _ZN14PeriodicThread3runEv
     /tmp/ccSTWq0T.s:841    .text:0000000000000374 .L0 
     /tmp/ccSTWq0T.s:843    .text:0000000000000374 .L0 
     /tmp/ccSTWq0T.s:844    .text:0000000000000378 .L0 
     /tmp/ccSTWq0T.s:848    .text:0000000000000384 .L0 
     /tmp/ccSTWq0T.s:849    .text:0000000000000384 .L0 
     /tmp/ccSTWq0T.s:850    .text:0000000000000384 .L0 
     /tmp/ccSTWq0T.s:852    .text:0000000000000388 .L0 
     /tmp/ccSTWq0T.s:857    .text:000000000000038c .L0 
     /tmp/ccSTWq0T.s:858    .text:000000000000038c .L0 
     /tmp/ccSTWq0T.s:859    .text:000000000000038c .L0 
     /tmp/ccSTWq0T.s:861    .text:0000000000000390 .L0 
     /tmp/ccSTWq0T.s:863    .text:0000000000000394 .L0 
     /tmp/ccSTWq0T.s:864    .text:0000000000000394 .L0 
     /tmp/ccSTWq0T.s:867    .text:000000000000039c .L0 
     /tmp/ccSTWq0T.s:868    .text:000000000000039c .L0 
     /tmp/ccSTWq0T.s:871    .text:00000000000003a4 .L0 
     /tmp/ccSTWq0T.s:875    .text:00000000000003ac .L0 
     /tmp/ccSTWq0T.s:878    .text:00000000000003b0 .L0 
     /tmp/ccSTWq0T.s:879    .text:00000000000003b4 .L0 
     /tmp/ccSTWq0T.s:881    .text:00000000000003b8 .L0 
     /tmp/ccSTWq0T.s:882    .text:00000000000003b8 .L0 
     /tmp/ccSTWq0T.s:884    .text:00000000000003bc .L0 
     /tmp/ccSTWq0T.s:887    .text:00000000000003c0 .L0 
     /tmp/ccSTWq0T.s:889    .text:00000000000003c4 .L0 
     /tmp/ccSTWq0T.s:895    .text:00000000000003c4 _ZN6ThreadC2Ev
     /tmp/ccSTWq0T.s:898    .text:00000000000003c4 .L0 
     /tmp/ccSTWq0T.s:900    .text:00000000000003c4 .L0 
     /tmp/ccSTWq0T.s:901    .text:00000000000003c8 .L0 
     /tmp/ccSTWq0T.s:903    .text:00000000000003cc .L0 
     /tmp/ccSTWq0T.s:905    .text:00000000000003d0 .L0 
     /tmp/ccSTWq0T.s:908    .text:00000000000003d0 .L0 
     /tmp/ccSTWq0T.s:911    .text:00000000000003dc .L0 
     /tmp/ccSTWq0T.s:912    .text:00000000000003dc .L0 
     /tmp/ccSTWq0T.s:914    .text:00000000000003e0 .L0 
     /tmp/ccSTWq0T.s:915    .text:00000000000003e0 .L0 
     /tmp/ccSTWq0T.s:918    .text:00000000000003e4 .L0 
     /tmp/ccSTWq0T.s:919    .text:00000000000003e8 .L0 
     /tmp/ccSTWq0T.s:920    .text:00000000000003e8 .L0 
     /tmp/ccSTWq0T.s:922    .text:00000000000003ec .L0 
     /tmp/ccSTWq0T.s:924    .text:00000000000003f0 .L0 
     /tmp/ccSTWq0T.s:895    .text:00000000000003c4 _ZN6ThreadC1Ev
     /tmp/ccSTWq0T.s:932    .text:00000000000003f0 _ZN9SemaphoreC2Ej
     /tmp/ccSTWq0T.s:935    .text:00000000000003f0 .L0 
     /tmp/ccSTWq0T.s:937    .text:00000000000003f0 .L0 
     /tmp/ccSTWq0T.s:938    .text:00000000000003f4 .L0 
     /tmp/ccSTWq0T.s:941    .text:00000000000003fc .L0 
     /tmp/ccSTWq0T.s:942    .text:00000000000003fc .L0 
     /tmp/ccSTWq0T.s:944    .text:0000000000000400 .L0 
GAS LISTING /tmp/ccSTWq0T.s 			page 35


     /tmp/ccSTWq0T.s:947    .text:0000000000000400 .L0 
     /tmp/ccSTWq0T.s:950    .text:000000000000040c .L0 
     /tmp/ccSTWq0T.s:951    .text:000000000000040c .L0 
     /tmp/ccSTWq0T.s:957    .text:0000000000000418 .L0 
     /tmp/ccSTWq0T.s:958    .text:000000000000041c .L0 
     /tmp/ccSTWq0T.s:960    .text:0000000000000420 .L0 
     /tmp/ccSTWq0T.s:961    .text:0000000000000420 .L0 
     /tmp/ccSTWq0T.s:963    .text:0000000000000424 .L0 
     /tmp/ccSTWq0T.s:965    .text:0000000000000428 .L0 
     /tmp/ccSTWq0T.s:932    .text:00000000000003f0 _ZN9SemaphoreC1Ej
     /tmp/ccSTWq0T.s:973    .text:0000000000000428 _ZN9Semaphore15signal_and_waitERS_S0_
     /tmp/ccSTWq0T.s:976    .text:0000000000000428 .L0 
     /tmp/ccSTWq0T.s:978    .text:0000000000000428 .L0 
     /tmp/ccSTWq0T.s:979    .text:000000000000042c .L0 
     /tmp/ccSTWq0T.s:982    .text:0000000000000434 .L0 
     /tmp/ccSTWq0T.s:983    .text:0000000000000434 .L0 
     /tmp/ccSTWq0T.s:985    .text:0000000000000438 .L0 
     /tmp/ccSTWq0T.s:987    .text:0000000000000438 .L0 
     /tmp/ccSTWq0T.s:988    .text:0000000000000438 .L0 
     /tmp/ccSTWq0T.s:995    .text:0000000000000448 .L0 
     /tmp/ccSTWq0T.s:996    .text:000000000000044c .L0 
     /tmp/ccSTWq0T.s:998    .text:0000000000000450 .L0 
     /tmp/ccSTWq0T.s:999    .text:0000000000000450 .L0 
     /tmp/ccSTWq0T.s:1001   .text:0000000000000454 .L0 
     /tmp/ccSTWq0T.s:1003   .text:0000000000000458 .L0 
     /tmp/ccSTWq0T.s:1009   .text:0000000000000458 _ZN14PeriodicThread9terminateEv
     /tmp/ccSTWq0T.s:1012   .text:0000000000000458 .L0 
     /tmp/ccSTWq0T.s:1014   .text:0000000000000458 .L0 
     /tmp/ccSTWq0T.s:1015   .text:000000000000045c .L0 
     /tmp/ccSTWq0T.s:1017   .text:0000000000000460 .L0 
     /tmp/ccSTWq0T.s:1019   .text:0000000000000464 .L0 
     /tmp/ccSTWq0T.s:1021   .text:0000000000000464 .L0 
     /tmp/ccSTWq0T.s:1022   .text:0000000000000464 .L0 
     /tmp/ccSTWq0T.s:1024   .text:0000000000000468 .L0 
     /tmp/ccSTWq0T.s:1025   .text:000000000000046c .L0 
     /tmp/ccSTWq0T.s:1026   .text:000000000000046c .L0 
     /tmp/ccSTWq0T.s:1028   .text:0000000000000470 .L0 
     /tmp/ccSTWq0T.s:1030   .text:0000000000000474 .L0 
     /tmp/ccSTWq0T.s:1036   .text:0000000000000474 _ZN14PeriodicThreadC2Em
     /tmp/ccSTWq0T.s:1039   .text:0000000000000474 .L0 
     /tmp/ccSTWq0T.s:1041   .text:0000000000000474 .L0 
     /tmp/ccSTWq0T.s:1042   .text:0000000000000478 .L0 
     /tmp/ccSTWq0T.s:1047   .text:0000000000000488 .L0 
     /tmp/ccSTWq0T.s:1048   .text:0000000000000488 .L0 
     /tmp/ccSTWq0T.s:1049   .text:0000000000000488 .L0 
     /tmp/ccSTWq0T.s:1050   .text:0000000000000488 .L0 
     /tmp/ccSTWq0T.s:1052   .text:000000000000048c .L0 
     /tmp/ccSTWq0T.s:1057   .text:0000000000000494 .L0 
     /tmp/ccSTWq0T.s:1062   .text:00000000000004a8 .L0 
     /tmp/ccSTWq0T.s:1063   .text:00000000000004a8 .L0 
     /tmp/ccSTWq0T.s:1066   .text:00000000000004ac .L0 
     /tmp/ccSTWq0T.s:1067   .text:00000000000004b0 .L0 
     /tmp/ccSTWq0T.s:1069   .text:00000000000004b4 .L0 
     /tmp/ccSTWq0T.s:1070   .text:00000000000004b4 .L0 
     /tmp/ccSTWq0T.s:1072   .text:00000000000004b8 .L0 
     /tmp/ccSTWq0T.s:1075   .text:00000000000004bc .L0 
     /tmp/ccSTWq0T.s:1078   .text:00000000000004c0 .L0 
GAS LISTING /tmp/ccSTWq0T.s 			page 36


     /tmp/ccSTWq0T.s:1080   .text:00000000000004c4 .L0 
     /tmp/ccSTWq0T.s:1036   .text:0000000000000474 _ZN14PeriodicThreadC1Em
     /tmp/ccSTWq0T.s:1088   .text:00000000000004c4 _ZN7Console4getcEv
     /tmp/ccSTWq0T.s:1091   .text:00000000000004c4 .L0 
     /tmp/ccSTWq0T.s:1092   .text:00000000000004c4 .L0 
     /tmp/ccSTWq0T.s:1093   .text:00000000000004c8 .L0 
     /tmp/ccSTWq0T.s:1096   .text:00000000000004d0 .L0 
     /tmp/ccSTWq0T.s:1097   .text:00000000000004d0 .L0 
     /tmp/ccSTWq0T.s:1099   .text:00000000000004d4 .L0 
     /tmp/ccSTWq0T.s:1101   .text:00000000000004d4 .L0 
     /tmp/ccSTWq0T.s:1102   .text:00000000000004d4 .L0 
     /tmp/ccSTWq0T.s:1105   .text:00000000000004dc .L0 
     /tmp/ccSTWq0T.s:1106   .text:00000000000004e0 .L0 
     /tmp/ccSTWq0T.s:1108   .text:00000000000004e4 .L0 
     /tmp/ccSTWq0T.s:1109   .text:00000000000004e4 .L0 
     /tmp/ccSTWq0T.s:1111   .text:00000000000004e8 .L0 
     /tmp/ccSTWq0T.s:1113   .text:00000000000004ec .L0 
     /tmp/ccSTWq0T.s:1119   .text:00000000000004ec _ZN7Console4putcEc
     /tmp/ccSTWq0T.s:1122   .text:00000000000004ec .L0 
     /tmp/ccSTWq0T.s:1124   .text:00000000000004ec .L0 
     /tmp/ccSTWq0T.s:1125   .text:00000000000004f0 .L0 
     /tmp/ccSTWq0T.s:1128   .text:00000000000004f8 .L0 
     /tmp/ccSTWq0T.s:1129   .text:00000000000004f8 .L0 
     /tmp/ccSTWq0T.s:1131   .text:00000000000004fc .L0 
     /tmp/ccSTWq0T.s:1133   .text:00000000000004fc .L0 
     /tmp/ccSTWq0T.s:1134   .text:00000000000004fc .L0 
     /tmp/ccSTWq0T.s:1137   .text:0000000000000504 .L0 
     /tmp/ccSTWq0T.s:1138   .text:0000000000000508 .L0 
     /tmp/ccSTWq0T.s:1140   .text:000000000000050c .L0 
     /tmp/ccSTWq0T.s:1141   .text:000000000000050c .L0 
     /tmp/ccSTWq0T.s:1143   .text:0000000000000510 .L0 
     /tmp/ccSTWq0T.s:1145   .text:0000000000000514 .L0 
     /tmp/ccSTWq0T.s:32     .text._ZN6Thread3runEv:0000000000000018 .L0 
     /tmp/ccSTWq0T.s:57     .text._ZN14PeriodicThread18periodicActivationEv:0000000000000018 .L0 
     /tmp/ccSTWq0T.s:1188   .text:0000000000000514 .L0 
     /tmp/ccSTWq0T.s:438    .text._ZN14PeriodicThreadD2Ev:0000000000000034 .L0 
     /tmp/ccSTWq0T.s:564    .text._ZN14PeriodicThreadD0Ev:000000000000004c .L0 
     /tmp/ccSTWq0T.s:134    .text:0000000000000050 .L0 
     /tmp/ccSTWq0T.s:341    .text:0000000000000148 .L0 
     /tmp/ccSTWq0T.s:613    .text:0000000000000248 .L0 
     /tmp/ccSTWq0T.s:653    .text:000000000000027c .L0 
     /tmp/ccSTWq0T.s:908    .text:00000000000003d0 .L0 
     /tmp/ccSTWq0T.s:947    .text:0000000000000400 .L0 
     /tmp/ccSTWq0T.s:1059   .text:000000000000049c .L0 
     /tmp/ccSTWq0T.s:100    .text:0000000000000030 .L6
     /tmp/ccSTWq0T.s:88     .text:0000000000000020 .L5
     /tmp/ccSTWq0T.s:361    .text:0000000000000168 .L27
     /tmp/ccSTWq0T.s:359    .text:0000000000000164 .L24
     /tmp/ccSTWq0T.s:876    .text:00000000000003b0 .L52
     /tmp/ccSTWq0T.s:855    .text:000000000000038c .L54
     /tmp/ccSTWq0T.s:420    .text._ZN14PeriodicThreadD2Ev:0000000000000010 .L0 
     /tmp/ccSTWq0T.s:541    .text._ZN14PeriodicThreadD0Ev:0000000000000018 .L0 
     /tmp/ccSTWq0T.s:3486   .debug_abbrev:0000000000000000 .Ldebug_abbrev0
     /tmp/ccSTWq0T.s:5682   .debug_str:0000000000000aa3 .LASF213
     /tmp/ccSTWq0T.s:5494   .debug_str:0000000000000595 .LASF214
     /tmp/ccSTWq0T.s:5448   .debug_str:00000000000003f9 .LASF215
     /tmp/ccSTWq0T.s:5310   .debug_ranges:0000000000000000 .Ldebug_ranges0
GAS LISTING /tmp/ccSTWq0T.s 			page 37


     /tmp/ccSTWq0T.s:5324   .debug_line:0000000000000000 .Ldebug_line0
     /tmp/ccSTWq0T.s:5486   .debug_str:000000000000054e .LASF0
     /tmp/ccSTWq0T.s:5516   .debug_str:000000000000063a .LASF1
     /tmp/ccSTWq0T.s:5618   .debug_str:0000000000000905 .LASF2
     /tmp/ccSTWq0T.s:5624   .debug_str:0000000000000932 .LASF4
     /tmp/ccSTWq0T.s:5496   .debug_str:00000000000005a9 .LASF3
     /tmp/ccSTWq0T.s:5348   .debug_str:00000000000000d2 .LASF5
     /tmp/ccSTWq0T.s:5590   .debug_str:000000000000085f .LASF6
     /tmp/ccSTWq0T.s:5576   .debug_str:00000000000007ec .LASF7
     /tmp/ccSTWq0T.s:5506   .debug_str:000000000000060f .LASF8
     /tmp/ccSTWq0T.s:5444   .debug_str:00000000000003c8 .LASF9
     /tmp/ccSTWq0T.s:5456   .debug_str:0000000000000462 .LASF10
     /tmp/ccSTWq0T.s:5388   .debug_str:000000000000020a .LASF11
     /tmp/ccSTWq0T.s:5438   .debug_str:00000000000003a6 .LASF12
     /tmp/ccSTWq0T.s:5404   .debug_str:000000000000028a .LASF13
     /tmp/ccSTWq0T.s:5386   .debug_str:00000000000001fa .LASF14
     /tmp/ccSTWq0T.s:5656   .debug_str:0000000000000a1c .LASF15
     /tmp/ccSTWq0T.s:5424   .debug_str:0000000000000346 .LASF16
     /tmp/ccSTWq0T.s:5646   .debug_str:00000000000009d1 .LASF17
     /tmp/ccSTWq0T.s:5734   .debug_str:0000000000000d28 .LASF18
     /tmp/ccSTWq0T.s:5520   .debug_str:0000000000000653 .LASF27
     /tmp/ccSTWq0T.s:5342   .debug_str:000000000000008c .LASF29
     /tmp/ccSTWq0T.s:5678   .debug_str:0000000000000a8e .LASF19
     /tmp/ccSTWq0T.s:5532   .debug_str:00000000000006a3 .LASF21
     /tmp/ccSTWq0T.s:5642   .debug_str:00000000000009ad .LASF20
     /tmp/ccSTWq0T.s:5686   .debug_str:0000000000000b6e .LASF22
     /tmp/ccSTWq0T.s:5714   .debug_str:0000000000000c9b .LASF23
     /tmp/ccSTWq0T.s:5458   .debug_str:0000000000000470 .LASF25
     /tmp/ccSTWq0T.s:5610   .debug_str:00000000000008c7 .LASF24
     /tmp/ccSTWq0T.s:5584   .debug_str:0000000000000823 .LASF26
     /tmp/ccSTWq0T.s:5370   .debug_str:0000000000000189 .LASF86
     /tmp/ccSTWq0T.s:5556   .debug_str:0000000000000772 .LASF88
     /tmp/ccSTWq0T.s:5700   .debug_str:0000000000000c2d .LASF28
     /tmp/ccSTWq0T.s:5732   .debug_str:0000000000000d16 .LASF30
     /tmp/ccSTWq0T.s:5578   .debug_str:00000000000007ff .LASF31
     /tmp/ccSTWq0T.s:5762   .debug_str:0000000000000dfe .LASF32
     /tmp/ccSTWq0T.s:5528   .debug_str:000000000000068a .LASF33
     /tmp/ccSTWq0T.s:5408   .debug_str:00000000000002a5 .LASF34
     /tmp/ccSTWq0T.s:5622   .debug_str:0000000000000922 .LASF35
     /tmp/ccSTWq0T.s:5380   .debug_str:00000000000001b8 .LASF36
     /tmp/ccSTWq0T.s:5538   .debug_str:00000000000006d3 .LASF37
     /tmp/ccSTWq0T.s:5696   .debug_str:0000000000000beb .LASF38
     /tmp/ccSTWq0T.s:5736   .debug_str:0000000000000d31 .LASF39
     /tmp/ccSTWq0T.s:5414   .debug_str:00000000000002f5 .LASF40
     /tmp/ccSTWq0T.s:5542   .debug_str:00000000000006e7 .LASF41
     /tmp/ccSTWq0T.s:5660   .debug_str:0000000000000a31 .LASF42
     /tmp/ccSTWq0T.s:5702   .debug_str:0000000000000c33 .LASF43
     /tmp/ccSTWq0T.s:5726   .debug_str:0000000000000cee .LASF45
     /tmp/ccSTWq0T.s:5744   .debug_str:0000000000000d6c .LASF44
     /tmp/ccSTWq0T.s:5366   .debug_str:0000000000000157 .LASF46
     /tmp/ccSTWq0T.s:5586   .debug_str:0000000000000843 .LASF47
     /tmp/ccSTWq0T.s:5412   .debug_str:00000000000002dd .LASF48
     /tmp/ccSTWq0T.s:5530   .debug_str:0000000000000699 .LASF49
     /tmp/ccSTWq0T.s:5756   .debug_str:0000000000000dd3 .LASF50
     /tmp/ccSTWq0T.s:5572   .debug_str:00000000000007d9 .LASF51
     /tmp/ccSTWq0T.s:5550   .debug_str:0000000000000741 .LASF52
     /tmp/ccSTWq0T.s:5384   .debug_str:00000000000001ec .LASF53
GAS LISTING /tmp/ccSTWq0T.s 			page 38


     /tmp/ccSTWq0T.s:5484   .debug_str:0000000000000548 .LASF54
     /tmp/ccSTWq0T.s:5350   .debug_str:00000000000000d9 .LASF55
     /tmp/ccSTWq0T.s:5518   .debug_str:000000000000064d .LASF56
     /tmp/ccSTWq0T.s:5630   .debug_str:000000000000095f .LASF57
     /tmp/ccSTWq0T.s:5562   .debug_str:00000000000007a1 .LASF58
     /tmp/ccSTWq0T.s:5382   .debug_str:00000000000001db .LASF59
     /tmp/ccSTWq0T.s:5534   .debug_str:00000000000006bb .LASF60
     /tmp/ccSTWq0T.s:5436   .debug_str:0000000000000395 .LASF61
     /tmp/ccSTWq0T.s:5652   .debug_str:0000000000000a00 .LASF62
     /tmp/ccSTWq0T.s:5490   .debug_str:0000000000000560 .LASF63
     /tmp/ccSTWq0T.s:5356   .debug_str:0000000000000110 .LASF64
     /tmp/ccSTWq0T.s:5422   .debug_str:000000000000032d .LASF65
     /tmp/ccSTWq0T.s:5462   .debug_str:0000000000000498 .LASF66
     /tmp/ccSTWq0T.s:5368   .debug_str:000000000000016e .LASF67
     /tmp/ccSTWq0T.s:5690   .debug_str:0000000000000bb0 .LASF68
     /tmp/ccSTWq0T.s:5492   .debug_str:000000000000057a .LASF69
     /tmp/ccSTWq0T.s:5498   .debug_str:00000000000005bb .LASF70
     /tmp/ccSTWq0T.s:5742   .debug_str:0000000000000d52 .LASF71
     /tmp/ccSTWq0T.s:5440   .debug_str:00000000000003b5 .LASF72
     /tmp/ccSTWq0T.s:5680   .debug_str:0000000000000a9b .LASF73
     /tmp/ccSTWq0T.s:5716   .debug_str:0000000000000ca8 .LASF74
     /tmp/ccSTWq0T.s:5472   .debug_str:00000000000004cb .LASF75
     /tmp/ccSTWq0T.s:5758   .debug_str:0000000000000de8 .LASF76
     /tmp/ccSTWq0T.s:5418   .debug_str:0000000000000313 .LASF77
     /tmp/ccSTWq0T.s:5704   .debug_str:0000000000000c3f .LASF78
     /tmp/ccSTWq0T.s:5730   .debug_str:0000000000000d0f .LASF79
     /tmp/ccSTWq0T.s:5606   .debug_str:00000000000008b3 .LASF80
     /tmp/ccSTWq0T.s:5706   .debug_str:0000000000000c47 .LASF81
     /tmp/ccSTWq0T.s:5524   .debug_str:0000000000000674 .LASF82
     /tmp/ccSTWq0T.s:5666   .debug_str:0000000000000a4e .LASF83
     /tmp/ccSTWq0T.s:5746   .debug_str:0000000000000d77 .LASF84
     /tmp/ccSTWq0T.s:5570   .debug_str:00000000000007d1 .LASF85
     /tmp/ccSTWq0T.s:5488   .debug_str:000000000000055b .LASF87
     /tmp/ccSTWq0T.s:5410   .debug_str:00000000000002ca .LASF89
     /tmp/ccSTWq0T.s:5540   .debug_str:00000000000006e2 .LASF118
     /tmp/ccSTWq0T.s:5420   .debug_str:000000000000031a .LASF216
     /tmp/ccSTWq0T.s:5668   .debug_str:0000000000000a53 .LASF90
     /tmp/ccSTWq0T.s:5604   .debug_str:00000000000008ae .LASF91
     /tmp/ccSTWq0T.s:5504   .debug_str:0000000000000609 .LASF92
     /tmp/ccSTWq0T.s:5664   .debug_str:0000000000000a46 .LASF217
     /tmp/ccSTWq0T.s:5738   .debug_str:0000000000000d3b .LASF93
     /tmp/ccSTWq0T.s:5724   .debug_str:0000000000000ce9 .LASF94
     /tmp/ccSTWq0T.s:5754   .debug_str:0000000000000dcc .LASF218
     /tmp/ccSTWq0T.s:5508   .debug_str:0000000000000622 .LASF95
     /tmp/ccSTWq0T.s:5330   .debug_str:0000000000000046 .LASF96
     /tmp/ccSTWq0T.s:5392   .debug_str:0000000000000229 .LASF97
     /tmp/ccSTWq0T.s:5684   .debug_str:0000000000000b67 .LASF98
     /tmp/ccSTWq0T.s:5376   .debug_str:000000000000019f .LASF99
     /tmp/ccSTWq0T.s:5334   .debug_str:0000000000000057 .LASF100
     /tmp/ccSTWq0T.s:5596   .debug_str:0000000000000884 .LASF101
     /tmp/ccSTWq0T.s:5750   .debug_str:0000000000000d90 .LASF102
     /tmp/ccSTWq0T.s:5502   .debug_str:00000000000005e2 .LASF103
     /tmp/ccSTWq0T.s:5476   .debug_str:00000000000004f9 .LASF219
     /tmp/ccSTWq0T.s:5512   .debug_str:0000000000000630 .LASF104
     /tmp/ccSTWq0T.s:5698   .debug_str:0000000000000c07 .LASF105
     /tmp/ccSTWq0T.s:5608   .debug_str:00000000000008be .LASF106
     /tmp/ccSTWq0T.s:5396   .debug_str:0000000000000241 .LASF107
GAS LISTING /tmp/ccSTWq0T.s 			page 39


     /tmp/ccSTWq0T.s:5708   .debug_str:0000000000000c51 .LASF108
     /tmp/ccSTWq0T.s:5474   .debug_str:00000000000004d0 .LASF109
     /tmp/ccSTWq0T.s:5402   .debug_str:0000000000000283 .LASF110
     /tmp/ccSTWq0T.s:5712   .debug_str:0000000000000c73 .LASF111
     /tmp/ccSTWq0T.s:5464   .debug_str:00000000000004a8 .LASF112
     /tmp/ccSTWq0T.s:5430   .debug_str:000000000000037a .LASF113
     /tmp/ccSTWq0T.s:5648   .debug_str:00000000000009e7 .LASF114
     /tmp/ccSTWq0T.s:5554   .debug_str:000000000000076d .LASF115
     /tmp/ccSTWq0T.s:5514   .debug_str:0000000000000635 .LASF116
     /tmp/ccSTWq0T.s:5332   .debug_str:000000000000004e .LASF117
     /tmp/ccSTWq0T.s:5394   .debug_str:0000000000000232 .LASF119
     /tmp/ccSTWq0T.s:5710   .debug_str:0000000000000c59 .LASF120
     /tmp/ccSTWq0T.s:5718   .debug_str:0000000000000cad .LASF121
     /tmp/ccSTWq0T.s:5670   .debug_str:0000000000000a58 .LASF122
     /tmp/ccSTWq0T.s:5450   .debug_str:0000000000000417 .LASF123
     /tmp/ccSTWq0T.s:5364   .debug_str:000000000000013f .LASF124
     /tmp/ccSTWq0T.s:5454   .debug_str:000000000000044f .LASF125
     /tmp/ccSTWq0T.s:5328   .debug_str:000000000000001c .LASF220
     /tmp/ccSTWq0T.s:5626   .debug_str:0000000000000939 .LASF144
     /tmp/ccSTWq0T.s:5372   .debug_str:000000000000018f .LASF126
     /tmp/ccSTWq0T.s:5564   .debug_str:00000000000007a8 .LASF127
     /tmp/ccSTWq0T.s:5452   .debug_str:0000000000000437 .LASF221
     /tmp/ccSTWq0T.s:5470   .debug_str:00000000000004c4 .LASF128
     /tmp/ccSTWq0T.s:5400   .debug_str:0000000000000271 .LASF129
     /tmp/ccSTWq0T.s:5612   .debug_str:00000000000008d9 .LASF150
     /tmp/ccSTWq0T.s:5768   .debug_str:0000000000000e32 .LASF130
     /tmp/ccSTWq0T.s:5640   .debug_str:00000000000009a5 .LASF153
     /tmp/ccSTWq0T.s:5432   .debug_str:0000000000000380 .LASF155
     /tmp/ccSTWq0T.s:5636   .debug_str:0000000000000996 .LASF131
     /tmp/ccSTWq0T.s:5344   .debug_str:00000000000000b5 .LASF132
     /tmp/ccSTWq0T.s:5674   .debug_str:0000000000000a74 .LASF133
     /tmp/ccSTWq0T.s:5592   .debug_str:0000000000000866 .LASF134
     /tmp/ccSTWq0T.s:5582   .debug_str:0000000000000811 .LASF135
     /tmp/ccSTWq0T.s:5398   .debug_str:000000000000026c .LASF136
     /tmp/ccSTWq0T.s:5552   .debug_str:0000000000000759 .LASF137
     /tmp/ccSTWq0T.s:5374   .debug_str:0000000000000196 .LASF138
     /tmp/ccSTWq0T.s:5752   .debug_str:0000000000000db6 .LASF139
     /tmp/ccSTWq0T.s:5558   .debug_str:0000000000000782 .LASF140
     /tmp/ccSTWq0T.s:5594   .debug_str:0000000000000878 .LASF141
     /tmp/ccSTWq0T.s:5548   .debug_str:0000000000000726 .LASF142
     /tmp/ccSTWq0T.s:5766   .debug_str:0000000000000e23 .LASF143
     /tmp/ccSTWq0T.s:5480   .debug_str:0000000000000527 .LASF145
     /tmp/ccSTWq0T.s:5426   .debug_str:000000000000035c .LASF146
     /tmp/ccSTWq0T.s:5338   .debug_str:0000000000000077 .LASF147
     /tmp/ccSTWq0T.s:5722   .debug_str:0000000000000cdf .LASF148
     /tmp/ccSTWq0T.s:5676   .debug_str:0000000000000a79 .LASF149
     /tmp/ccSTWq0T.s:5760   .debug_str:0000000000000dee .LASF151
     /tmp/ccSTWq0T.s:5672   .debug_str:0000000000000a62 .LASF152
     /tmp/ccSTWq0T.s:5598   .debug_str:0000000000000889 .LASF154
     /tmp/ccSTWq0T.s:5632   .debug_str:000000000000096f .LASF156
     /tmp/ccSTWq0T.s:5416   .debug_str:000000000000030e .LASF157
     /tmp/ccSTWq0T.s:5692   .debug_str:0000000000000bbf .LASF159
     /tmp/ccSTWq0T.s:5662   .debug_str:0000000000000a3f .LASF158
     /tmp/ccSTWq0T.s:5694   .debug_str:0000000000000bd4 .LASF160
     /tmp/ccSTWq0T.s:5390   .debug_str:0000000000000219 .LASF161
     /tmp/ccSTWq0T.s:5688   .debug_str:0000000000000b8a .LASF162
     /tmp/ccSTWq0T.s:5482   .debug_str:0000000000000538 .LASF222
GAS LISTING /tmp/ccSTWq0T.s 			page 40


     /tmp/ccSTWq0T.s:5442   .debug_str:00000000000003c3 .LASF163
     /tmp/ccSTWq0T.s:5346   .debug_str:00000000000000c8 .LASF164
     /tmp/ccSTWq0T.s:5770   .debug_str:0000000000000e49 .LASF165
     /tmp/ccSTWq0T.s:522    .text._ZN14PeriodicThreadD0Ev:0000000000000000 .LFB68
     /tmp/ccSTWq0T.s:562    .text._ZN14PeriodicThreadD0Ev:000000000000004c .LFE68
     /tmp/ccSTWq0T.s:4822   .debug_loc:0000000000000000 .LLST13
     /tmp/ccSTWq0T.s:538    .text._ZN14PeriodicThreadD0Ev:0000000000000018 .LBB14
     /tmp/ccSTWq0T.s:546    .text._ZN14PeriodicThreadD0Ev:000000000000002c .LBE14
     /tmp/ccSTWq0T.s:4840   .debug_loc:000000000000004c .LLST14
     /tmp/ccSTWq0T.s:544    .text._ZN14PeriodicThreadD0Ev:000000000000002c .LVL39
     /tmp/ccSTWq0T.s:549    .text._ZN14PeriodicThreadD0Ev:0000000000000038 .LVL40
     /tmp/ccSTWq0T.s:5616   .debug_str:00000000000008ed .LASF166
     /tmp/ccSTWq0T.s:406    .text._ZN14PeriodicThreadD2Ev:0000000000000000 .LFB66
     /tmp/ccSTWq0T.s:434    .text._ZN14PeriodicThreadD2Ev:0000000000000034 .LFE66
     /tmp/ccSTWq0T.s:4851   .debug_loc:0000000000000082 .LLST10
     /tmp/ccSTWq0T.s:423    .text._ZN14PeriodicThreadD2Ev:0000000000000024 .LVL28
     /tmp/ccSTWq0T.s:1120   .text:00000000000004ec .LFB64
     /tmp/ccSTWq0T.s:1146   .text:0000000000000514 .LFE64
     /tmp/ccSTWq0T.s:4865   .debug_loc:00000000000000bb .LLST29
     /tmp/ccSTWq0T.s:1135   .text:0000000000000504 .LVL80
     /tmp/ccSTWq0T.s:1089   .text:00000000000004c4 .LFB63
     /tmp/ccSTWq0T.s:1114   .text:00000000000004ec .LFE63
     /tmp/ccSTWq0T.s:1103   .text:00000000000004dc .LVL78
     /tmp/ccSTWq0T.s:839    .text:0000000000000374 .LFB62
     /tmp/ccSTWq0T.s:890    .text:00000000000003c4 .LFE62
     /tmp/ccSTWq0T.s:4879   .debug_loc:00000000000000f4 .LLST22
     /tmp/ccSTWq0T.s:865    .text:000000000000039c .LVL62
     /tmp/ccSTWq0T.s:873    .text:00000000000003ac .LVL63
     /tmp/ccSTWq0T.s:5500   .debug_str:00000000000005ca .LASF167
     /tmp/ccSTWq0T.s:1037   .text:0000000000000474 .LFB60
     /tmp/ccSTWq0T.s:1081   .text:00000000000004c4 .LFE60
     /tmp/ccSTWq0T.s:4897   .debug_loc:0000000000000140 .LLST27
     /tmp/ccSTWq0T.s:4915   .debug_loc:000000000000018c .LLST28
     /tmp/ccSTWq0T.s:1058   .text:000000000000049c .LVL75
     /tmp/ccSTWq0T.s:1010   .text:0000000000000458 .LFB58
     /tmp/ccSTWq0T.s:1031   .text:0000000000000474 .LFE58
     /tmp/ccSTWq0T.s:974    .text:0000000000000428 .LFB57
     /tmp/ccSTWq0T.s:1004   .text:0000000000000458 .LFE57
     /tmp/ccSTWq0T.s:5468   .debug_str:00000000000004bf .LASF168
     /tmp/ccSTWq0T.s:4934   .debug_loc:00000000000001d9 .LLST25
     /tmp/ccSTWq0T.s:5510   .debug_str:000000000000062b .LASF169
     /tmp/ccSTWq0T.s:4948   .debug_loc:0000000000000212 .LLST26
     /tmp/ccSTWq0T.s:993    .text:0000000000000448 .LVL72
     /tmp/ccSTWq0T.s:203    .text:00000000000000a4 .LFB56
     /tmp/ccSTWq0T.s:231    .text:00000000000000d0 .LFE56
     /tmp/ccSTWq0T.s:4962   .debug_loc:000000000000024b .LLST4
     /tmp/ccSTWq0T.s:220    .text:00000000000000c0 .LVL16
     /tmp/ccSTWq0T.s:169    .text:0000000000000078 .LFB55
     /tmp/ccSTWq0T.s:197    .text:00000000000000a4 .LFE55
     /tmp/ccSTWq0T.s:4976   .debug_loc:0000000000000284 .LLST3
     /tmp/ccSTWq0T.s:186    .text:0000000000000094 .LVL13
     /tmp/ccSTWq0T.s:5522   .debug_str:0000000000000662 .LASF170
     /tmp/ccSTWq0T.s:482    .text:00000000000001d4 .LFB54
     /tmp/ccSTWq0T.s:515    .text:0000000000000214 .LFE54
     /tmp/ccSTWq0T.s:4990   .debug_loc:00000000000002bd .LLST12
     /tmp/ccSTWq0T.s:499    .text:00000000000001f4 .LVL34
     /tmp/ccSTWq0T.s:502    .text:0000000000000200 .LVL35
GAS LISTING /tmp/ccSTWq0T.s 			page 41


     /tmp/ccSTWq0T.s:5354   .debug_str:00000000000000fe .LASF171
     /tmp/ccSTWq0T.s:118    .text:0000000000000040 .LFB52
     /tmp/ccSTWq0T.s:153    .text:0000000000000078 .LFE52
     /tmp/ccSTWq0T.s:5008   .debug_loc:0000000000000309 .LLST2
     /tmp/ccSTWq0T.s:141    .text:0000000000000068 .LVL10
     /tmp/ccSTWq0T.s:5566   .debug_str:00000000000007b8 .LASF172
     /tmp/ccSTWq0T.s:933    .text:00000000000003f0 .LFB49
     /tmp/ccSTWq0T.s:966    .text:0000000000000428 .LFE49
     /tmp/ccSTWq0T.s:5022   .debug_loc:0000000000000342 .LLST23
     /tmp/ccSTWq0T.s:5042   .debug_loc:0000000000000390 .LLST24
     /tmp/ccSTWq0T.s:954    .text:0000000000000418 .LVL68
     /tmp/ccSTWq0T.s:62     .text:0000000000000000 .LFB47
     /tmp/ccSTWq0T.s:112    .text:0000000000000040 .LFE47
     /tmp/ccSTWq0T.s:5056   .debug_loc:00000000000003c9 .LLST0
     /tmp/ccSTWq0T.s:5614   .debug_str:00000000000008e6 .LASF173
     /tmp/ccSTWq0T.s:5081   .debug_loc:000000000000042b .LLST1
     /tmp/ccSTWq0T.s:108    .text:000000000000003c .LVL7
     /tmp/ccSTWq0T.s:5620   .debug_str:0000000000000913 .LASF174
     /tmp/ccSTWq0T.s:896    .text:00000000000003c4 .LFB45
     /tmp/ccSTWq0T.s:925    .text:00000000000003f0 .LFE45
     /tmp/ccSTWq0T.s:807    .text:000000000000034c .LFB43
     /tmp/ccSTWq0T.s:833    .text:0000000000000374 .LFE43
     /tmp/ccSTWq0T.s:5106   .debug_loc:000000000000048d .LLST21
     /tmp/ccSTWq0T.s:822    .text:0000000000000364 .LVL59
     /tmp/ccSTWq0T.s:776    .text:0000000000000324 .LFB42
     /tmp/ccSTWq0T.s:801    .text:000000000000034c .LFE42
     /tmp/ccSTWq0T.s:790    .text:000000000000033c .LVL57
     /tmp/ccSTWq0T.s:742    .text:00000000000002f8 .LFB41
     /tmp/ccSTWq0T.s:770    .text:0000000000000324 .LFE41
     /tmp/ccSTWq0T.s:5120   .debug_loc:00000000000004c6 .LLST20
     /tmp/ccSTWq0T.s:759    .text:0000000000000314 .LVL56
     /tmp/ccSTWq0T.s:708    .text:00000000000002cc .LFB40
     /tmp/ccSTWq0T.s:736    .text:00000000000002f8 .LFE40
     /tmp/ccSTWq0T.s:5134   .debug_loc:00000000000004ff .LLST18
     /tmp/ccSTWq0T.s:5580   .debug_str:000000000000080c .LASF175
     /tmp/ccSTWq0T.s:5148   .debug_loc:0000000000000538 .LLST19
     /tmp/ccSTWq0T.s:725    .text:00000000000002e8 .LVL53
     /tmp/ccSTWq0T.s:674    .text:00000000000002a0 .LFB39
     /tmp/ccSTWq0T.s:702    .text:00000000000002cc .LFE39
     /tmp/ccSTWq0T.s:5162   .debug_loc:0000000000000571 .LLST17
     /tmp/ccSTWq0T.s:691    .text:00000000000002bc .LVL50
     /tmp/ccSTWq0T.s:638    .text:0000000000000268 .LFB38
     /tmp/ccSTWq0T.s:668    .text:00000000000002a0 .LFE38
     /tmp/ccSTWq0T.s:5176   .debug_loc:00000000000005aa .LLST16
     /tmp/ccSTWq0T.s:657    .text:0000000000000290 .LVL47
     /tmp/ccSTWq0T.s:5526   .debug_str:000000000000067b .LASF176
     /tmp/ccSTWq0T.s:443    .text:0000000000000194 .LFB37
     /tmp/ccSTWq0T.s:476    .text:00000000000001d4 .LFE37
     /tmp/ccSTWq0T.s:5194   .debug_loc:00000000000005f6 .LLST11
     /tmp/ccSTWq0T.s:460    .text:00000000000001b4 .LVL30
     /tmp/ccSTWq0T.s:463    .text:00000000000001c0 .LVL31
     /tmp/ccSTWq0T.s:5740   .debug_str:0000000000000d43 .LASF177
     /tmp/ccSTWq0T.s:333    .text:0000000000000148 .LFB35
     /tmp/ccSTWq0T.s:390    .text:0000000000000194 .LFE35
     /tmp/ccSTWq0T.s:5212   .debug_loc:0000000000000642 .LLST8
     /tmp/ccSTWq0T.s:347    .text:0000000000000158 .LBB10
     /tmp/ccSTWq0T.s:355    .text:000000000000015c .LBE10
GAS LISTING /tmp/ccSTWq0T.s 			page 42


     /tmp/ccSTWq0T.s:5226   .debug_loc:000000000000067b .LLST9
     /tmp/ccSTWq0T.s:378    .text:0000000000000184 .LVL26
     /tmp/ccSTWq0T.s:5720   .debug_str:0000000000000cc8 .LASF178
     /tmp/ccSTWq0T.s:601    .text:000000000000023c .LFB32
     /tmp/ccSTWq0T.s:630    .text:0000000000000268 .LFE32
     /tmp/ccSTWq0T.s:5644   .debug_str:00000000000009be .LASF179
     /tmp/ccSTWq0T.s:5568   .debug_str:00000000000007ca .LASF180
     /tmp/ccSTWq0T.s:569    .text:0000000000000214 .LFB30
     /tmp/ccSTWq0T.s:595    .text:000000000000023c .LFE30
     /tmp/ccSTWq0T.s:5233   .debug_loc:000000000000069e .LLST15
     /tmp/ccSTWq0T.s:584    .text:000000000000022c .LVL43
     /tmp/ccSTWq0T.s:5340   .debug_str:000000000000007c .LASF181
     /tmp/ccSTWq0T.s:5574   .debug_str:00000000000007e5 .LASF182
     /tmp/ccSTWq0T.s:301    .text:0000000000000120 .LFB29
     /tmp/ccSTWq0T.s:327    .text:0000000000000148 .LFE29
     /tmp/ccSTWq0T.s:5247   .debug_loc:00000000000006d7 .LLST7
     /tmp/ccSTWq0T.s:316    .text:0000000000000138 .LVL22
     /tmp/ccSTWq0T.s:5378   .debug_str:00000000000001a8 .LASF183
     /tmp/ccSTWq0T.s:5360   .debug_str:0000000000000127 .LASF184
     /tmp/ccSTWq0T.s:269    .text:00000000000000f8 .LFB28
     /tmp/ccSTWq0T.s:295    .text:0000000000000120 .LFE28
     /tmp/ccSTWq0T.s:5261   .debug_loc:0000000000000710 .LLST6
     /tmp/ccSTWq0T.s:284    .text:0000000000000110 .LVL20
     /tmp/ccSTWq0T.s:5764   .debug_str:0000000000000e16 .LASF185
     /tmp/ccSTWq0T.s:5434   .debug_str:000000000000038f .LASF186
     /tmp/ccSTWq0T.s:237    .text:00000000000000d0 .LFB27
     /tmp/ccSTWq0T.s:263    .text:00000000000000f8 .LFE27
     /tmp/ccSTWq0T.s:5275   .debug_loc:0000000000000749 .LLST5
     /tmp/ccSTWq0T.s:252    .text:00000000000000e8 .LVL18
     /tmp/ccSTWq0T.s:37     .text._ZN14PeriodicThread18periodicActivationEv:0000000000000000 .LFB4
     /tmp/ccSTWq0T.s:55     .text._ZN14PeriodicThread18periodicActivationEv:0000000000000018 .LFE4
     /tmp/ccSTWq0T.s:11     .text._ZN6Thread3runEv:0000000000000000 .LFB0
     /tmp/ccSTWq0T.s:30     .text._ZN6Thread3runEv:0000000000000018 .LFE0
     /tmp/ccSTWq0T.s:5658   .debug_str:0000000000000a28 .LASF187
     /tmp/ccSTWq0T.s:5728   .debug_str:0000000000000d06 .LASF188
     /tmp/ccSTWq0T.s:5326   .debug_str:0000000000000000 .LASF189
     /tmp/ccSTWq0T.s:5650   .debug_str:00000000000009ec .LASF190
     /tmp/ccSTWq0T.s:5336   .debug_str:000000000000006c .LASF191
     /tmp/ccSTWq0T.s:5536   .debug_str:00000000000006c2 .LASF192
     /tmp/ccSTWq0T.s:5638   .debug_str:000000000000099c .LASF193
     /tmp/ccSTWq0T.s:5362   .debug_str:000000000000012d .LASF194
     /tmp/ccSTWq0T.s:5600   .debug_str:0000000000000894 .LASF195
     /tmp/ccSTWq0T.s:5748   .debug_str:0000000000000d7d .LASF196
     /tmp/ccSTWq0T.s:5358   .debug_str:000000000000011e .LASF197
     /tmp/ccSTWq0T.s:5588   .debug_str:000000000000084f .LASF198
     /tmp/ccSTWq0T.s:5406   .debug_str:000000000000029a .LASF199
     /tmp/ccSTWq0T.s:5352   .debug_str:00000000000000e9 .LASF200
     /tmp/ccSTWq0T.s:5602   .debug_str:000000000000089e .LASF201
     /tmp/ccSTWq0T.s:5428   .debug_str:0000000000000365 .LASF202
     /tmp/ccSTWq0T.s:5628   .debug_str:0000000000000953 .LASF203
     /tmp/ccSTWq0T.s:5544   .debug_str:0000000000000706 .LASF204
     /tmp/ccSTWq0T.s:5560   .debug_str:0000000000000795 .LASF205
     /tmp/ccSTWq0T.s:5634   .debug_str:0000000000000981 .LASF206
     /tmp/ccSTWq0T.s:5446   .debug_str:00000000000003d8 .LASF207
     /tmp/ccSTWq0T.s:5654   .debug_str:0000000000000a0e .LASF208
     /tmp/ccSTWq0T.s:5460   .debug_str:000000000000048a .LASF209
     /tmp/ccSTWq0T.s:5478   .debug_str:000000000000051e .LASF210
GAS LISTING /tmp/ccSTWq0T.s 			page 43


     /tmp/ccSTWq0T.s:5466   .debug_str:00000000000004b1 .LASF211
     /tmp/ccSTWq0T.s:5546   .debug_str:000000000000071c .LASF212
     /tmp/ccSTWq0T.s:525    .text._ZN14PeriodicThreadD0Ev:0000000000000000 .LVL37
     /tmp/ccSTWq0T.s:557    .text._ZN14PeriodicThreadD0Ev:0000000000000044 .LVL41
     /tmp/ccSTWq0T.s:537    .text._ZN14PeriodicThreadD0Ev:0000000000000018 .LVL38
     /tmp/ccSTWq0T.s:409    .text._ZN14PeriodicThreadD2Ev:0000000000000000 .LVL27
     /tmp/ccSTWq0T.s:1123   .text:00000000000004ec .LVL79
     /tmp/ccSTWq0T.s:842    .text:0000000000000374 .LVL60
     /tmp/ccSTWq0T.s:854    .text:000000000000038c .LVL61
     /tmp/ccSTWq0T.s:885    .text:00000000000003bc .LVL64
     /tmp/ccSTWq0T.s:1040   .text:0000000000000474 .LVL74
     /tmp/ccSTWq0T.s:1073   .text:00000000000004b8 .LVL76
     /tmp/ccSTWq0T.s:1076   .text:00000000000004bc .LVL77
     /tmp/ccSTWq0T.s:977    .text:0000000000000428 .LVL69
     /tmp/ccSTWq0T.s:991    .text:0000000000000440 .LVL71
     /tmp/ccSTWq0T.s:989    .text:000000000000043c .LVL70
     /tmp/ccSTWq0T.s:206    .text:00000000000000a4 .LVL14
     /tmp/ccSTWq0T.s:218    .text:00000000000000b8 .LVL15
     /tmp/ccSTWq0T.s:172    .text:0000000000000078 .LVL11
     /tmp/ccSTWq0T.s:184    .text:000000000000008c .LVL12
     /tmp/ccSTWq0T.s:485    .text:00000000000001d4 .LVL33
     /tmp/ccSTWq0T.s:510    .text:000000000000020c .LVL36
     /tmp/ccSTWq0T.s:123    .text:0000000000000040 .LVL8
     /tmp/ccSTWq0T.s:139    .text:0000000000000060 .LVL9
     /tmp/ccSTWq0T.s:936    .text:00000000000003f0 .LVL66
     /tmp/ccSTWq0T.s:952    .text:0000000000000410 .LVL67
     /tmp/ccSTWq0T.s:66     .text:0000000000000000 .LVL2
     /tmp/ccSTWq0T.s:85     .text:000000000000001c .LVL4
     /tmp/ccSTWq0T.s:99     .text:0000000000000030 .LVL6
     /tmp/ccSTWq0T.s:76     .text:0000000000000010 .LVL3
     /tmp/ccSTWq0T.s:810    .text:000000000000034c .LVL58
     /tmp/ccSTWq0T.s:745    .text:00000000000002f8 .LVL54
     /tmp/ccSTWq0T.s:757    .text:000000000000030c .LVL55
     /tmp/ccSTWq0T.s:711    .text:00000000000002cc .LVL51
     /tmp/ccSTWq0T.s:723    .text:00000000000002e0 .LVL52
     /tmp/ccSTWq0T.s:677    .text:00000000000002a0 .LVL48
     /tmp/ccSTWq0T.s:689    .text:00000000000002b4 .LVL49
     /tmp/ccSTWq0T.s:641    .text:0000000000000268 .LVL45
     /tmp/ccSTWq0T.s:655    .text:0000000000000288 .LVL46
     /tmp/ccSTWq0T.s:446    .text:0000000000000194 .LVL29
     /tmp/ccSTWq0T.s:471    .text:00000000000001cc .LVL32
     /tmp/ccSTWq0T.s:338    .text:0000000000000148 .LVL23
     /tmp/ccSTWq0T.s:346    .text:0000000000000158 .LVL24
     /tmp/ccSTWq0T.s:353    .text:000000000000015c .LVL25
     /tmp/ccSTWq0T.s:572    .text:0000000000000214 .LVL42
     /tmp/ccSTWq0T.s:304    .text:0000000000000120 .LVL21
     /tmp/ccSTWq0T.s:272    .text:00000000000000f8 .LVL19
     /tmp/ccSTWq0T.s:240    .text:00000000000000d0 .LVL17
     /tmp/ccSTWq0T.s:1189   .debug_info:0000000000000000 .Ldebug_info0
     /tmp/ccSTWq0T.s:5      .text:0000000000000000 .Ltext0
     /tmp/ccSTWq0T.s:1184   .text:0000000000000514 .Letext0
     /tmp/ccSTWq0T.s:156    .gcc_except_table:0000000000000000 .LLSDA52
     /tmp/ccSTWq0T.s:392    .gcc_except_table:0000000000000004 .LLSDA35
                           .group:0000000000000000 _ZN14PeriodicThreadD5Ev

UNDEFINED SYMBOLS
_Z9sem_closeP3Sem
GAS LISTING /tmp/ccSTWq0T.s 			page 44


__gxx_personality_v0
_Z8sem_waitP3Sem
_Z10sem_signalP3Sem
_Z9mem_allocm
_Z8mem_freePv
_Z13thread_createPP3TCBPFvPvES2_
_Z11thread_joinP3TCB
_Z11thread_joinP3TCBm
_Z11thread_killP3TCB
_Z15thread_dispatchv
_Z10time_sleepm
_Z8sem_openPP3Semj
_Z15signal_and_waitP3SemS0_
_Z4getcv
_Z4putcc
