GAS LISTING /tmp/cc1n5Awn.s 			page 1


   1              		.file	"syscall_c.cpp"
   2              		.option pic
   3              		.option norelax
   4              		.text
   5              	.Ltext0:
   6              		.align	2
   7              		.globl	_Z7syscallmmmmm
   9              	_Z7syscallmmmmm:
  10              	.LFB0:
  11              		.file 1 "src/syscall_c.cpp"
   1:src/syscall_c.cpp **** #include "../h/syscall_c.hpp"
   2:src/syscall_c.cpp **** 
   3:src/syscall_c.cpp **** 
   4:src/syscall_c.cpp **** uint64 syscall(uint64 code, uint64 arg1, uint64 arg2, uint64 arg3, uint64 arg4) {
  12              		.loc 1 4 81
  13              		.cfi_startproc
  14              	.LVL0:
  15 0000 130101FE 		addi	sp,sp,-32
  16              		.cfi_def_cfa_offset 32
  17 0004 233C8100 		sd	s0,24(sp)
  18              		.cfi_offset 8, -8
  19 0008 13040102 		addi	s0,sp,32
  20              		.cfi_def_cfa 8, 0
   5:src/syscall_c.cpp ****     uint64 volatile ret;
  21              		.loc 1 5 5
   6:src/syscall_c.cpp ****     __asm__ volatile("ecall");
  22              		.loc 1 6 5
  23              		.loc 1 6 30 is_stmt 0
  24              	#APP
  25              	# 6 "src/syscall_c.cpp" 1
   7              	    __asm__ volatile ("mv %[ret], a0" : [ret] "=r"(ret));
  26              		ecall
  27              	# 0 "" 2
  28              		.loc 1 7 5 is_stmt 1
  29              		.loc 1 7 57 is_stmt 0
  30              	# 7 "src/syscall_c.cpp" 1
   8              	    return ret;
  31              		mv a5, a0
  32              	# 0 "" 2
  33              	#NO_APP
  34 0014 2334F4FE 		sd	a5,-24(s0)
  35              		.loc 1 8 5 is_stmt 1
  36              		.loc 1 8 12 is_stmt 0
  37 0018 033584FE 		ld	a0,-24(s0)
  38              	.LVL1:
   9:src/syscall_c.cpp **** }
  39              		.loc 1 9 1
  40 001c 03348101 		ld	s0,24(sp)
  41              		.cfi_restore 8
  42              		.cfi_def_cfa 2, 32
  43 0020 13010102 		addi	sp,sp,32
  44              		.cfi_def_cfa_offset 0
  45 0024 67800000 		jr	ra
  46              		.cfi_endproc
  47              	.LFE0:
  49              		.align	2
  50              		.globl	_Z9mem_allocm
GAS LISTING /tmp/cc1n5Awn.s 			page 2


  52              	_Z9mem_allocm:
  53              	.LFB1:
  10:src/syscall_c.cpp **** 
  11:src/syscall_c.cpp **** void *mem_alloc(size_t size) {
  54              		.loc 1 11 30 is_stmt 1
  55              		.cfi_startproc
  56              	.LVL2:
  12:src/syscall_c.cpp ****     if (size == 0) return nullptr;
  57              		.loc 1 12 5
  58 0028 63000504 		beqz	a0,.L5
  11:src/syscall_c.cpp ****     if (size == 0) return nullptr;
  59              		.loc 1 11 30 is_stmt 0
  60 002c 130101FF 		addi	sp,sp,-16
  61              		.cfi_def_cfa_offset 16
  62 0030 23341100 		sd	ra,8(sp)
  63 0034 23308100 		sd	s0,0(sp)
  64              		.cfi_offset 1, -8
  65              		.cfi_offset 8, -16
  66 0038 13040101 		addi	s0,sp,16
  67              		.cfi_def_cfa 8, 0
  68 003c 93050500 		mv	a1,a0
  13:src/syscall_c.cpp ****     return (void *) syscall(MEM_ALLOC, size);
  69              		.loc 1 13 5 is_stmt 1
  70              		.loc 1 13 28 is_stmt 0
  71 0040 13070000 		li	a4,0
  72 0044 93060000 		li	a3,0
  73 0048 13060000 		li	a2,0
  74 004c 13050000 		li	a0,0
  75              	.LVL3:
  76 0050 97000000 		call	_Z7syscallmmmmm
  76      E7800000 
  77              	.LVL4:
  14:src/syscall_c.cpp **** }
  78              		.loc 1 14 1
  79 0058 83308100 		ld	ra,8(sp)
  80              		.cfi_restore 1
  81 005c 03340100 		ld	s0,0(sp)
  82              		.cfi_restore 8
  83              		.cfi_def_cfa 2, 16
  84 0060 13010101 		addi	sp,sp,16
  85              		.cfi_def_cfa_offset 0
  86 0064 67800000 		jr	ra
  87              	.LVL5:
  88              	.L5:
  12:src/syscall_c.cpp ****     return (void *) syscall(MEM_ALLOC, size);
  89              		.loc 1 12 27
  90 0068 13050000 		li	a0,0
  91              	.LVL6:
  92              		.loc 1 14 1
  93 006c 67800000 		ret
  94              		.cfi_endproc
  95              	.LFE1:
  97              		.align	2
  98              		.globl	_Z8mem_freePv
 100              	_Z8mem_freePv:
 101              	.LFB2:
  15:src/syscall_c.cpp **** 
GAS LISTING /tmp/cc1n5Awn.s 			page 3


  16:src/syscall_c.cpp **** int mem_free(void *mem) {
 102              		.loc 1 16 25 is_stmt 1
 103              		.cfi_startproc
 104              	.LVL7:
 105 0070 130101FF 		addi	sp,sp,-16
 106              		.cfi_def_cfa_offset 16
 107 0074 23341100 		sd	ra,8(sp)
 108 0078 23308100 		sd	s0,0(sp)
 109              		.cfi_offset 1, -8
 110              		.cfi_offset 8, -16
 111 007c 13040101 		addi	s0,sp,16
 112              		.cfi_def_cfa 8, 0
 113 0080 93050500 		mv	a1,a0
  17:src/syscall_c.cpp ****     return (int) syscall(MEM_FREE, (uint64) mem);
 114              		.loc 1 17 5
 115              		.loc 1 17 25 is_stmt 0
 116 0084 13070000 		li	a4,0
 117 0088 93060000 		li	a3,0
 118 008c 13060000 		li	a2,0
 119 0090 13051000 		li	a0,1
 120              	.LVL8:
 121 0094 97000000 		call	_Z7syscallmmmmm
 121      E7800000 
 122              	.LVL9:
  18:src/syscall_c.cpp **** }
 123              		.loc 1 18 1
 124 009c 1B050500 		sext.w	a0,a0
 125 00a0 83308100 		ld	ra,8(sp)
 126              		.cfi_restore 1
 127 00a4 03340100 		ld	s0,0(sp)
 128              		.cfi_restore 8
 129              		.cfi_def_cfa 2, 16
 130 00a8 13010101 		addi	sp,sp,16
 131              		.cfi_def_cfa_offset 0
 132 00ac 67800000 		jr	ra
 133              		.cfi_endproc
 134              	.LFE2:
 136              		.align	2
 137              		.globl	_Z13thread_createPP3TCBPFvPvES2_
 139              	_Z13thread_createPP3TCBPFvPvES2_:
 140              	.LFB3:
  19:src/syscall_c.cpp **** 
  20:src/syscall_c.cpp **** int thread_create(thread_t *handle, void(*start_routine)(void *), void *arg) {
 141              		.loc 1 20 78 is_stmt 1
 142              		.cfi_startproc
 143              	.LVL10:
 144 00b0 130101FD 		addi	sp,sp,-48
 145              		.cfi_def_cfa_offset 48
 146 00b4 23341102 		sd	ra,40(sp)
 147 00b8 23308102 		sd	s0,32(sp)
 148 00bc 233C9100 		sd	s1,24(sp)
 149 00c0 23382101 		sd	s2,16(sp)
 150 00c4 23343101 		sd	s3,8(sp)
 151              		.cfi_offset 1, -8
 152              		.cfi_offset 8, -16
 153              		.cfi_offset 9, -24
 154              		.cfi_offset 18, -32
GAS LISTING /tmp/cc1n5Awn.s 			page 4


 155              		.cfi_offset 19, -40
 156 00c8 13040103 		addi	s0,sp,48
 157              		.cfi_def_cfa 8, 0
 158 00cc 13090500 		mv	s2,a0
 159 00d0 93840500 		mv	s1,a1
 160 00d4 93090600 		mv	s3,a2
  21:src/syscall_c.cpp ****     void *stack_space = nullptr;
 161              		.loc 1 21 5
 162              	.LVL11:
  22:src/syscall_c.cpp ****     if (start_routine) {
 163              		.loc 1 22 5
 164 00d8 63860504 		beqz	a1,.L14
  23:src/syscall_c.cpp ****         stack_space = mem_alloc(DEFAULT_STACK_SIZE);
 165              		.loc 1 23 9
 166              		.loc 1 23 32 is_stmt 0
 167 00dc 37450000 		li	a0,16384
 168              	.LVL12:
 169 00e0 97000000 		call	_Z9mem_allocm
 169      E7800000 
 170              	.LVL13:
 171 00e8 13070500 		mv	a4,a0
 172              	.LVL14:
 173              	.L13:
  24:src/syscall_c.cpp ****     }
  25:src/syscall_c.cpp ****     return (int) syscall(THREAD_CREATE, (uint64) handle, (uint64) start_routine, (uint64) arg, (uin
 174              		.loc 1 25 5 is_stmt 1
 175              		.loc 1 25 25 is_stmt 0
 176 00ec 93860900 		mv	a3,s3
 177 00f0 13860400 		mv	a2,s1
 178 00f4 93050900 		mv	a1,s2
 179 00f8 13052000 		li	a0,2
 180 00fc 97000000 		call	_Z7syscallmmmmm
 180      E7800000 
 181              	.LVL15:
  26:src/syscall_c.cpp **** }
 182              		.loc 1 26 1
 183 0104 1B050500 		sext.w	a0,a0
 184 0108 83308102 		ld	ra,40(sp)
 185              		.cfi_remember_state
 186              		.cfi_restore 1
 187 010c 03340102 		ld	s0,32(sp)
 188              		.cfi_restore 8
 189              		.cfi_def_cfa 2, 48
 190 0110 83348101 		ld	s1,24(sp)
 191              		.cfi_restore 9
 192              	.LVL16:
 193 0114 03390101 		ld	s2,16(sp)
 194              		.cfi_restore 18
 195              	.LVL17:
 196 0118 83398100 		ld	s3,8(sp)
 197              		.cfi_restore 19
 198              	.LVL18:
 199 011c 13010103 		addi	sp,sp,48
 200              		.cfi_def_cfa_offset 0
 201 0120 67800000 		jr	ra
 202              	.LVL19:
 203              	.L14:
GAS LISTING /tmp/cc1n5Awn.s 			page 5


 204              		.cfi_restore_state
  21:src/syscall_c.cpp ****     if (start_routine) {
 205              		.loc 1 21 11
 206 0124 13070000 		li	a4,0
 207 0128 6FF05FFC 		j	.L13
 208              		.cfi_endproc
 209              	.LFE3:
 211              		.align	2
 212              		.globl	_Z11thread_exitv
 214              	_Z11thread_exitv:
 215              	.LFB4:
  27:src/syscall_c.cpp **** 
  28:src/syscall_c.cpp **** int thread_exit() {
 216              		.loc 1 28 19 is_stmt 1
 217              		.cfi_startproc
 218 012c 130101FF 		addi	sp,sp,-16
 219              		.cfi_def_cfa_offset 16
 220 0130 23341100 		sd	ra,8(sp)
 221 0134 23308100 		sd	s0,0(sp)
 222              		.cfi_offset 1, -8
 223              		.cfi_offset 8, -16
 224 0138 13040101 		addi	s0,sp,16
 225              		.cfi_def_cfa 8, 0
  29:src/syscall_c.cpp ****     return (int) syscall(THREAD_EXIT);
 226              		.loc 1 29 5
 227              		.loc 1 29 25 is_stmt 0
 228 013c 13070000 		li	a4,0
 229 0140 93060000 		li	a3,0
 230 0144 13060000 		li	a2,0
 231 0148 93050000 		li	a1,0
 232 014c 13053000 		li	a0,3
 233 0150 97000000 		call	_Z7syscallmmmmm
 233      E7800000 
 234              	.LVL20:
  30:src/syscall_c.cpp **** }
 235              		.loc 1 30 1
 236 0158 1B050500 		sext.w	a0,a0
 237 015c 83308100 		ld	ra,8(sp)
 238              		.cfi_restore 1
 239 0160 03340100 		ld	s0,0(sp)
 240              		.cfi_restore 8
 241              		.cfi_def_cfa 2, 16
 242 0164 13010101 		addi	sp,sp,16
 243              		.cfi_def_cfa_offset 0
 244 0168 67800000 		jr	ra
 245              		.cfi_endproc
 246              	.LFE4:
 248              		.align	2
 249              		.globl	_Z15thread_dispatchv
 251              	_Z15thread_dispatchv:
 252              	.LFB5:
  31:src/syscall_c.cpp **** 
  32:src/syscall_c.cpp **** void thread_dispatch() {
 253              		.loc 1 32 24 is_stmt 1
 254              		.cfi_startproc
 255 016c 130101FF 		addi	sp,sp,-16
 256              		.cfi_def_cfa_offset 16
GAS LISTING /tmp/cc1n5Awn.s 			page 6


 257 0170 23341100 		sd	ra,8(sp)
 258 0174 23308100 		sd	s0,0(sp)
 259              		.cfi_offset 1, -8
 260              		.cfi_offset 8, -16
 261 0178 13040101 		addi	s0,sp,16
 262              		.cfi_def_cfa 8, 0
  33:src/syscall_c.cpp ****     (void) syscall(THREAD_DISPATCH);
 263              		.loc 1 33 5
 264              		.loc 1 33 19 is_stmt 0
 265 017c 13070000 		li	a4,0
 266 0180 93060000 		li	a3,0
 267 0184 13060000 		li	a2,0
 268 0188 93050000 		li	a1,0
 269 018c 13054000 		li	a0,4
 270 0190 97000000 		call	_Z7syscallmmmmm
 270      E7800000 
 271              	.LVL21:
  34:src/syscall_c.cpp **** }
 272              		.loc 1 34 1
 273 0198 83308100 		ld	ra,8(sp)
 274              		.cfi_restore 1
 275 019c 03340100 		ld	s0,0(sp)
 276              		.cfi_restore 8
 277              		.cfi_def_cfa 2, 16
 278 01a0 13010101 		addi	sp,sp,16
 279              		.cfi_def_cfa_offset 0
 280 01a4 67800000 		jr	ra
 281              		.cfi_endproc
 282              	.LFE5:
 284              		.align	2
 285              		.globl	_Z11thread_joinP3TCB
 287              	_Z11thread_joinP3TCB:
 288              	.LFB6:
  35:src/syscall_c.cpp **** 
  36:src/syscall_c.cpp **** void thread_join(thread_t handle) {
 289              		.loc 1 36 35 is_stmt 1
 290              		.cfi_startproc
 291              	.LVL22:
 292 01a8 130101FF 		addi	sp,sp,-16
 293              		.cfi_def_cfa_offset 16
 294 01ac 23341100 		sd	ra,8(sp)
 295 01b0 23308100 		sd	s0,0(sp)
 296              		.cfi_offset 1, -8
 297              		.cfi_offset 8, -16
 298 01b4 13040101 		addi	s0,sp,16
 299              		.cfi_def_cfa 8, 0
 300 01b8 93050500 		mv	a1,a0
  37:src/syscall_c.cpp ****     (void) syscall(THREAD_JOIN, (uint64) handle);
 301              		.loc 1 37 5
 302              		.loc 1 37 19 is_stmt 0
 303 01bc 13070000 		li	a4,0
 304 01c0 93060000 		li	a3,0
 305 01c4 13060000 		li	a2,0
 306 01c8 13055000 		li	a0,5
 307              	.LVL23:
 308 01cc 97000000 		call	_Z7syscallmmmmm
 308      E7800000 
GAS LISTING /tmp/cc1n5Awn.s 			page 7


 309              	.LVL24:
  38:src/syscall_c.cpp **** }
 310              		.loc 1 38 1
 311 01d4 83308100 		ld	ra,8(sp)
 312              		.cfi_restore 1
 313 01d8 03340100 		ld	s0,0(sp)
 314              		.cfi_restore 8
 315              		.cfi_def_cfa 2, 16
 316 01dc 13010101 		addi	sp,sp,16
 317              		.cfi_def_cfa_offset 0
 318 01e0 67800000 		jr	ra
 319              		.cfi_endproc
 320              	.LFE6:
 322              		.align	2
 323              		.globl	_Z11thread_joinP3TCBm
 325              	_Z11thread_joinP3TCBm:
 326              	.LFB7:
  39:src/syscall_c.cpp **** 
  40:src/syscall_c.cpp **** void thread_join(thread_t handle, time_t time) {
 327              		.loc 1 40 48 is_stmt 1
 328              		.cfi_startproc
 329              	.LVL25:
 330 01e4 130101FE 		addi	sp,sp,-32
 331              		.cfi_def_cfa_offset 32
 332 01e8 233C1100 		sd	ra,24(sp)
 333 01ec 23388100 		sd	s0,16(sp)
 334 01f0 23349100 		sd	s1,8(sp)
 335 01f4 23302101 		sd	s2,0(sp)
 336              		.cfi_offset 1, -8
 337              		.cfi_offset 8, -16
 338              		.cfi_offset 9, -24
 339              		.cfi_offset 18, -32
 340 01f8 13040102 		addi	s0,sp,32
 341              		.cfi_def_cfa 8, 0
 342 01fc 13090500 		mv	s2,a0
 343 0200 93840500 		mv	s1,a1
  41:src/syscall_c.cpp ****     if (time == 0) thread_join(handle);
 344              		.loc 1 41 5
 345 0204 638C0502 		beqz	a1,.L25
 346              	.LVL26:
 347              	.L23:
  42:src/syscall_c.cpp ****     (void) syscall(THREAD_JOIN_TIME, (uint64) handle, time);
 348              		.loc 1 42 5
 349              		.loc 1 42 19 is_stmt 0
 350 0208 13070000 		li	a4,0
 351 020c 93060000 		li	a3,0
 352 0210 13860400 		mv	a2,s1
 353 0214 93050900 		mv	a1,s2
 354 0218 13056000 		li	a0,6
 355 021c 97000000 		call	_Z7syscallmmmmm
 355      E7800000 
 356              	.LVL27:
  43:src/syscall_c.cpp **** }
 357              		.loc 1 43 1
 358 0224 83308101 		ld	ra,24(sp)
 359              		.cfi_remember_state
 360              		.cfi_restore 1
GAS LISTING /tmp/cc1n5Awn.s 			page 8


 361 0228 03340101 		ld	s0,16(sp)
 362              		.cfi_restore 8
 363              		.cfi_def_cfa 2, 32
 364 022c 83348100 		ld	s1,8(sp)
 365              		.cfi_restore 9
 366              	.LVL28:
 367 0230 03390100 		ld	s2,0(sp)
 368              		.cfi_restore 18
 369              	.LVL29:
 370 0234 13010102 		addi	sp,sp,32
 371              		.cfi_def_cfa_offset 0
 372 0238 67800000 		jr	ra
 373              	.LVL30:
 374              	.L25:
 375              		.cfi_restore_state
  41:src/syscall_c.cpp ****     if (time == 0) thread_join(handle);
 376              		.loc 1 41 20 is_stmt 1 discriminator 1
  41:src/syscall_c.cpp ****     if (time == 0) thread_join(handle);
 377              		.loc 1 41 31 is_stmt 0 discriminator 1
 378 023c 97000000 		call	_Z11thread_joinP3TCB
 378      E7800000 
 379              	.LVL31:
 380 0244 6FF05FFC 		j	.L23
 381              		.cfi_endproc
 382              	.LFE7:
 384              		.align	2
 385              		.globl	_Z4forkv
 387              	_Z4forkv:
 388              	.LFB8:
  44:src/syscall_c.cpp **** 
  45:src/syscall_c.cpp **** int fork() {
 389              		.loc 1 45 12 is_stmt 1
 390              		.cfi_startproc
 391 0248 130101FF 		addi	sp,sp,-16
 392              		.cfi_def_cfa_offset 16
 393 024c 23341100 		sd	ra,8(sp)
 394 0250 23308100 		sd	s0,0(sp)
 395              		.cfi_offset 1, -8
 396              		.cfi_offset 8, -16
 397 0254 13040101 		addi	s0,sp,16
 398              		.cfi_def_cfa 8, 0
  46:src/syscall_c.cpp ****     return (int) syscall(THREAD_FORK);
 399              		.loc 1 46 5
 400              		.loc 1 46 25 is_stmt 0
 401 0258 13070000 		li	a4,0
 402 025c 93060000 		li	a3,0
 403 0260 13060000 		li	a2,0
 404 0264 93050000 		li	a1,0
 405 0268 13057000 		li	a0,7
 406 026c 97000000 		call	_Z7syscallmmmmm
 406      E7800000 
 407              	.LVL32:
  47:src/syscall_c.cpp **** }
 408              		.loc 1 47 1
 409 0274 1B050500 		sext.w	a0,a0
 410 0278 83308100 		ld	ra,8(sp)
 411              		.cfi_restore 1
GAS LISTING /tmp/cc1n5Awn.s 			page 9


 412 027c 03340100 		ld	s0,0(sp)
 413              		.cfi_restore 8
 414              		.cfi_def_cfa 2, 16
 415 0280 13010101 		addi	sp,sp,16
 416              		.cfi_def_cfa_offset 0
 417 0284 67800000 		jr	ra
 418              		.cfi_endproc
 419              	.LFE8:
 421              		.align	2
 422              		.globl	_Z11thread_killP3TCB
 424              	_Z11thread_killP3TCB:
 425              	.LFB9:
  48:src/syscall_c.cpp **** 
  49:src/syscall_c.cpp **** int thread_kill(thread_t handle) {
 426              		.loc 1 49 34 is_stmt 1
 427              		.cfi_startproc
 428              	.LVL33:
 429 0288 130101FF 		addi	sp,sp,-16
 430              		.cfi_def_cfa_offset 16
 431 028c 23341100 		sd	ra,8(sp)
 432 0290 23308100 		sd	s0,0(sp)
 433              		.cfi_offset 1, -8
 434              		.cfi_offset 8, -16
 435 0294 13040101 		addi	s0,sp,16
 436              		.cfi_def_cfa 8, 0
 437 0298 93050500 		mv	a1,a0
  50:src/syscall_c.cpp ****     return (int) syscall(THREAD_KILL, (uint64) handle);
 438              		.loc 1 50 5
 439              		.loc 1 50 25 is_stmt 0
 440 029c 13070000 		li	a4,0
 441 02a0 93060000 		li	a3,0
 442 02a4 13060000 		li	a2,0
 443 02a8 13058000 		li	a0,8
 444              	.LVL34:
 445 02ac 97000000 		call	_Z7syscallmmmmm
 445      E7800000 
 446              	.LVL35:
  51:src/syscall_c.cpp **** }
 447              		.loc 1 51 1
 448 02b4 1B050500 		sext.w	a0,a0
 449 02b8 83308100 		ld	ra,8(sp)
 450              		.cfi_restore 1
 451 02bc 03340100 		ld	s0,0(sp)
 452              		.cfi_restore 8
 453              		.cfi_def_cfa 2, 16
 454 02c0 13010101 		addi	sp,sp,16
 455              		.cfi_def_cfa_offset 0
 456 02c4 67800000 		jr	ra
 457              		.cfi_endproc
 458              	.LFE9:
 460              		.align	2
 461              		.globl	_Z8sem_openPP3Semj
 463              	_Z8sem_openPP3Semj:
 464              	.LFB10:
  52:src/syscall_c.cpp **** 
  53:src/syscall_c.cpp **** int sem_open(sem_t *handle, unsigned init) {
 465              		.loc 1 53 44 is_stmt 1
GAS LISTING /tmp/cc1n5Awn.s 			page 10


 466              		.cfi_startproc
 467              	.LVL36:
 468 02c8 130101FF 		addi	sp,sp,-16
 469              		.cfi_def_cfa_offset 16
 470 02cc 23341100 		sd	ra,8(sp)
 471 02d0 23308100 		sd	s0,0(sp)
 472              		.cfi_offset 1, -8
 473              		.cfi_offset 8, -16
 474 02d4 13040101 		addi	s0,sp,16
 475              		.cfi_def_cfa 8, 0
  54:src/syscall_c.cpp ****     return (int) syscall(SEM_OPEN, (uint64) handle, init);
 476              		.loc 1 54 5
 477              		.loc 1 54 25 is_stmt 0
 478 02d8 13070000 		li	a4,0
 479 02dc 93060000 		li	a3,0
 480 02e0 13960502 		slli	a2,a1,32
 481 02e4 13560602 		srli	a2,a2,32
 482 02e8 93050500 		mv	a1,a0
 483              	.LVL37:
 484 02ec 13059000 		li	a0,9
 485              	.LVL38:
 486 02f0 97000000 		call	_Z7syscallmmmmm
 486      E7800000 
 487              	.LVL39:
  55:src/syscall_c.cpp **** }
 488              		.loc 1 55 1
 489 02f8 1B050500 		sext.w	a0,a0
 490 02fc 83308100 		ld	ra,8(sp)
 491              		.cfi_restore 1
 492 0300 03340100 		ld	s0,0(sp)
 493              		.cfi_restore 8
 494              		.cfi_def_cfa 2, 16
 495 0304 13010101 		addi	sp,sp,16
 496              		.cfi_def_cfa_offset 0
 497 0308 67800000 		jr	ra
 498              		.cfi_endproc
 499              	.LFE10:
 501              		.align	2
 502              		.globl	_Z9sem_closeP3Sem
 504              	_Z9sem_closeP3Sem:
 505              	.LFB11:
  56:src/syscall_c.cpp **** 
  57:src/syscall_c.cpp **** int sem_close(sem_t id) {
 506              		.loc 1 57 25 is_stmt 1
 507              		.cfi_startproc
 508              	.LVL40:
 509 030c 130101FF 		addi	sp,sp,-16
 510              		.cfi_def_cfa_offset 16
 511 0310 23341100 		sd	ra,8(sp)
 512 0314 23308100 		sd	s0,0(sp)
 513              		.cfi_offset 1, -8
 514              		.cfi_offset 8, -16
 515 0318 13040101 		addi	s0,sp,16
 516              		.cfi_def_cfa 8, 0
 517 031c 93050500 		mv	a1,a0
  58:src/syscall_c.cpp ****     return (int) syscall(SEM_CLOSE, (uint64) id);
 518              		.loc 1 58 5
GAS LISTING /tmp/cc1n5Awn.s 			page 11


 519              		.loc 1 58 25 is_stmt 0
 520 0320 13070000 		li	a4,0
 521 0324 93060000 		li	a3,0
 522 0328 13060000 		li	a2,0
 523 032c 1305A000 		li	a0,10
 524              	.LVL41:
 525 0330 97000000 		call	_Z7syscallmmmmm
 525      E7800000 
 526              	.LVL42:
  59:src/syscall_c.cpp **** }
 527              		.loc 1 59 1
 528 0338 1B050500 		sext.w	a0,a0
 529 033c 83308100 		ld	ra,8(sp)
 530              		.cfi_restore 1
 531 0340 03340100 		ld	s0,0(sp)
 532              		.cfi_restore 8
 533              		.cfi_def_cfa 2, 16
 534 0344 13010101 		addi	sp,sp,16
 535              		.cfi_def_cfa_offset 0
 536 0348 67800000 		jr	ra
 537              		.cfi_endproc
 538              	.LFE11:
 540              		.align	2
 541              		.globl	_Z8sem_waitP3Sem
 543              	_Z8sem_waitP3Sem:
 544              	.LFB12:
  60:src/syscall_c.cpp **** 
  61:src/syscall_c.cpp **** int sem_wait(sem_t id) {
 545              		.loc 1 61 24 is_stmt 1
 546              		.cfi_startproc
 547              	.LVL43:
 548 034c 130101FF 		addi	sp,sp,-16
 549              		.cfi_def_cfa_offset 16
 550 0350 23341100 		sd	ra,8(sp)
 551 0354 23308100 		sd	s0,0(sp)
 552              		.cfi_offset 1, -8
 553              		.cfi_offset 8, -16
 554 0358 13040101 		addi	s0,sp,16
 555              		.cfi_def_cfa 8, 0
 556 035c 93050500 		mv	a1,a0
  62:src/syscall_c.cpp ****     return (int) syscall(SEM_WAIT, (uint64) id);
 557              		.loc 1 62 5
 558              		.loc 1 62 25 is_stmt 0
 559 0360 13070000 		li	a4,0
 560 0364 93060000 		li	a3,0
 561 0368 13060000 		li	a2,0
 562 036c 1305B000 		li	a0,11
 563              	.LVL44:
 564 0370 97000000 		call	_Z7syscallmmmmm
 564      E7800000 
 565              	.LVL45:
  63:src/syscall_c.cpp **** }
 566              		.loc 1 63 1
 567 0378 1B050500 		sext.w	a0,a0
 568 037c 83308100 		ld	ra,8(sp)
 569              		.cfi_restore 1
 570 0380 03340100 		ld	s0,0(sp)
GAS LISTING /tmp/cc1n5Awn.s 			page 12


 571              		.cfi_restore 8
 572              		.cfi_def_cfa 2, 16
 573 0384 13010101 		addi	sp,sp,16
 574              		.cfi_def_cfa_offset 0
 575 0388 67800000 		jr	ra
 576              		.cfi_endproc
 577              	.LFE12:
 579              		.align	2
 580              		.globl	_Z10sem_signalP3Sem
 582              	_Z10sem_signalP3Sem:
 583              	.LFB13:
  64:src/syscall_c.cpp **** 
  65:src/syscall_c.cpp **** int sem_signal(sem_t id) {
 584              		.loc 1 65 26 is_stmt 1
 585              		.cfi_startproc
 586              	.LVL46:
 587 038c 130101FF 		addi	sp,sp,-16
 588              		.cfi_def_cfa_offset 16
 589 0390 23341100 		sd	ra,8(sp)
 590 0394 23308100 		sd	s0,0(sp)
 591              		.cfi_offset 1, -8
 592              		.cfi_offset 8, -16
 593 0398 13040101 		addi	s0,sp,16
 594              		.cfi_def_cfa 8, 0
 595 039c 93050500 		mv	a1,a0
  66:src/syscall_c.cpp ****     return (int) syscall(SEM_SIGNAL, (uint64) id);
 596              		.loc 1 66 5
 597              		.loc 1 66 25 is_stmt 0
 598 03a0 13070000 		li	a4,0
 599 03a4 93060000 		li	a3,0
 600 03a8 13060000 		li	a2,0
 601 03ac 1305C000 		li	a0,12
 602              	.LVL47:
 603 03b0 97000000 		call	_Z7syscallmmmmm
 603      E7800000 
 604              	.LVL48:
  67:src/syscall_c.cpp **** }
 605              		.loc 1 67 1
 606 03b8 1B050500 		sext.w	a0,a0
 607 03bc 83308100 		ld	ra,8(sp)
 608              		.cfi_restore 1
 609 03c0 03340100 		ld	s0,0(sp)
 610              		.cfi_restore 8
 611              		.cfi_def_cfa 2, 16
 612 03c4 13010101 		addi	sp,sp,16
 613              		.cfi_def_cfa_offset 0
 614 03c8 67800000 		jr	ra
 615              		.cfi_endproc
 616              	.LFE13:
 618              		.align	2
 619              		.globl	_Z14sem_signal_allP3Sem
 621              	_Z14sem_signal_allP3Sem:
 622              	.LFB14:
  68:src/syscall_c.cpp **** 
  69:src/syscall_c.cpp **** int sem_signal_all(sem_t id) {
 623              		.loc 1 69 30 is_stmt 1
 624              		.cfi_startproc
GAS LISTING /tmp/cc1n5Awn.s 			page 13


 625              	.LVL49:
 626 03cc 130101FF 		addi	sp,sp,-16
 627              		.cfi_def_cfa_offset 16
 628 03d0 23341100 		sd	ra,8(sp)
 629 03d4 23308100 		sd	s0,0(sp)
 630              		.cfi_offset 1, -8
 631              		.cfi_offset 8, -16
 632 03d8 13040101 		addi	s0,sp,16
 633              		.cfi_def_cfa 8, 0
 634 03dc 93050500 		mv	a1,a0
  70:src/syscall_c.cpp ****     return (int) syscall(SIGNAL_ALL, (uint64) id);
 635              		.loc 1 70 5
 636              		.loc 1 70 25 is_stmt 0
 637 03e0 13070000 		li	a4,0
 638 03e4 93060000 		li	a3,0
 639 03e8 13060000 		li	a2,0
 640 03ec 1305D000 		li	a0,13
 641              	.LVL50:
 642 03f0 97000000 		call	_Z7syscallmmmmm
 642      E7800000 
 643              	.LVL51:
  71:src/syscall_c.cpp **** }
 644              		.loc 1 71 1
 645 03f8 1B050500 		sext.w	a0,a0
 646 03fc 83308100 		ld	ra,8(sp)
 647              		.cfi_restore 1
 648 0400 03340100 		ld	s0,0(sp)
 649              		.cfi_restore 8
 650              		.cfi_def_cfa 2, 16
 651 0404 13010101 		addi	sp,sp,16
 652              		.cfi_def_cfa_offset 0
 653 0408 67800000 		jr	ra
 654              		.cfi_endproc
 655              	.LFE14:
 657              		.align	2
 658              		.globl	_Z15signal_and_waitP3SemS0_
 660              	_Z15signal_and_waitP3SemS0_:
 661              	.LFB15:
  72:src/syscall_c.cpp **** 
  73:src/syscall_c.cpp **** int signal_and_wait(sem_t signal, sem_t wait) {
 662              		.loc 1 73 47 is_stmt 1
 663              		.cfi_startproc
 664              	.LVL52:
 665 040c 130101FF 		addi	sp,sp,-16
 666              		.cfi_def_cfa_offset 16
 667 0410 23341100 		sd	ra,8(sp)
 668 0414 23308100 		sd	s0,0(sp)
 669              		.cfi_offset 1, -8
 670              		.cfi_offset 8, -16
 671 0418 13040101 		addi	s0,sp,16
 672              		.cfi_def_cfa 8, 0
 673 041c 13860500 		mv	a2,a1
  74:src/syscall_c.cpp ****     return (int) syscall(SIGNAL_WAIT, (uint64) signal, (uint64) wait);
 674              		.loc 1 74 5
 675              		.loc 1 74 25 is_stmt 0
 676 0420 13070000 		li	a4,0
 677 0424 93060000 		li	a3,0
GAS LISTING /tmp/cc1n5Awn.s 			page 14


 678 0428 93050500 		mv	a1,a0
 679              	.LVL53:
 680 042c 1305E000 		li	a0,14
 681              	.LVL54:
 682 0430 97000000 		call	_Z7syscallmmmmm
 682      E7800000 
 683              	.LVL55:
  75:src/syscall_c.cpp **** }
 684              		.loc 1 75 1
 685 0438 1B050500 		sext.w	a0,a0
 686 043c 83308100 		ld	ra,8(sp)
 687              		.cfi_restore 1
 688 0440 03340100 		ld	s0,0(sp)
 689              		.cfi_restore 8
 690              		.cfi_def_cfa 2, 16
 691 0444 13010101 		addi	sp,sp,16
 692              		.cfi_def_cfa_offset 0
 693 0448 67800000 		jr	ra
 694              		.cfi_endproc
 695              	.LFE15:
 697              		.align	2
 698              		.globl	_Z10time_sleepm
 700              	_Z10time_sleepm:
 701              	.LFB16:
  76:src/syscall_c.cpp **** 
  77:src/syscall_c.cpp **** int time_sleep(time_t ms) {
 702              		.loc 1 77 27 is_stmt 1
 703              		.cfi_startproc
 704              	.LVL56:
  78:src/syscall_c.cpp ****     if (ms == 0) return -1;
 705              		.loc 1 78 5
 706 044c 63020504 		beqz	a0,.L44
  77:src/syscall_c.cpp ****     if (ms == 0) return -1;
 707              		.loc 1 77 27 is_stmt 0
 708 0450 130101FF 		addi	sp,sp,-16
 709              		.cfi_def_cfa_offset 16
 710 0454 23341100 		sd	ra,8(sp)
 711 0458 23308100 		sd	s0,0(sp)
 712              		.cfi_offset 1, -8
 713              		.cfi_offset 8, -16
 714 045c 13040101 		addi	s0,sp,16
 715              		.cfi_def_cfa 8, 0
 716 0460 93050500 		mv	a1,a0
  79:src/syscall_c.cpp ****     return (int) syscall(TIME_SLEEP, ms);
 717              		.loc 1 79 5 is_stmt 1
 718              		.loc 1 79 25 is_stmt 0
 719 0464 13070000 		li	a4,0
 720 0468 93060000 		li	a3,0
 721 046c 13060000 		li	a2,0
 722 0470 1305F000 		li	a0,15
 723              	.LVL57:
 724 0474 97000000 		call	_Z7syscallmmmmm
 724      E7800000 
 725              	.LVL58:
 726              		.loc 1 79 40
 727 047c 1B050500 		sext.w	a0,a0
  80:src/syscall_c.cpp **** }
GAS LISTING /tmp/cc1n5Awn.s 			page 15


 728              		.loc 1 80 1
 729 0480 83308100 		ld	ra,8(sp)
 730              		.cfi_restore 1
 731 0484 03340100 		ld	s0,0(sp)
 732              		.cfi_restore 8
 733              		.cfi_def_cfa 2, 16
 734 0488 13010101 		addi	sp,sp,16
 735              		.cfi_def_cfa_offset 0
 736 048c 67800000 		jr	ra
 737              	.LVL59:
 738              	.L44:
  78:src/syscall_c.cpp ****     return (int) syscall(TIME_SLEEP, ms);
 739              		.loc 1 78 26
 740 0490 1305F0FF 		li	a0,-1
 741              	.LVL60:
 742              		.loc 1 80 1
 743 0494 67800000 		ret
 744              		.cfi_endproc
 745              	.LFE16:
 747              		.align	2
 748              		.globl	_Z11thread_wakeP3TCB
 750              	_Z11thread_wakeP3TCB:
 751              	.LFB17:
  81:src/syscall_c.cpp **** 
  82:src/syscall_c.cpp **** int thread_wake(thread_t handle) {
 752              		.loc 1 82 34 is_stmt 1
 753              		.cfi_startproc
 754              	.LVL61:
 755 0498 130101FF 		addi	sp,sp,-16
 756              		.cfi_def_cfa_offset 16
 757 049c 23341100 		sd	ra,8(sp)
 758 04a0 23308100 		sd	s0,0(sp)
 759              		.cfi_offset 1, -8
 760              		.cfi_offset 8, -16
 761 04a4 13040101 		addi	s0,sp,16
 762              		.cfi_def_cfa 8, 0
 763 04a8 93050500 		mv	a1,a0
  83:src/syscall_c.cpp ****     return (int) syscall(THREAD_WAKE, (uint64) handle);
 764              		.loc 1 83 5
 765              		.loc 1 83 25 is_stmt 0
 766 04ac 13070000 		li	a4,0
 767 04b0 93060000 		li	a3,0
 768 04b4 13060000 		li	a2,0
 769 04b8 13050001 		li	a0,16
 770              	.LVL62:
 771 04bc 97000000 		call	_Z7syscallmmmmm
 771      E7800000 
 772              	.LVL63:
  84:src/syscall_c.cpp **** }
 773              		.loc 1 84 1
 774 04c4 1B050500 		sext.w	a0,a0
 775 04c8 83308100 		ld	ra,8(sp)
 776              		.cfi_restore 1
 777 04cc 03340100 		ld	s0,0(sp)
 778              		.cfi_restore 8
 779              		.cfi_def_cfa 2, 16
 780 04d0 13010101 		addi	sp,sp,16
GAS LISTING /tmp/cc1n5Awn.s 			page 16


 781              		.cfi_def_cfa_offset 0
 782 04d4 67800000 		jr	ra
 783              		.cfi_endproc
 784              	.LFE17:
 786              		.align	2
 787              		.globl	_Z4getcv
 789              	_Z4getcv:
 790              	.LFB18:
  85:src/syscall_c.cpp **** 
  86:src/syscall_c.cpp **** char getc() {
 791              		.loc 1 86 13 is_stmt 1
 792              		.cfi_startproc
 793 04d8 130101FF 		addi	sp,sp,-16
 794              		.cfi_def_cfa_offset 16
 795 04dc 23341100 		sd	ra,8(sp)
 796 04e0 23308100 		sd	s0,0(sp)
 797              		.cfi_offset 1, -8
 798              		.cfi_offset 8, -16
 799 04e4 13040101 		addi	s0,sp,16
 800              		.cfi_def_cfa 8, 0
  87:src/syscall_c.cpp ****     return (char) syscall(GETC);
 801              		.loc 1 87 5
 802              		.loc 1 87 26 is_stmt 0
 803 04e8 13070000 		li	a4,0
 804 04ec 93060000 		li	a3,0
 805 04f0 13060000 		li	a2,0
 806 04f4 93050000 		li	a1,0
 807 04f8 13051001 		li	a0,17
 808 04fc 97000000 		call	_Z7syscallmmmmm
 808      E7800000 
 809              	.LVL64:
  88:src/syscall_c.cpp **** }
 810              		.loc 1 88 1
 811 0504 1375F50F 		andi	a0,a0,0xff
 812 0508 83308100 		ld	ra,8(sp)
 813              		.cfi_restore 1
 814 050c 03340100 		ld	s0,0(sp)
 815              		.cfi_restore 8
 816              		.cfi_def_cfa 2, 16
 817 0510 13010101 		addi	sp,sp,16
 818              		.cfi_def_cfa_offset 0
 819 0514 67800000 		jr	ra
 820              		.cfi_endproc
 821              	.LFE18:
 823              		.align	2
 824              		.globl	_Z4putcc
 826              	_Z4putcc:
 827              	.LFB19:
  89:src/syscall_c.cpp **** 
  90:src/syscall_c.cpp **** void putc(char c) {
 828              		.loc 1 90 19 is_stmt 1
 829              		.cfi_startproc
 830              	.LVL65:
 831 0518 130101FF 		addi	sp,sp,-16
 832              		.cfi_def_cfa_offset 16
 833 051c 23341100 		sd	ra,8(sp)
 834 0520 23308100 		sd	s0,0(sp)
GAS LISTING /tmp/cc1n5Awn.s 			page 17


 835              		.cfi_offset 1, -8
 836              		.cfi_offset 8, -16
 837 0524 13040101 		addi	s0,sp,16
 838              		.cfi_def_cfa 8, 0
 839 0528 93050500 		mv	a1,a0
  91:src/syscall_c.cpp ****     syscall(PUTC, c);
 840              		.loc 1 91 5
 841              		.loc 1 91 12 is_stmt 0
 842 052c 13070000 		li	a4,0
 843 0530 93060000 		li	a3,0
 844 0534 13060000 		li	a2,0
 845 0538 13052001 		li	a0,18
 846              	.LVL66:
 847 053c 97000000 		call	_Z7syscallmmmmm
 847      E7800000 
 848              	.LVL67:
  92:src/syscall_c.cpp **** }
 849              		.loc 1 92 1
 850 0544 83308100 		ld	ra,8(sp)
 851              		.cfi_restore 1
 852 0548 03340100 		ld	s0,0(sp)
 853              		.cfi_restore 8
 854              		.cfi_def_cfa 2, 16
 855 054c 13010101 		addi	sp,sp,16
 856              		.cfi_def_cfa_offset 0
 857 0550 67800000 		jr	ra
 858              		.cfi_endproc
 859              	.LFE19:
 861              	.Letext0:
 862              		.file 2 "src/../h/../lib/hw.h"
 863              		.file 3 "src/../h/syscall_c.hpp"
GAS LISTING /tmp/cc1n5Awn.s 			page 18


DEFINED SYMBOLS
                            *ABS*:0000000000000000 syscall_c.cpp
     /tmp/cc1n5Awn.s:9      .text:0000000000000000 _Z7syscallmmmmm
     /tmp/cc1n5Awn.s:13     .text:0000000000000000 .L0 
     /tmp/cc1n5Awn.s:15     .text:0000000000000000 .L0 
     /tmp/cc1n5Awn.s:16     .text:0000000000000004 .L0 
     /tmp/cc1n5Awn.s:18     .text:0000000000000008 .L0 
     /tmp/cc1n5Awn.s:20     .text:000000000000000c .L0 
     /tmp/cc1n5Awn.s:22     .text:000000000000000c .L0 
     /tmp/cc1n5Awn.s:23     .text:000000000000000c .L0 
   src/syscall_c.cpp:6      .text:000000000000000c .L0 
     /tmp/cc1n5Awn.s:29     .text:0000000000000010 .L0 
   src/syscall_c.cpp:7      .text:0000000000000010 .L0 
     /tmp/cc1n5Awn.s:36     .text:0000000000000018 .L0 
     /tmp/cc1n5Awn.s:37     .text:0000000000000018 .L0 
     /tmp/cc1n5Awn.s:40     .text:000000000000001c .L0 
     /tmp/cc1n5Awn.s:41     .text:0000000000000020 .L0 
     /tmp/cc1n5Awn.s:42     .text:0000000000000020 .L0 
     /tmp/cc1n5Awn.s:44     .text:0000000000000024 .L0 
     /tmp/cc1n5Awn.s:46     .text:0000000000000028 .L0 
     /tmp/cc1n5Awn.s:52     .text:0000000000000028 _Z9mem_allocm
     /tmp/cc1n5Awn.s:55     .text:0000000000000028 .L0 
     /tmp/cc1n5Awn.s:57     .text:0000000000000028 .L0 
     /tmp/cc1n5Awn.s:58     .text:0000000000000028 .L0 
     /tmp/cc1n5Awn.s:60     .text:000000000000002c .L0 
     /tmp/cc1n5Awn.s:61     .text:0000000000000030 .L0 
     /tmp/cc1n5Awn.s:64     .text:0000000000000038 .L0 
     /tmp/cc1n5Awn.s:65     .text:0000000000000038 .L0 
     /tmp/cc1n5Awn.s:67     .text:000000000000003c .L0 
     /tmp/cc1n5Awn.s:70     .text:0000000000000040 .L0 
     /tmp/cc1n5Awn.s:71     .text:0000000000000040 .L0 
     /tmp/cc1n5Awn.s:79     .text:0000000000000058 .L0 
     /tmp/cc1n5Awn.s:80     .text:000000000000005c .L0 
     /tmp/cc1n5Awn.s:82     .text:0000000000000060 .L0 
     /tmp/cc1n5Awn.s:83     .text:0000000000000060 .L0 
     /tmp/cc1n5Awn.s:85     .text:0000000000000064 .L0 
     /tmp/cc1n5Awn.s:90     .text:0000000000000068 .L0 
     /tmp/cc1n5Awn.s:93     .text:000000000000006c .L0 
     /tmp/cc1n5Awn.s:94     .text:0000000000000070 .L0 
     /tmp/cc1n5Awn.s:100    .text:0000000000000070 _Z8mem_freePv
     /tmp/cc1n5Awn.s:103    .text:0000000000000070 .L0 
     /tmp/cc1n5Awn.s:105    .text:0000000000000070 .L0 
     /tmp/cc1n5Awn.s:106    .text:0000000000000074 .L0 
     /tmp/cc1n5Awn.s:109    .text:000000000000007c .L0 
     /tmp/cc1n5Awn.s:110    .text:000000000000007c .L0 
     /tmp/cc1n5Awn.s:112    .text:0000000000000080 .L0 
     /tmp/cc1n5Awn.s:115    .text:0000000000000084 .L0 
     /tmp/cc1n5Awn.s:116    .text:0000000000000084 .L0 
     /tmp/cc1n5Awn.s:124    .text:000000000000009c .L0 
     /tmp/cc1n5Awn.s:126    .text:00000000000000a4 .L0 
     /tmp/cc1n5Awn.s:128    .text:00000000000000a8 .L0 
     /tmp/cc1n5Awn.s:129    .text:00000000000000a8 .L0 
     /tmp/cc1n5Awn.s:131    .text:00000000000000ac .L0 
     /tmp/cc1n5Awn.s:133    .text:00000000000000b0 .L0 
     /tmp/cc1n5Awn.s:139    .text:00000000000000b0 _Z13thread_createPP3TCBPFvPvES2_
     /tmp/cc1n5Awn.s:142    .text:00000000000000b0 .L0 
     /tmp/cc1n5Awn.s:144    .text:00000000000000b0 .L0 
GAS LISTING /tmp/cc1n5Awn.s 			page 19


     /tmp/cc1n5Awn.s:145    .text:00000000000000b4 .L0 
     /tmp/cc1n5Awn.s:151    .text:00000000000000c8 .L0 
     /tmp/cc1n5Awn.s:152    .text:00000000000000c8 .L0 
     /tmp/cc1n5Awn.s:153    .text:00000000000000c8 .L0 
     /tmp/cc1n5Awn.s:154    .text:00000000000000c8 .L0 
     /tmp/cc1n5Awn.s:155    .text:00000000000000c8 .L0 
     /tmp/cc1n5Awn.s:157    .text:00000000000000cc .L0 
     /tmp/cc1n5Awn.s:163    .text:00000000000000d8 .L0 
     /tmp/cc1n5Awn.s:164    .text:00000000000000d8 .L0 
     /tmp/cc1n5Awn.s:166    .text:00000000000000dc .L0 
     /tmp/cc1n5Awn.s:167    .text:00000000000000dc .L0 
     /tmp/cc1n5Awn.s:175    .text:00000000000000ec .L0 
     /tmp/cc1n5Awn.s:176    .text:00000000000000ec .L0 
     /tmp/cc1n5Awn.s:183    .text:0000000000000104 .L0 
     /tmp/cc1n5Awn.s:185    .text:000000000000010c .L0 
     /tmp/cc1n5Awn.s:186    .text:000000000000010c .L0 
     /tmp/cc1n5Awn.s:188    .text:0000000000000110 .L0 
     /tmp/cc1n5Awn.s:189    .text:0000000000000110 .L0 
     /tmp/cc1n5Awn.s:191    .text:0000000000000114 .L0 
     /tmp/cc1n5Awn.s:194    .text:0000000000000118 .L0 
     /tmp/cc1n5Awn.s:197    .text:000000000000011c .L0 
     /tmp/cc1n5Awn.s:200    .text:0000000000000120 .L0 
     /tmp/cc1n5Awn.s:204    .text:0000000000000124 .L0 
     /tmp/cc1n5Awn.s:206    .text:0000000000000124 .L0 
     /tmp/cc1n5Awn.s:208    .text:000000000000012c .L0 
     /tmp/cc1n5Awn.s:214    .text:000000000000012c _Z11thread_exitv
     /tmp/cc1n5Awn.s:217    .text:000000000000012c .L0 
     /tmp/cc1n5Awn.s:218    .text:000000000000012c .L0 
     /tmp/cc1n5Awn.s:219    .text:0000000000000130 .L0 
     /tmp/cc1n5Awn.s:222    .text:0000000000000138 .L0 
     /tmp/cc1n5Awn.s:223    .text:0000000000000138 .L0 
     /tmp/cc1n5Awn.s:225    .text:000000000000013c .L0 
     /tmp/cc1n5Awn.s:227    .text:000000000000013c .L0 
     /tmp/cc1n5Awn.s:228    .text:000000000000013c .L0 
     /tmp/cc1n5Awn.s:236    .text:0000000000000158 .L0 
     /tmp/cc1n5Awn.s:238    .text:0000000000000160 .L0 
     /tmp/cc1n5Awn.s:240    .text:0000000000000164 .L0 
     /tmp/cc1n5Awn.s:241    .text:0000000000000164 .L0 
     /tmp/cc1n5Awn.s:243    .text:0000000000000168 .L0 
     /tmp/cc1n5Awn.s:245    .text:000000000000016c .L0 
     /tmp/cc1n5Awn.s:251    .text:000000000000016c _Z15thread_dispatchv
     /tmp/cc1n5Awn.s:254    .text:000000000000016c .L0 
     /tmp/cc1n5Awn.s:255    .text:000000000000016c .L0 
     /tmp/cc1n5Awn.s:256    .text:0000000000000170 .L0 
     /tmp/cc1n5Awn.s:259    .text:0000000000000178 .L0 
     /tmp/cc1n5Awn.s:260    .text:0000000000000178 .L0 
     /tmp/cc1n5Awn.s:262    .text:000000000000017c .L0 
     /tmp/cc1n5Awn.s:264    .text:000000000000017c .L0 
     /tmp/cc1n5Awn.s:265    .text:000000000000017c .L0 
     /tmp/cc1n5Awn.s:273    .text:0000000000000198 .L0 
     /tmp/cc1n5Awn.s:274    .text:000000000000019c .L0 
     /tmp/cc1n5Awn.s:276    .text:00000000000001a0 .L0 
     /tmp/cc1n5Awn.s:277    .text:00000000000001a0 .L0 
     /tmp/cc1n5Awn.s:279    .text:00000000000001a4 .L0 
     /tmp/cc1n5Awn.s:281    .text:00000000000001a8 .L0 
     /tmp/cc1n5Awn.s:287    .text:00000000000001a8 _Z11thread_joinP3TCB
     /tmp/cc1n5Awn.s:290    .text:00000000000001a8 .L0 
GAS LISTING /tmp/cc1n5Awn.s 			page 20


     /tmp/cc1n5Awn.s:292    .text:00000000000001a8 .L0 
     /tmp/cc1n5Awn.s:293    .text:00000000000001ac .L0 
     /tmp/cc1n5Awn.s:296    .text:00000000000001b4 .L0 
     /tmp/cc1n5Awn.s:297    .text:00000000000001b4 .L0 
     /tmp/cc1n5Awn.s:299    .text:00000000000001b8 .L0 
     /tmp/cc1n5Awn.s:302    .text:00000000000001bc .L0 
     /tmp/cc1n5Awn.s:303    .text:00000000000001bc .L0 
     /tmp/cc1n5Awn.s:311    .text:00000000000001d4 .L0 
     /tmp/cc1n5Awn.s:312    .text:00000000000001d8 .L0 
     /tmp/cc1n5Awn.s:314    .text:00000000000001dc .L0 
     /tmp/cc1n5Awn.s:315    .text:00000000000001dc .L0 
     /tmp/cc1n5Awn.s:317    .text:00000000000001e0 .L0 
     /tmp/cc1n5Awn.s:319    .text:00000000000001e4 .L0 
     /tmp/cc1n5Awn.s:325    .text:00000000000001e4 _Z11thread_joinP3TCBm
     /tmp/cc1n5Awn.s:328    .text:00000000000001e4 .L0 
     /tmp/cc1n5Awn.s:330    .text:00000000000001e4 .L0 
     /tmp/cc1n5Awn.s:331    .text:00000000000001e8 .L0 
     /tmp/cc1n5Awn.s:336    .text:00000000000001f8 .L0 
     /tmp/cc1n5Awn.s:337    .text:00000000000001f8 .L0 
     /tmp/cc1n5Awn.s:338    .text:00000000000001f8 .L0 
     /tmp/cc1n5Awn.s:339    .text:00000000000001f8 .L0 
     /tmp/cc1n5Awn.s:341    .text:00000000000001fc .L0 
     /tmp/cc1n5Awn.s:345    .text:0000000000000204 .L0 
     /tmp/cc1n5Awn.s:349    .text:0000000000000208 .L0 
     /tmp/cc1n5Awn.s:350    .text:0000000000000208 .L0 
     /tmp/cc1n5Awn.s:358    .text:0000000000000224 .L0 
     /tmp/cc1n5Awn.s:359    .text:0000000000000228 .L0 
     /tmp/cc1n5Awn.s:360    .text:0000000000000228 .L0 
     /tmp/cc1n5Awn.s:362    .text:000000000000022c .L0 
     /tmp/cc1n5Awn.s:363    .text:000000000000022c .L0 
     /tmp/cc1n5Awn.s:365    .text:0000000000000230 .L0 
     /tmp/cc1n5Awn.s:368    .text:0000000000000234 .L0 
     /tmp/cc1n5Awn.s:371    .text:0000000000000238 .L0 
     /tmp/cc1n5Awn.s:375    .text:000000000000023c .L0 
     /tmp/cc1n5Awn.s:377    .text:000000000000023c .L0 
     /tmp/cc1n5Awn.s:378    .text:000000000000023c .L0 
     /tmp/cc1n5Awn.s:381    .text:0000000000000248 .L0 
     /tmp/cc1n5Awn.s:387    .text:0000000000000248 _Z4forkv
     /tmp/cc1n5Awn.s:390    .text:0000000000000248 .L0 
     /tmp/cc1n5Awn.s:391    .text:0000000000000248 .L0 
     /tmp/cc1n5Awn.s:392    .text:000000000000024c .L0 
     /tmp/cc1n5Awn.s:395    .text:0000000000000254 .L0 
     /tmp/cc1n5Awn.s:396    .text:0000000000000254 .L0 
     /tmp/cc1n5Awn.s:398    .text:0000000000000258 .L0 
     /tmp/cc1n5Awn.s:400    .text:0000000000000258 .L0 
     /tmp/cc1n5Awn.s:401    .text:0000000000000258 .L0 
     /tmp/cc1n5Awn.s:409    .text:0000000000000274 .L0 
     /tmp/cc1n5Awn.s:411    .text:000000000000027c .L0 
     /tmp/cc1n5Awn.s:413    .text:0000000000000280 .L0 
     /tmp/cc1n5Awn.s:414    .text:0000000000000280 .L0 
     /tmp/cc1n5Awn.s:416    .text:0000000000000284 .L0 
     /tmp/cc1n5Awn.s:418    .text:0000000000000288 .L0 
     /tmp/cc1n5Awn.s:424    .text:0000000000000288 _Z11thread_killP3TCB
     /tmp/cc1n5Awn.s:427    .text:0000000000000288 .L0 
     /tmp/cc1n5Awn.s:429    .text:0000000000000288 .L0 
     /tmp/cc1n5Awn.s:430    .text:000000000000028c .L0 
     /tmp/cc1n5Awn.s:433    .text:0000000000000294 .L0 
GAS LISTING /tmp/cc1n5Awn.s 			page 21


     /tmp/cc1n5Awn.s:434    .text:0000000000000294 .L0 
     /tmp/cc1n5Awn.s:436    .text:0000000000000298 .L0 
     /tmp/cc1n5Awn.s:439    .text:000000000000029c .L0 
     /tmp/cc1n5Awn.s:440    .text:000000000000029c .L0 
     /tmp/cc1n5Awn.s:448    .text:00000000000002b4 .L0 
     /tmp/cc1n5Awn.s:450    .text:00000000000002bc .L0 
     /tmp/cc1n5Awn.s:452    .text:00000000000002c0 .L0 
     /tmp/cc1n5Awn.s:453    .text:00000000000002c0 .L0 
     /tmp/cc1n5Awn.s:455    .text:00000000000002c4 .L0 
     /tmp/cc1n5Awn.s:457    .text:00000000000002c8 .L0 
     /tmp/cc1n5Awn.s:463    .text:00000000000002c8 _Z8sem_openPP3Semj
     /tmp/cc1n5Awn.s:466    .text:00000000000002c8 .L0 
     /tmp/cc1n5Awn.s:468    .text:00000000000002c8 .L0 
     /tmp/cc1n5Awn.s:469    .text:00000000000002cc .L0 
     /tmp/cc1n5Awn.s:472    .text:00000000000002d4 .L0 
     /tmp/cc1n5Awn.s:473    .text:00000000000002d4 .L0 
     /tmp/cc1n5Awn.s:475    .text:00000000000002d8 .L0 
     /tmp/cc1n5Awn.s:477    .text:00000000000002d8 .L0 
     /tmp/cc1n5Awn.s:478    .text:00000000000002d8 .L0 
     /tmp/cc1n5Awn.s:489    .text:00000000000002f8 .L0 
     /tmp/cc1n5Awn.s:491    .text:0000000000000300 .L0 
     /tmp/cc1n5Awn.s:493    .text:0000000000000304 .L0 
     /tmp/cc1n5Awn.s:494    .text:0000000000000304 .L0 
     /tmp/cc1n5Awn.s:496    .text:0000000000000308 .L0 
     /tmp/cc1n5Awn.s:498    .text:000000000000030c .L0 
     /tmp/cc1n5Awn.s:504    .text:000000000000030c _Z9sem_closeP3Sem
     /tmp/cc1n5Awn.s:507    .text:000000000000030c .L0 
     /tmp/cc1n5Awn.s:509    .text:000000000000030c .L0 
     /tmp/cc1n5Awn.s:510    .text:0000000000000310 .L0 
     /tmp/cc1n5Awn.s:513    .text:0000000000000318 .L0 
     /tmp/cc1n5Awn.s:514    .text:0000000000000318 .L0 
     /tmp/cc1n5Awn.s:516    .text:000000000000031c .L0 
     /tmp/cc1n5Awn.s:519    .text:0000000000000320 .L0 
     /tmp/cc1n5Awn.s:520    .text:0000000000000320 .L0 
     /tmp/cc1n5Awn.s:528    .text:0000000000000338 .L0 
     /tmp/cc1n5Awn.s:530    .text:0000000000000340 .L0 
     /tmp/cc1n5Awn.s:532    .text:0000000000000344 .L0 
     /tmp/cc1n5Awn.s:533    .text:0000000000000344 .L0 
     /tmp/cc1n5Awn.s:535    .text:0000000000000348 .L0 
     /tmp/cc1n5Awn.s:537    .text:000000000000034c .L0 
     /tmp/cc1n5Awn.s:543    .text:000000000000034c _Z8sem_waitP3Sem
     /tmp/cc1n5Awn.s:546    .text:000000000000034c .L0 
     /tmp/cc1n5Awn.s:548    .text:000000000000034c .L0 
     /tmp/cc1n5Awn.s:549    .text:0000000000000350 .L0 
     /tmp/cc1n5Awn.s:552    .text:0000000000000358 .L0 
     /tmp/cc1n5Awn.s:553    .text:0000000000000358 .L0 
     /tmp/cc1n5Awn.s:555    .text:000000000000035c .L0 
     /tmp/cc1n5Awn.s:558    .text:0000000000000360 .L0 
     /tmp/cc1n5Awn.s:559    .text:0000000000000360 .L0 
     /tmp/cc1n5Awn.s:567    .text:0000000000000378 .L0 
     /tmp/cc1n5Awn.s:569    .text:0000000000000380 .L0 
     /tmp/cc1n5Awn.s:571    .text:0000000000000384 .L0 
     /tmp/cc1n5Awn.s:572    .text:0000000000000384 .L0 
     /tmp/cc1n5Awn.s:574    .text:0000000000000388 .L0 
     /tmp/cc1n5Awn.s:576    .text:000000000000038c .L0 
     /tmp/cc1n5Awn.s:582    .text:000000000000038c _Z10sem_signalP3Sem
     /tmp/cc1n5Awn.s:585    .text:000000000000038c .L0 
GAS LISTING /tmp/cc1n5Awn.s 			page 22


     /tmp/cc1n5Awn.s:587    .text:000000000000038c .L0 
     /tmp/cc1n5Awn.s:588    .text:0000000000000390 .L0 
     /tmp/cc1n5Awn.s:591    .text:0000000000000398 .L0 
     /tmp/cc1n5Awn.s:592    .text:0000000000000398 .L0 
     /tmp/cc1n5Awn.s:594    .text:000000000000039c .L0 
     /tmp/cc1n5Awn.s:597    .text:00000000000003a0 .L0 
     /tmp/cc1n5Awn.s:598    .text:00000000000003a0 .L0 
     /tmp/cc1n5Awn.s:606    .text:00000000000003b8 .L0 
     /tmp/cc1n5Awn.s:608    .text:00000000000003c0 .L0 
     /tmp/cc1n5Awn.s:610    .text:00000000000003c4 .L0 
     /tmp/cc1n5Awn.s:611    .text:00000000000003c4 .L0 
     /tmp/cc1n5Awn.s:613    .text:00000000000003c8 .L0 
     /tmp/cc1n5Awn.s:615    .text:00000000000003cc .L0 
     /tmp/cc1n5Awn.s:621    .text:00000000000003cc _Z14sem_signal_allP3Sem
     /tmp/cc1n5Awn.s:624    .text:00000000000003cc .L0 
     /tmp/cc1n5Awn.s:626    .text:00000000000003cc .L0 
     /tmp/cc1n5Awn.s:627    .text:00000000000003d0 .L0 
     /tmp/cc1n5Awn.s:630    .text:00000000000003d8 .L0 
     /tmp/cc1n5Awn.s:631    .text:00000000000003d8 .L0 
     /tmp/cc1n5Awn.s:633    .text:00000000000003dc .L0 
     /tmp/cc1n5Awn.s:636    .text:00000000000003e0 .L0 
     /tmp/cc1n5Awn.s:637    .text:00000000000003e0 .L0 
     /tmp/cc1n5Awn.s:645    .text:00000000000003f8 .L0 
     /tmp/cc1n5Awn.s:647    .text:0000000000000400 .L0 
     /tmp/cc1n5Awn.s:649    .text:0000000000000404 .L0 
     /tmp/cc1n5Awn.s:650    .text:0000000000000404 .L0 
     /tmp/cc1n5Awn.s:652    .text:0000000000000408 .L0 
     /tmp/cc1n5Awn.s:654    .text:000000000000040c .L0 
     /tmp/cc1n5Awn.s:660    .text:000000000000040c _Z15signal_and_waitP3SemS0_
     /tmp/cc1n5Awn.s:663    .text:000000000000040c .L0 
     /tmp/cc1n5Awn.s:665    .text:000000000000040c .L0 
     /tmp/cc1n5Awn.s:666    .text:0000000000000410 .L0 
     /tmp/cc1n5Awn.s:669    .text:0000000000000418 .L0 
     /tmp/cc1n5Awn.s:670    .text:0000000000000418 .L0 
     /tmp/cc1n5Awn.s:672    .text:000000000000041c .L0 
     /tmp/cc1n5Awn.s:675    .text:0000000000000420 .L0 
     /tmp/cc1n5Awn.s:676    .text:0000000000000420 .L0 
     /tmp/cc1n5Awn.s:685    .text:0000000000000438 .L0 
     /tmp/cc1n5Awn.s:687    .text:0000000000000440 .L0 
     /tmp/cc1n5Awn.s:689    .text:0000000000000444 .L0 
     /tmp/cc1n5Awn.s:690    .text:0000000000000444 .L0 
     /tmp/cc1n5Awn.s:692    .text:0000000000000448 .L0 
     /tmp/cc1n5Awn.s:694    .text:000000000000044c .L0 
     /tmp/cc1n5Awn.s:700    .text:000000000000044c _Z10time_sleepm
     /tmp/cc1n5Awn.s:703    .text:000000000000044c .L0 
     /tmp/cc1n5Awn.s:705    .text:000000000000044c .L0 
     /tmp/cc1n5Awn.s:706    .text:000000000000044c .L0 
     /tmp/cc1n5Awn.s:708    .text:0000000000000450 .L0 
     /tmp/cc1n5Awn.s:709    .text:0000000000000454 .L0 
     /tmp/cc1n5Awn.s:712    .text:000000000000045c .L0 
     /tmp/cc1n5Awn.s:713    .text:000000000000045c .L0 
     /tmp/cc1n5Awn.s:715    .text:0000000000000460 .L0 
     /tmp/cc1n5Awn.s:718    .text:0000000000000464 .L0 
     /tmp/cc1n5Awn.s:719    .text:0000000000000464 .L0 
     /tmp/cc1n5Awn.s:727    .text:000000000000047c .L0 
     /tmp/cc1n5Awn.s:729    .text:0000000000000480 .L0 
     /tmp/cc1n5Awn.s:730    .text:0000000000000484 .L0 
GAS LISTING /tmp/cc1n5Awn.s 			page 23


     /tmp/cc1n5Awn.s:732    .text:0000000000000488 .L0 
     /tmp/cc1n5Awn.s:733    .text:0000000000000488 .L0 
     /tmp/cc1n5Awn.s:735    .text:000000000000048c .L0 
     /tmp/cc1n5Awn.s:740    .text:0000000000000490 .L0 
     /tmp/cc1n5Awn.s:743    .text:0000000000000494 .L0 
     /tmp/cc1n5Awn.s:744    .text:0000000000000498 .L0 
     /tmp/cc1n5Awn.s:750    .text:0000000000000498 _Z11thread_wakeP3TCB
     /tmp/cc1n5Awn.s:753    .text:0000000000000498 .L0 
     /tmp/cc1n5Awn.s:755    .text:0000000000000498 .L0 
     /tmp/cc1n5Awn.s:756    .text:000000000000049c .L0 
     /tmp/cc1n5Awn.s:759    .text:00000000000004a4 .L0 
     /tmp/cc1n5Awn.s:760    .text:00000000000004a4 .L0 
     /tmp/cc1n5Awn.s:762    .text:00000000000004a8 .L0 
     /tmp/cc1n5Awn.s:765    .text:00000000000004ac .L0 
     /tmp/cc1n5Awn.s:766    .text:00000000000004ac .L0 
     /tmp/cc1n5Awn.s:774    .text:00000000000004c4 .L0 
     /tmp/cc1n5Awn.s:776    .text:00000000000004cc .L0 
     /tmp/cc1n5Awn.s:778    .text:00000000000004d0 .L0 
     /tmp/cc1n5Awn.s:779    .text:00000000000004d0 .L0 
     /tmp/cc1n5Awn.s:781    .text:00000000000004d4 .L0 
     /tmp/cc1n5Awn.s:783    .text:00000000000004d8 .L0 
     /tmp/cc1n5Awn.s:789    .text:00000000000004d8 _Z4getcv
     /tmp/cc1n5Awn.s:792    .text:00000000000004d8 .L0 
     /tmp/cc1n5Awn.s:793    .text:00000000000004d8 .L0 
     /tmp/cc1n5Awn.s:794    .text:00000000000004dc .L0 
     /tmp/cc1n5Awn.s:797    .text:00000000000004e4 .L0 
     /tmp/cc1n5Awn.s:798    .text:00000000000004e4 .L0 
     /tmp/cc1n5Awn.s:800    .text:00000000000004e8 .L0 
     /tmp/cc1n5Awn.s:802    .text:00000000000004e8 .L0 
     /tmp/cc1n5Awn.s:803    .text:00000000000004e8 .L0 
     /tmp/cc1n5Awn.s:811    .text:0000000000000504 .L0 
     /tmp/cc1n5Awn.s:813    .text:000000000000050c .L0 
     /tmp/cc1n5Awn.s:815    .text:0000000000000510 .L0 
     /tmp/cc1n5Awn.s:816    .text:0000000000000510 .L0 
     /tmp/cc1n5Awn.s:818    .text:0000000000000514 .L0 
     /tmp/cc1n5Awn.s:820    .text:0000000000000518 .L0 
     /tmp/cc1n5Awn.s:826    .text:0000000000000518 _Z4putcc
     /tmp/cc1n5Awn.s:829    .text:0000000000000518 .L0 
     /tmp/cc1n5Awn.s:831    .text:0000000000000518 .L0 
     /tmp/cc1n5Awn.s:832    .text:000000000000051c .L0 
     /tmp/cc1n5Awn.s:835    .text:0000000000000524 .L0 
     /tmp/cc1n5Awn.s:836    .text:0000000000000524 .L0 
     /tmp/cc1n5Awn.s:838    .text:0000000000000528 .L0 
     /tmp/cc1n5Awn.s:841    .text:000000000000052c .L0 
     /tmp/cc1n5Awn.s:842    .text:000000000000052c .L0 
     /tmp/cc1n5Awn.s:850    .text:0000000000000544 .L0 
     /tmp/cc1n5Awn.s:851    .text:0000000000000548 .L0 
     /tmp/cc1n5Awn.s:853    .text:000000000000054c .L0 
     /tmp/cc1n5Awn.s:854    .text:000000000000054c .L0 
     /tmp/cc1n5Awn.s:856    .text:0000000000000550 .L0 
     /tmp/cc1n5Awn.s:858    .text:0000000000000554 .L0 
     /tmp/cc1n5Awn.s:864    .text:0000000000000554 .L0 
     /tmp/cc1n5Awn.s:88     .text:0000000000000068 .L5
     /tmp/cc1n5Awn.s:203    .text:0000000000000124 .L14
     /tmp/cc1n5Awn.s:173    .text:00000000000000ec .L13
     /tmp/cc1n5Awn.s:374    .text:000000000000023c .L25
     /tmp/cc1n5Awn.s:347    .text:0000000000000208 .L23
GAS LISTING /tmp/cc1n5Awn.s 			page 24


     /tmp/cc1n5Awn.s:738    .text:0000000000000490 .L44
     /tmp/cc1n5Awn.s:2159   .debug_abbrev:0000000000000000 .Ldebug_abbrev0
     /tmp/cc1n5Awn.s:3199   .debug_str:000000000000045f .LASF94
     /tmp/cc1n5Awn.s:3117   .debug_str:0000000000000222 .LASF95
     /tmp/cc1n5Awn.s:3095   .debug_str:000000000000019d .LASF96
     /tmp/cc1n5Awn.s:5      .text:0000000000000000 .Ltext0
     /tmp/cc1n5Awn.s:861    .text:0000000000000554 .Letext0
     /tmp/cc1n5Awn.s:3025   .debug_line:0000000000000000 .Ldebug_line0
     /tmp/cc1n5Awn.s:3137   .debug_str:00000000000002b3 .LASF0
     /tmp/cc1n5Awn.s:3147   .debug_str:00000000000002e4 .LASF1
     /tmp/cc1n5Awn.s:3131   .debug_str:000000000000028d .LASF2
     /tmp/cc1n5Awn.s:3115   .debug_str:000000000000021b .LASF4
     /tmp/cc1n5Awn.s:3183   .debug_str:0000000000000410 .LASF3
     /tmp/cc1n5Awn.s:3047   .debug_str:0000000000000071 .LASF5
     /tmp/cc1n5Awn.s:3075   .debug_str:0000000000000134 .LASF6
     /tmp/cc1n5Awn.s:3151   .debug_str:0000000000000308 .LASF7
     /tmp/cc1n5Awn.s:3135   .debug_str:00000000000002a0 .LASF8
     /tmp/cc1n5Awn.s:3209   .debug_str:0000000000000553 .LASF9
     /tmp/cc1n5Awn.s:3107   .debug_str:00000000000001e5 .LASF10
     /tmp/cc1n5Awn.s:3163   .debug_str:0000000000000371 .LASF11
     /tmp/cc1n5Awn.s:3201   .debug_str:0000000000000523 .LASF12
     /tmp/cc1n5Awn.s:3049   .debug_str:0000000000000078 .LASF13
     /tmp/cc1n5Awn.s:3029   .debug_str:0000000000000009 .LASF14
     /tmp/cc1n5Awn.s:3059   .debug_str:00000000000000c4 .LASF15
     /tmp/cc1n5Awn.s:3177   .debug_str:00000000000003db .LASF16
     /tmp/cc1n5Awn.s:3067   .debug_str:00000000000000f7 .LASF17
     /tmp/cc1n5Awn.s:3033   .debug_str:000000000000001e .LASF97
     /tmp/cc1n5Awn.s:3191   .debug_str:000000000000043d .LASF18
     /tmp/cc1n5Awn.s:3173   .debug_str:00000000000003bc .LASF19
     /tmp/cc1n5Awn.s:3125   .debug_str:0000000000000253 .LASF20
     /tmp/cc1n5Awn.s:3083   .debug_str:0000000000000158 .LASF21
     /tmp/cc1n5Awn.s:3061   .debug_str:00000000000000d0 .LASF22
     /tmp/cc1n5Awn.s:3139   .debug_str:00000000000002c0 .LASF23
     /tmp/cc1n5Awn.s:3161   .debug_str:0000000000000360 .LASF24
     /tmp/cc1n5Awn.s:3215   .debug_str:000000000000056d .LASF25
     /tmp/cc1n5Awn.s:3101   .debug_str:00000000000001cf .LASF26
     /tmp/cc1n5Awn.s:3207   .debug_str:000000000000054a .LASF27
     /tmp/cc1n5Awn.s:3123   .debug_str:0000000000000249 .LASF28
     /tmp/cc1n5Awn.s:3189   .debug_str:0000000000000434 .LASF29
     /tmp/cc1n5Awn.s:3051   .debug_str:0000000000000088 .LASF30
     /tmp/cc1n5Awn.s:3099   .debug_str:00000000000001c4 .LASF31
     /tmp/cc1n5Awn.s:3071   .debug_str:0000000000000118 .LASF32
     /tmp/cc1n5Awn.s:3119   .debug_str:0000000000000234 .LASF33
     /tmp/cc1n5Awn.s:3035   .debug_str:000000000000002c .LASF34
     /tmp/cc1n5Awn.s:3045   .debug_str:000000000000006c .LASF35
     /tmp/cc1n5Awn.s:3219   .debug_str:000000000000058e .LASF36
     /tmp/cc1n5Awn.s:3041   .debug_str:0000000000000055 .LASF37
     /tmp/cc1n5Awn.s:3027   .debug_str:0000000000000000 .LASF38
     /tmp/cc1n5Awn.s:3113   .debug_str:0000000000000216 .LASF39
     /tmp/cc1n5Awn.s:3087   .debug_str:0000000000000176 .LASF40
     /tmp/cc1n5Awn.s:3133   .debug_str:000000000000029b .LASF68
     /tmp/cc1n5Awn.s:3097   .debug_str:00000000000001bb .LASF70
     /tmp/cc1n5Awn.s:827    .text:0000000000000518 .LFB19
     /tmp/cc1n5Awn.s:859    .text:0000000000000554 .LFE19
     /tmp/cc1n5Awn.s:2583   .debug_loc:0000000000000000 .LLST21
     /tmp/cc1n5Awn.s:848    .text:0000000000000544 .LVL67
     /tmp/cc1n5Awn.s:3153   .debug_str:000000000000031b .LASF41
GAS LISTING /tmp/cc1n5Awn.s 			page 25


     /tmp/cc1n5Awn.s:3031   .debug_str:0000000000000019 .LASF42
     /tmp/cc1n5Awn.s:3043   .debug_str:0000000000000063 .LASF44
     /tmp/cc1n5Awn.s:790    .text:00000000000004d8 .LFB18
     /tmp/cc1n5Awn.s:821    .text:0000000000000518 .LFE18
     /tmp/cc1n5Awn.s:809    .text:0000000000000504 .LVL64
     /tmp/cc1n5Awn.s:3205   .debug_str:000000000000053e .LASF43
     /tmp/cc1n5Awn.s:3055   .debug_str:000000000000009f .LASF45
     /tmp/cc1n5Awn.s:751    .text:0000000000000498 .LFB17
     /tmp/cc1n5Awn.s:784    .text:00000000000004d8 .LFE17
     /tmp/cc1n5Awn.s:3193   .debug_str:0000000000000447 .LASF46
     /tmp/cc1n5Awn.s:2597   .debug_loc:0000000000000039 .LLST20
     /tmp/cc1n5Awn.s:772    .text:00000000000004c4 .LVL63
     /tmp/cc1n5Awn.s:3179   .debug_str:00000000000003f1 .LASF47
     /tmp/cc1n5Awn.s:3169   .debug_str:000000000000039e .LASF48
     /tmp/cc1n5Awn.s:701    .text:000000000000044c .LFB16
     /tmp/cc1n5Awn.s:745    .text:0000000000000498 .LFE16
     /tmp/cc1n5Awn.s:2615   .debug_loc:0000000000000085 .LLST19
     /tmp/cc1n5Awn.s:725    .text:000000000000047c .LVL58
     /tmp/cc1n5Awn.s:3073   .debug_str:0000000000000124 .LASF49
     /tmp/cc1n5Awn.s:3129   .debug_str:0000000000000271 .LASF50
     /tmp/cc1n5Awn.s:661    .text:000000000000040c .LFB15
     /tmp/cc1n5Awn.s:695    .text:000000000000044c .LFE15
     /tmp/cc1n5Awn.s:3155   .debug_str:0000000000000320 .LASF51
     /tmp/cc1n5Awn.s:2644   .debug_loc:00000000000000fa .LLST17
     /tmp/cc1n5Awn.s:3093   .debug_str:0000000000000198 .LASF52
     /tmp/cc1n5Awn.s:2662   .debug_loc:0000000000000146 .LLST18
     /tmp/cc1n5Awn.s:683    .text:0000000000000438 .LVL55
     /tmp/cc1n5Awn.s:3079   .debug_str:0000000000000140 .LASF53
     /tmp/cc1n5Awn.s:3159   .debug_str:0000000000000348 .LASF54
     /tmp/cc1n5Awn.s:622    .text:00000000000003cc .LFB14
     /tmp/cc1n5Awn.s:655    .text:000000000000040c .LFE14
     /tmp/cc1n5Awn.s:2680   .debug_loc:0000000000000192 .LLST16
     /tmp/cc1n5Awn.s:643    .text:00000000000003f8 .LVL51
     /tmp/cc1n5Awn.s:3069   .debug_str:000000000000010d .LASF55
     /tmp/cc1n5Awn.s:3181   .debug_str:00000000000003fc .LASF56
     /tmp/cc1n5Awn.s:583    .text:000000000000038c .LFB13
     /tmp/cc1n5Awn.s:616    .text:00000000000003cc .LFE13
     /tmp/cc1n5Awn.s:2698   .debug_loc:00000000000001de .LLST15
     /tmp/cc1n5Awn.s:604    .text:00000000000003b8 .LVL48
     /tmp/cc1n5Awn.s:3063   .debug_str:00000000000000e0 .LASF57
     /tmp/cc1n5Awn.s:3037   .debug_str:0000000000000038 .LASF58
     /tmp/cc1n5Awn.s:544    .text:000000000000034c .LFB12
     /tmp/cc1n5Awn.s:577    .text:000000000000038c .LFE12
     /tmp/cc1n5Awn.s:2716   .debug_loc:000000000000022a .LLST14
     /tmp/cc1n5Awn.s:565    .text:0000000000000378 .LVL45
     /tmp/cc1n5Awn.s:3121   .debug_str:000000000000023f .LASF59
     /tmp/cc1n5Awn.s:3085   .debug_str:0000000000000164 .LASF60
     /tmp/cc1n5Awn.s:505    .text:000000000000030c .LFB11
     /tmp/cc1n5Awn.s:538    .text:000000000000034c .LFE11
     /tmp/cc1n5Awn.s:2734   .debug_loc:0000000000000276 .LLST13
     /tmp/cc1n5Awn.s:526    .text:0000000000000338 .LVL42
     /tmp/cc1n5Awn.s:3091   .debug_str:000000000000018f .LASF61
     /tmp/cc1n5Awn.s:3089   .debug_str:000000000000017c .LASF62
     /tmp/cc1n5Awn.s:464    .text:00000000000002c8 .LFB10
     /tmp/cc1n5Awn.s:499    .text:000000000000030c .LFE10
     /tmp/cc1n5Awn.s:2752   .debug_loc:00000000000002c2 .LLST11
     /tmp/cc1n5Awn.s:3221   .debug_str:0000000000000593 .LASF63
GAS LISTING /tmp/cc1n5Awn.s 			page 26


     /tmp/cc1n5Awn.s:2770   .debug_loc:000000000000030e .LLST12
     /tmp/cc1n5Awn.s:487    .text:00000000000002f8 .LVL39
     /tmp/cc1n5Awn.s:3053   .debug_str:0000000000000093 .LASF64
     /tmp/cc1n5Awn.s:3217   .debug_str:0000000000000579 .LASF65
     /tmp/cc1n5Awn.s:425    .text:0000000000000288 .LFB9
     /tmp/cc1n5Awn.s:458    .text:00000000000002c8 .LFE9
     /tmp/cc1n5Awn.s:2784   .debug_loc:0000000000000347 .LLST10
     /tmp/cc1n5Awn.s:446    .text:00000000000002b4 .LVL35
     /tmp/cc1n5Awn.s:3077   .debug_str:000000000000013b .LASF66
     /tmp/cc1n5Awn.s:3165   .debug_str:0000000000000380 .LASF67
     /tmp/cc1n5Awn.s:388    .text:0000000000000248 .LFB8
     /tmp/cc1n5Awn.s:419    .text:0000000000000288 .LFE8
     /tmp/cc1n5Awn.s:407    .text:0000000000000274 .LVL32
     /tmp/cc1n5Awn.s:3197   .debug_str:0000000000000453 .LASF69
     /tmp/cc1n5Awn.s:3175   .debug_str:00000000000003c5 .LASF71
     /tmp/cc1n5Awn.s:326    .text:00000000000001e4 .LFB7
     /tmp/cc1n5Awn.s:382    .text:0000000000000248 .LFE7
     /tmp/cc1n5Awn.s:2802   .debug_loc:0000000000000393 .LLST8
     /tmp/cc1n5Awn.s:3143   .debug_str:00000000000002d1 .LASF72
     /tmp/cc1n5Awn.s:2828   .debug_loc:0000000000000405 .LLST9
     /tmp/cc1n5Awn.s:356    .text:0000000000000224 .LVL27
     /tmp/cc1n5Awn.s:379    .text:0000000000000244 .LVL31
     /tmp/cc1n5Awn.s:3111   .debug_str:0000000000000201 .LASF73
     /tmp/cc1n5Awn.s:288    .text:00000000000001a8 .LFB6
     /tmp/cc1n5Awn.s:320    .text:00000000000001e4 .LFE6
     /tmp/cc1n5Awn.s:2850   .debug_loc:0000000000000464 .LLST7
     /tmp/cc1n5Awn.s:309    .text:00000000000001d4 .LVL24
     /tmp/cc1n5Awn.s:3127   .debug_str:0000000000000261 .LASF74
     /tmp/cc1n5Awn.s:3167   .debug_str:0000000000000389 .LASF75
     /tmp/cc1n5Awn.s:252    .text:000000000000016c .LFB5
     /tmp/cc1n5Awn.s:282    .text:00000000000001a8 .LFE5
     /tmp/cc1n5Awn.s:271    .text:0000000000000198 .LVL21
     /tmp/cc1n5Awn.s:3039   .debug_str:0000000000000049 .LASF76
     /tmp/cc1n5Awn.s:3149   .debug_str:00000000000002f7 .LASF77
     /tmp/cc1n5Awn.s:215    .text:000000000000012c .LFB4
     /tmp/cc1n5Awn.s:246    .text:000000000000016c .LFE4
     /tmp/cc1n5Awn.s:234    .text:0000000000000158 .LVL20
     /tmp/cc1n5Awn.s:3109   .debug_str:00000000000001f3 .LASF78
     /tmp/cc1n5Awn.s:3157   .debug_str:0000000000000327 .LASF79
     /tmp/cc1n5Awn.s:140    .text:00000000000000b0 .LFB3
     /tmp/cc1n5Awn.s:209    .text:000000000000012c .LFE3
     /tmp/cc1n5Awn.s:2868   .debug_loc:00000000000004b0 .LLST3
     /tmp/cc1n5Awn.s:3171   .debug_str:00000000000003ae .LASF80
     /tmp/cc1n5Awn.s:2890   .debug_loc:000000000000050f .LLST4
     /tmp/cc1n5Awn.s:2912   .debug_loc:000000000000056e .LLST5
     /tmp/cc1n5Awn.s:3203   .debug_str:0000000000000532 .LASF81
     /tmp/cc1n5Awn.s:2934   .debug_loc:00000000000005cd .LLST6
     /tmp/cc1n5Awn.s:170    .text:00000000000000e8 .LVL13
     /tmp/cc1n5Awn.s:181    .text:0000000000000104 .LVL15
     /tmp/cc1n5Awn.s:3081   .debug_str:000000000000014f .LASF82
     /tmp/cc1n5Awn.s:3145   .debug_str:00000000000002d6 .LASF83
     /tmp/cc1n5Awn.s:101    .text:0000000000000070 .LFB2
     /tmp/cc1n5Awn.s:134    .text:00000000000000b0 .LFE2
     /tmp/cc1n5Awn.s:2951   .debug_loc:0000000000000618 .LLST2
     /tmp/cc1n5Awn.s:122    .text:000000000000009c .LVL9
     /tmp/cc1n5Awn.s:3185   .debug_str:0000000000000422 .LASF84
     /tmp/cc1n5Awn.s:3065   .debug_str:00000000000000e9 .LASF85
GAS LISTING /tmp/cc1n5Awn.s 			page 27


     /tmp/cc1n5Awn.s:53     .text:0000000000000028 .LFB1
     /tmp/cc1n5Awn.s:95     .text:0000000000000070 .LFE1
     /tmp/cc1n5Awn.s:3195   .debug_str:000000000000044e .LASF86
     /tmp/cc1n5Awn.s:2969   .debug_loc:0000000000000664 .LLST1
     /tmp/cc1n5Awn.s:77     .text:0000000000000058 .LVL4
     /tmp/cc1n5Awn.s:3187   .debug_str:000000000000042c .LASF87
     /tmp/cc1n5Awn.s:3057   .debug_str:00000000000000b4 .LASF88
     /tmp/cc1n5Awn.s:10     .text:0000000000000000 .LFB0
     /tmp/cc1n5Awn.s:47     .text:0000000000000028 .LFE0
     /tmp/cc1n5Awn.s:3141   .debug_str:00000000000002cc .LASF89
     /tmp/cc1n5Awn.s:2998   .debug_loc:00000000000006d9 .LLST0
     /tmp/cc1n5Awn.s:3211   .debug_str:0000000000000563 .LASF90
     /tmp/cc1n5Awn.s:3213   .debug_str:0000000000000568 .LASF91
     /tmp/cc1n5Awn.s:3103   .debug_str:00000000000001db .LASF92
     /tmp/cc1n5Awn.s:3105   .debug_str:00000000000001e0 .LASF93
     /tmp/cc1n5Awn.s:830    .text:0000000000000518 .LVL65
     /tmp/cc1n5Awn.s:846    .text:000000000000053c .LVL66
     /tmp/cc1n5Awn.s:754    .text:0000000000000498 .LVL61
     /tmp/cc1n5Awn.s:770    .text:00000000000004bc .LVL62
     /tmp/cc1n5Awn.s:704    .text:000000000000044c .LVL56
     /tmp/cc1n5Awn.s:723    .text:0000000000000474 .LVL57
     /tmp/cc1n5Awn.s:737    .text:0000000000000490 .LVL59
     /tmp/cc1n5Awn.s:741    .text:0000000000000494 .LVL60
     /tmp/cc1n5Awn.s:664    .text:000000000000040c .LVL52
     /tmp/cc1n5Awn.s:681    .text:0000000000000430 .LVL54
     /tmp/cc1n5Awn.s:679    .text:000000000000042c .LVL53
     /tmp/cc1n5Awn.s:625    .text:00000000000003cc .LVL49
     /tmp/cc1n5Awn.s:641    .text:00000000000003f0 .LVL50
     /tmp/cc1n5Awn.s:586    .text:000000000000038c .LVL46
     /tmp/cc1n5Awn.s:602    .text:00000000000003b0 .LVL47
     /tmp/cc1n5Awn.s:547    .text:000000000000034c .LVL43
     /tmp/cc1n5Awn.s:563    .text:0000000000000370 .LVL44
     /tmp/cc1n5Awn.s:508    .text:000000000000030c .LVL40
     /tmp/cc1n5Awn.s:524    .text:0000000000000330 .LVL41
     /tmp/cc1n5Awn.s:467    .text:00000000000002c8 .LVL36
     /tmp/cc1n5Awn.s:485    .text:00000000000002f0 .LVL38
     /tmp/cc1n5Awn.s:483    .text:00000000000002ec .LVL37
     /tmp/cc1n5Awn.s:428    .text:0000000000000288 .LVL33
     /tmp/cc1n5Awn.s:444    .text:00000000000002ac .LVL34
     /tmp/cc1n5Awn.s:329    .text:00000000000001e4 .LVL25
     /tmp/cc1n5Awn.s:346    .text:0000000000000208 .LVL26
     /tmp/cc1n5Awn.s:369    .text:0000000000000234 .LVL29
     /tmp/cc1n5Awn.s:373    .text:000000000000023c .LVL30
     /tmp/cc1n5Awn.s:366    .text:0000000000000230 .LVL28
     /tmp/cc1n5Awn.s:291    .text:00000000000001a8 .LVL22
     /tmp/cc1n5Awn.s:307    .text:00000000000001cc .LVL23
     /tmp/cc1n5Awn.s:143    .text:00000000000000b0 .LVL10
     /tmp/cc1n5Awn.s:168    .text:00000000000000e0 .LVL12
     /tmp/cc1n5Awn.s:195    .text:0000000000000118 .LVL17
     /tmp/cc1n5Awn.s:202    .text:0000000000000124 .LVL19
     /tmp/cc1n5Awn.s:192    .text:0000000000000114 .LVL16
     /tmp/cc1n5Awn.s:198    .text:000000000000011c .LVL18
     /tmp/cc1n5Awn.s:162    .text:00000000000000d8 .LVL11
     /tmp/cc1n5Awn.s:172    .text:00000000000000ec .LVL14
     /tmp/cc1n5Awn.s:104    .text:0000000000000070 .LVL7
     /tmp/cc1n5Awn.s:120    .text:0000000000000094 .LVL8
     /tmp/cc1n5Awn.s:56     .text:0000000000000028 .LVL2
GAS LISTING /tmp/cc1n5Awn.s 			page 28


     /tmp/cc1n5Awn.s:75     .text:0000000000000050 .LVL3
     /tmp/cc1n5Awn.s:87     .text:0000000000000068 .LVL5
     /tmp/cc1n5Awn.s:91     .text:000000000000006c .LVL6
     /tmp/cc1n5Awn.s:14     .text:0000000000000000 .LVL0
     /tmp/cc1n5Awn.s:38     .text:000000000000001c .LVL1
     /tmp/cc1n5Awn.s:865    .debug_info:0000000000000000 .Ldebug_info0

NO UNDEFINED SYMBOLS
