GAS LISTING /tmp/ccdfblL6.s 			page 1


   1              		.file	"syscall_c.cpp"
   2              		.option pic
   3              		.option norelax
   4              		.text
   5              	.Ltext0:
   6              		.align	2
   7              		.globl	_Z7syscallmmmmm
   9              	_Z7syscallmmmmm:
  10              	.LFB0:
  11              		.file 1 "src/syscall_c.cpp"
   1:src/syscall_c.cpp **** #include "../h/syscall_c.hpp"
   2:src/syscall_c.cpp **** 
   3:src/syscall_c.cpp **** extern "C" uint64 caller();
   4:src/syscall_c.cpp **** 
   5:src/syscall_c.cpp **** uint64 syscall(uint64 code, uint64 arg1, uint64 arg2, uint64 arg3, uint64 arg4) {
  12              		.loc 1 5 81
  13              		.cfi_startproc
  14              	.LVL0:
  15 0000 130101FF 		addi	sp,sp,-16
  16              		.cfi_def_cfa_offset 16
  17 0004 23341100 		sd	ra,8(sp)
  18 0008 23308100 		sd	s0,0(sp)
  19              		.cfi_offset 1, -8
  20              		.cfi_offset 8, -16
  21 000c 13040101 		addi	s0,sp,16
  22              		.cfi_def_cfa 8, 0
   6:src/syscall_c.cpp ****     return caller();
  23              		.loc 1 6 5
  24              		.loc 1 6 18 is_stmt 0
  25 0010 97000000 		call	caller@plt
  25      E7800000 
  26              	.LVL1:
   7:src/syscall_c.cpp **** }
  27              		.loc 1 7 1
  28 0018 83308100 		ld	ra,8(sp)
  29              		.cfi_restore 1
  30 001c 03340100 		ld	s0,0(sp)
  31              		.cfi_restore 8
  32              		.cfi_def_cfa 2, 16
  33 0020 13010101 		addi	sp,sp,16
  34              		.cfi_def_cfa_offset 0
  35 0024 67800000 		jr	ra
  36              		.cfi_endproc
  37              	.LFE0:
  39              		.align	2
  40              		.globl	_Z9mem_allocm
  42              	_Z9mem_allocm:
  43              	.LFB1:
   8:src/syscall_c.cpp **** 
   9:src/syscall_c.cpp **** void *mem_alloc(size_t size) {
  44              		.loc 1 9 30 is_stmt 1
  45              		.cfi_startproc
  46              	.LVL2:
  10:src/syscall_c.cpp ****     if (size == 0) return nullptr;
  47              		.loc 1 10 5
  48 0028 63000504 		beqz	a0,.L5
   9:src/syscall_c.cpp ****     if (size == 0) return nullptr;
GAS LISTING /tmp/ccdfblL6.s 			page 2


  49              		.loc 1 9 30 is_stmt 0
  50 002c 130101FF 		addi	sp,sp,-16
  51              		.cfi_def_cfa_offset 16
  52 0030 23341100 		sd	ra,8(sp)
  53 0034 23308100 		sd	s0,0(sp)
  54              		.cfi_offset 1, -8
  55              		.cfi_offset 8, -16
  56 0038 13040101 		addi	s0,sp,16
  57              		.cfi_def_cfa 8, 0
  58 003c 93050500 		mv	a1,a0
  11:src/syscall_c.cpp ****     return (void *) syscall(MEM_ALLOC, size);
  59              		.loc 1 11 5 is_stmt 1
  60              		.loc 1 11 28 is_stmt 0
  61 0040 13070000 		li	a4,0
  62 0044 93060000 		li	a3,0
  63 0048 13060000 		li	a2,0
  64 004c 13050000 		li	a0,0
  65              	.LVL3:
  66 0050 97000000 		call	_Z7syscallmmmmm
  66      E7800000 
  67              	.LVL4:
  12:src/syscall_c.cpp **** }
  68              		.loc 1 12 1
  69 0058 83308100 		ld	ra,8(sp)
  70              		.cfi_restore 1
  71 005c 03340100 		ld	s0,0(sp)
  72              		.cfi_restore 8
  73              		.cfi_def_cfa 2, 16
  74 0060 13010101 		addi	sp,sp,16
  75              		.cfi_def_cfa_offset 0
  76 0064 67800000 		jr	ra
  77              	.LVL5:
  78              	.L5:
  10:src/syscall_c.cpp ****     return (void *) syscall(MEM_ALLOC, size);
  79              		.loc 1 10 27
  80 0068 13050000 		li	a0,0
  81              	.LVL6:
  82              		.loc 1 12 1
  83 006c 67800000 		ret
  84              		.cfi_endproc
  85              	.LFE1:
  87              		.align	2
  88              		.globl	_Z8mem_freePv
  90              	_Z8mem_freePv:
  91              	.LFB2:
  13:src/syscall_c.cpp **** 
  14:src/syscall_c.cpp **** int mem_free(void *mem) {
  92              		.loc 1 14 25 is_stmt 1
  93              		.cfi_startproc
  94              	.LVL7:
  95 0070 130101FF 		addi	sp,sp,-16
  96              		.cfi_def_cfa_offset 16
  97 0074 23341100 		sd	ra,8(sp)
  98 0078 23308100 		sd	s0,0(sp)
  99              		.cfi_offset 1, -8
 100              		.cfi_offset 8, -16
 101 007c 13040101 		addi	s0,sp,16
GAS LISTING /tmp/ccdfblL6.s 			page 3


 102              		.cfi_def_cfa 8, 0
 103 0080 93050500 		mv	a1,a0
  15:src/syscall_c.cpp ****     return (int) syscall(MEM_FREE, (uint64) mem);
 104              		.loc 1 15 5
 105              		.loc 1 15 25 is_stmt 0
 106 0084 13070000 		li	a4,0
 107 0088 93060000 		li	a3,0
 108 008c 13060000 		li	a2,0
 109 0090 13051000 		li	a0,1
 110              	.LVL8:
 111 0094 97000000 		call	_Z7syscallmmmmm
 111      E7800000 
 112              	.LVL9:
  16:src/syscall_c.cpp **** }
 113              		.loc 1 16 1
 114 009c 1B050500 		sext.w	a0,a0
 115 00a0 83308100 		ld	ra,8(sp)
 116              		.cfi_restore 1
 117 00a4 03340100 		ld	s0,0(sp)
 118              		.cfi_restore 8
 119              		.cfi_def_cfa 2, 16
 120 00a8 13010101 		addi	sp,sp,16
 121              		.cfi_def_cfa_offset 0
 122 00ac 67800000 		jr	ra
 123              		.cfi_endproc
 124              	.LFE2:
 126              		.align	2
 127              		.globl	_Z13thread_createPP3TCBPFvPvES2_
 129              	_Z13thread_createPP3TCBPFvPvES2_:
 130              	.LFB3:
  17:src/syscall_c.cpp **** 
  18:src/syscall_c.cpp **** int thread_create(thread_t *handle, void(*start_routine)(void *), void *arg) {
 131              		.loc 1 18 78 is_stmt 1
 132              		.cfi_startproc
 133              	.LVL10:
 134 00b0 130101FD 		addi	sp,sp,-48
 135              		.cfi_def_cfa_offset 48
 136 00b4 23341102 		sd	ra,40(sp)
 137 00b8 23308102 		sd	s0,32(sp)
 138 00bc 233C9100 		sd	s1,24(sp)
 139 00c0 23382101 		sd	s2,16(sp)
 140 00c4 23343101 		sd	s3,8(sp)
 141              		.cfi_offset 1, -8
 142              		.cfi_offset 8, -16
 143              		.cfi_offset 9, -24
 144              		.cfi_offset 18, -32
 145              		.cfi_offset 19, -40
 146 00c8 13040103 		addi	s0,sp,48
 147              		.cfi_def_cfa 8, 0
 148 00cc 13090500 		mv	s2,a0
 149 00d0 93840500 		mv	s1,a1
 150 00d4 93090600 		mv	s3,a2
  19:src/syscall_c.cpp ****     void *stack_space = nullptr;
 151              		.loc 1 19 5
 152              	.LVL11:
  20:src/syscall_c.cpp ****     if (start_routine) {
 153              		.loc 1 20 5
GAS LISTING /tmp/ccdfblL6.s 			page 4


 154 00d8 63860504 		beqz	a1,.L14
  21:src/syscall_c.cpp ****         stack_space = mem_alloc(DEFAULT_STACK_SIZE);
 155              		.loc 1 21 9
 156              		.loc 1 21 32 is_stmt 0
 157 00dc 37450000 		li	a0,16384
 158              	.LVL12:
 159 00e0 97000000 		call	_Z9mem_allocm
 159      E7800000 
 160              	.LVL13:
 161 00e8 13070500 		mv	a4,a0
 162              	.LVL14:
 163              	.L13:
  22:src/syscall_c.cpp ****     }
  23:src/syscall_c.cpp ****     return (int) syscall(THREAD_CREATE, (uint64) handle, (uint64) start_routine, (uint64) arg, (uin
 164              		.loc 1 23 5 is_stmt 1
 165              		.loc 1 23 25 is_stmt 0
 166 00ec 93860900 		mv	a3,s3
 167 00f0 13860400 		mv	a2,s1
 168 00f4 93050900 		mv	a1,s2
 169 00f8 13052000 		li	a0,2
 170 00fc 97000000 		call	_Z7syscallmmmmm
 170      E7800000 
 171              	.LVL15:
  24:src/syscall_c.cpp **** }
 172              		.loc 1 24 1
 173 0104 1B050500 		sext.w	a0,a0
 174 0108 83308102 		ld	ra,40(sp)
 175              		.cfi_remember_state
 176              		.cfi_restore 1
 177 010c 03340102 		ld	s0,32(sp)
 178              		.cfi_restore 8
 179              		.cfi_def_cfa 2, 48
 180 0110 83348101 		ld	s1,24(sp)
 181              		.cfi_restore 9
 182              	.LVL16:
 183 0114 03390101 		ld	s2,16(sp)
 184              		.cfi_restore 18
 185              	.LVL17:
 186 0118 83398100 		ld	s3,8(sp)
 187              		.cfi_restore 19
 188              	.LVL18:
 189 011c 13010103 		addi	sp,sp,48
 190              		.cfi_def_cfa_offset 0
 191 0120 67800000 		jr	ra
 192              	.LVL19:
 193              	.L14:
 194              		.cfi_restore_state
  19:src/syscall_c.cpp ****     if (start_routine) {
 195              		.loc 1 19 11
 196 0124 13070000 		li	a4,0
 197 0128 6FF05FFC 		j	.L13
 198              		.cfi_endproc
 199              	.LFE3:
 201              		.align	2
 202              		.globl	_Z11thread_exitv
 204              	_Z11thread_exitv:
 205              	.LFB4:
GAS LISTING /tmp/ccdfblL6.s 			page 5


  25:src/syscall_c.cpp **** 
  26:src/syscall_c.cpp **** int thread_exit() {
 206              		.loc 1 26 19 is_stmt 1
 207              		.cfi_startproc
 208 012c 130101FF 		addi	sp,sp,-16
 209              		.cfi_def_cfa_offset 16
 210 0130 23341100 		sd	ra,8(sp)
 211 0134 23308100 		sd	s0,0(sp)
 212              		.cfi_offset 1, -8
 213              		.cfi_offset 8, -16
 214 0138 13040101 		addi	s0,sp,16
 215              		.cfi_def_cfa 8, 0
  27:src/syscall_c.cpp ****     return (int) syscall(THREAD_EXIT);
 216              		.loc 1 27 5
 217              		.loc 1 27 25 is_stmt 0
 218 013c 13070000 		li	a4,0
 219 0140 93060000 		li	a3,0
 220 0144 13060000 		li	a2,0
 221 0148 93050000 		li	a1,0
 222 014c 13053000 		li	a0,3
 223 0150 97000000 		call	_Z7syscallmmmmm
 223      E7800000 
 224              	.LVL20:
  28:src/syscall_c.cpp **** }
 225              		.loc 1 28 1
 226 0158 1B050500 		sext.w	a0,a0
 227 015c 83308100 		ld	ra,8(sp)
 228              		.cfi_restore 1
 229 0160 03340100 		ld	s0,0(sp)
 230              		.cfi_restore 8
 231              		.cfi_def_cfa 2, 16
 232 0164 13010101 		addi	sp,sp,16
 233              		.cfi_def_cfa_offset 0
 234 0168 67800000 		jr	ra
 235              		.cfi_endproc
 236              	.LFE4:
 238              		.align	2
 239              		.globl	_Z15thread_dispatchv
 241              	_Z15thread_dispatchv:
 242              	.LFB5:
  29:src/syscall_c.cpp **** 
  30:src/syscall_c.cpp **** void thread_dispatch() {
 243              		.loc 1 30 24 is_stmt 1
 244              		.cfi_startproc
 245 016c 130101FF 		addi	sp,sp,-16
 246              		.cfi_def_cfa_offset 16
 247 0170 23341100 		sd	ra,8(sp)
 248 0174 23308100 		sd	s0,0(sp)
 249              		.cfi_offset 1, -8
 250              		.cfi_offset 8, -16
 251 0178 13040101 		addi	s0,sp,16
 252              		.cfi_def_cfa 8, 0
  31:src/syscall_c.cpp ****     (void) syscall(THREAD_DISPATCH);
 253              		.loc 1 31 5
 254              		.loc 1 31 19 is_stmt 0
 255 017c 13070000 		li	a4,0
 256 0180 93060000 		li	a3,0
GAS LISTING /tmp/ccdfblL6.s 			page 6


 257 0184 13060000 		li	a2,0
 258 0188 93050000 		li	a1,0
 259 018c 13054000 		li	a0,4
 260 0190 97000000 		call	_Z7syscallmmmmm
 260      E7800000 
 261              	.LVL21:
  32:src/syscall_c.cpp **** }
 262              		.loc 1 32 1
 263 0198 83308100 		ld	ra,8(sp)
 264              		.cfi_restore 1
 265 019c 03340100 		ld	s0,0(sp)
 266              		.cfi_restore 8
 267              		.cfi_def_cfa 2, 16
 268 01a0 13010101 		addi	sp,sp,16
 269              		.cfi_def_cfa_offset 0
 270 01a4 67800000 		jr	ra
 271              		.cfi_endproc
 272              	.LFE5:
 274              		.align	2
 275              		.globl	_Z11thread_joinP3TCB
 277              	_Z11thread_joinP3TCB:
 278              	.LFB6:
  33:src/syscall_c.cpp **** 
  34:src/syscall_c.cpp **** void thread_join(thread_t handle) {
 279              		.loc 1 34 35 is_stmt 1
 280              		.cfi_startproc
 281              	.LVL22:
 282 01a8 130101FF 		addi	sp,sp,-16
 283              		.cfi_def_cfa_offset 16
 284 01ac 23341100 		sd	ra,8(sp)
 285 01b0 23308100 		sd	s0,0(sp)
 286              		.cfi_offset 1, -8
 287              		.cfi_offset 8, -16
 288 01b4 13040101 		addi	s0,sp,16
 289              		.cfi_def_cfa 8, 0
 290 01b8 93050500 		mv	a1,a0
  35:src/syscall_c.cpp ****     (void) syscall(THREAD_JOIN, (uint64) handle);
 291              		.loc 1 35 5
 292              		.loc 1 35 19 is_stmt 0
 293 01bc 13070000 		li	a4,0
 294 01c0 93060000 		li	a3,0
 295 01c4 13060000 		li	a2,0
 296 01c8 13055000 		li	a0,5
 297              	.LVL23:
 298 01cc 97000000 		call	_Z7syscallmmmmm
 298      E7800000 
 299              	.LVL24:
  36:src/syscall_c.cpp **** }
 300              		.loc 1 36 1
 301 01d4 83308100 		ld	ra,8(sp)
 302              		.cfi_restore 1
 303 01d8 03340100 		ld	s0,0(sp)
 304              		.cfi_restore 8
 305              		.cfi_def_cfa 2, 16
 306 01dc 13010101 		addi	sp,sp,16
 307              		.cfi_def_cfa_offset 0
 308 01e0 67800000 		jr	ra
GAS LISTING /tmp/ccdfblL6.s 			page 7


 309              		.cfi_endproc
 310              	.LFE6:
 312              		.align	2
 313              		.globl	_Z11thread_joinP3TCBm
 315              	_Z11thread_joinP3TCBm:
 316              	.LFB7:
  37:src/syscall_c.cpp **** 
  38:src/syscall_c.cpp **** void thread_join(thread_t handle, time_t time) {
 317              		.loc 1 38 48 is_stmt 1
 318              		.cfi_startproc
 319              	.LVL25:
 320 01e4 130101FE 		addi	sp,sp,-32
 321              		.cfi_def_cfa_offset 32
 322 01e8 233C1100 		sd	ra,24(sp)
 323 01ec 23388100 		sd	s0,16(sp)
 324 01f0 23349100 		sd	s1,8(sp)
 325 01f4 23302101 		sd	s2,0(sp)
 326              		.cfi_offset 1, -8
 327              		.cfi_offset 8, -16
 328              		.cfi_offset 9, -24
 329              		.cfi_offset 18, -32
 330 01f8 13040102 		addi	s0,sp,32
 331              		.cfi_def_cfa 8, 0
 332 01fc 13090500 		mv	s2,a0
 333 0200 93840500 		mv	s1,a1
  39:src/syscall_c.cpp ****     if (time == 0) thread_join(handle);
 334              		.loc 1 39 5
 335 0204 638C0502 		beqz	a1,.L25
 336              	.LVL26:
 337              	.L23:
  40:src/syscall_c.cpp ****     (void) syscall(THREAD_JOIN_TIME, (uint64) handle, time);
 338              		.loc 1 40 5
 339              		.loc 1 40 19 is_stmt 0
 340 0208 13070000 		li	a4,0
 341 020c 93060000 		li	a3,0
 342 0210 13860400 		mv	a2,s1
 343 0214 93050900 		mv	a1,s2
 344 0218 13056000 		li	a0,6
 345 021c 97000000 		call	_Z7syscallmmmmm
 345      E7800000 
 346              	.LVL27:
  41:src/syscall_c.cpp **** }
 347              		.loc 1 41 1
 348 0224 83308101 		ld	ra,24(sp)
 349              		.cfi_remember_state
 350              		.cfi_restore 1
 351 0228 03340101 		ld	s0,16(sp)
 352              		.cfi_restore 8
 353              		.cfi_def_cfa 2, 32
 354 022c 83348100 		ld	s1,8(sp)
 355              		.cfi_restore 9
 356              	.LVL28:
 357 0230 03390100 		ld	s2,0(sp)
 358              		.cfi_restore 18
 359              	.LVL29:
 360 0234 13010102 		addi	sp,sp,32
 361              		.cfi_def_cfa_offset 0
GAS LISTING /tmp/ccdfblL6.s 			page 8


 362 0238 67800000 		jr	ra
 363              	.LVL30:
 364              	.L25:
 365              		.cfi_restore_state
  39:src/syscall_c.cpp ****     if (time == 0) thread_join(handle);
 366              		.loc 1 39 20 is_stmt 1 discriminator 1
  39:src/syscall_c.cpp ****     if (time == 0) thread_join(handle);
 367              		.loc 1 39 31 is_stmt 0 discriminator 1
 368 023c 97000000 		call	_Z11thread_joinP3TCB
 368      E7800000 
 369              	.LVL31:
 370 0244 6FF05FFC 		j	.L23
 371              		.cfi_endproc
 372              	.LFE7:
 374              		.align	2
 375              		.globl	_Z4forkv
 377              	_Z4forkv:
 378              	.LFB8:
  42:src/syscall_c.cpp **** 
  43:src/syscall_c.cpp **** int fork() {
 379              		.loc 1 43 12 is_stmt 1
 380              		.cfi_startproc
 381 0248 130101FF 		addi	sp,sp,-16
 382              		.cfi_def_cfa_offset 16
 383 024c 23341100 		sd	ra,8(sp)
 384 0250 23308100 		sd	s0,0(sp)
 385              		.cfi_offset 1, -8
 386              		.cfi_offset 8, -16
 387 0254 13040101 		addi	s0,sp,16
 388              		.cfi_def_cfa 8, 0
  44:src/syscall_c.cpp ****     return (int) syscall(THREAD_FORK);
 389              		.loc 1 44 5
 390              		.loc 1 44 25 is_stmt 0
 391 0258 13070000 		li	a4,0
 392 025c 93060000 		li	a3,0
 393 0260 13060000 		li	a2,0
 394 0264 93050000 		li	a1,0
 395 0268 13057000 		li	a0,7
 396 026c 97000000 		call	_Z7syscallmmmmm
 396      E7800000 
 397              	.LVL32:
  45:src/syscall_c.cpp **** }
 398              		.loc 1 45 1
 399 0274 1B050500 		sext.w	a0,a0
 400 0278 83308100 		ld	ra,8(sp)
 401              		.cfi_restore 1
 402 027c 03340100 		ld	s0,0(sp)
 403              		.cfi_restore 8
 404              		.cfi_def_cfa 2, 16
 405 0280 13010101 		addi	sp,sp,16
 406              		.cfi_def_cfa_offset 0
 407 0284 67800000 		jr	ra
 408              		.cfi_endproc
 409              	.LFE8:
 411              		.align	2
 412              		.globl	_Z11thread_killP3TCB
 414              	_Z11thread_killP3TCB:
GAS LISTING /tmp/ccdfblL6.s 			page 9


 415              	.LFB9:
  46:src/syscall_c.cpp **** 
  47:src/syscall_c.cpp **** int thread_kill(thread_t handle) {
 416              		.loc 1 47 34 is_stmt 1
 417              		.cfi_startproc
 418              	.LVL33:
 419 0288 130101FF 		addi	sp,sp,-16
 420              		.cfi_def_cfa_offset 16
 421 028c 23341100 		sd	ra,8(sp)
 422 0290 23308100 		sd	s0,0(sp)
 423              		.cfi_offset 1, -8
 424              		.cfi_offset 8, -16
 425 0294 13040101 		addi	s0,sp,16
 426              		.cfi_def_cfa 8, 0
 427 0298 93050500 		mv	a1,a0
  48:src/syscall_c.cpp ****     return (int) syscall(THREAD_KILL, (uint64) handle);
 428              		.loc 1 48 5
 429              		.loc 1 48 25 is_stmt 0
 430 029c 13070000 		li	a4,0
 431 02a0 93060000 		li	a3,0
 432 02a4 13060000 		li	a2,0
 433 02a8 13058000 		li	a0,8
 434              	.LVL34:
 435 02ac 97000000 		call	_Z7syscallmmmmm
 435      E7800000 
 436              	.LVL35:
  49:src/syscall_c.cpp **** }
 437              		.loc 1 49 1
 438 02b4 1B050500 		sext.w	a0,a0
 439 02b8 83308100 		ld	ra,8(sp)
 440              		.cfi_restore 1
 441 02bc 03340100 		ld	s0,0(sp)
 442              		.cfi_restore 8
 443              		.cfi_def_cfa 2, 16
 444 02c0 13010101 		addi	sp,sp,16
 445              		.cfi_def_cfa_offset 0
 446 02c4 67800000 		jr	ra
 447              		.cfi_endproc
 448              	.LFE9:
 450              		.align	2
 451              		.globl	_Z8sem_openPP3Semj
 453              	_Z8sem_openPP3Semj:
 454              	.LFB10:
  50:src/syscall_c.cpp **** 
  51:src/syscall_c.cpp **** int sem_open(sem_t *handle, unsigned init) {
 455              		.loc 1 51 44 is_stmt 1
 456              		.cfi_startproc
 457              	.LVL36:
 458 02c8 130101FF 		addi	sp,sp,-16
 459              		.cfi_def_cfa_offset 16
 460 02cc 23341100 		sd	ra,8(sp)
 461 02d0 23308100 		sd	s0,0(sp)
 462              		.cfi_offset 1, -8
 463              		.cfi_offset 8, -16
 464 02d4 13040101 		addi	s0,sp,16
 465              		.cfi_def_cfa 8, 0
  52:src/syscall_c.cpp ****     return (int) syscall(SEM_OPEN, (uint64) handle, init);
GAS LISTING /tmp/ccdfblL6.s 			page 10


 466              		.loc 1 52 5
 467              		.loc 1 52 25 is_stmt 0
 468 02d8 13070000 		li	a4,0
 469 02dc 93060000 		li	a3,0
 470 02e0 13960502 		slli	a2,a1,32
 471 02e4 13560602 		srli	a2,a2,32
 472 02e8 93050500 		mv	a1,a0
 473              	.LVL37:
 474 02ec 13059000 		li	a0,9
 475              	.LVL38:
 476 02f0 97000000 		call	_Z7syscallmmmmm
 476      E7800000 
 477              	.LVL39:
  53:src/syscall_c.cpp **** }
 478              		.loc 1 53 1
 479 02f8 1B050500 		sext.w	a0,a0
 480 02fc 83308100 		ld	ra,8(sp)
 481              		.cfi_restore 1
 482 0300 03340100 		ld	s0,0(sp)
 483              		.cfi_restore 8
 484              		.cfi_def_cfa 2, 16
 485 0304 13010101 		addi	sp,sp,16
 486              		.cfi_def_cfa_offset 0
 487 0308 67800000 		jr	ra
 488              		.cfi_endproc
 489              	.LFE10:
 491              		.align	2
 492              		.globl	_Z9sem_closeP3Sem
 494              	_Z9sem_closeP3Sem:
 495              	.LFB11:
  54:src/syscall_c.cpp **** 
  55:src/syscall_c.cpp **** int sem_close(sem_t id) {
 496              		.loc 1 55 25 is_stmt 1
 497              		.cfi_startproc
 498              	.LVL40:
 499 030c 130101FF 		addi	sp,sp,-16
 500              		.cfi_def_cfa_offset 16
 501 0310 23341100 		sd	ra,8(sp)
 502 0314 23308100 		sd	s0,0(sp)
 503              		.cfi_offset 1, -8
 504              		.cfi_offset 8, -16
 505 0318 13040101 		addi	s0,sp,16
 506              		.cfi_def_cfa 8, 0
 507 031c 93050500 		mv	a1,a0
  56:src/syscall_c.cpp ****     return (int) syscall(SEM_CLOSE, (uint64) id);
 508              		.loc 1 56 5
 509              		.loc 1 56 25 is_stmt 0
 510 0320 13070000 		li	a4,0
 511 0324 93060000 		li	a3,0
 512 0328 13060000 		li	a2,0
 513 032c 1305A000 		li	a0,10
 514              	.LVL41:
 515 0330 97000000 		call	_Z7syscallmmmmm
 515      E7800000 
 516              	.LVL42:
  57:src/syscall_c.cpp **** }
 517              		.loc 1 57 1
GAS LISTING /tmp/ccdfblL6.s 			page 11


 518 0338 1B050500 		sext.w	a0,a0
 519 033c 83308100 		ld	ra,8(sp)
 520              		.cfi_restore 1
 521 0340 03340100 		ld	s0,0(sp)
 522              		.cfi_restore 8
 523              		.cfi_def_cfa 2, 16
 524 0344 13010101 		addi	sp,sp,16
 525              		.cfi_def_cfa_offset 0
 526 0348 67800000 		jr	ra
 527              		.cfi_endproc
 528              	.LFE11:
 530              		.align	2
 531              		.globl	_Z8sem_waitP3Sem
 533              	_Z8sem_waitP3Sem:
 534              	.LFB12:
  58:src/syscall_c.cpp **** 
  59:src/syscall_c.cpp **** int sem_wait(sem_t id) {
 535              		.loc 1 59 24 is_stmt 1
 536              		.cfi_startproc
 537              	.LVL43:
 538 034c 130101FF 		addi	sp,sp,-16
 539              		.cfi_def_cfa_offset 16
 540 0350 23341100 		sd	ra,8(sp)
 541 0354 23308100 		sd	s0,0(sp)
 542              		.cfi_offset 1, -8
 543              		.cfi_offset 8, -16
 544 0358 13040101 		addi	s0,sp,16
 545              		.cfi_def_cfa 8, 0
 546 035c 93050500 		mv	a1,a0
  60:src/syscall_c.cpp ****     return (int) syscall(SEM_WAIT, (uint64) id);
 547              		.loc 1 60 5
 548              		.loc 1 60 25 is_stmt 0
 549 0360 13070000 		li	a4,0
 550 0364 93060000 		li	a3,0
 551 0368 13060000 		li	a2,0
 552 036c 1305B000 		li	a0,11
 553              	.LVL44:
 554 0370 97000000 		call	_Z7syscallmmmmm
 554      E7800000 
 555              	.LVL45:
  61:src/syscall_c.cpp **** }
 556              		.loc 1 61 1
 557 0378 1B050500 		sext.w	a0,a0
 558 037c 83308100 		ld	ra,8(sp)
 559              		.cfi_restore 1
 560 0380 03340100 		ld	s0,0(sp)
 561              		.cfi_restore 8
 562              		.cfi_def_cfa 2, 16
 563 0384 13010101 		addi	sp,sp,16
 564              		.cfi_def_cfa_offset 0
 565 0388 67800000 		jr	ra
 566              		.cfi_endproc
 567              	.LFE12:
 569              		.align	2
 570              		.globl	_Z10sem_signalP3Sem
 572              	_Z10sem_signalP3Sem:
 573              	.LFB13:
GAS LISTING /tmp/ccdfblL6.s 			page 12


  62:src/syscall_c.cpp **** 
  63:src/syscall_c.cpp **** int sem_signal(sem_t id) {
 574              		.loc 1 63 26 is_stmt 1
 575              		.cfi_startproc
 576              	.LVL46:
 577 038c 130101FF 		addi	sp,sp,-16
 578              		.cfi_def_cfa_offset 16
 579 0390 23341100 		sd	ra,8(sp)
 580 0394 23308100 		sd	s0,0(sp)
 581              		.cfi_offset 1, -8
 582              		.cfi_offset 8, -16
 583 0398 13040101 		addi	s0,sp,16
 584              		.cfi_def_cfa 8, 0
 585 039c 93050500 		mv	a1,a0
  64:src/syscall_c.cpp ****     return (int) syscall(SEM_SIGNAL, (uint64) id);
 586              		.loc 1 64 5
 587              		.loc 1 64 25 is_stmt 0
 588 03a0 13070000 		li	a4,0
 589 03a4 93060000 		li	a3,0
 590 03a8 13060000 		li	a2,0
 591 03ac 1305C000 		li	a0,12
 592              	.LVL47:
 593 03b0 97000000 		call	_Z7syscallmmmmm
 593      E7800000 
 594              	.LVL48:
  65:src/syscall_c.cpp **** }
 595              		.loc 1 65 1
 596 03b8 1B050500 		sext.w	a0,a0
 597 03bc 83308100 		ld	ra,8(sp)
 598              		.cfi_restore 1
 599 03c0 03340100 		ld	s0,0(sp)
 600              		.cfi_restore 8
 601              		.cfi_def_cfa 2, 16
 602 03c4 13010101 		addi	sp,sp,16
 603              		.cfi_def_cfa_offset 0
 604 03c8 67800000 		jr	ra
 605              		.cfi_endproc
 606              	.LFE13:
 608              		.align	2
 609              		.globl	_Z14sem_signal_allP3Sem
 611              	_Z14sem_signal_allP3Sem:
 612              	.LFB14:
  66:src/syscall_c.cpp **** 
  67:src/syscall_c.cpp **** int sem_signal_all(sem_t id) {
 613              		.loc 1 67 30 is_stmt 1
 614              		.cfi_startproc
 615              	.LVL49:
 616 03cc 130101FF 		addi	sp,sp,-16
 617              		.cfi_def_cfa_offset 16
 618 03d0 23341100 		sd	ra,8(sp)
 619 03d4 23308100 		sd	s0,0(sp)
 620              		.cfi_offset 1, -8
 621              		.cfi_offset 8, -16
 622 03d8 13040101 		addi	s0,sp,16
 623              		.cfi_def_cfa 8, 0
 624 03dc 93050500 		mv	a1,a0
  68:src/syscall_c.cpp ****     return (int) syscall(SIGNAL_ALL, (uint64) id);
GAS LISTING /tmp/ccdfblL6.s 			page 13


 625              		.loc 1 68 5
 626              		.loc 1 68 25 is_stmt 0
 627 03e0 13070000 		li	a4,0
 628 03e4 93060000 		li	a3,0
 629 03e8 13060000 		li	a2,0
 630 03ec 1305D000 		li	a0,13
 631              	.LVL50:
 632 03f0 97000000 		call	_Z7syscallmmmmm
 632      E7800000 
 633              	.LVL51:
  69:src/syscall_c.cpp **** }
 634              		.loc 1 69 1
 635 03f8 1B050500 		sext.w	a0,a0
 636 03fc 83308100 		ld	ra,8(sp)
 637              		.cfi_restore 1
 638 0400 03340100 		ld	s0,0(sp)
 639              		.cfi_restore 8
 640              		.cfi_def_cfa 2, 16
 641 0404 13010101 		addi	sp,sp,16
 642              		.cfi_def_cfa_offset 0
 643 0408 67800000 		jr	ra
 644              		.cfi_endproc
 645              	.LFE14:
 647              		.align	2
 648              		.globl	_Z15signal_and_waitP3SemS0_
 650              	_Z15signal_and_waitP3SemS0_:
 651              	.LFB15:
  70:src/syscall_c.cpp **** 
  71:src/syscall_c.cpp **** int signal_and_wait(sem_t signal, sem_t wait) {
 652              		.loc 1 71 47 is_stmt 1
 653              		.cfi_startproc
 654              	.LVL52:
 655 040c 130101FF 		addi	sp,sp,-16
 656              		.cfi_def_cfa_offset 16
 657 0410 23341100 		sd	ra,8(sp)
 658 0414 23308100 		sd	s0,0(sp)
 659              		.cfi_offset 1, -8
 660              		.cfi_offset 8, -16
 661 0418 13040101 		addi	s0,sp,16
 662              		.cfi_def_cfa 8, 0
 663 041c 13860500 		mv	a2,a1
  72:src/syscall_c.cpp ****     return (int) syscall(SIGNAL_WAIT, (uint64) signal, (uint64) wait);
 664              		.loc 1 72 5
 665              		.loc 1 72 25 is_stmt 0
 666 0420 13070000 		li	a4,0
 667 0424 93060000 		li	a3,0
 668 0428 93050500 		mv	a1,a0
 669              	.LVL53:
 670 042c 1305E000 		li	a0,14
 671              	.LVL54:
 672 0430 97000000 		call	_Z7syscallmmmmm
 672      E7800000 
 673              	.LVL55:
  73:src/syscall_c.cpp **** }
 674              		.loc 1 73 1
 675 0438 1B050500 		sext.w	a0,a0
 676 043c 83308100 		ld	ra,8(sp)
GAS LISTING /tmp/ccdfblL6.s 			page 14


 677              		.cfi_restore 1
 678 0440 03340100 		ld	s0,0(sp)
 679              		.cfi_restore 8
 680              		.cfi_def_cfa 2, 16
 681 0444 13010101 		addi	sp,sp,16
 682              		.cfi_def_cfa_offset 0
 683 0448 67800000 		jr	ra
 684              		.cfi_endproc
 685              	.LFE15:
 687              		.align	2
 688              		.globl	_Z10time_sleepm
 690              	_Z10time_sleepm:
 691              	.LFB16:
  74:src/syscall_c.cpp **** 
  75:src/syscall_c.cpp **** int time_sleep(time_t ms) {
 692              		.loc 1 75 27 is_stmt 1
 693              		.cfi_startproc
 694              	.LVL56:
  76:src/syscall_c.cpp ****     if (ms == 0) return -1;
 695              		.loc 1 76 5
 696 044c 63020504 		beqz	a0,.L44
  75:src/syscall_c.cpp ****     if (ms == 0) return -1;
 697              		.loc 1 75 27 is_stmt 0
 698 0450 130101FF 		addi	sp,sp,-16
 699              		.cfi_def_cfa_offset 16
 700 0454 23341100 		sd	ra,8(sp)
 701 0458 23308100 		sd	s0,0(sp)
 702              		.cfi_offset 1, -8
 703              		.cfi_offset 8, -16
 704 045c 13040101 		addi	s0,sp,16
 705              		.cfi_def_cfa 8, 0
 706 0460 93050500 		mv	a1,a0
  77:src/syscall_c.cpp ****     return (int) syscall(TIME_SLEEP, ms);
 707              		.loc 1 77 5 is_stmt 1
 708              		.loc 1 77 25 is_stmt 0
 709 0464 13070000 		li	a4,0
 710 0468 93060000 		li	a3,0
 711 046c 13060000 		li	a2,0
 712 0470 1305F000 		li	a0,15
 713              	.LVL57:
 714 0474 97000000 		call	_Z7syscallmmmmm
 714      E7800000 
 715              	.LVL58:
 716              		.loc 1 77 40
 717 047c 1B050500 		sext.w	a0,a0
  78:src/syscall_c.cpp **** }
 718              		.loc 1 78 1
 719 0480 83308100 		ld	ra,8(sp)
 720              		.cfi_restore 1
 721 0484 03340100 		ld	s0,0(sp)
 722              		.cfi_restore 8
 723              		.cfi_def_cfa 2, 16
 724 0488 13010101 		addi	sp,sp,16
 725              		.cfi_def_cfa_offset 0
 726 048c 67800000 		jr	ra
 727              	.LVL59:
 728              	.L44:
GAS LISTING /tmp/ccdfblL6.s 			page 15


  76:src/syscall_c.cpp ****     return (int) syscall(TIME_SLEEP, ms);
 729              		.loc 1 76 26
 730 0490 1305F0FF 		li	a0,-1
 731              	.LVL60:
 732              		.loc 1 78 1
 733 0494 67800000 		ret
 734              		.cfi_endproc
 735              	.LFE16:
 737              		.align	2
 738              		.globl	_Z11thread_wakeP3TCB
 740              	_Z11thread_wakeP3TCB:
 741              	.LFB17:
  79:src/syscall_c.cpp **** 
  80:src/syscall_c.cpp **** int thread_wake(thread_t handle) {
 742              		.loc 1 80 34 is_stmt 1
 743              		.cfi_startproc
 744              	.LVL61:
 745 0498 130101FF 		addi	sp,sp,-16
 746              		.cfi_def_cfa_offset 16
 747 049c 23341100 		sd	ra,8(sp)
 748 04a0 23308100 		sd	s0,0(sp)
 749              		.cfi_offset 1, -8
 750              		.cfi_offset 8, -16
 751 04a4 13040101 		addi	s0,sp,16
 752              		.cfi_def_cfa 8, 0
 753 04a8 93050500 		mv	a1,a0
  81:src/syscall_c.cpp ****     return (int) syscall(THREAD_WAKE, (uint64) handle);
 754              		.loc 1 81 5
 755              		.loc 1 81 25 is_stmt 0
 756 04ac 13070000 		li	a4,0
 757 04b0 93060000 		li	a3,0
 758 04b4 13060000 		li	a2,0
 759 04b8 13050001 		li	a0,16
 760              	.LVL62:
 761 04bc 97000000 		call	_Z7syscallmmmmm
 761      E7800000 
 762              	.LVL63:
  82:src/syscall_c.cpp **** }
 763              		.loc 1 82 1
 764 04c4 1B050500 		sext.w	a0,a0
 765 04c8 83308100 		ld	ra,8(sp)
 766              		.cfi_restore 1
 767 04cc 03340100 		ld	s0,0(sp)
 768              		.cfi_restore 8
 769              		.cfi_def_cfa 2, 16
 770 04d0 13010101 		addi	sp,sp,16
 771              		.cfi_def_cfa_offset 0
 772 04d4 67800000 		jr	ra
 773              		.cfi_endproc
 774              	.LFE17:
 776              		.align	2
 777              		.globl	_Z4getcv
 779              	_Z4getcv:
 780              	.LFB18:
  83:src/syscall_c.cpp **** 
  84:src/syscall_c.cpp **** char getc() {
 781              		.loc 1 84 13 is_stmt 1
GAS LISTING /tmp/ccdfblL6.s 			page 16


 782              		.cfi_startproc
 783 04d8 130101FF 		addi	sp,sp,-16
 784              		.cfi_def_cfa_offset 16
 785 04dc 23341100 		sd	ra,8(sp)
 786 04e0 23308100 		sd	s0,0(sp)
 787              		.cfi_offset 1, -8
 788              		.cfi_offset 8, -16
 789 04e4 13040101 		addi	s0,sp,16
 790              		.cfi_def_cfa 8, 0
  85:src/syscall_c.cpp ****     return (char) syscall(GETC);
 791              		.loc 1 85 5
 792              		.loc 1 85 26 is_stmt 0
 793 04e8 13070000 		li	a4,0
 794 04ec 93060000 		li	a3,0
 795 04f0 13060000 		li	a2,0
 796 04f4 93050000 		li	a1,0
 797 04f8 13051001 		li	a0,17
 798 04fc 97000000 		call	_Z7syscallmmmmm
 798      E7800000 
 799              	.LVL64:
  86:src/syscall_c.cpp **** }
 800              		.loc 1 86 1
 801 0504 1375F50F 		andi	a0,a0,0xff
 802 0508 83308100 		ld	ra,8(sp)
 803              		.cfi_restore 1
 804 050c 03340100 		ld	s0,0(sp)
 805              		.cfi_restore 8
 806              		.cfi_def_cfa 2, 16
 807 0510 13010101 		addi	sp,sp,16
 808              		.cfi_def_cfa_offset 0
 809 0514 67800000 		jr	ra
 810              		.cfi_endproc
 811              	.LFE18:
 813              		.align	2
 814              		.globl	_Z4putcc
 816              	_Z4putcc:
 817              	.LFB19:
  87:src/syscall_c.cpp **** 
  88:src/syscall_c.cpp **** void putc(char c) {
 818              		.loc 1 88 19 is_stmt 1
 819              		.cfi_startproc
 820              	.LVL65:
 821 0518 130101FF 		addi	sp,sp,-16
 822              		.cfi_def_cfa_offset 16
 823 051c 23341100 		sd	ra,8(sp)
 824 0520 23308100 		sd	s0,0(sp)
 825              		.cfi_offset 1, -8
 826              		.cfi_offset 8, -16
 827 0524 13040101 		addi	s0,sp,16
 828              		.cfi_def_cfa 8, 0
 829 0528 93050500 		mv	a1,a0
  89:src/syscall_c.cpp ****     syscall(PUTC, c);
 830              		.loc 1 89 5
 831              		.loc 1 89 12 is_stmt 0
 832 052c 13070000 		li	a4,0
 833 0530 93060000 		li	a3,0
 834 0534 13060000 		li	a2,0
GAS LISTING /tmp/ccdfblL6.s 			page 17


 835 0538 13052001 		li	a0,18
 836              	.LVL66:
 837 053c 97000000 		call	_Z7syscallmmmmm
 837      E7800000 
 838              	.LVL67:
  90:src/syscall_c.cpp **** }
 839              		.loc 1 90 1
 840 0544 83308100 		ld	ra,8(sp)
 841              		.cfi_restore 1
 842 0548 03340100 		ld	s0,0(sp)
 843              		.cfi_restore 8
 844              		.cfi_def_cfa 2, 16
 845 054c 13010101 		addi	sp,sp,16
 846              		.cfi_def_cfa_offset 0
 847 0550 67800000 		jr	ra
 848              		.cfi_endproc
 849              	.LFE19:
 851              	.Letext0:
 852              		.file 2 "src/../h/../lib/hw.h"
 853              		.file 3 "src/../h/syscall_c.hpp"
GAS LISTING /tmp/ccdfblL6.s 			page 18


DEFINED SYMBOLS
                            *ABS*:0000000000000000 syscall_c.cpp
     /tmp/ccdfblL6.s:9      .text:0000000000000000 _Z7syscallmmmmm
     /tmp/ccdfblL6.s:13     .text:0000000000000000 .L0 
     /tmp/ccdfblL6.s:15     .text:0000000000000000 .L0 
     /tmp/ccdfblL6.s:16     .text:0000000000000004 .L0 
     /tmp/ccdfblL6.s:19     .text:000000000000000c .L0 
     /tmp/ccdfblL6.s:20     .text:000000000000000c .L0 
     /tmp/ccdfblL6.s:22     .text:0000000000000010 .L0 
     /tmp/ccdfblL6.s:24     .text:0000000000000010 .L0 
     /tmp/ccdfblL6.s:25     .text:0000000000000010 .L0 
     /tmp/ccdfblL6.s:28     .text:0000000000000018 .L0 
     /tmp/ccdfblL6.s:29     .text:000000000000001c .L0 
     /tmp/ccdfblL6.s:31     .text:0000000000000020 .L0 
     /tmp/ccdfblL6.s:32     .text:0000000000000020 .L0 
     /tmp/ccdfblL6.s:34     .text:0000000000000024 .L0 
     /tmp/ccdfblL6.s:36     .text:0000000000000028 .L0 
     /tmp/ccdfblL6.s:42     .text:0000000000000028 _Z9mem_allocm
     /tmp/ccdfblL6.s:45     .text:0000000000000028 .L0 
     /tmp/ccdfblL6.s:47     .text:0000000000000028 .L0 
     /tmp/ccdfblL6.s:48     .text:0000000000000028 .L0 
     /tmp/ccdfblL6.s:50     .text:000000000000002c .L0 
     /tmp/ccdfblL6.s:51     .text:0000000000000030 .L0 
     /tmp/ccdfblL6.s:54     .text:0000000000000038 .L0 
     /tmp/ccdfblL6.s:55     .text:0000000000000038 .L0 
     /tmp/ccdfblL6.s:57     .text:000000000000003c .L0 
     /tmp/ccdfblL6.s:60     .text:0000000000000040 .L0 
     /tmp/ccdfblL6.s:61     .text:0000000000000040 .L0 
     /tmp/ccdfblL6.s:69     .text:0000000000000058 .L0 
     /tmp/ccdfblL6.s:70     .text:000000000000005c .L0 
     /tmp/ccdfblL6.s:72     .text:0000000000000060 .L0 
     /tmp/ccdfblL6.s:73     .text:0000000000000060 .L0 
     /tmp/ccdfblL6.s:75     .text:0000000000000064 .L0 
     /tmp/ccdfblL6.s:80     .text:0000000000000068 .L0 
     /tmp/ccdfblL6.s:83     .text:000000000000006c .L0 
     /tmp/ccdfblL6.s:84     .text:0000000000000070 .L0 
     /tmp/ccdfblL6.s:90     .text:0000000000000070 _Z8mem_freePv
     /tmp/ccdfblL6.s:93     .text:0000000000000070 .L0 
     /tmp/ccdfblL6.s:95     .text:0000000000000070 .L0 
     /tmp/ccdfblL6.s:96     .text:0000000000000074 .L0 
     /tmp/ccdfblL6.s:99     .text:000000000000007c .L0 
     /tmp/ccdfblL6.s:100    .text:000000000000007c .L0 
     /tmp/ccdfblL6.s:102    .text:0000000000000080 .L0 
     /tmp/ccdfblL6.s:105    .text:0000000000000084 .L0 
     /tmp/ccdfblL6.s:106    .text:0000000000000084 .L0 
     /tmp/ccdfblL6.s:114    .text:000000000000009c .L0 
     /tmp/ccdfblL6.s:116    .text:00000000000000a4 .L0 
     /tmp/ccdfblL6.s:118    .text:00000000000000a8 .L0 
     /tmp/ccdfblL6.s:119    .text:00000000000000a8 .L0 
     /tmp/ccdfblL6.s:121    .text:00000000000000ac .L0 
     /tmp/ccdfblL6.s:123    .text:00000000000000b0 .L0 
     /tmp/ccdfblL6.s:129    .text:00000000000000b0 _Z13thread_createPP3TCBPFvPvES2_
     /tmp/ccdfblL6.s:132    .text:00000000000000b0 .L0 
     /tmp/ccdfblL6.s:134    .text:00000000000000b0 .L0 
     /tmp/ccdfblL6.s:135    .text:00000000000000b4 .L0 
     /tmp/ccdfblL6.s:141    .text:00000000000000c8 .L0 
     /tmp/ccdfblL6.s:142    .text:00000000000000c8 .L0 
GAS LISTING /tmp/ccdfblL6.s 			page 19


     /tmp/ccdfblL6.s:143    .text:00000000000000c8 .L0 
     /tmp/ccdfblL6.s:144    .text:00000000000000c8 .L0 
     /tmp/ccdfblL6.s:145    .text:00000000000000c8 .L0 
     /tmp/ccdfblL6.s:147    .text:00000000000000cc .L0 
     /tmp/ccdfblL6.s:153    .text:00000000000000d8 .L0 
     /tmp/ccdfblL6.s:154    .text:00000000000000d8 .L0 
     /tmp/ccdfblL6.s:156    .text:00000000000000dc .L0 
     /tmp/ccdfblL6.s:157    .text:00000000000000dc .L0 
     /tmp/ccdfblL6.s:165    .text:00000000000000ec .L0 
     /tmp/ccdfblL6.s:166    .text:00000000000000ec .L0 
     /tmp/ccdfblL6.s:173    .text:0000000000000104 .L0 
     /tmp/ccdfblL6.s:175    .text:000000000000010c .L0 
     /tmp/ccdfblL6.s:176    .text:000000000000010c .L0 
     /tmp/ccdfblL6.s:178    .text:0000000000000110 .L0 
     /tmp/ccdfblL6.s:179    .text:0000000000000110 .L0 
     /tmp/ccdfblL6.s:181    .text:0000000000000114 .L0 
     /tmp/ccdfblL6.s:184    .text:0000000000000118 .L0 
     /tmp/ccdfblL6.s:187    .text:000000000000011c .L0 
     /tmp/ccdfblL6.s:190    .text:0000000000000120 .L0 
     /tmp/ccdfblL6.s:194    .text:0000000000000124 .L0 
     /tmp/ccdfblL6.s:196    .text:0000000000000124 .L0 
     /tmp/ccdfblL6.s:198    .text:000000000000012c .L0 
     /tmp/ccdfblL6.s:204    .text:000000000000012c _Z11thread_exitv
     /tmp/ccdfblL6.s:207    .text:000000000000012c .L0 
     /tmp/ccdfblL6.s:208    .text:000000000000012c .L0 
     /tmp/ccdfblL6.s:209    .text:0000000000000130 .L0 
     /tmp/ccdfblL6.s:212    .text:0000000000000138 .L0 
     /tmp/ccdfblL6.s:213    .text:0000000000000138 .L0 
     /tmp/ccdfblL6.s:215    .text:000000000000013c .L0 
     /tmp/ccdfblL6.s:217    .text:000000000000013c .L0 
     /tmp/ccdfblL6.s:218    .text:000000000000013c .L0 
     /tmp/ccdfblL6.s:226    .text:0000000000000158 .L0 
     /tmp/ccdfblL6.s:228    .text:0000000000000160 .L0 
     /tmp/ccdfblL6.s:230    .text:0000000000000164 .L0 
     /tmp/ccdfblL6.s:231    .text:0000000000000164 .L0 
     /tmp/ccdfblL6.s:233    .text:0000000000000168 .L0 
     /tmp/ccdfblL6.s:235    .text:000000000000016c .L0 
     /tmp/ccdfblL6.s:241    .text:000000000000016c _Z15thread_dispatchv
     /tmp/ccdfblL6.s:244    .text:000000000000016c .L0 
     /tmp/ccdfblL6.s:245    .text:000000000000016c .L0 
     /tmp/ccdfblL6.s:246    .text:0000000000000170 .L0 
     /tmp/ccdfblL6.s:249    .text:0000000000000178 .L0 
     /tmp/ccdfblL6.s:250    .text:0000000000000178 .L0 
     /tmp/ccdfblL6.s:252    .text:000000000000017c .L0 
     /tmp/ccdfblL6.s:254    .text:000000000000017c .L0 
     /tmp/ccdfblL6.s:255    .text:000000000000017c .L0 
     /tmp/ccdfblL6.s:263    .text:0000000000000198 .L0 
     /tmp/ccdfblL6.s:264    .text:000000000000019c .L0 
     /tmp/ccdfblL6.s:266    .text:00000000000001a0 .L0 
     /tmp/ccdfblL6.s:267    .text:00000000000001a0 .L0 
     /tmp/ccdfblL6.s:269    .text:00000000000001a4 .L0 
     /tmp/ccdfblL6.s:271    .text:00000000000001a8 .L0 
     /tmp/ccdfblL6.s:277    .text:00000000000001a8 _Z11thread_joinP3TCB
     /tmp/ccdfblL6.s:280    .text:00000000000001a8 .L0 
     /tmp/ccdfblL6.s:282    .text:00000000000001a8 .L0 
     /tmp/ccdfblL6.s:283    .text:00000000000001ac .L0 
     /tmp/ccdfblL6.s:286    .text:00000000000001b4 .L0 
GAS LISTING /tmp/ccdfblL6.s 			page 20


     /tmp/ccdfblL6.s:287    .text:00000000000001b4 .L0 
     /tmp/ccdfblL6.s:289    .text:00000000000001b8 .L0 
     /tmp/ccdfblL6.s:292    .text:00000000000001bc .L0 
     /tmp/ccdfblL6.s:293    .text:00000000000001bc .L0 
     /tmp/ccdfblL6.s:301    .text:00000000000001d4 .L0 
     /tmp/ccdfblL6.s:302    .text:00000000000001d8 .L0 
     /tmp/ccdfblL6.s:304    .text:00000000000001dc .L0 
     /tmp/ccdfblL6.s:305    .text:00000000000001dc .L0 
     /tmp/ccdfblL6.s:307    .text:00000000000001e0 .L0 
     /tmp/ccdfblL6.s:309    .text:00000000000001e4 .L0 
     /tmp/ccdfblL6.s:315    .text:00000000000001e4 _Z11thread_joinP3TCBm
     /tmp/ccdfblL6.s:318    .text:00000000000001e4 .L0 
     /tmp/ccdfblL6.s:320    .text:00000000000001e4 .L0 
     /tmp/ccdfblL6.s:321    .text:00000000000001e8 .L0 
     /tmp/ccdfblL6.s:326    .text:00000000000001f8 .L0 
     /tmp/ccdfblL6.s:327    .text:00000000000001f8 .L0 
     /tmp/ccdfblL6.s:328    .text:00000000000001f8 .L0 
     /tmp/ccdfblL6.s:329    .text:00000000000001f8 .L0 
     /tmp/ccdfblL6.s:331    .text:00000000000001fc .L0 
     /tmp/ccdfblL6.s:335    .text:0000000000000204 .L0 
     /tmp/ccdfblL6.s:339    .text:0000000000000208 .L0 
     /tmp/ccdfblL6.s:340    .text:0000000000000208 .L0 
     /tmp/ccdfblL6.s:348    .text:0000000000000224 .L0 
     /tmp/ccdfblL6.s:349    .text:0000000000000228 .L0 
     /tmp/ccdfblL6.s:350    .text:0000000000000228 .L0 
     /tmp/ccdfblL6.s:352    .text:000000000000022c .L0 
     /tmp/ccdfblL6.s:353    .text:000000000000022c .L0 
     /tmp/ccdfblL6.s:355    .text:0000000000000230 .L0 
     /tmp/ccdfblL6.s:358    .text:0000000000000234 .L0 
     /tmp/ccdfblL6.s:361    .text:0000000000000238 .L0 
     /tmp/ccdfblL6.s:365    .text:000000000000023c .L0 
     /tmp/ccdfblL6.s:367    .text:000000000000023c .L0 
     /tmp/ccdfblL6.s:368    .text:000000000000023c .L0 
     /tmp/ccdfblL6.s:371    .text:0000000000000248 .L0 
     /tmp/ccdfblL6.s:377    .text:0000000000000248 _Z4forkv
     /tmp/ccdfblL6.s:380    .text:0000000000000248 .L0 
     /tmp/ccdfblL6.s:381    .text:0000000000000248 .L0 
     /tmp/ccdfblL6.s:382    .text:000000000000024c .L0 
     /tmp/ccdfblL6.s:385    .text:0000000000000254 .L0 
     /tmp/ccdfblL6.s:386    .text:0000000000000254 .L0 
     /tmp/ccdfblL6.s:388    .text:0000000000000258 .L0 
     /tmp/ccdfblL6.s:390    .text:0000000000000258 .L0 
     /tmp/ccdfblL6.s:391    .text:0000000000000258 .L0 
     /tmp/ccdfblL6.s:399    .text:0000000000000274 .L0 
     /tmp/ccdfblL6.s:401    .text:000000000000027c .L0 
     /tmp/ccdfblL6.s:403    .text:0000000000000280 .L0 
     /tmp/ccdfblL6.s:404    .text:0000000000000280 .L0 
     /tmp/ccdfblL6.s:406    .text:0000000000000284 .L0 
     /tmp/ccdfblL6.s:408    .text:0000000000000288 .L0 
     /tmp/ccdfblL6.s:414    .text:0000000000000288 _Z11thread_killP3TCB
     /tmp/ccdfblL6.s:417    .text:0000000000000288 .L0 
     /tmp/ccdfblL6.s:419    .text:0000000000000288 .L0 
     /tmp/ccdfblL6.s:420    .text:000000000000028c .L0 
     /tmp/ccdfblL6.s:423    .text:0000000000000294 .L0 
     /tmp/ccdfblL6.s:424    .text:0000000000000294 .L0 
     /tmp/ccdfblL6.s:426    .text:0000000000000298 .L0 
     /tmp/ccdfblL6.s:429    .text:000000000000029c .L0 
GAS LISTING /tmp/ccdfblL6.s 			page 21


     /tmp/ccdfblL6.s:430    .text:000000000000029c .L0 
     /tmp/ccdfblL6.s:438    .text:00000000000002b4 .L0 
     /tmp/ccdfblL6.s:440    .text:00000000000002bc .L0 
     /tmp/ccdfblL6.s:442    .text:00000000000002c0 .L0 
     /tmp/ccdfblL6.s:443    .text:00000000000002c0 .L0 
     /tmp/ccdfblL6.s:445    .text:00000000000002c4 .L0 
     /tmp/ccdfblL6.s:447    .text:00000000000002c8 .L0 
     /tmp/ccdfblL6.s:453    .text:00000000000002c8 _Z8sem_openPP3Semj
     /tmp/ccdfblL6.s:456    .text:00000000000002c8 .L0 
     /tmp/ccdfblL6.s:458    .text:00000000000002c8 .L0 
     /tmp/ccdfblL6.s:459    .text:00000000000002cc .L0 
     /tmp/ccdfblL6.s:462    .text:00000000000002d4 .L0 
     /tmp/ccdfblL6.s:463    .text:00000000000002d4 .L0 
     /tmp/ccdfblL6.s:465    .text:00000000000002d8 .L0 
     /tmp/ccdfblL6.s:467    .text:00000000000002d8 .L0 
     /tmp/ccdfblL6.s:468    .text:00000000000002d8 .L0 
     /tmp/ccdfblL6.s:479    .text:00000000000002f8 .L0 
     /tmp/ccdfblL6.s:481    .text:0000000000000300 .L0 
     /tmp/ccdfblL6.s:483    .text:0000000000000304 .L0 
     /tmp/ccdfblL6.s:484    .text:0000000000000304 .L0 
     /tmp/ccdfblL6.s:486    .text:0000000000000308 .L0 
     /tmp/ccdfblL6.s:488    .text:000000000000030c .L0 
     /tmp/ccdfblL6.s:494    .text:000000000000030c _Z9sem_closeP3Sem
     /tmp/ccdfblL6.s:497    .text:000000000000030c .L0 
     /tmp/ccdfblL6.s:499    .text:000000000000030c .L0 
     /tmp/ccdfblL6.s:500    .text:0000000000000310 .L0 
     /tmp/ccdfblL6.s:503    .text:0000000000000318 .L0 
     /tmp/ccdfblL6.s:504    .text:0000000000000318 .L0 
     /tmp/ccdfblL6.s:506    .text:000000000000031c .L0 
     /tmp/ccdfblL6.s:509    .text:0000000000000320 .L0 
     /tmp/ccdfblL6.s:510    .text:0000000000000320 .L0 
     /tmp/ccdfblL6.s:518    .text:0000000000000338 .L0 
     /tmp/ccdfblL6.s:520    .text:0000000000000340 .L0 
     /tmp/ccdfblL6.s:522    .text:0000000000000344 .L0 
     /tmp/ccdfblL6.s:523    .text:0000000000000344 .L0 
     /tmp/ccdfblL6.s:525    .text:0000000000000348 .L0 
     /tmp/ccdfblL6.s:527    .text:000000000000034c .L0 
     /tmp/ccdfblL6.s:533    .text:000000000000034c _Z8sem_waitP3Sem
     /tmp/ccdfblL6.s:536    .text:000000000000034c .L0 
     /tmp/ccdfblL6.s:538    .text:000000000000034c .L0 
     /tmp/ccdfblL6.s:539    .text:0000000000000350 .L0 
     /tmp/ccdfblL6.s:542    .text:0000000000000358 .L0 
     /tmp/ccdfblL6.s:543    .text:0000000000000358 .L0 
     /tmp/ccdfblL6.s:545    .text:000000000000035c .L0 
     /tmp/ccdfblL6.s:548    .text:0000000000000360 .L0 
     /tmp/ccdfblL6.s:549    .text:0000000000000360 .L0 
     /tmp/ccdfblL6.s:557    .text:0000000000000378 .L0 
     /tmp/ccdfblL6.s:559    .text:0000000000000380 .L0 
     /tmp/ccdfblL6.s:561    .text:0000000000000384 .L0 
     /tmp/ccdfblL6.s:562    .text:0000000000000384 .L0 
     /tmp/ccdfblL6.s:564    .text:0000000000000388 .L0 
     /tmp/ccdfblL6.s:566    .text:000000000000038c .L0 
     /tmp/ccdfblL6.s:572    .text:000000000000038c _Z10sem_signalP3Sem
     /tmp/ccdfblL6.s:575    .text:000000000000038c .L0 
     /tmp/ccdfblL6.s:577    .text:000000000000038c .L0 
     /tmp/ccdfblL6.s:578    .text:0000000000000390 .L0 
     /tmp/ccdfblL6.s:581    .text:0000000000000398 .L0 
GAS LISTING /tmp/ccdfblL6.s 			page 22


     /tmp/ccdfblL6.s:582    .text:0000000000000398 .L0 
     /tmp/ccdfblL6.s:584    .text:000000000000039c .L0 
     /tmp/ccdfblL6.s:587    .text:00000000000003a0 .L0 
     /tmp/ccdfblL6.s:588    .text:00000000000003a0 .L0 
     /tmp/ccdfblL6.s:596    .text:00000000000003b8 .L0 
     /tmp/ccdfblL6.s:598    .text:00000000000003c0 .L0 
     /tmp/ccdfblL6.s:600    .text:00000000000003c4 .L0 
     /tmp/ccdfblL6.s:601    .text:00000000000003c4 .L0 
     /tmp/ccdfblL6.s:603    .text:00000000000003c8 .L0 
     /tmp/ccdfblL6.s:605    .text:00000000000003cc .L0 
     /tmp/ccdfblL6.s:611    .text:00000000000003cc _Z14sem_signal_allP3Sem
     /tmp/ccdfblL6.s:614    .text:00000000000003cc .L0 
     /tmp/ccdfblL6.s:616    .text:00000000000003cc .L0 
     /tmp/ccdfblL6.s:617    .text:00000000000003d0 .L0 
     /tmp/ccdfblL6.s:620    .text:00000000000003d8 .L0 
     /tmp/ccdfblL6.s:621    .text:00000000000003d8 .L0 
     /tmp/ccdfblL6.s:623    .text:00000000000003dc .L0 
     /tmp/ccdfblL6.s:626    .text:00000000000003e0 .L0 
     /tmp/ccdfblL6.s:627    .text:00000000000003e0 .L0 
     /tmp/ccdfblL6.s:635    .text:00000000000003f8 .L0 
     /tmp/ccdfblL6.s:637    .text:0000000000000400 .L0 
     /tmp/ccdfblL6.s:639    .text:0000000000000404 .L0 
     /tmp/ccdfblL6.s:640    .text:0000000000000404 .L0 
     /tmp/ccdfblL6.s:642    .text:0000000000000408 .L0 
     /tmp/ccdfblL6.s:644    .text:000000000000040c .L0 
     /tmp/ccdfblL6.s:650    .text:000000000000040c _Z15signal_and_waitP3SemS0_
     /tmp/ccdfblL6.s:653    .text:000000000000040c .L0 
     /tmp/ccdfblL6.s:655    .text:000000000000040c .L0 
     /tmp/ccdfblL6.s:656    .text:0000000000000410 .L0 
     /tmp/ccdfblL6.s:659    .text:0000000000000418 .L0 
     /tmp/ccdfblL6.s:660    .text:0000000000000418 .L0 
     /tmp/ccdfblL6.s:662    .text:000000000000041c .L0 
     /tmp/ccdfblL6.s:665    .text:0000000000000420 .L0 
     /tmp/ccdfblL6.s:666    .text:0000000000000420 .L0 
     /tmp/ccdfblL6.s:675    .text:0000000000000438 .L0 
     /tmp/ccdfblL6.s:677    .text:0000000000000440 .L0 
     /tmp/ccdfblL6.s:679    .text:0000000000000444 .L0 
     /tmp/ccdfblL6.s:680    .text:0000000000000444 .L0 
     /tmp/ccdfblL6.s:682    .text:0000000000000448 .L0 
     /tmp/ccdfblL6.s:684    .text:000000000000044c .L0 
     /tmp/ccdfblL6.s:690    .text:000000000000044c _Z10time_sleepm
     /tmp/ccdfblL6.s:693    .text:000000000000044c .L0 
     /tmp/ccdfblL6.s:695    .text:000000000000044c .L0 
     /tmp/ccdfblL6.s:696    .text:000000000000044c .L0 
     /tmp/ccdfblL6.s:698    .text:0000000000000450 .L0 
     /tmp/ccdfblL6.s:699    .text:0000000000000454 .L0 
     /tmp/ccdfblL6.s:702    .text:000000000000045c .L0 
     /tmp/ccdfblL6.s:703    .text:000000000000045c .L0 
     /tmp/ccdfblL6.s:705    .text:0000000000000460 .L0 
     /tmp/ccdfblL6.s:708    .text:0000000000000464 .L0 
     /tmp/ccdfblL6.s:709    .text:0000000000000464 .L0 
     /tmp/ccdfblL6.s:717    .text:000000000000047c .L0 
     /tmp/ccdfblL6.s:719    .text:0000000000000480 .L0 
     /tmp/ccdfblL6.s:720    .text:0000000000000484 .L0 
     /tmp/ccdfblL6.s:722    .text:0000000000000488 .L0 
     /tmp/ccdfblL6.s:723    .text:0000000000000488 .L0 
     /tmp/ccdfblL6.s:725    .text:000000000000048c .L0 
GAS LISTING /tmp/ccdfblL6.s 			page 23


     /tmp/ccdfblL6.s:730    .text:0000000000000490 .L0 
     /tmp/ccdfblL6.s:733    .text:0000000000000494 .L0 
     /tmp/ccdfblL6.s:734    .text:0000000000000498 .L0 
     /tmp/ccdfblL6.s:740    .text:0000000000000498 _Z11thread_wakeP3TCB
     /tmp/ccdfblL6.s:743    .text:0000000000000498 .L0 
     /tmp/ccdfblL6.s:745    .text:0000000000000498 .L0 
     /tmp/ccdfblL6.s:746    .text:000000000000049c .L0 
     /tmp/ccdfblL6.s:749    .text:00000000000004a4 .L0 
     /tmp/ccdfblL6.s:750    .text:00000000000004a4 .L0 
     /tmp/ccdfblL6.s:752    .text:00000000000004a8 .L0 
     /tmp/ccdfblL6.s:755    .text:00000000000004ac .L0 
     /tmp/ccdfblL6.s:756    .text:00000000000004ac .L0 
     /tmp/ccdfblL6.s:764    .text:00000000000004c4 .L0 
     /tmp/ccdfblL6.s:766    .text:00000000000004cc .L0 
     /tmp/ccdfblL6.s:768    .text:00000000000004d0 .L0 
     /tmp/ccdfblL6.s:769    .text:00000000000004d0 .L0 
     /tmp/ccdfblL6.s:771    .text:00000000000004d4 .L0 
     /tmp/ccdfblL6.s:773    .text:00000000000004d8 .L0 
     /tmp/ccdfblL6.s:779    .text:00000000000004d8 _Z4getcv
     /tmp/ccdfblL6.s:782    .text:00000000000004d8 .L0 
     /tmp/ccdfblL6.s:783    .text:00000000000004d8 .L0 
     /tmp/ccdfblL6.s:784    .text:00000000000004dc .L0 
     /tmp/ccdfblL6.s:787    .text:00000000000004e4 .L0 
     /tmp/ccdfblL6.s:788    .text:00000000000004e4 .L0 
     /tmp/ccdfblL6.s:790    .text:00000000000004e8 .L0 
     /tmp/ccdfblL6.s:792    .text:00000000000004e8 .L0 
     /tmp/ccdfblL6.s:793    .text:00000000000004e8 .L0 
     /tmp/ccdfblL6.s:801    .text:0000000000000504 .L0 
     /tmp/ccdfblL6.s:803    .text:000000000000050c .L0 
     /tmp/ccdfblL6.s:805    .text:0000000000000510 .L0 
     /tmp/ccdfblL6.s:806    .text:0000000000000510 .L0 
     /tmp/ccdfblL6.s:808    .text:0000000000000514 .L0 
     /tmp/ccdfblL6.s:810    .text:0000000000000518 .L0 
     /tmp/ccdfblL6.s:816    .text:0000000000000518 _Z4putcc
     /tmp/ccdfblL6.s:819    .text:0000000000000518 .L0 
     /tmp/ccdfblL6.s:821    .text:0000000000000518 .L0 
     /tmp/ccdfblL6.s:822    .text:000000000000051c .L0 
     /tmp/ccdfblL6.s:825    .text:0000000000000524 .L0 
     /tmp/ccdfblL6.s:826    .text:0000000000000524 .L0 
     /tmp/ccdfblL6.s:828    .text:0000000000000528 .L0 
     /tmp/ccdfblL6.s:831    .text:000000000000052c .L0 
     /tmp/ccdfblL6.s:832    .text:000000000000052c .L0 
     /tmp/ccdfblL6.s:840    .text:0000000000000544 .L0 
     /tmp/ccdfblL6.s:841    .text:0000000000000548 .L0 
     /tmp/ccdfblL6.s:843    .text:000000000000054c .L0 
     /tmp/ccdfblL6.s:844    .text:000000000000054c .L0 
     /tmp/ccdfblL6.s:846    .text:0000000000000550 .L0 
     /tmp/ccdfblL6.s:848    .text:0000000000000554 .L0 
     /tmp/ccdfblL6.s:854    .text:0000000000000554 .L0 
     /tmp/ccdfblL6.s:78     .text:0000000000000068 .L5
     /tmp/ccdfblL6.s:193    .text:0000000000000124 .L14
     /tmp/ccdfblL6.s:163    .text:00000000000000ec .L13
     /tmp/ccdfblL6.s:364    .text:000000000000023c .L25
     /tmp/ccdfblL6.s:337    .text:0000000000000208 .L23
     /tmp/ccdfblL6.s:728    .text:0000000000000490 .L44
     /tmp/ccdfblL6.s:2144   .debug_abbrev:0000000000000000 .Ldebug_abbrev0
     /tmp/ccdfblL6.s:3193   .debug_str:0000000000000466 .LASF94
GAS LISTING /tmp/ccdfblL6.s 			page 24


     /tmp/ccdfblL6.s:3109   .debug_str:0000000000000222 .LASF95
     /tmp/ccdfblL6.s:3087   .debug_str:000000000000019d .LASF96
     /tmp/ccdfblL6.s:5      .text:0000000000000000 .Ltext0
     /tmp/ccdfblL6.s:851    .text:0000000000000554 .Letext0
     /tmp/ccdfblL6.s:3017   .debug_line:0000000000000000 .Ldebug_line0
     /tmp/ccdfblL6.s:3129   .debug_str:00000000000002b3 .LASF0
     /tmp/ccdfblL6.s:3139   .debug_str:00000000000002e4 .LASF1
     /tmp/ccdfblL6.s:3123   .debug_str:000000000000028d .LASF2
     /tmp/ccdfblL6.s:3107   .debug_str:000000000000021b .LASF4
     /tmp/ccdfblL6.s:3175   .debug_str:0000000000000410 .LASF3
     /tmp/ccdfblL6.s:3039   .debug_str:0000000000000071 .LASF5
     /tmp/ccdfblL6.s:3067   .debug_str:0000000000000134 .LASF6
     /tmp/ccdfblL6.s:3143   .debug_str:0000000000000308 .LASF7
     /tmp/ccdfblL6.s:3127   .debug_str:00000000000002a0 .LASF8
     /tmp/ccdfblL6.s:3203   .debug_str:000000000000055a .LASF9
     /tmp/ccdfblL6.s:3099   .debug_str:00000000000001e5 .LASF10
     /tmp/ccdfblL6.s:3155   .debug_str:0000000000000371 .LASF11
     /tmp/ccdfblL6.s:3195   .debug_str:000000000000052a .LASF12
     /tmp/ccdfblL6.s:3041   .debug_str:0000000000000078 .LASF13
     /tmp/ccdfblL6.s:3021   .debug_str:0000000000000009 .LASF14
     /tmp/ccdfblL6.s:3051   .debug_str:00000000000000c4 .LASF15
     /tmp/ccdfblL6.s:3169   .debug_str:00000000000003db .LASF16
     /tmp/ccdfblL6.s:3059   .debug_str:00000000000000f7 .LASF17
     /tmp/ccdfblL6.s:3025   .debug_str:000000000000001e .LASF97
     /tmp/ccdfblL6.s:3185   .debug_str:0000000000000444 .LASF18
     /tmp/ccdfblL6.s:3165   .debug_str:00000000000003bc .LASF19
     /tmp/ccdfblL6.s:3117   .debug_str:0000000000000253 .LASF20
     /tmp/ccdfblL6.s:3075   .debug_str:0000000000000158 .LASF21
     /tmp/ccdfblL6.s:3053   .debug_str:00000000000000d0 .LASF22
     /tmp/ccdfblL6.s:3131   .debug_str:00000000000002c0 .LASF23
     /tmp/ccdfblL6.s:3153   .debug_str:0000000000000360 .LASF24
     /tmp/ccdfblL6.s:3209   .debug_str:0000000000000574 .LASF25
     /tmp/ccdfblL6.s:3093   .debug_str:00000000000001cf .LASF26
     /tmp/ccdfblL6.s:3201   .debug_str:0000000000000551 .LASF27
     /tmp/ccdfblL6.s:3115   .debug_str:0000000000000249 .LASF28
     /tmp/ccdfblL6.s:3183   .debug_str:000000000000043b .LASF29
     /tmp/ccdfblL6.s:3043   .debug_str:0000000000000088 .LASF30
     /tmp/ccdfblL6.s:3091   .debug_str:00000000000001c4 .LASF31
     /tmp/ccdfblL6.s:3063   .debug_str:0000000000000118 .LASF32
     /tmp/ccdfblL6.s:3111   .debug_str:0000000000000234 .LASF33
     /tmp/ccdfblL6.s:3027   .debug_str:000000000000002c .LASF34
     /tmp/ccdfblL6.s:3037   .debug_str:000000000000006c .LASF35
     /tmp/ccdfblL6.s:3213   .debug_str:0000000000000595 .LASF36
     /tmp/ccdfblL6.s:3033   .debug_str:0000000000000055 .LASF37
     /tmp/ccdfblL6.s:3019   .debug_str:0000000000000000 .LASF38
     /tmp/ccdfblL6.s:3105   .debug_str:0000000000000216 .LASF39
     /tmp/ccdfblL6.s:3079   .debug_str:0000000000000176 .LASF40
     /tmp/ccdfblL6.s:3125   .debug_str:000000000000029b .LASF68
     /tmp/ccdfblL6.s:3089   .debug_str:00000000000001bb .LASF70
     /tmp/ccdfblL6.s:817    .text:0000000000000518 .LFB19
     /tmp/ccdfblL6.s:849    .text:0000000000000554 .LFE19
     /tmp/ccdfblL6.s:2519   .debug_loc:0000000000000000 .LLST25
     /tmp/ccdfblL6.s:838    .text:0000000000000544 .LVL67
     /tmp/ccdfblL6.s:3145   .debug_str:000000000000031b .LASF41
     /tmp/ccdfblL6.s:3023   .debug_str:0000000000000019 .LASF42
     /tmp/ccdfblL6.s:3035   .debug_str:0000000000000063 .LASF44
     /tmp/ccdfblL6.s:780    .text:00000000000004d8 .LFB18
GAS LISTING /tmp/ccdfblL6.s 			page 25


     /tmp/ccdfblL6.s:811    .text:0000000000000518 .LFE18
     /tmp/ccdfblL6.s:799    .text:0000000000000504 .LVL64
     /tmp/ccdfblL6.s:3199   .debug_str:0000000000000545 .LASF43
     /tmp/ccdfblL6.s:3047   .debug_str:000000000000009f .LASF45
     /tmp/ccdfblL6.s:741    .text:0000000000000498 .LFB17
     /tmp/ccdfblL6.s:774    .text:00000000000004d8 .LFE17
     /tmp/ccdfblL6.s:3187   .debug_str:000000000000044e .LASF46
     /tmp/ccdfblL6.s:2533   .debug_loc:0000000000000039 .LLST24
     /tmp/ccdfblL6.s:762    .text:00000000000004c4 .LVL63
     /tmp/ccdfblL6.s:3171   .debug_str:00000000000003f1 .LASF47
     /tmp/ccdfblL6.s:3161   .debug_str:000000000000039e .LASF48
     /tmp/ccdfblL6.s:691    .text:000000000000044c .LFB16
     /tmp/ccdfblL6.s:735    .text:0000000000000498 .LFE16
     /tmp/ccdfblL6.s:2551   .debug_loc:0000000000000085 .LLST23
     /tmp/ccdfblL6.s:715    .text:000000000000047c .LVL58
     /tmp/ccdfblL6.s:3065   .debug_str:0000000000000124 .LASF49
     /tmp/ccdfblL6.s:3121   .debug_str:0000000000000271 .LASF50
     /tmp/ccdfblL6.s:651    .text:000000000000040c .LFB15
     /tmp/ccdfblL6.s:685    .text:000000000000044c .LFE15
     /tmp/ccdfblL6.s:3147   .debug_str:0000000000000320 .LASF51
     /tmp/ccdfblL6.s:2580   .debug_loc:00000000000000fa .LLST21
     /tmp/ccdfblL6.s:3085   .debug_str:0000000000000198 .LASF52
     /tmp/ccdfblL6.s:2598   .debug_loc:0000000000000146 .LLST22
     /tmp/ccdfblL6.s:673    .text:0000000000000438 .LVL55
     /tmp/ccdfblL6.s:3071   .debug_str:0000000000000140 .LASF53
     /tmp/ccdfblL6.s:3151   .debug_str:0000000000000348 .LASF54
     /tmp/ccdfblL6.s:612    .text:00000000000003cc .LFB14
     /tmp/ccdfblL6.s:645    .text:000000000000040c .LFE14
     /tmp/ccdfblL6.s:2616   .debug_loc:0000000000000192 .LLST20
     /tmp/ccdfblL6.s:633    .text:00000000000003f8 .LVL51
     /tmp/ccdfblL6.s:3061   .debug_str:000000000000010d .LASF55
     /tmp/ccdfblL6.s:3173   .debug_str:00000000000003fc .LASF56
     /tmp/ccdfblL6.s:573    .text:000000000000038c .LFB13
     /tmp/ccdfblL6.s:606    .text:00000000000003cc .LFE13
     /tmp/ccdfblL6.s:2634   .debug_loc:00000000000001de .LLST19
     /tmp/ccdfblL6.s:594    .text:00000000000003b8 .LVL48
     /tmp/ccdfblL6.s:3055   .debug_str:00000000000000e0 .LASF57
     /tmp/ccdfblL6.s:3029   .debug_str:0000000000000038 .LASF58
     /tmp/ccdfblL6.s:534    .text:000000000000034c .LFB12
     /tmp/ccdfblL6.s:567    .text:000000000000038c .LFE12
     /tmp/ccdfblL6.s:2652   .debug_loc:000000000000022a .LLST18
     /tmp/ccdfblL6.s:555    .text:0000000000000378 .LVL45
     /tmp/ccdfblL6.s:3113   .debug_str:000000000000023f .LASF59
     /tmp/ccdfblL6.s:3077   .debug_str:0000000000000164 .LASF60
     /tmp/ccdfblL6.s:495    .text:000000000000030c .LFB11
     /tmp/ccdfblL6.s:528    .text:000000000000034c .LFE11
     /tmp/ccdfblL6.s:2670   .debug_loc:0000000000000276 .LLST17
     /tmp/ccdfblL6.s:516    .text:0000000000000338 .LVL42
     /tmp/ccdfblL6.s:3083   .debug_str:000000000000018f .LASF61
     /tmp/ccdfblL6.s:3081   .debug_str:000000000000017c .LASF62
     /tmp/ccdfblL6.s:454    .text:00000000000002c8 .LFB10
     /tmp/ccdfblL6.s:489    .text:000000000000030c .LFE10
     /tmp/ccdfblL6.s:2688   .debug_loc:00000000000002c2 .LLST15
     /tmp/ccdfblL6.s:3215   .debug_str:000000000000059a .LASF63
     /tmp/ccdfblL6.s:2706   .debug_loc:000000000000030e .LLST16
     /tmp/ccdfblL6.s:477    .text:00000000000002f8 .LVL39
     /tmp/ccdfblL6.s:3045   .debug_str:0000000000000093 .LASF64
GAS LISTING /tmp/ccdfblL6.s 			page 26


     /tmp/ccdfblL6.s:3211   .debug_str:0000000000000580 .LASF65
     /tmp/ccdfblL6.s:415    .text:0000000000000288 .LFB9
     /tmp/ccdfblL6.s:448    .text:00000000000002c8 .LFE9
     /tmp/ccdfblL6.s:2720   .debug_loc:0000000000000347 .LLST14
     /tmp/ccdfblL6.s:436    .text:00000000000002b4 .LVL35
     /tmp/ccdfblL6.s:3069   .debug_str:000000000000013b .LASF66
     /tmp/ccdfblL6.s:3157   .debug_str:0000000000000380 .LASF67
     /tmp/ccdfblL6.s:378    .text:0000000000000248 .LFB8
     /tmp/ccdfblL6.s:409    .text:0000000000000288 .LFE8
     /tmp/ccdfblL6.s:397    .text:0000000000000274 .LVL32
     /tmp/ccdfblL6.s:3191   .debug_str:000000000000045a .LASF69
     /tmp/ccdfblL6.s:3167   .debug_str:00000000000003c5 .LASF71
     /tmp/ccdfblL6.s:316    .text:00000000000001e4 .LFB7
     /tmp/ccdfblL6.s:372    .text:0000000000000248 .LFE7
     /tmp/ccdfblL6.s:2738   .debug_loc:0000000000000393 .LLST12
     /tmp/ccdfblL6.s:3135   .debug_str:00000000000002d1 .LASF72
     /tmp/ccdfblL6.s:2764   .debug_loc:0000000000000405 .LLST13
     /tmp/ccdfblL6.s:346    .text:0000000000000224 .LVL27
     /tmp/ccdfblL6.s:369    .text:0000000000000244 .LVL31
     /tmp/ccdfblL6.s:3103   .debug_str:0000000000000201 .LASF73
     /tmp/ccdfblL6.s:278    .text:00000000000001a8 .LFB6
     /tmp/ccdfblL6.s:310    .text:00000000000001e4 .LFE6
     /tmp/ccdfblL6.s:2786   .debug_loc:0000000000000464 .LLST11
     /tmp/ccdfblL6.s:299    .text:00000000000001d4 .LVL24
     /tmp/ccdfblL6.s:3119   .debug_str:0000000000000261 .LASF74
     /tmp/ccdfblL6.s:3159   .debug_str:0000000000000389 .LASF75
     /tmp/ccdfblL6.s:242    .text:000000000000016c .LFB5
     /tmp/ccdfblL6.s:272    .text:00000000000001a8 .LFE5
     /tmp/ccdfblL6.s:261    .text:0000000000000198 .LVL21
     /tmp/ccdfblL6.s:3031   .debug_str:0000000000000049 .LASF76
     /tmp/ccdfblL6.s:3141   .debug_str:00000000000002f7 .LASF77
     /tmp/ccdfblL6.s:205    .text:000000000000012c .LFB4
     /tmp/ccdfblL6.s:236    .text:000000000000016c .LFE4
     /tmp/ccdfblL6.s:224    .text:0000000000000158 .LVL20
     /tmp/ccdfblL6.s:3101   .debug_str:00000000000001f3 .LASF78
     /tmp/ccdfblL6.s:3149   .debug_str:0000000000000327 .LASF79
     /tmp/ccdfblL6.s:130    .text:00000000000000b0 .LFB3
     /tmp/ccdfblL6.s:199    .text:000000000000012c .LFE3
     /tmp/ccdfblL6.s:2804   .debug_loc:00000000000004b0 .LLST7
     /tmp/ccdfblL6.s:3163   .debug_str:00000000000003ae .LASF80
     /tmp/ccdfblL6.s:2826   .debug_loc:000000000000050f .LLST8
     /tmp/ccdfblL6.s:2848   .debug_loc:000000000000056e .LLST9
     /tmp/ccdfblL6.s:3197   .debug_str:0000000000000539 .LASF81
     /tmp/ccdfblL6.s:2870   .debug_loc:00000000000005cd .LLST10
     /tmp/ccdfblL6.s:160    .text:00000000000000e8 .LVL13
     /tmp/ccdfblL6.s:171    .text:0000000000000104 .LVL15
     /tmp/ccdfblL6.s:3073   .debug_str:000000000000014f .LASF82
     /tmp/ccdfblL6.s:3137   .debug_str:00000000000002d6 .LASF83
     /tmp/ccdfblL6.s:91     .text:0000000000000070 .LFB2
     /tmp/ccdfblL6.s:124    .text:00000000000000b0 .LFE2
     /tmp/ccdfblL6.s:2887   .debug_loc:0000000000000618 .LLST6
     /tmp/ccdfblL6.s:112    .text:000000000000009c .LVL9
     /tmp/ccdfblL6.s:3179   .debug_str:0000000000000429 .LASF84
     /tmp/ccdfblL6.s:3057   .debug_str:00000000000000e9 .LASF85
     /tmp/ccdfblL6.s:43     .text:0000000000000028 .LFB1
     /tmp/ccdfblL6.s:85     .text:0000000000000070 .LFE1
     /tmp/ccdfblL6.s:3189   .debug_str:0000000000000455 .LASF86
GAS LISTING /tmp/ccdfblL6.s 			page 27


     /tmp/ccdfblL6.s:2905   .debug_loc:0000000000000664 .LLST5
     /tmp/ccdfblL6.s:67     .text:0000000000000058 .LVL4
     /tmp/ccdfblL6.s:3181   .debug_str:0000000000000433 .LASF87
     /tmp/ccdfblL6.s:3049   .debug_str:00000000000000b4 .LASF88
     /tmp/ccdfblL6.s:10     .text:0000000000000000 .LFB0
     /tmp/ccdfblL6.s:37     .text:0000000000000028 .LFE0
     /tmp/ccdfblL6.s:3133   .debug_str:00000000000002cc .LASF89
     /tmp/ccdfblL6.s:2934   .debug_loc:00000000000006d9 .LLST0
     /tmp/ccdfblL6.s:3205   .debug_str:000000000000056a .LASF90
     /tmp/ccdfblL6.s:2948   .debug_loc:0000000000000712 .LLST1
     /tmp/ccdfblL6.s:3207   .debug_str:000000000000056f .LASF91
     /tmp/ccdfblL6.s:2962   .debug_loc:000000000000074b .LLST2
     /tmp/ccdfblL6.s:3095   .debug_str:00000000000001db .LASF92
     /tmp/ccdfblL6.s:2976   .debug_loc:0000000000000784 .LLST3
     /tmp/ccdfblL6.s:3097   .debug_str:00000000000001e0 .LASF93
     /tmp/ccdfblL6.s:2990   .debug_loc:00000000000007bd .LLST4
     /tmp/ccdfblL6.s:26     .text:0000000000000018 .LVL1
     /tmp/ccdfblL6.s:3177   .debug_str:0000000000000422 .LASF98
     /tmp/ccdfblL6.s:820    .text:0000000000000518 .LVL65
     /tmp/ccdfblL6.s:836    .text:000000000000053c .LVL66
     /tmp/ccdfblL6.s:744    .text:0000000000000498 .LVL61
     /tmp/ccdfblL6.s:760    .text:00000000000004bc .LVL62
     /tmp/ccdfblL6.s:694    .text:000000000000044c .LVL56
     /tmp/ccdfblL6.s:713    .text:0000000000000474 .LVL57
     /tmp/ccdfblL6.s:727    .text:0000000000000490 .LVL59
     /tmp/ccdfblL6.s:731    .text:0000000000000494 .LVL60
     /tmp/ccdfblL6.s:654    .text:000000000000040c .LVL52
     /tmp/ccdfblL6.s:671    .text:0000000000000430 .LVL54
     /tmp/ccdfblL6.s:669    .text:000000000000042c .LVL53
     /tmp/ccdfblL6.s:615    .text:00000000000003cc .LVL49
     /tmp/ccdfblL6.s:631    .text:00000000000003f0 .LVL50
     /tmp/ccdfblL6.s:576    .text:000000000000038c .LVL46
     /tmp/ccdfblL6.s:592    .text:00000000000003b0 .LVL47
     /tmp/ccdfblL6.s:537    .text:000000000000034c .LVL43
     /tmp/ccdfblL6.s:553    .text:0000000000000370 .LVL44
     /tmp/ccdfblL6.s:498    .text:000000000000030c .LVL40
     /tmp/ccdfblL6.s:514    .text:0000000000000330 .LVL41
     /tmp/ccdfblL6.s:457    .text:00000000000002c8 .LVL36
     /tmp/ccdfblL6.s:475    .text:00000000000002f0 .LVL38
     /tmp/ccdfblL6.s:473    .text:00000000000002ec .LVL37
     /tmp/ccdfblL6.s:418    .text:0000000000000288 .LVL33
     /tmp/ccdfblL6.s:434    .text:00000000000002ac .LVL34
     /tmp/ccdfblL6.s:319    .text:00000000000001e4 .LVL25
     /tmp/ccdfblL6.s:336    .text:0000000000000208 .LVL26
     /tmp/ccdfblL6.s:359    .text:0000000000000234 .LVL29
     /tmp/ccdfblL6.s:363    .text:000000000000023c .LVL30
     /tmp/ccdfblL6.s:356    .text:0000000000000230 .LVL28
     /tmp/ccdfblL6.s:281    .text:00000000000001a8 .LVL22
     /tmp/ccdfblL6.s:297    .text:00000000000001cc .LVL23
     /tmp/ccdfblL6.s:133    .text:00000000000000b0 .LVL10
     /tmp/ccdfblL6.s:158    .text:00000000000000e0 .LVL12
     /tmp/ccdfblL6.s:185    .text:0000000000000118 .LVL17
     /tmp/ccdfblL6.s:192    .text:0000000000000124 .LVL19
     /tmp/ccdfblL6.s:182    .text:0000000000000114 .LVL16
     /tmp/ccdfblL6.s:188    .text:000000000000011c .LVL18
     /tmp/ccdfblL6.s:152    .text:00000000000000d8 .LVL11
     /tmp/ccdfblL6.s:162    .text:00000000000000ec .LVL14
GAS LISTING /tmp/ccdfblL6.s 			page 28


     /tmp/ccdfblL6.s:94     .text:0000000000000070 .LVL7
     /tmp/ccdfblL6.s:110    .text:0000000000000094 .LVL8
     /tmp/ccdfblL6.s:46     .text:0000000000000028 .LVL2
     /tmp/ccdfblL6.s:65     .text:0000000000000050 .LVL3
     /tmp/ccdfblL6.s:77     .text:0000000000000068 .LVL5
     /tmp/ccdfblL6.s:81     .text:000000000000006c .LVL6
     /tmp/ccdfblL6.s:14     .text:0000000000000000 .LVL0
     /tmp/ccdfblL6.s:855    .debug_info:0000000000000000 .Ldebug_info0

UNDEFINED SYMBOLS
caller
