GAS LISTING /tmp/ccJTLzyK.s 			page 1


   1              		.file	"syscall_cpp.cpp"
   2              		.option pic
   3              		.option norelax
   4              		.text
   5              	.Ltext0:
   6              		.section	.text._ZN6Thread3runEv,"axG",@progbits,_ZN6Thread3runEv,comdat
   7              		.align	2
   8              		.weak	_ZN6Thread3runEv
  10              	_ZN6Thread3runEv:
  11              	.LFB0:
  12              		.file 1 "src/../h/syscall_cpp.hpp"
   1:src/../h/syscall_cpp.hpp **** #ifndef _syscall_cpp
   2:src/../h/syscall_cpp.hpp **** #define _syscall_cpp
   3:src/../h/syscall_cpp.hpp **** 
   4:src/../h/syscall_cpp.hpp **** #include "../lib/hw.h"
   5:src/../h/syscall_cpp.hpp **** #include "syscall_c.hpp"
   6:src/../h/syscall_cpp.hpp **** 
   7:src/../h/syscall_cpp.hpp **** void *operator new(size_t);
   8:src/../h/syscall_cpp.hpp **** 
   9:src/../h/syscall_cpp.hpp **** void operator delete(void *);
  10:src/../h/syscall_cpp.hpp **** 
  11:src/../h/syscall_cpp.hpp **** 
  12:src/../h/syscall_cpp.hpp **** class Thread {
  13:src/../h/syscall_cpp.hpp **** public:
  14:src/../h/syscall_cpp.hpp ****     Thread(void (*body)(void *), void *arg);
  15:src/../h/syscall_cpp.hpp **** 
  16:src/../h/syscall_cpp.hpp ****     virtual ~Thread();
  17:src/../h/syscall_cpp.hpp **** 
  18:src/../h/syscall_cpp.hpp ****     int start();
  19:src/../h/syscall_cpp.hpp **** 
  20:src/../h/syscall_cpp.hpp ****     void join();
  21:src/../h/syscall_cpp.hpp **** 
  22:src/../h/syscall_cpp.hpp ****     void join(time_t);
  23:src/../h/syscall_cpp.hpp **** 
  24:src/../h/syscall_cpp.hpp ****     static int kill(Thread *);
  25:src/../h/syscall_cpp.hpp **** 
  26:src/../h/syscall_cpp.hpp ****     static void dispatch();
  27:src/../h/syscall_cpp.hpp **** 
  28:src/../h/syscall_cpp.hpp ****     static int sleep(time_t);
  29:src/../h/syscall_cpp.hpp **** 
  30:src/../h/syscall_cpp.hpp ****     static void threadStart(void *);
  31:src/../h/syscall_cpp.hpp **** 
  32:src/../h/syscall_cpp.hpp **** protected:
  33:src/../h/syscall_cpp.hpp ****     Thread();
  34:src/../h/syscall_cpp.hpp **** 
  35:src/../h/syscall_cpp.hpp ****     virtual void run() {}
  13              		.loc 1 35 18
  14              		.cfi_startproc
  15              	.LVL0:
  16 0000 130101FF 		addi	sp,sp,-16
  17              		.cfi_def_cfa_offset 16
  18 0004 23348100 		sd	s0,8(sp)
  19              		.cfi_offset 8, -8
  20 0008 13040101 		addi	s0,sp,16
  21              		.cfi_def_cfa 8, 0
  22              		.loc 1 35 25 is_stmt 0
  23 000c 03348100 		ld	s0,8(sp)
GAS LISTING /tmp/ccJTLzyK.s 			page 2


  24              		.cfi_restore 8
  25              		.cfi_def_cfa 2, 16
  26 0010 13010101 		addi	sp,sp,16
  27              		.cfi_def_cfa_offset 0
  28 0014 67800000 		jr	ra
  29              		.cfi_endproc
  30              	.LFE0:
  32              		.section	.text._ZN14PeriodicThread18periodicActivationEv,"axG",@progbits,_ZN14PeriodicThread18peri
  33              		.align	2
  34              		.weak	_ZN14PeriodicThread18periodicActivationEv
  36              	_ZN14PeriodicThread18periodicActivationEv:
  37              	.LFB4:
  36:src/../h/syscall_cpp.hpp **** 
  37:src/../h/syscall_cpp.hpp **** private:
  38:src/../h/syscall_cpp.hpp ****     thread_t myHandle;
  39:src/../h/syscall_cpp.hpp **** 
  40:src/../h/syscall_cpp.hpp ****     void (*body)(void *);
  41:src/../h/syscall_cpp.hpp **** 
  42:src/../h/syscall_cpp.hpp ****     void *arg;
  43:src/../h/syscall_cpp.hpp **** };
  44:src/../h/syscall_cpp.hpp **** 
  45:src/../h/syscall_cpp.hpp **** 
  46:src/../h/syscall_cpp.hpp **** class Semaphore {
  47:src/../h/syscall_cpp.hpp **** public:
  48:src/../h/syscall_cpp.hpp **** 
  49:src/../h/syscall_cpp.hpp ****     explicit Semaphore(unsigned init);
  50:src/../h/syscall_cpp.hpp **** 
  51:src/../h/syscall_cpp.hpp ****     virtual ~Semaphore();
  52:src/../h/syscall_cpp.hpp **** 
  53:src/../h/syscall_cpp.hpp ****     virtual int wait();
  54:src/../h/syscall_cpp.hpp **** 
  55:src/../h/syscall_cpp.hpp ****     virtual int signal();
  56:src/../h/syscall_cpp.hpp **** 
  57:src/../h/syscall_cpp.hpp ****     static int signal_and_wait(Semaphore &sem1, Semaphore &sem2);
  58:src/../h/syscall_cpp.hpp **** 
  59:src/../h/syscall_cpp.hpp **** protected:
  60:src/../h/syscall_cpp.hpp ****     sem_t myHandle;
  61:src/../h/syscall_cpp.hpp **** 
  62:src/../h/syscall_cpp.hpp **** };
  63:src/../h/syscall_cpp.hpp **** 
  64:src/../h/syscall_cpp.hpp **** class Mutex : public Semaphore {
  65:src/../h/syscall_cpp.hpp **** public:
  66:src/../h/syscall_cpp.hpp ****     Mutex() : Semaphore(1) {}
  67:src/../h/syscall_cpp.hpp **** };
  68:src/../h/syscall_cpp.hpp **** 
  69:src/../h/syscall_cpp.hpp **** 
  70:src/../h/syscall_cpp.hpp **** class PeriodicThread : public Thread {
  71:src/../h/syscall_cpp.hpp **** public:
  72:src/../h/syscall_cpp.hpp ****     void terminate();
  73:src/../h/syscall_cpp.hpp **** 
  74:src/../h/syscall_cpp.hpp **** protected:
  75:src/../h/syscall_cpp.hpp ****     explicit PeriodicThread(time_t period);
  76:src/../h/syscall_cpp.hpp **** 
  77:src/../h/syscall_cpp.hpp ****     virtual void periodicActivation() {}
  38              		.loc 1 77 18 is_stmt 1
  39              		.cfi_startproc
  40              	.LVL1:
GAS LISTING /tmp/ccJTLzyK.s 			page 3


  41 0000 130101FF 		addi	sp,sp,-16
  42              		.cfi_def_cfa_offset 16
  43 0004 23348100 		sd	s0,8(sp)
  44              		.cfi_offset 8, -8
  45 0008 13040101 		addi	s0,sp,16
  46              		.cfi_def_cfa 8, 0
  47              		.loc 1 77 40 is_stmt 0
  48 000c 03348100 		ld	s0,8(sp)
  49              		.cfi_restore 8
  50              		.cfi_def_cfa 2, 16
  51 0010 13010101 		addi	sp,sp,16
  52              		.cfi_def_cfa_offset 0
  53 0014 67800000 		jr	ra
  54              		.cfi_endproc
  55              	.LFE4:
  57              		.text
  58              		.align	2
  59              		.globl	_ZN6Thread11threadStartEPv
  61              	_ZN6Thread11threadStartEPv:
  62              	.LFB47:
  63              		.file 2 "src/syscall_cpp.cpp"
   1:src/syscall_cpp.cpp **** //
   2:src/syscall_cpp.cpp **** // Created by os on 5/27/23.
   3:src/syscall_cpp.cpp **** //
   4:src/syscall_cpp.cpp **** 
   5:src/syscall_cpp.cpp **** #include "../h/syscall_cpp.hpp"
   6:src/syscall_cpp.cpp **** #include "../h/c_thread.hpp"
   7:src/syscall_cpp.cpp **** 
   8:src/syscall_cpp.cpp **** void *operator new(size_t size) {
   9:src/syscall_cpp.cpp ****     return mem_alloc(size);
  10:src/syscall_cpp.cpp **** }
  11:src/syscall_cpp.cpp **** 
  12:src/syscall_cpp.cpp **** void *operator new[](size_t size) {
  13:src/syscall_cpp.cpp ****     return mem_alloc(size);
  14:src/syscall_cpp.cpp **** }
  15:src/syscall_cpp.cpp **** 
  16:src/syscall_cpp.cpp **** void operator delete(void *mem) {
  17:src/syscall_cpp.cpp ****     mem_free(mem);
  18:src/syscall_cpp.cpp **** }
  19:src/syscall_cpp.cpp **** 
  20:src/syscall_cpp.cpp **** void operator delete[](void *mem) {
  21:src/syscall_cpp.cpp ****     mem_free(mem);
  22:src/syscall_cpp.cpp **** }
  23:src/syscall_cpp.cpp **** 
  24:src/syscall_cpp.cpp **** Thread::Thread(void (*body)(void *), void *arg) {
  25:src/syscall_cpp.cpp ****     this->body = body;
  26:src/syscall_cpp.cpp ****     this->arg = arg;
  27:src/syscall_cpp.cpp **** }
  28:src/syscall_cpp.cpp **** 
  29:src/syscall_cpp.cpp **** Thread::~Thread() {
  30:src/syscall_cpp.cpp ****     if (myHandle->is_finished())
  31:src/syscall_cpp.cpp ****         delete myHandle;
  32:src/syscall_cpp.cpp **** }
  33:src/syscall_cpp.cpp **** 
  34:src/syscall_cpp.cpp **** int Thread::start() {
  35:src/syscall_cpp.cpp ****     return thread_create(&myHandle, &threadStart, this);
  36:src/syscall_cpp.cpp **** }
GAS LISTING /tmp/ccJTLzyK.s 			page 4


  37:src/syscall_cpp.cpp **** 
  38:src/syscall_cpp.cpp **** void Thread::join() {
  39:src/syscall_cpp.cpp ****     thread_join(myHandle);
  40:src/syscall_cpp.cpp **** }
  41:src/syscall_cpp.cpp **** 
  42:src/syscall_cpp.cpp **** void Thread::join(time_t time) {
  43:src/syscall_cpp.cpp ****     thread_join(myHandle, time);
  44:src/syscall_cpp.cpp **** }
  45:src/syscall_cpp.cpp **** 
  46:src/syscall_cpp.cpp **** int Thread::kill(Thread *thread) {
  47:src/syscall_cpp.cpp ****     return thread_kill(thread->myHandle);
  48:src/syscall_cpp.cpp **** }
  49:src/syscall_cpp.cpp **** 
  50:src/syscall_cpp.cpp **** void Thread::dispatch() {
  51:src/syscall_cpp.cpp ****     thread_dispatch();
  52:src/syscall_cpp.cpp **** }
  53:src/syscall_cpp.cpp **** 
  54:src/syscall_cpp.cpp **** int Thread::sleep(time_t ms) {
  55:src/syscall_cpp.cpp ****     return time_sleep(ms);
  56:src/syscall_cpp.cpp **** }
  57:src/syscall_cpp.cpp **** 
  58:src/syscall_cpp.cpp **** Thread::Thread() {
  59:src/syscall_cpp.cpp ****     this->body = nullptr;
  60:src/syscall_cpp.cpp ****     this->arg = nullptr;
  61:src/syscall_cpp.cpp **** }
  62:src/syscall_cpp.cpp **** 
  63:src/syscall_cpp.cpp **** void Thread::threadStart(void *arg) {
  64              		.loc 2 63 37 is_stmt 1
  65              		.cfi_startproc
  66              	.LVL2:
  67 0000 130101FF 		addi	sp,sp,-16
  68              		.cfi_def_cfa_offset 16
  69 0004 23341100 		sd	ra,8(sp)
  70 0008 23308100 		sd	s0,0(sp)
  71              		.cfi_offset 1, -8
  72              		.cfi_offset 8, -16
  73 000c 13040101 		addi	s0,sp,16
  74              		.cfi_def_cfa 8, 0
  64:src/syscall_cpp.cpp ****     Thread *thread = (Thread *) arg;
  75              		.loc 2 64 5
  76              	.LVL3:
  65:src/syscall_cpp.cpp ****     if (thread->body) {
  77              		.loc 2 65 5
  78              		.loc 2 65 17 is_stmt 0
  79 0010 83370501 		ld	a5,16(a0)
  80              		.loc 2 65 5
  81 0014 638E0700 		beqz	a5,.L6
  66:src/syscall_cpp.cpp ****         thread->body(thread->arg);
  82              		.loc 2 66 9 is_stmt 1
  83              		.loc 2 66 21 is_stmt 0
  84 0018 03358501 		ld	a0,24(a0)
  85              	.LVL4:
  86 001c E7800700 		jalr	a5
  87              	.LVL5:
  88              	.L5:
  67:src/syscall_cpp.cpp ****     } else {
  68:src/syscall_cpp.cpp ****         thread->run();
GAS LISTING /tmp/ccJTLzyK.s 			page 5


  69:src/syscall_cpp.cpp ****     }
  70:src/syscall_cpp.cpp **** }
  89              		.loc 2 70 1
  90 0020 83308100 		ld	ra,8(sp)
  91              		.cfi_remember_state
  92              		.cfi_restore 1
  93 0024 03340100 		ld	s0,0(sp)
  94              		.cfi_restore 8
  95              		.cfi_def_cfa 2, 16
  96 0028 13010101 		addi	sp,sp,16
  97              		.cfi_def_cfa_offset 0
  98 002c 67800000 		jr	ra
  99              	.LVL6:
 100              	.L6:
 101              		.cfi_restore_state
  68:src/syscall_cpp.cpp ****     }
 102              		.loc 2 68 9 is_stmt 1
  68:src/syscall_cpp.cpp ****     }
 103              		.loc 2 68 21 is_stmt 0
 104 0030 83370500 		ld	a5,0(a0)
 105 0034 83B70701 		ld	a5,16(a5)
  68:src/syscall_cpp.cpp ****     }
 106              		.loc 2 68 20
 107 0038 E7800700 		jalr	a5
 108              	.LVL7:
 109              		.loc 2 70 1
 110 003c 6FF05FFE 		j	.L5
 111              		.cfi_endproc
 112              	.LFE47:
 114              		.align	2
 115              		.globl	_ZN9SemaphoreD2Ev
 117              	_ZN9SemaphoreD2Ev:
 118              	.LFB52:
  71:src/syscall_cpp.cpp **** 
  72:src/syscall_cpp.cpp **** 
  73:src/syscall_cpp.cpp **** Semaphore::Semaphore(unsigned int init) {
  74:src/syscall_cpp.cpp ****     sem_open(&myHandle, init);
  75:src/syscall_cpp.cpp **** }
  76:src/syscall_cpp.cpp **** 
  77:src/syscall_cpp.cpp **** Semaphore::~Semaphore() {
 119              		.loc 2 77 1 is_stmt 1
 120              		.cfi_startproc
 121              		.cfi_personality 0x9b,DW.ref.__gxx_personality_v0
 122              		.cfi_lsda 0x1b,.LLSDA52
 123              	.LVL8:
 124 0040 130101FF 		addi	sp,sp,-16
 125              		.cfi_def_cfa_offset 16
 126 0044 23341100 		sd	ra,8(sp)
 127 0048 23308100 		sd	s0,0(sp)
 128              		.cfi_offset 1, -8
 129              		.cfi_offset 8, -16
 130 004c 13040101 		addi	s0,sp,16
 131              		.cfi_def_cfa 8, 0
 132              	.LBB8:
 133              		.loc 2 77 23 is_stmt 0
 134 0050 97070000 		lla	a5,_ZTV9Semaphore+16
 134      93870700 
GAS LISTING /tmp/ccJTLzyK.s 			page 6


 135 0058 2330F500 		sd	a5,0(a0)
  78:src/syscall_cpp.cpp ****     sem_close(myHandle);
 136              		.loc 2 78 5 is_stmt 1
 137              		.loc 2 78 14 is_stmt 0
 138 005c 03358500 		ld	a0,8(a0)
 139              	.LVL9:
 140 0060 97000000 		call	_Z9sem_closeP3Sem@plt
 140      E7800000 
 141              	.LVL10:
 142              	.LBE8:
  79:src/syscall_cpp.cpp **** }
 143              		.loc 2 79 1
 144 0068 83308100 		ld	ra,8(sp)
 145              		.cfi_restore 1
 146 006c 03340100 		ld	s0,0(sp)
 147              		.cfi_restore 8
 148              		.cfi_def_cfa 2, 16
 149 0070 13010101 		addi	sp,sp,16
 150              		.cfi_def_cfa_offset 0
 151 0074 67800000 		jr	ra
 152              		.cfi_endproc
 153              	.LFE52:
 154              		.globl	__gxx_personality_v0
 155              		.section	.gcc_except_table,"a",@progbits
 156              	.LLSDA52:
 157 0000 FF       		.byte	0xff
 158 0001 FF       		.byte	0xff
 159 0002 03       		.byte	0x3
 160 0003 00       		.byte	0
 161              		.text
 163              		.globl	_ZN9SemaphoreD1Ev
 164              		.set	_ZN9SemaphoreD1Ev,_ZN9SemaphoreD2Ev
 165              		.align	2
 166              		.globl	_ZN9Semaphore4waitEv
 168              	_ZN9Semaphore4waitEv:
 169              	.LFB55:
  80:src/syscall_cpp.cpp **** 
  81:src/syscall_cpp.cpp **** int Semaphore::wait() {
 170              		.loc 2 81 23 is_stmt 1
 171              		.cfi_startproc
 172              	.LVL11:
 173 0078 130101FF 		addi	sp,sp,-16
 174              		.cfi_def_cfa_offset 16
 175 007c 23341100 		sd	ra,8(sp)
 176 0080 23308100 		sd	s0,0(sp)
 177              		.cfi_offset 1, -8
 178              		.cfi_offset 8, -16
 179 0084 13040101 		addi	s0,sp,16
 180              		.cfi_def_cfa 8, 0
  82:src/syscall_cpp.cpp ****     return sem_wait(myHandle);
 181              		.loc 2 82 5
 182              		.loc 2 82 20 is_stmt 0
 183 0088 03358500 		ld	a0,8(a0)
 184              	.LVL12:
 185 008c 97000000 		call	_Z8sem_waitP3Sem@plt
 185      E7800000 
 186              	.LVL13:
GAS LISTING /tmp/ccJTLzyK.s 			page 7


  83:src/syscall_cpp.cpp **** }
 187              		.loc 2 83 1
 188 0094 83308100 		ld	ra,8(sp)
 189              		.cfi_restore 1
 190 0098 03340100 		ld	s0,0(sp)
 191              		.cfi_restore 8
 192              		.cfi_def_cfa 2, 16
 193 009c 13010101 		addi	sp,sp,16
 194              		.cfi_def_cfa_offset 0
 195 00a0 67800000 		jr	ra
 196              		.cfi_endproc
 197              	.LFE55:
 199              		.align	2
 200              		.globl	_ZN9Semaphore6signalEv
 202              	_ZN9Semaphore6signalEv:
 203              	.LFB56:
  84:src/syscall_cpp.cpp **** 
  85:src/syscall_cpp.cpp **** int Semaphore::signal() {
 204              		.loc 2 85 25 is_stmt 1
 205              		.cfi_startproc
 206              	.LVL14:
 207 00a4 130101FF 		addi	sp,sp,-16
 208              		.cfi_def_cfa_offset 16
 209 00a8 23341100 		sd	ra,8(sp)
 210 00ac 23308100 		sd	s0,0(sp)
 211              		.cfi_offset 1, -8
 212              		.cfi_offset 8, -16
 213 00b0 13040101 		addi	s0,sp,16
 214              		.cfi_def_cfa 8, 0
  86:src/syscall_cpp.cpp ****     return sem_signal(myHandle);
 215              		.loc 2 86 5
 216              		.loc 2 86 22 is_stmt 0
 217 00b4 03358500 		ld	a0,8(a0)
 218              	.LVL15:
 219 00b8 97000000 		call	_Z10sem_signalP3Sem@plt
 219      E7800000 
 220              	.LVL16:
  87:src/syscall_cpp.cpp **** }
 221              		.loc 2 87 1
 222 00c0 83308100 		ld	ra,8(sp)
 223              		.cfi_restore 1
 224 00c4 03340100 		ld	s0,0(sp)
 225              		.cfi_restore 8
 226              		.cfi_def_cfa 2, 16
 227 00c8 13010101 		addi	sp,sp,16
 228              		.cfi_def_cfa_offset 0
 229 00cc 67800000 		jr	ra
 230              		.cfi_endproc
 231              	.LFE56:
 233              		.align	2
 234              		.globl	_Znwm
 236              	_Znwm:
 237              	.LFB27:
   8:src/syscall_cpp.cpp ****     return mem_alloc(size);
 238              		.loc 2 8 33 is_stmt 1
 239              		.cfi_startproc
 240              	.LVL17:
GAS LISTING /tmp/ccJTLzyK.s 			page 8


 241 00d0 130101FF 		addi	sp,sp,-16
 242              		.cfi_def_cfa_offset 16
 243 00d4 23341100 		sd	ra,8(sp)
 244 00d8 23308100 		sd	s0,0(sp)
 245              		.cfi_offset 1, -8
 246              		.cfi_offset 8, -16
 247 00dc 13040101 		addi	s0,sp,16
 248              		.cfi_def_cfa 8, 0
   9:src/syscall_cpp.cpp **** }
 249              		.loc 2 9 5
   9:src/syscall_cpp.cpp **** }
 250              		.loc 2 9 21 is_stmt 0
 251 00e0 97000000 		call	_Z9mem_allocm@plt
 251      E7800000 
 252              	.LVL18:
  10:src/syscall_cpp.cpp **** 
 253              		.loc 2 10 1
 254 00e8 83308100 		ld	ra,8(sp)
 255              		.cfi_restore 1
 256 00ec 03340100 		ld	s0,0(sp)
 257              		.cfi_restore 8
 258              		.cfi_def_cfa 2, 16
 259 00f0 13010101 		addi	sp,sp,16
 260              		.cfi_def_cfa_offset 0
 261 00f4 67800000 		jr	ra
 262              		.cfi_endproc
 263              	.LFE27:
 265              		.align	2
 266              		.globl	_Znam
 268              	_Znam:
 269              	.LFB28:
  12:src/syscall_cpp.cpp ****     return mem_alloc(size);
 270              		.loc 2 12 35 is_stmt 1
 271              		.cfi_startproc
 272              	.LVL19:
 273 00f8 130101FF 		addi	sp,sp,-16
 274              		.cfi_def_cfa_offset 16
 275 00fc 23341100 		sd	ra,8(sp)
 276 0100 23308100 		sd	s0,0(sp)
 277              		.cfi_offset 1, -8
 278              		.cfi_offset 8, -16
 279 0104 13040101 		addi	s0,sp,16
 280              		.cfi_def_cfa 8, 0
  13:src/syscall_cpp.cpp **** }
 281              		.loc 2 13 5
  13:src/syscall_cpp.cpp **** }
 282              		.loc 2 13 21 is_stmt 0
 283 0108 97000000 		call	_Z9mem_allocm@plt
 283      E7800000 
 284              	.LVL20:
  14:src/syscall_cpp.cpp **** 
 285              		.loc 2 14 1
 286 0110 83308100 		ld	ra,8(sp)
 287              		.cfi_restore 1
 288 0114 03340100 		ld	s0,0(sp)
 289              		.cfi_restore 8
 290              		.cfi_def_cfa 2, 16
GAS LISTING /tmp/ccJTLzyK.s 			page 9


 291 0118 13010101 		addi	sp,sp,16
 292              		.cfi_def_cfa_offset 0
 293 011c 67800000 		jr	ra
 294              		.cfi_endproc
 295              	.LFE28:
 297              		.align	2
 298              		.globl	_ZdlPv
 300              	_ZdlPv:
 301              	.LFB29:
  16:src/syscall_cpp.cpp ****     mem_free(mem);
 302              		.loc 2 16 33 is_stmt 1
 303              		.cfi_startproc
 304              	.LVL21:
 305 0120 130101FF 		addi	sp,sp,-16
 306              		.cfi_def_cfa_offset 16
 307 0124 23341100 		sd	ra,8(sp)
 308 0128 23308100 		sd	s0,0(sp)
 309              		.cfi_offset 1, -8
 310              		.cfi_offset 8, -16
 311 012c 13040101 		addi	s0,sp,16
 312              		.cfi_def_cfa 8, 0
  17:src/syscall_cpp.cpp **** }
 313              		.loc 2 17 5
  17:src/syscall_cpp.cpp **** }
 314              		.loc 2 17 13 is_stmt 0
 315 0130 97000000 		call	_Z8mem_freePv@plt
 315      E7800000 
 316              	.LVL22:
  18:src/syscall_cpp.cpp **** 
 317              		.loc 2 18 1
 318 0138 83308100 		ld	ra,8(sp)
 319              		.cfi_restore 1
 320 013c 03340100 		ld	s0,0(sp)
 321              		.cfi_restore 8
 322              		.cfi_def_cfa 2, 16
 323 0140 13010101 		addi	sp,sp,16
 324              		.cfi_def_cfa_offset 0
 325 0144 67800000 		jr	ra
 326              		.cfi_endproc
 327              	.LFE29:
 329              		.align	2
 330              		.globl	_ZN6ThreadD2Ev
 332              	_ZN6ThreadD2Ev:
 333              	.LFB35:
  29:src/syscall_cpp.cpp ****     if (myHandle->is_finished())
 334              		.loc 2 29 1 is_stmt 1
 335              		.cfi_startproc
 336              		.cfi_personality 0x9b,DW.ref.__gxx_personality_v0
 337              		.cfi_lsda 0x1b,.LLSDA35
 338              	.LVL23:
 339              	.LBB9:
  29:src/syscall_cpp.cpp ****     if (myHandle->is_finished())
 340              		.loc 2 29 17 is_stmt 0
 341 0148 97070000 		lla	a5,_ZTV6Thread+16
 341      93870700 
 342 0150 2330F500 		sd	a5,0(a0)
  30:src/syscall_cpp.cpp ****         delete myHandle;
GAS LISTING /tmp/ccJTLzyK.s 			page 10


 343              		.loc 2 30 5 is_stmt 1
  30:src/syscall_cpp.cpp ****         delete myHandle;
 344              		.loc 2 30 9 is_stmt 0
 345 0154 03358500 		ld	a0,8(a0)
 346              	.LVL24:
 347              	.LBB10:
 348              	.LBB11:
 349              		.file 3 "src/../h/c_thread.hpp"
   1:src/../h/c_thread.hpp **** #ifndef PROJECT_BASE_C_THREAD_HPP
   2:src/../h/c_thread.hpp **** #define PROJECT_BASE_C_THREAD_HPP
   3:src/../h/c_thread.hpp **** 
   4:src/../h/c_thread.hpp **** #include "syscall_c.hpp"
   5:src/../h/c_thread.hpp **** #include "../lib/hw.h"
   6:src/../h/c_thread.hpp **** #include "circular_buffer.hpp"
   7:src/../h/c_thread.hpp **** 
   8:src/../h/c_thread.hpp **** using run_t = void (*)(void *);
   9:src/../h/c_thread.hpp **** 
  10:src/../h/c_thread.hpp **** struct Context {
  11:src/../h/c_thread.hpp ****     uint64 ra;
  12:src/../h/c_thread.hpp ****     uint64 sp;
  13:src/../h/c_thread.hpp ****     uint64 sstatus;
  14:src/../h/c_thread.hpp ****     uint64 sepc;
  15:src/../h/c_thread.hpp **** };
  16:src/../h/c_thread.hpp **** 
  17:src/../h/c_thread.hpp **** enum Status {
  18:src/../h/c_thread.hpp ****     RUNNABLE, BLOCKED, SLEEPING, JOINED, FINISHED
  19:src/../h/c_thread.hpp **** };
  20:src/../h/c_thread.hpp **** 
  21:src/../h/c_thread.hpp **** class TCB final {
  22:src/../h/c_thread.hpp **** public:
  23:src/../h/c_thread.hpp ****     static int _thread_create(thread_t *, void(*)(void *), void *, void *);
  24:src/../h/c_thread.hpp **** 
  25:src/../h/c_thread.hpp ****     static void _thread_exit();
  26:src/../h/c_thread.hpp **** 
  27:src/../h/c_thread.hpp ****     static void _thread_dispatch();
  28:src/../h/c_thread.hpp **** 
  29:src/../h/c_thread.hpp ****     static void _thread_join(thread_t);
  30:src/../h/c_thread.hpp **** 
  31:src/../h/c_thread.hpp ****     static void _thread_join_time(thread_t, time_t);
  32:src/../h/c_thread.hpp **** 
  33:src/../h/c_thread.hpp ****     static int _fork();
  34:src/../h/c_thread.hpp **** 
  35:src/../h/c_thread.hpp ****     static int _kill(TCB *);
  36:src/../h/c_thread.hpp **** 
  37:src/../h/c_thread.hpp ****     static void thread_start();
  38:src/../h/c_thread.hpp **** 
  39:src/../h/c_thread.hpp ****     static void context_switch(Context *, Context *);
  40:src/../h/c_thread.hpp **** 
  41:src/../h/c_thread.hpp ****     static void yield();
  42:src/../h/c_thread.hpp **** 
  43:src/../h/c_thread.hpp ****     static TCB *destroy_thread(TCB *);
  44:src/../h/c_thread.hpp **** 
  45:src/../h/c_thread.hpp ****     static void duplicate(TCB *, TCB *);
  46:src/../h/c_thread.hpp **** 
  47:src/../h/c_thread.hpp ****     TCB(run_t, void *, void *, Context);
  48:src/../h/c_thread.hpp **** 
  49:src/../h/c_thread.hpp ****     TCB(TCB &);
GAS LISTING /tmp/ccJTLzyK.s 			page 11


  50:src/../h/c_thread.hpp **** 
  51:src/../h/c_thread.hpp ****     bool is_runnable() const { return this->status == RUNNABLE; }
  52:src/../h/c_thread.hpp **** 
  53:src/../h/c_thread.hpp ****     bool is_blocked() const { return this->status == BLOCKED; }
  54:src/../h/c_thread.hpp **** 
  55:src/../h/c_thread.hpp ****     bool is_sleeping() const { return this->status == SLEEPING; }
  56:src/../h/c_thread.hpp **** 
  57:src/../h/c_thread.hpp ****     bool is_joined() const { return this->status == JOINED; }
  58:src/../h/c_thread.hpp **** 
  59:src/../h/c_thread.hpp ****     bool is_finished() const { return this->status == FINISHED; }
 350              		.loc 3 59 32 is_stmt 1
 351              		.loc 3 59 45 is_stmt 0
 352 0158 03278504 		lw	a4,72(a0)
 353              	.LVL25:
 354              	.LBE11:
 355              	.LBE10:
  30:src/syscall_cpp.cpp ****         delete myHandle;
 356              		.loc 2 30 5
 357 015c 93074000 		li	a5,4
 358 0160 6304F700 		beq	a4,a5,.L27
 359              	.L24:
 360 0164 67800000 		ret
 361              	.L27:
  31:src/syscall_cpp.cpp **** }
 362              		.loc 2 31 9 is_stmt 1
  31:src/syscall_cpp.cpp **** }
 363              		.loc 2 31 24 is_stmt 0
 364 0168 E30E05FE 		beqz	a0,.L24
 365              	.LBE9:
  29:src/syscall_cpp.cpp ****     if (myHandle->is_finished())
 366              		.loc 2 29 1 discriminator 1
 367 016c 130101FF 		addi	sp,sp,-16
 368              		.cfi_def_cfa_offset 16
 369 0170 23341100 		sd	ra,8(sp)
 370 0174 23308100 		sd	s0,0(sp)
 371              		.cfi_offset 1, -8
 372              		.cfi_offset 8, -16
 373 0178 13040101 		addi	s0,sp,16
 374              		.cfi_def_cfa 8, 0
 375              	.LBB12:
  31:src/syscall_cpp.cpp **** }
 376              		.loc 2 31 16 discriminator 1
 377 017c 97000000 		call	_ZdlPv
 377      E7800000 
 378              	.LVL26:
 379              	.LBE12:
  32:src/syscall_cpp.cpp **** 
 380              		.loc 2 32 1 discriminator 1
 381 0184 83308100 		ld	ra,8(sp)
 382              		.cfi_restore 1
 383 0188 03340100 		ld	s0,0(sp)
 384              		.cfi_restore 8
 385              		.cfi_def_cfa 2, 16
 386 018c 13010101 		addi	sp,sp,16
 387              		.cfi_def_cfa_offset 0
 388 0190 67800000 		jr	ra
 389              		.cfi_endproc
GAS LISTING /tmp/ccJTLzyK.s 			page 12


 390              	.LFE35:
 391              		.section	.gcc_except_table
 392              	.LLSDA35:
 393 0004 FF       		.byte	0xff
 394 0005 FF       		.byte	0xff
 395 0006 03       		.byte	0x3
 396 0007 00       		.byte	0
 397              		.text
 399              		.globl	_ZN6ThreadD1Ev
 400              		.set	_ZN6ThreadD1Ev,_ZN6ThreadD2Ev
 401              		.section	.text._ZN14PeriodicThreadD2Ev,"axG",@progbits,_ZN14PeriodicThreadD5Ev,comdat
 402              		.align	2
 403              		.weak	_ZN14PeriodicThreadD2Ev
 405              	_ZN14PeriodicThreadD2Ev:
 406              	.LFB66:
  70:src/../h/syscall_cpp.hpp **** public:
 407              		.loc 1 70 7 is_stmt 1
 408              		.cfi_startproc
 409              	.LVL27:
 410 0000 130101FF 		addi	sp,sp,-16
 411              		.cfi_def_cfa_offset 16
 412 0004 23341100 		sd	ra,8(sp)
 413 0008 23308100 		sd	s0,0(sp)
 414              		.cfi_offset 1, -8
 415              		.cfi_offset 8, -16
 416 000c 13040101 		addi	s0,sp,16
 417              		.cfi_def_cfa 8, 0
 418              	.LBB13:
  70:src/../h/syscall_cpp.hpp **** public:
 419              		.loc 1 70 7 is_stmt 0
 420 0010 97070000 		lla	a5,_ZTV14PeriodicThread+16
 420      93870700 
 421 0018 2330F500 		sd	a5,0(a0)
 422 001c 97000000 		call	_ZN6ThreadD2Ev
 422      E7800000 
 423              	.LVL28:
 424              	.LBE13:
 425 0024 83308100 		ld	ra,8(sp)
 426              		.cfi_restore 1
 427 0028 03340100 		ld	s0,0(sp)
 428              		.cfi_restore 8
 429              		.cfi_def_cfa 2, 16
 430 002c 13010101 		addi	sp,sp,16
 431              		.cfi_def_cfa_offset 0
 432 0030 67800000 		jr	ra
 433              		.cfi_endproc
 434              	.LFE66:
 436              		.weak	_ZN14PeriodicThreadD1Ev
 437              		.set	_ZN14PeriodicThreadD1Ev,_ZN14PeriodicThreadD2Ev
 438              		.text
 439              		.align	2
 440              		.globl	_ZN6ThreadD0Ev
 442              	_ZN6ThreadD0Ev:
 443              	.LFB37:
  29:src/syscall_cpp.cpp ****     if (myHandle->is_finished())
 444              		.loc 2 29 1 is_stmt 1
 445              		.cfi_startproc
GAS LISTING /tmp/ccJTLzyK.s 			page 13


 446              	.LVL29:
 447 0194 130101FE 		addi	sp,sp,-32
 448              		.cfi_def_cfa_offset 32
 449 0198 233C1100 		sd	ra,24(sp)
 450 019c 23388100 		sd	s0,16(sp)
 451 01a0 23349100 		sd	s1,8(sp)
 452              		.cfi_offset 1, -8
 453              		.cfi_offset 8, -16
 454              		.cfi_offset 9, -24
 455 01a4 13040102 		addi	s0,sp,32
 456              		.cfi_def_cfa 8, 0
 457 01a8 93040500 		mv	s1,a0
  32:src/syscall_cpp.cpp **** 
 458              		.loc 2 32 1 is_stmt 0
 459 01ac 97000000 		call	_ZN6ThreadD1Ev
 459      E7800000 
 460              	.LVL30:
 461 01b4 13850400 		mv	a0,s1
 462 01b8 97000000 		call	_ZdlPv
 462      E7800000 
 463              	.LVL31:
 464 01c0 83308101 		ld	ra,24(sp)
 465              		.cfi_restore 1
 466 01c4 03340101 		ld	s0,16(sp)
 467              		.cfi_restore 8
 468              		.cfi_def_cfa 2, 32
 469 01c8 83348100 		ld	s1,8(sp)
 470              		.cfi_restore 9
 471              	.LVL32:
 472 01cc 13010102 		addi	sp,sp,32
 473              		.cfi_def_cfa_offset 0
 474 01d0 67800000 		jr	ra
 475              		.cfi_endproc
 476              	.LFE37:
 478              		.align	2
 479              		.globl	_ZN9SemaphoreD0Ev
 481              	_ZN9SemaphoreD0Ev:
 482              	.LFB54:
  77:src/syscall_cpp.cpp ****     sem_close(myHandle);
 483              		.loc 2 77 1 is_stmt 1
 484              		.cfi_startproc
 485              	.LVL33:
 486 01d4 130101FE 		addi	sp,sp,-32
 487              		.cfi_def_cfa_offset 32
 488 01d8 233C1100 		sd	ra,24(sp)
 489 01dc 23388100 		sd	s0,16(sp)
 490 01e0 23349100 		sd	s1,8(sp)
 491              		.cfi_offset 1, -8
 492              		.cfi_offset 8, -16
 493              		.cfi_offset 9, -24
 494 01e4 13040102 		addi	s0,sp,32
 495              		.cfi_def_cfa 8, 0
 496 01e8 93040500 		mv	s1,a0
  79:src/syscall_cpp.cpp **** 
 497              		.loc 2 79 1 is_stmt 0
 498 01ec 97000000 		call	_ZN9SemaphoreD1Ev
 498      E7800000 
GAS LISTING /tmp/ccJTLzyK.s 			page 14


 499              	.LVL34:
 500 01f4 13850400 		mv	a0,s1
 501 01f8 97000000 		call	_ZdlPv
 501      E7800000 
 502              	.LVL35:
 503 0200 83308101 		ld	ra,24(sp)
 504              		.cfi_restore 1
 505 0204 03340101 		ld	s0,16(sp)
 506              		.cfi_restore 8
 507              		.cfi_def_cfa 2, 32
 508 0208 83348100 		ld	s1,8(sp)
 509              		.cfi_restore 9
 510              	.LVL36:
 511 020c 13010102 		addi	sp,sp,32
 512              		.cfi_def_cfa_offset 0
 513 0210 67800000 		jr	ra
 514              		.cfi_endproc
 515              	.LFE54:
 517              		.section	.text._ZN14PeriodicThreadD0Ev,"axG",@progbits,_ZN14PeriodicThreadD5Ev,comdat
 518              		.align	2
 519              		.weak	_ZN14PeriodicThreadD0Ev
 521              	_ZN14PeriodicThreadD0Ev:
 522              	.LFB68:
  70:src/../h/syscall_cpp.hpp **** public:
 523              		.loc 1 70 7 is_stmt 1
 524              		.cfi_startproc
 525              	.LVL37:
 526 0000 130101FE 		addi	sp,sp,-32
 527              		.cfi_def_cfa_offset 32
 528 0004 233C1100 		sd	ra,24(sp)
 529 0008 23388100 		sd	s0,16(sp)
 530 000c 23349100 		sd	s1,8(sp)
 531              		.cfi_offset 1, -8
 532              		.cfi_offset 8, -16
 533              		.cfi_offset 9, -24
 534 0010 13040102 		addi	s0,sp,32
 535              		.cfi_def_cfa 8, 0
 536 0014 93040500 		mv	s1,a0
 537              	.LVL38:
 538              	.LBB14:
 539              	.LBB15:
  70:src/../h/syscall_cpp.hpp **** public:
 540              		.loc 1 70 7 is_stmt 0
 541 0018 97070000 		lla	a5,_ZTV14PeriodicThread+16
 541      93870700 
 542 0020 2330F500 		sd	a5,0(a0)
 543 0024 97000000 		call	_ZN6ThreadD2Ev
 543      E7800000 
 544              	.LVL39:
 545              	.LBE15:
 546              	.LBE14:
 547 002c 13850400 		mv	a0,s1
 548 0030 97000000 		call	_ZdlPv
 548      E7800000 
 549              	.LVL40:
 550 0038 83308101 		ld	ra,24(sp)
 551              		.cfi_restore 1
GAS LISTING /tmp/ccJTLzyK.s 			page 15


 552 003c 03340101 		ld	s0,16(sp)
 553              		.cfi_restore 8
 554              		.cfi_def_cfa 2, 32
 555 0040 83348100 		ld	s1,8(sp)
 556              		.cfi_restore 9
 557              	.LVL41:
 558 0044 13010102 		addi	sp,sp,32
 559              		.cfi_def_cfa_offset 0
 560 0048 67800000 		jr	ra
 561              		.cfi_endproc
 562              	.LFE68:
 564              		.text
 565              		.align	2
 566              		.globl	_ZdaPv
 568              	_ZdaPv:
 569              	.LFB30:
  20:src/syscall_cpp.cpp ****     mem_free(mem);
 570              		.loc 2 20 35 is_stmt 1
 571              		.cfi_startproc
 572              	.LVL42:
 573 0214 130101FF 		addi	sp,sp,-16
 574              		.cfi_def_cfa_offset 16
 575 0218 23341100 		sd	ra,8(sp)
 576 021c 23308100 		sd	s0,0(sp)
 577              		.cfi_offset 1, -8
 578              		.cfi_offset 8, -16
 579 0220 13040101 		addi	s0,sp,16
 580              		.cfi_def_cfa 8, 0
  21:src/syscall_cpp.cpp **** }
 581              		.loc 2 21 5
  21:src/syscall_cpp.cpp **** }
 582              		.loc 2 21 13 is_stmt 0
 583 0224 97000000 		call	_Z8mem_freePv@plt
 583      E7800000 
 584              	.LVL43:
  22:src/syscall_cpp.cpp **** 
 585              		.loc 2 22 1
 586 022c 83308100 		ld	ra,8(sp)
 587              		.cfi_restore 1
 588 0230 03340100 		ld	s0,0(sp)
 589              		.cfi_restore 8
 590              		.cfi_def_cfa 2, 16
 591 0234 13010101 		addi	sp,sp,16
 592              		.cfi_def_cfa_offset 0
 593 0238 67800000 		jr	ra
 594              		.cfi_endproc
 595              	.LFE30:
 597              		.align	2
 598              		.globl	_ZN6ThreadC2EPFvPvES0_
 600              	_ZN6ThreadC2EPFvPvES0_:
 601              	.LFB32:
  24:src/syscall_cpp.cpp ****     this->body = body;
 602              		.loc 2 24 1 is_stmt 1
 603              		.cfi_startproc
 604              	.LVL44:
 605 023c 130101FF 		addi	sp,sp,-16
 606              		.cfi_def_cfa_offset 16
GAS LISTING /tmp/ccJTLzyK.s 			page 16


 607 0240 23348100 		sd	s0,8(sp)
 608              		.cfi_offset 8, -8
 609 0244 13040101 		addi	s0,sp,16
 610              		.cfi_def_cfa 8, 0
 611              	.LBB16:
  24:src/syscall_cpp.cpp ****     this->body = body;
 612              		.loc 2 24 47 is_stmt 0
 613 0248 97070000 		lla	a5,_ZTV6Thread+16
 613      93870700 
 614 0250 2330F500 		sd	a5,0(a0)
  25:src/syscall_cpp.cpp ****     this->arg = arg;
 615              		.loc 2 25 5 is_stmt 1
  25:src/syscall_cpp.cpp ****     this->arg = arg;
 616              		.loc 2 25 16 is_stmt 0
 617 0254 2338B500 		sd	a1,16(a0)
  26:src/syscall_cpp.cpp **** }
 618              		.loc 2 26 5 is_stmt 1
  26:src/syscall_cpp.cpp **** }
 619              		.loc 2 26 15 is_stmt 0
 620 0258 233CC500 		sd	a2,24(a0)
 621              	.LBE16:
  27:src/syscall_cpp.cpp **** 
 622              		.loc 2 27 1
 623 025c 03348100 		ld	s0,8(sp)
 624              		.cfi_restore 8
 625              		.cfi_def_cfa 2, 16
 626 0260 13010101 		addi	sp,sp,16
 627              		.cfi_def_cfa_offset 0
 628 0264 67800000 		jr	ra
 629              		.cfi_endproc
 630              	.LFE32:
 632              		.globl	_ZN6ThreadC1EPFvPvES0_
 633              		.set	_ZN6ThreadC1EPFvPvES0_,_ZN6ThreadC2EPFvPvES0_
 634              		.align	2
 635              		.globl	_ZN6Thread5startEv
 637              	_ZN6Thread5startEv:
 638              	.LFB38:
  34:src/syscall_cpp.cpp ****     return thread_create(&myHandle, &threadStart, this);
 639              		.loc 2 34 21 is_stmt 1
 640              		.cfi_startproc
 641              	.LVL45:
 642 0268 130101FF 		addi	sp,sp,-16
 643              		.cfi_def_cfa_offset 16
 644 026c 23341100 		sd	ra,8(sp)
 645 0270 23308100 		sd	s0,0(sp)
 646              		.cfi_offset 1, -8
 647              		.cfi_offset 8, -16
 648 0274 13040101 		addi	s0,sp,16
 649              		.cfi_def_cfa 8, 0
  35:src/syscall_cpp.cpp **** }
 650              		.loc 2 35 5
  35:src/syscall_cpp.cpp **** }
 651              		.loc 2 35 25 is_stmt 0
 652 0278 13060500 		mv	a2,a0
 653 027c 97050000 		lla	a1,_ZN6Thread11threadStartEPv
 653      93850500 
 654 0284 13058500 		addi	a0,a0,8
GAS LISTING /tmp/ccJTLzyK.s 			page 17


 655              	.LVL46:
 656 0288 97000000 		call	_Z13thread_createPP3TCBPFvPvES2_@plt
 656      E7800000 
 657              	.LVL47:
  36:src/syscall_cpp.cpp **** 
 658              		.loc 2 36 1
 659 0290 83308100 		ld	ra,8(sp)
 660              		.cfi_restore 1
 661 0294 03340100 		ld	s0,0(sp)
 662              		.cfi_restore 8
 663              		.cfi_def_cfa 2, 16
 664 0298 13010101 		addi	sp,sp,16
 665              		.cfi_def_cfa_offset 0
 666 029c 67800000 		jr	ra
 667              		.cfi_endproc
 668              	.LFE38:
 670              		.align	2
 671              		.globl	_ZN6Thread4joinEv
 673              	_ZN6Thread4joinEv:
 674              	.LFB39:
  38:src/syscall_cpp.cpp ****     thread_join(myHandle);
 675              		.loc 2 38 21 is_stmt 1
 676              		.cfi_startproc
 677              	.LVL48:
 678 02a0 130101FF 		addi	sp,sp,-16
 679              		.cfi_def_cfa_offset 16
 680 02a4 23341100 		sd	ra,8(sp)
 681 02a8 23308100 		sd	s0,0(sp)
 682              		.cfi_offset 1, -8
 683              		.cfi_offset 8, -16
 684 02ac 13040101 		addi	s0,sp,16
 685              		.cfi_def_cfa 8, 0
  39:src/syscall_cpp.cpp **** }
 686              		.loc 2 39 5
  39:src/syscall_cpp.cpp **** }
 687              		.loc 2 39 16 is_stmt 0
 688 02b0 03358500 		ld	a0,8(a0)
 689              	.LVL49:
 690 02b4 97000000 		call	_Z11thread_joinP3TCB@plt
 690      E7800000 
 691              	.LVL50:
  40:src/syscall_cpp.cpp **** 
 692              		.loc 2 40 1
 693 02bc 83308100 		ld	ra,8(sp)
 694              		.cfi_restore 1
 695 02c0 03340100 		ld	s0,0(sp)
 696              		.cfi_restore 8
 697              		.cfi_def_cfa 2, 16
 698 02c4 13010101 		addi	sp,sp,16
 699              		.cfi_def_cfa_offset 0
 700 02c8 67800000 		jr	ra
 701              		.cfi_endproc
 702              	.LFE39:
 704              		.align	2
 705              		.globl	_ZN6Thread4joinEm
 707              	_ZN6Thread4joinEm:
 708              	.LFB40:
GAS LISTING /tmp/ccJTLzyK.s 			page 18


  42:src/syscall_cpp.cpp ****     thread_join(myHandle, time);
 709              		.loc 2 42 32 is_stmt 1
 710              		.cfi_startproc
 711              	.LVL51:
 712 02cc 130101FF 		addi	sp,sp,-16
 713              		.cfi_def_cfa_offset 16
 714 02d0 23341100 		sd	ra,8(sp)
 715 02d4 23308100 		sd	s0,0(sp)
 716              		.cfi_offset 1, -8
 717              		.cfi_offset 8, -16
 718 02d8 13040101 		addi	s0,sp,16
 719              		.cfi_def_cfa 8, 0
  43:src/syscall_cpp.cpp **** }
 720              		.loc 2 43 5
  43:src/syscall_cpp.cpp **** }
 721              		.loc 2 43 16 is_stmt 0
 722 02dc 03358500 		ld	a0,8(a0)
 723              	.LVL52:
 724 02e0 97000000 		call	_Z11thread_joinP3TCBm@plt
 724      E7800000 
 725              	.LVL53:
  44:src/syscall_cpp.cpp **** 
 726              		.loc 2 44 1
 727 02e8 83308100 		ld	ra,8(sp)
 728              		.cfi_restore 1
 729 02ec 03340100 		ld	s0,0(sp)
 730              		.cfi_restore 8
 731              		.cfi_def_cfa 2, 16
 732 02f0 13010101 		addi	sp,sp,16
 733              		.cfi_def_cfa_offset 0
 734 02f4 67800000 		jr	ra
 735              		.cfi_endproc
 736              	.LFE40:
 738              		.align	2
 739              		.globl	_ZN6Thread4killEPS_
 741              	_ZN6Thread4killEPS_:
 742              	.LFB41:
  46:src/syscall_cpp.cpp ****     return thread_kill(thread->myHandle);
 743              		.loc 2 46 34 is_stmt 1
 744              		.cfi_startproc
 745              	.LVL54:
 746 02f8 130101FF 		addi	sp,sp,-16
 747              		.cfi_def_cfa_offset 16
 748 02fc 23341100 		sd	ra,8(sp)
 749 0300 23308100 		sd	s0,0(sp)
 750              		.cfi_offset 1, -8
 751              		.cfi_offset 8, -16
 752 0304 13040101 		addi	s0,sp,16
 753              		.cfi_def_cfa 8, 0
  47:src/syscall_cpp.cpp **** }
 754              		.loc 2 47 5
  47:src/syscall_cpp.cpp **** }
 755              		.loc 2 47 23 is_stmt 0
 756 0308 03358500 		ld	a0,8(a0)
 757              	.LVL55:
 758 030c 97000000 		call	_Z11thread_killP3TCB@plt
 758      E7800000 
GAS LISTING /tmp/ccJTLzyK.s 			page 19


 759              	.LVL56:
  48:src/syscall_cpp.cpp **** 
 760              		.loc 2 48 1
 761 0314 83308100 		ld	ra,8(sp)
 762              		.cfi_restore 1
 763 0318 03340100 		ld	s0,0(sp)
 764              		.cfi_restore 8
 765              		.cfi_def_cfa 2, 16
 766 031c 13010101 		addi	sp,sp,16
 767              		.cfi_def_cfa_offset 0
 768 0320 67800000 		jr	ra
 769              		.cfi_endproc
 770              	.LFE41:
 772              		.align	2
 773              		.globl	_ZN6Thread8dispatchEv
 775              	_ZN6Thread8dispatchEv:
 776              	.LFB42:
  50:src/syscall_cpp.cpp ****     thread_dispatch();
 777              		.loc 2 50 25 is_stmt 1
 778              		.cfi_startproc
 779 0324 130101FF 		addi	sp,sp,-16
 780              		.cfi_def_cfa_offset 16
 781 0328 23341100 		sd	ra,8(sp)
 782 032c 23308100 		sd	s0,0(sp)
 783              		.cfi_offset 1, -8
 784              		.cfi_offset 8, -16
 785 0330 13040101 		addi	s0,sp,16
 786              		.cfi_def_cfa 8, 0
  51:src/syscall_cpp.cpp **** }
 787              		.loc 2 51 5
  51:src/syscall_cpp.cpp **** }
 788              		.loc 2 51 20 is_stmt 0
 789 0334 97000000 		call	_Z15thread_dispatchv@plt
 789      E7800000 
 790              	.LVL57:
  52:src/syscall_cpp.cpp **** 
 791              		.loc 2 52 1
 792 033c 83308100 		ld	ra,8(sp)
 793              		.cfi_restore 1
 794 0340 03340100 		ld	s0,0(sp)
 795              		.cfi_restore 8
 796              		.cfi_def_cfa 2, 16
 797 0344 13010101 		addi	sp,sp,16
 798              		.cfi_def_cfa_offset 0
 799 0348 67800000 		jr	ra
 800              		.cfi_endproc
 801              	.LFE42:
 803              		.align	2
 804              		.globl	_ZN6Thread5sleepEm
 806              	_ZN6Thread5sleepEm:
 807              	.LFB43:
  54:src/syscall_cpp.cpp ****     return time_sleep(ms);
 808              		.loc 2 54 30 is_stmt 1
 809              		.cfi_startproc
 810              	.LVL58:
 811 034c 130101FF 		addi	sp,sp,-16
 812              		.cfi_def_cfa_offset 16
GAS LISTING /tmp/ccJTLzyK.s 			page 20


 813 0350 23341100 		sd	ra,8(sp)
 814 0354 23308100 		sd	s0,0(sp)
 815              		.cfi_offset 1, -8
 816              		.cfi_offset 8, -16
 817 0358 13040101 		addi	s0,sp,16
 818              		.cfi_def_cfa 8, 0
  55:src/syscall_cpp.cpp **** }
 819              		.loc 2 55 5
  55:src/syscall_cpp.cpp **** }
 820              		.loc 2 55 22 is_stmt 0
 821 035c 97000000 		call	_Z10time_sleepm@plt
 821      E7800000 
 822              	.LVL59:
  56:src/syscall_cpp.cpp **** 
 823              		.loc 2 56 1
 824 0364 83308100 		ld	ra,8(sp)
 825              		.cfi_restore 1
 826 0368 03340100 		ld	s0,0(sp)
 827              		.cfi_restore 8
 828              		.cfi_def_cfa 2, 16
 829 036c 13010101 		addi	sp,sp,16
 830              		.cfi_def_cfa_offset 0
 831 0370 67800000 		jr	ra
 832              		.cfi_endproc
 833              	.LFE43:
 835              		.align	2
 836              		.globl	_ZN14PeriodicThread3runEv
 838              	_ZN14PeriodicThread3runEv:
 839              	.LFB62:
  88:src/syscall_cpp.cpp **** 
  89:src/syscall_cpp.cpp **** int Semaphore::signal_and_wait(Semaphore &sem1, Semaphore &sem2) {
  90:src/syscall_cpp.cpp ****     return ::signal_and_wait(sem1.myHandle, sem2.myHandle);
  91:src/syscall_cpp.cpp **** }
  92:src/syscall_cpp.cpp **** 
  93:src/syscall_cpp.cpp **** void PeriodicThread::terminate() {
  94:src/syscall_cpp.cpp ****     Thread::kill(this);
  95:src/syscall_cpp.cpp **** }
  96:src/syscall_cpp.cpp **** 
  97:src/syscall_cpp.cpp **** PeriodicThread::PeriodicThread(time_t period) {
  98:src/syscall_cpp.cpp ****     this->period = period;
  99:src/syscall_cpp.cpp **** }
 100:src/syscall_cpp.cpp **** 
 101:src/syscall_cpp.cpp **** void PeriodicThread::run() {
 840              		.loc 2 101 28 is_stmt 1
 841              		.cfi_startproc
 842              	.LVL60:
 843 0374 130101FE 		addi	sp,sp,-32
 844              		.cfi_def_cfa_offset 32
 845 0378 233C1100 		sd	ra,24(sp)
 846 037c 23388100 		sd	s0,16(sp)
 847 0380 23349100 		sd	s1,8(sp)
 848              		.cfi_offset 1, -8
 849              		.cfi_offset 8, -16
 850              		.cfi_offset 9, -24
 851 0384 13040102 		addi	s0,sp,32
 852              		.cfi_def_cfa 8, 0
 853 0388 93040500 		mv	s1,a0
GAS LISTING /tmp/ccJTLzyK.s 			page 21


 854              	.LVL61:
 855              	.L53:
 102:src/syscall_cpp.cpp ****     while (true) {
 856              		.loc 2 102 5 discriminator 1
 103:src/syscall_cpp.cpp ****         Thread::sleep(period);
 857              		.loc 2 103 9 discriminator 1
 858              		.loc 2 103 22 is_stmt 0 discriminator 1
 859 038c 03B50402 		ld	a0,32(s1)
 860 0390 97000000 		call	_ZN6Thread5sleepEm
 860      E7800000 
 861              	.LVL62:
 104:src/syscall_cpp.cpp ****         this->periodicActivation();
 862              		.loc 2 104 9 is_stmt 1 discriminator 1
 863              		.loc 2 104 34 is_stmt 0 discriminator 1
 864 0398 83B70400 		ld	a5,0(s1)
 865 039c 83B78701 		ld	a5,24(a5)
 866              		.loc 2 104 33 discriminator 1
 867 03a0 13850400 		mv	a0,s1
 868 03a4 E7800700 		jalr	a5
 869              	.LVL63:
 102:src/syscall_cpp.cpp ****     while (true) {
 870              		.loc 2 102 5 is_stmt 1 discriminator 1
 871 03a8 6FF05FFE 		j	.L53
 872              		.cfi_endproc
 873              	.LFE62:
 875              		.align	2
 876              		.globl	_ZN6ThreadC2Ev
 878              	_ZN6ThreadC2Ev:
 879              	.LFB45:
  58:src/syscall_cpp.cpp ****     this->body = nullptr;
 880              		.loc 2 58 1
 881              		.cfi_startproc
 882              	.LVL64:
 883 03ac 130101FF 		addi	sp,sp,-16
 884              		.cfi_def_cfa_offset 16
 885 03b0 23348100 		sd	s0,8(sp)
 886              		.cfi_offset 8, -8
 887 03b4 13040101 		addi	s0,sp,16
 888              		.cfi_def_cfa 8, 0
 889              	.LBB17:
  58:src/syscall_cpp.cpp ****     this->body = nullptr;
 890              		.loc 2 58 16 is_stmt 0
 891 03b8 97070000 		lla	a5,_ZTV6Thread+16
 891      93870700 
 892 03c0 2330F500 		sd	a5,0(a0)
  59:src/syscall_cpp.cpp ****     this->arg = nullptr;
 893              		.loc 2 59 5 is_stmt 1
  59:src/syscall_cpp.cpp ****     this->arg = nullptr;
 894              		.loc 2 59 16 is_stmt 0
 895 03c4 23380500 		sd	zero,16(a0)
  60:src/syscall_cpp.cpp **** }
 896              		.loc 2 60 5 is_stmt 1
  60:src/syscall_cpp.cpp **** }
 897              		.loc 2 60 15 is_stmt 0
 898 03c8 233C0500 		sd	zero,24(a0)
 899              	.LBE17:
  61:src/syscall_cpp.cpp **** 
GAS LISTING /tmp/ccJTLzyK.s 			page 22


 900              		.loc 2 61 1
 901 03cc 03348100 		ld	s0,8(sp)
 902              		.cfi_restore 8
 903              		.cfi_def_cfa 2, 16
 904 03d0 13010101 		addi	sp,sp,16
 905              		.cfi_def_cfa_offset 0
 906 03d4 67800000 		jr	ra
 907              		.cfi_endproc
 908              	.LFE45:
 910              		.globl	_ZN6ThreadC1Ev
 911              		.set	_ZN6ThreadC1Ev,_ZN6ThreadC2Ev
 912              		.align	2
 913              		.globl	_ZN9SemaphoreC2Ej
 915              	_ZN9SemaphoreC2Ej:
 916              	.LFB49:
  73:src/syscall_cpp.cpp ****     sem_open(&myHandle, init);
 917              		.loc 2 73 1 is_stmt 1
 918              		.cfi_startproc
 919              	.LVL65:
 920 03d8 130101FF 		addi	sp,sp,-16
 921              		.cfi_def_cfa_offset 16
 922 03dc 23341100 		sd	ra,8(sp)
 923 03e0 23308100 		sd	s0,0(sp)
 924              		.cfi_offset 1, -8
 925              		.cfi_offset 8, -16
 926 03e4 13040101 		addi	s0,sp,16
 927              		.cfi_def_cfa 8, 0
 928              	.LBB18:
  73:src/syscall_cpp.cpp ****     sem_open(&myHandle, init);
 929              		.loc 2 73 39 is_stmt 0
 930 03e8 97070000 		lla	a5,_ZTV9Semaphore+16
 930      93870700 
 931 03f0 2330F500 		sd	a5,0(a0)
  74:src/syscall_cpp.cpp **** }
 932              		.loc 2 74 5 is_stmt 1
  74:src/syscall_cpp.cpp **** }
 933              		.loc 2 74 13 is_stmt 0
 934 03f4 13058500 		addi	a0,a0,8
 935              	.LVL66:
 936 03f8 97000000 		call	_Z8sem_openPP3Semj@plt
 936      E7800000 
 937              	.LVL67:
 938              	.LBE18:
  75:src/syscall_cpp.cpp **** 
 939              		.loc 2 75 1
 940 0400 83308100 		ld	ra,8(sp)
 941              		.cfi_restore 1
 942 0404 03340100 		ld	s0,0(sp)
 943              		.cfi_restore 8
 944              		.cfi_def_cfa 2, 16
 945 0408 13010101 		addi	sp,sp,16
 946              		.cfi_def_cfa_offset 0
 947 040c 67800000 		jr	ra
 948              		.cfi_endproc
 949              	.LFE49:
 951              		.globl	_ZN9SemaphoreC1Ej
 952              		.set	_ZN9SemaphoreC1Ej,_ZN9SemaphoreC2Ej
GAS LISTING /tmp/ccJTLzyK.s 			page 23


 953              		.align	2
 954              		.globl	_ZN9Semaphore15signal_and_waitERS_S0_
 956              	_ZN9Semaphore15signal_and_waitERS_S0_:
 957              	.LFB57:
  89:src/syscall_cpp.cpp ****     return ::signal_and_wait(sem1.myHandle, sem2.myHandle);
 958              		.loc 2 89 66 is_stmt 1
 959              		.cfi_startproc
 960              	.LVL68:
 961 0410 130101FF 		addi	sp,sp,-16
 962              		.cfi_def_cfa_offset 16
 963 0414 23341100 		sd	ra,8(sp)
 964 0418 23308100 		sd	s0,0(sp)
 965              		.cfi_offset 1, -8
 966              		.cfi_offset 8, -16
 967 041c 13040101 		addi	s0,sp,16
 968              		.cfi_def_cfa 8, 0
  90:src/syscall_cpp.cpp **** }
 969              		.loc 2 90 5
  90:src/syscall_cpp.cpp **** }
 970              		.loc 2 90 29 is_stmt 0
 971 0420 83B58500 		ld	a1,8(a1)
 972              	.LVL69:
 973 0424 03358500 		ld	a0,8(a0)
 974              	.LVL70:
 975 0428 97000000 		call	_Z15signal_and_waitP3SemS0_@plt
 975      E7800000 
 976              	.LVL71:
  91:src/syscall_cpp.cpp **** 
 977              		.loc 2 91 1
 978 0430 83308100 		ld	ra,8(sp)
 979              		.cfi_restore 1
 980 0434 03340100 		ld	s0,0(sp)
 981              		.cfi_restore 8
 982              		.cfi_def_cfa 2, 16
 983 0438 13010101 		addi	sp,sp,16
 984              		.cfi_def_cfa_offset 0
 985 043c 67800000 		jr	ra
 986              		.cfi_endproc
 987              	.LFE57:
 989              		.align	2
 990              		.globl	_ZN14PeriodicThread9terminateEv
 992              	_ZN14PeriodicThread9terminateEv:
 993              	.LFB58:
  93:src/syscall_cpp.cpp ****     Thread::kill(this);
 994              		.loc 2 93 34 is_stmt 1
 995              		.cfi_startproc
 996              	.LVL72:
 997 0440 130101FF 		addi	sp,sp,-16
 998              		.cfi_def_cfa_offset 16
 999 0444 23341100 		sd	ra,8(sp)
 1000 0448 23308100 		sd	s0,0(sp)
 1001              		.cfi_offset 1, -8
 1002              		.cfi_offset 8, -16
 1003 044c 13040101 		addi	s0,sp,16
 1004              		.cfi_def_cfa 8, 0
  94:src/syscall_cpp.cpp **** }
 1005              		.loc 2 94 5
GAS LISTING /tmp/ccJTLzyK.s 			page 24


  94:src/syscall_cpp.cpp **** }
 1006              		.loc 2 94 17 is_stmt 0
 1007 0450 97000000 		call	_ZN6Thread4killEPS_
 1007      E7800000 
 1008              	.LVL73:
  95:src/syscall_cpp.cpp **** 
 1009              		.loc 2 95 1
 1010 0458 83308100 		ld	ra,8(sp)
 1011              		.cfi_restore 1
 1012 045c 03340100 		ld	s0,0(sp)
 1013              		.cfi_restore 8
 1014              		.cfi_def_cfa 2, 16
 1015 0460 13010101 		addi	sp,sp,16
 1016              		.cfi_def_cfa_offset 0
 1017 0464 67800000 		jr	ra
 1018              		.cfi_endproc
 1019              	.LFE58:
 1021              		.align	2
 1022              		.globl	_ZN14PeriodicThreadC2Em
 1024              	_ZN14PeriodicThreadC2Em:
 1025              	.LFB60:
  97:src/syscall_cpp.cpp ****     this->period = period;
 1026              		.loc 2 97 1 is_stmt 1
 1027              		.cfi_startproc
 1028              	.LVL74:
 1029 0468 130101FE 		addi	sp,sp,-32
 1030              		.cfi_def_cfa_offset 32
 1031 046c 233C1100 		sd	ra,24(sp)
 1032 0470 23388100 		sd	s0,16(sp)
 1033 0474 23349100 		sd	s1,8(sp)
 1034 0478 23302101 		sd	s2,0(sp)
 1035              		.cfi_offset 1, -8
 1036              		.cfi_offset 8, -16
 1037              		.cfi_offset 9, -24
 1038              		.cfi_offset 18, -32
 1039 047c 13040102 		addi	s0,sp,32
 1040              		.cfi_def_cfa 8, 0
 1041 0480 93040500 		mv	s1,a0
 1042 0484 13890500 		mv	s2,a1
 1043              	.LBB19:
  97:src/syscall_cpp.cpp ****     this->period = period;
 1044              		.loc 2 97 45 is_stmt 0
 1045 0488 97000000 		call	_ZN6ThreadC2Ev
 1045      E7800000 
 1046              	.LVL75:
 1047 0490 97070000 		lla	a5,_ZTV14PeriodicThread+16
 1047      93870700 
 1048 0498 23B0F400 		sd	a5,0(s1)
  98:src/syscall_cpp.cpp **** }
 1049              		.loc 2 98 5 is_stmt 1
  98:src/syscall_cpp.cpp **** }
 1050              		.loc 2 98 18 is_stmt 0
 1051 049c 23B02403 		sd	s2,32(s1)
 1052              	.LBE19:
  99:src/syscall_cpp.cpp **** 
 1053              		.loc 2 99 1
 1054 04a0 83308101 		ld	ra,24(sp)
GAS LISTING /tmp/ccJTLzyK.s 			page 25


 1055              		.cfi_restore 1
 1056 04a4 03340101 		ld	s0,16(sp)
 1057              		.cfi_restore 8
 1058              		.cfi_def_cfa 2, 32
 1059 04a8 83348100 		ld	s1,8(sp)
 1060              		.cfi_restore 9
 1061              	.LVL76:
 1062 04ac 03390100 		ld	s2,0(sp)
 1063              		.cfi_restore 18
 1064              	.LVL77:
 1065 04b0 13010102 		addi	sp,sp,32
 1066              		.cfi_def_cfa_offset 0
 1067 04b4 67800000 		jr	ra
 1068              		.cfi_endproc
 1069              	.LFE60:
 1071              		.globl	_ZN14PeriodicThreadC1Em
 1072              		.set	_ZN14PeriodicThreadC1Em,_ZN14PeriodicThreadC2Em
 1073              		.align	2
 1074              		.globl	_ZN7Console4getcEv
 1076              	_ZN7Console4getcEv:
 1077              	.LFB63:
 105:src/syscall_cpp.cpp ****     }
 106:src/syscall_cpp.cpp **** }
 107:src/syscall_cpp.cpp **** 
 108:src/syscall_cpp.cpp **** char Console::getc() {
 1078              		.loc 2 108 22 is_stmt 1
 1079              		.cfi_startproc
 1080 04b8 130101FF 		addi	sp,sp,-16
 1081              		.cfi_def_cfa_offset 16
 1082 04bc 23341100 		sd	ra,8(sp)
 1083 04c0 23308100 		sd	s0,0(sp)
 1084              		.cfi_offset 1, -8
 1085              		.cfi_offset 8, -16
 1086 04c4 13040101 		addi	s0,sp,16
 1087              		.cfi_def_cfa 8, 0
 109:src/syscall_cpp.cpp ****     return getc();
 1088              		.loc 2 109 5
 1089              		.loc 2 109 16 is_stmt 0
 1090 04c8 97000000 		call	_ZN7Console4getcEv
 1090      E7800000 
 1091              	.LVL78:
 110:src/syscall_cpp.cpp **** }
 1092              		.loc 2 110 1
 1093 04d0 83308100 		ld	ra,8(sp)
 1094              		.cfi_restore 1
 1095 04d4 03340100 		ld	s0,0(sp)
 1096              		.cfi_restore 8
 1097              		.cfi_def_cfa 2, 16
 1098 04d8 13010101 		addi	sp,sp,16
 1099              		.cfi_def_cfa_offset 0
 1100 04dc 67800000 		jr	ra
 1101              		.cfi_endproc
 1102              	.LFE63:
 1104              		.align	2
 1105              		.globl	_ZN7Console4putcEc
 1107              	_ZN7Console4putcEc:
 1108              	.LFB64:
GAS LISTING /tmp/ccJTLzyK.s 			page 26


 111:src/syscall_cpp.cpp **** 
 112:src/syscall_cpp.cpp **** void Console::putc(char c) {
 1109              		.loc 2 112 28 is_stmt 1
 1110              		.cfi_startproc
 1111              	.LVL79:
 1112 04e0 130101FF 		addi	sp,sp,-16
 1113              		.cfi_def_cfa_offset 16
 1114 04e4 23341100 		sd	ra,8(sp)
 1115 04e8 23308100 		sd	s0,0(sp)
 1116              		.cfi_offset 1, -8
 1117              		.cfi_offset 8, -16
 1118 04ec 13040101 		addi	s0,sp,16
 1119              		.cfi_def_cfa 8, 0
 113:src/syscall_cpp.cpp ****     putc(c);
 1120              		.loc 2 113 5
 1121              		.loc 2 113 9 is_stmt 0
 1122 04f0 97000000 		call	_ZN7Console4putcEc
 1122      E7800000 
 1123              	.LVL80:
 114:src/syscall_cpp.cpp **** }...
 1124              		.loc 2 114 1
 1125 04f8 83308100 		ld	ra,8(sp)
 1126              		.cfi_restore 1
 1127 04fc 03340100 		ld	s0,0(sp)
 1128              		.cfi_restore 8
 1129              		.cfi_def_cfa 2, 16
 1130 0500 13010101 		addi	sp,sp,16
 1131              		.cfi_def_cfa_offset 0
 1132 0504 67800000 		jr	ra
 1133              		.cfi_endproc
 1134              	.LFE64:
 1136              		.weak	_ZTV6Thread
 1137              		.section	.data.rel.ro.local._ZTV6Thread,"awG",@progbits,_ZTV6Thread,comdat
 1138              		.align	3
 1141              	_ZTV6Thread:
 1142 0000 00000000 		.dword	0
 1142      00000000 
 1143 0008 00000000 		.dword	0
 1143      00000000 
 1144 0010 00000000 		.dword	_ZN6ThreadD1Ev
 1144      00000000 
 1145 0018 00000000 		.dword	_ZN6ThreadD0Ev
 1145      00000000 
 1146 0020 00000000 		.dword	_ZN6Thread3runEv
 1146      00000000 
 1147              		.weak	_ZTV9Semaphore
 1148              		.section	.data.rel.ro.local._ZTV9Semaphore,"awG",@progbits,_ZTV9Semaphore,comdat
 1149              		.align	3
 1152              	_ZTV9Semaphore:
 1153 0000 00000000 		.dword	0
 1153      00000000 
 1154 0008 00000000 		.dword	0
 1154      00000000 
 1155 0010 00000000 		.dword	_ZN9SemaphoreD1Ev
 1155      00000000 
 1156 0018 00000000 		.dword	_ZN9SemaphoreD0Ev
 1156      00000000 
GAS LISTING /tmp/ccJTLzyK.s 			page 27


 1157 0020 00000000 		.dword	_ZN9Semaphore4waitEv
 1157      00000000 
 1158 0028 00000000 		.dword	_ZN9Semaphore6signalEv
 1158      00000000 
 1159              		.weak	_ZTV14PeriodicThread
 1160              		.section	.data.rel.ro.local._ZTV14PeriodicThread,"awG",@progbits,_ZTV14PeriodicThread,comdat
 1161              		.align	3
 1164              	_ZTV14PeriodicThread:
 1165 0000 00000000 		.dword	0
 1165      00000000 
 1166 0008 00000000 		.dword	0
 1166      00000000 
 1167 0010 00000000 		.dword	_ZN14PeriodicThreadD1Ev
 1167      00000000 
 1168 0018 00000000 		.dword	_ZN14PeriodicThreadD0Ev
 1168      00000000 
 1169 0020 00000000 		.dword	_ZN14PeriodicThread3runEv
 1169      00000000 
 1170 0028 00000000 		.dword	_ZN14PeriodicThread18periodicActivationEv
 1170      00000000 
 1171              		.text
 1172              	.Letext0:
 1173              		.file 4 "src/../h/../lib/hw.h"
 1174              		.file 5 "src/../h/syscall_c.hpp"
 1175              		.file 6 "src/../h/circular_buffer.hpp"
 5760              		.align	3
 5763              	DW.ref.__gxx_personality_v0:
 5764 0000 00000000 		.dword	__gxx_personality_v0
 5764      00000000 
 5765              		.ident	"GCC: (Ubuntu 9.4.0-1ubuntu1~20.04) 9.4.0"
 5766              		.section	.note.GNU-stack,"",@progbits
GAS LISTING /tmp/ccJTLzyK.s 			page 28


DEFINED SYMBOLS
                            *ABS*:0000000000000000 syscall_cpp.cpp
     /tmp/ccJTLzyK.s:10     .text._ZN6Thread3runEv:0000000000000000 _ZN6Thread3runEv
     /tmp/ccJTLzyK.s:14     .text._ZN6Thread3runEv:0000000000000000 .L0 
     /tmp/ccJTLzyK.s:16     .text._ZN6Thread3runEv:0000000000000000 .L0 
     /tmp/ccJTLzyK.s:17     .text._ZN6Thread3runEv:0000000000000004 .L0 
     /tmp/ccJTLzyK.s:19     .text._ZN6Thread3runEv:0000000000000008 .L0 
     /tmp/ccJTLzyK.s:21     .text._ZN6Thread3runEv:000000000000000c .L0 
     /tmp/ccJTLzyK.s:23     .text._ZN6Thread3runEv:000000000000000c .L0 
     /tmp/ccJTLzyK.s:24     .text._ZN6Thread3runEv:0000000000000010 .L0 
     /tmp/ccJTLzyK.s:25     .text._ZN6Thread3runEv:0000000000000010 .L0 
     /tmp/ccJTLzyK.s:27     .text._ZN6Thread3runEv:0000000000000014 .L0 
     /tmp/ccJTLzyK.s:29     .text._ZN6Thread3runEv:0000000000000018 .L0 
     /tmp/ccJTLzyK.s:36     .text._ZN14PeriodicThread18periodicActivationEv:0000000000000000 _ZN14PeriodicThread18periodicActivationEv
     /tmp/ccJTLzyK.s:39     .text._ZN14PeriodicThread18periodicActivationEv:0000000000000000 .L0 
     /tmp/ccJTLzyK.s:41     .text._ZN14PeriodicThread18periodicActivationEv:0000000000000000 .L0 
     /tmp/ccJTLzyK.s:42     .text._ZN14PeriodicThread18periodicActivationEv:0000000000000004 .L0 
     /tmp/ccJTLzyK.s:44     .text._ZN14PeriodicThread18periodicActivationEv:0000000000000008 .L0 
     /tmp/ccJTLzyK.s:46     .text._ZN14PeriodicThread18periodicActivationEv:000000000000000c .L0 
     /tmp/ccJTLzyK.s:48     .text._ZN14PeriodicThread18periodicActivationEv:000000000000000c .L0 
     /tmp/ccJTLzyK.s:49     .text._ZN14PeriodicThread18periodicActivationEv:0000000000000010 .L0 
     /tmp/ccJTLzyK.s:50     .text._ZN14PeriodicThread18periodicActivationEv:0000000000000010 .L0 
     /tmp/ccJTLzyK.s:52     .text._ZN14PeriodicThread18periodicActivationEv:0000000000000014 .L0 
     /tmp/ccJTLzyK.s:54     .text._ZN14PeriodicThread18periodicActivationEv:0000000000000018 .L0 
     /tmp/ccJTLzyK.s:61     .text:0000000000000000 _ZN6Thread11threadStartEPv
     /tmp/ccJTLzyK.s:65     .text:0000000000000000 .L0 
     /tmp/ccJTLzyK.s:67     .text:0000000000000000 .L0 
     /tmp/ccJTLzyK.s:68     .text:0000000000000004 .L0 
     /tmp/ccJTLzyK.s:71     .text:000000000000000c .L0 
     /tmp/ccJTLzyK.s:72     .text:000000000000000c .L0 
     /tmp/ccJTLzyK.s:74     .text:0000000000000010 .L0 
     /tmp/ccJTLzyK.s:77     .text:0000000000000010 .L0 
     /tmp/ccJTLzyK.s:78     .text:0000000000000010 .L0 
     /tmp/ccJTLzyK.s:79     .text:0000000000000010 .L0 
     /tmp/ccJTLzyK.s:81     .text:0000000000000014 .L0 
     /tmp/ccJTLzyK.s:83     .text:0000000000000018 .L0 
     /tmp/ccJTLzyK.s:84     .text:0000000000000018 .L0 
     /tmp/ccJTLzyK.s:90     .text:0000000000000020 .L0 
     /tmp/ccJTLzyK.s:91     .text:0000000000000024 .L0 
     /tmp/ccJTLzyK.s:92     .text:0000000000000024 .L0 
     /tmp/ccJTLzyK.s:94     .text:0000000000000028 .L0 
     /tmp/ccJTLzyK.s:95     .text:0000000000000028 .L0 
     /tmp/ccJTLzyK.s:97     .text:000000000000002c .L0 
     /tmp/ccJTLzyK.s:101    .text:0000000000000030 .L0 
     /tmp/ccJTLzyK.s:103    .text:0000000000000030 .L0 
     /tmp/ccJTLzyK.s:104    .text:0000000000000030 .L0 
     /tmp/ccJTLzyK.s:107    .text:0000000000000038 .L0 
     /tmp/ccJTLzyK.s:110    .text:000000000000003c .L0 
     /tmp/ccJTLzyK.s:111    .text:0000000000000040 .L0 
     /tmp/ccJTLzyK.s:117    .text:0000000000000040 _ZN9SemaphoreD2Ev
     /tmp/ccJTLzyK.s:120    .text:0000000000000040 .L0 
     /tmp/ccJTLzyK.s:5763   .data.rel.local.DW.ref.__gxx_personality_v0:0000000000000000 DW.ref.__gxx_personality_v0
     /tmp/ccJTLzyK.s:124    .text:0000000000000040 .L0 
     /tmp/ccJTLzyK.s:125    .text:0000000000000044 .L0 
     /tmp/ccJTLzyK.s:128    .text:000000000000004c .L0 
     /tmp/ccJTLzyK.s:129    .text:000000000000004c .L0 
     /tmp/ccJTLzyK.s:131    .text:0000000000000050 .L0 
GAS LISTING /tmp/ccJTLzyK.s 			page 29


     /tmp/ccJTLzyK.s:1152   .data.rel.ro.local._ZTV9Semaphore:0000000000000000 _ZTV9Semaphore
     /tmp/ccJTLzyK.s:134    .text:0000000000000050 .L0 
     /tmp/ccJTLzyK.s:137    .text:000000000000005c .L0 
     /tmp/ccJTLzyK.s:138    .text:000000000000005c .L0 
     /tmp/ccJTLzyK.s:144    .text:0000000000000068 .L0 
     /tmp/ccJTLzyK.s:145    .text:000000000000006c .L0 
     /tmp/ccJTLzyK.s:147    .text:0000000000000070 .L0 
     /tmp/ccJTLzyK.s:148    .text:0000000000000070 .L0 
     /tmp/ccJTLzyK.s:150    .text:0000000000000074 .L0 
     /tmp/ccJTLzyK.s:152    .text:0000000000000078 .L0 
     /tmp/ccJTLzyK.s:117    .text:0000000000000040 _ZN9SemaphoreD1Ev
     /tmp/ccJTLzyK.s:168    .text:0000000000000078 _ZN9Semaphore4waitEv
     /tmp/ccJTLzyK.s:171    .text:0000000000000078 .L0 
     /tmp/ccJTLzyK.s:173    .text:0000000000000078 .L0 
     /tmp/ccJTLzyK.s:174    .text:000000000000007c .L0 
     /tmp/ccJTLzyK.s:177    .text:0000000000000084 .L0 
     /tmp/ccJTLzyK.s:178    .text:0000000000000084 .L0 
     /tmp/ccJTLzyK.s:180    .text:0000000000000088 .L0 
     /tmp/ccJTLzyK.s:182    .text:0000000000000088 .L0 
     /tmp/ccJTLzyK.s:183    .text:0000000000000088 .L0 
     /tmp/ccJTLzyK.s:188    .text:0000000000000094 .L0 
     /tmp/ccJTLzyK.s:189    .text:0000000000000098 .L0 
     /tmp/ccJTLzyK.s:191    .text:000000000000009c .L0 
     /tmp/ccJTLzyK.s:192    .text:000000000000009c .L0 
     /tmp/ccJTLzyK.s:194    .text:00000000000000a0 .L0 
     /tmp/ccJTLzyK.s:196    .text:00000000000000a4 .L0 
     /tmp/ccJTLzyK.s:202    .text:00000000000000a4 _ZN9Semaphore6signalEv
     /tmp/ccJTLzyK.s:205    .text:00000000000000a4 .L0 
     /tmp/ccJTLzyK.s:207    .text:00000000000000a4 .L0 
     /tmp/ccJTLzyK.s:208    .text:00000000000000a8 .L0 
     /tmp/ccJTLzyK.s:211    .text:00000000000000b0 .L0 
     /tmp/ccJTLzyK.s:212    .text:00000000000000b0 .L0 
     /tmp/ccJTLzyK.s:214    .text:00000000000000b4 .L0 
     /tmp/ccJTLzyK.s:216    .text:00000000000000b4 .L0 
     /tmp/ccJTLzyK.s:217    .text:00000000000000b4 .L0 
     /tmp/ccJTLzyK.s:222    .text:00000000000000c0 .L0 
     /tmp/ccJTLzyK.s:223    .text:00000000000000c4 .L0 
     /tmp/ccJTLzyK.s:225    .text:00000000000000c8 .L0 
     /tmp/ccJTLzyK.s:226    .text:00000000000000c8 .L0 
     /tmp/ccJTLzyK.s:228    .text:00000000000000cc .L0 
     /tmp/ccJTLzyK.s:230    .text:00000000000000d0 .L0 
     /tmp/ccJTLzyK.s:236    .text:00000000000000d0 _Znwm
     /tmp/ccJTLzyK.s:239    .text:00000000000000d0 .L0 
     /tmp/ccJTLzyK.s:241    .text:00000000000000d0 .L0 
     /tmp/ccJTLzyK.s:242    .text:00000000000000d4 .L0 
     /tmp/ccJTLzyK.s:245    .text:00000000000000dc .L0 
     /tmp/ccJTLzyK.s:246    .text:00000000000000dc .L0 
     /tmp/ccJTLzyK.s:248    .text:00000000000000e0 .L0 
     /tmp/ccJTLzyK.s:250    .text:00000000000000e0 .L0 
     /tmp/ccJTLzyK.s:251    .text:00000000000000e0 .L0 
     /tmp/ccJTLzyK.s:254    .text:00000000000000e8 .L0 
     /tmp/ccJTLzyK.s:255    .text:00000000000000ec .L0 
     /tmp/ccJTLzyK.s:257    .text:00000000000000f0 .L0 
     /tmp/ccJTLzyK.s:258    .text:00000000000000f0 .L0 
     /tmp/ccJTLzyK.s:260    .text:00000000000000f4 .L0 
     /tmp/ccJTLzyK.s:262    .text:00000000000000f8 .L0 
     /tmp/ccJTLzyK.s:268    .text:00000000000000f8 _Znam
GAS LISTING /tmp/ccJTLzyK.s 			page 30


     /tmp/ccJTLzyK.s:271    .text:00000000000000f8 .L0 
     /tmp/ccJTLzyK.s:273    .text:00000000000000f8 .L0 
     /tmp/ccJTLzyK.s:274    .text:00000000000000fc .L0 
     /tmp/ccJTLzyK.s:277    .text:0000000000000104 .L0 
     /tmp/ccJTLzyK.s:278    .text:0000000000000104 .L0 
     /tmp/ccJTLzyK.s:280    .text:0000000000000108 .L0 
     /tmp/ccJTLzyK.s:282    .text:0000000000000108 .L0 
     /tmp/ccJTLzyK.s:283    .text:0000000000000108 .L0 
     /tmp/ccJTLzyK.s:286    .text:0000000000000110 .L0 
     /tmp/ccJTLzyK.s:287    .text:0000000000000114 .L0 
     /tmp/ccJTLzyK.s:289    .text:0000000000000118 .L0 
     /tmp/ccJTLzyK.s:290    .text:0000000000000118 .L0 
     /tmp/ccJTLzyK.s:292    .text:000000000000011c .L0 
     /tmp/ccJTLzyK.s:294    .text:0000000000000120 .L0 
     /tmp/ccJTLzyK.s:300    .text:0000000000000120 _ZdlPv
     /tmp/ccJTLzyK.s:303    .text:0000000000000120 .L0 
     /tmp/ccJTLzyK.s:305    .text:0000000000000120 .L0 
     /tmp/ccJTLzyK.s:306    .text:0000000000000124 .L0 
     /tmp/ccJTLzyK.s:309    .text:000000000000012c .L0 
     /tmp/ccJTLzyK.s:310    .text:000000000000012c .L0 
     /tmp/ccJTLzyK.s:312    .text:0000000000000130 .L0 
     /tmp/ccJTLzyK.s:314    .text:0000000000000130 .L0 
     /tmp/ccJTLzyK.s:315    .text:0000000000000130 .L0 
     /tmp/ccJTLzyK.s:318    .text:0000000000000138 .L0 
     /tmp/ccJTLzyK.s:319    .text:000000000000013c .L0 
     /tmp/ccJTLzyK.s:321    .text:0000000000000140 .L0 
     /tmp/ccJTLzyK.s:322    .text:0000000000000140 .L0 
     /tmp/ccJTLzyK.s:324    .text:0000000000000144 .L0 
     /tmp/ccJTLzyK.s:326    .text:0000000000000148 .L0 
     /tmp/ccJTLzyK.s:332    .text:0000000000000148 _ZN6ThreadD2Ev
     /tmp/ccJTLzyK.s:335    .text:0000000000000148 .L0 
     /tmp/ccJTLzyK.s:340    .text:0000000000000148 .L0 
     /tmp/ccJTLzyK.s:1141   .data.rel.ro.local._ZTV6Thread:0000000000000000 _ZTV6Thread
     /tmp/ccJTLzyK.s:341    .text:0000000000000148 .L0 
     /tmp/ccJTLzyK.s:344    .text:0000000000000154 .L0 
     /tmp/ccJTLzyK.s:345    .text:0000000000000154 .L0 
     /tmp/ccJTLzyK.s:351    .text:0000000000000158 .L0 
     /tmp/ccJTLzyK.s:352    .text:0000000000000158 .L0 
     /tmp/ccJTLzyK.s:357    .text:000000000000015c .L0 
     /tmp/ccJTLzyK.s:363    .text:0000000000000168 .L0 
     /tmp/ccJTLzyK.s:364    .text:0000000000000168 .L0 
     /tmp/ccJTLzyK.s:367    .text:000000000000016c .L0 
     /tmp/ccJTLzyK.s:368    .text:0000000000000170 .L0 
     /tmp/ccJTLzyK.s:371    .text:0000000000000178 .L0 
     /tmp/ccJTLzyK.s:372    .text:0000000000000178 .L0 
     /tmp/ccJTLzyK.s:374    .text:000000000000017c .L0 
     /tmp/ccJTLzyK.s:377    .text:000000000000017c .L0 
     /tmp/ccJTLzyK.s:381    .text:0000000000000184 .L0 
     /tmp/ccJTLzyK.s:382    .text:0000000000000188 .L0 
     /tmp/ccJTLzyK.s:384    .text:000000000000018c .L0 
     /tmp/ccJTLzyK.s:385    .text:000000000000018c .L0 
     /tmp/ccJTLzyK.s:387    .text:0000000000000190 .L0 
     /tmp/ccJTLzyK.s:389    .text:0000000000000194 .L0 
     /tmp/ccJTLzyK.s:332    .text:0000000000000148 _ZN6ThreadD1Ev
     /tmp/ccJTLzyK.s:405    .text._ZN14PeriodicThreadD2Ev:0000000000000000 _ZN14PeriodicThreadD2Ev
     /tmp/ccJTLzyK.s:408    .text._ZN14PeriodicThreadD2Ev:0000000000000000 .L0 
     /tmp/ccJTLzyK.s:410    .text._ZN14PeriodicThreadD2Ev:0000000000000000 .L0 
GAS LISTING /tmp/ccJTLzyK.s 			page 31


     /tmp/ccJTLzyK.s:411    .text._ZN14PeriodicThreadD2Ev:0000000000000004 .L0 
     /tmp/ccJTLzyK.s:414    .text._ZN14PeriodicThreadD2Ev:000000000000000c .L0 
     /tmp/ccJTLzyK.s:415    .text._ZN14PeriodicThreadD2Ev:000000000000000c .L0 
     /tmp/ccJTLzyK.s:417    .text._ZN14PeriodicThreadD2Ev:0000000000000010 .L0 
     /tmp/ccJTLzyK.s:1164   .data.rel.ro.local._ZTV14PeriodicThread:0000000000000000 _ZTV14PeriodicThread
     /tmp/ccJTLzyK.s:420    .text._ZN14PeriodicThreadD2Ev:0000000000000010 .L0 
     /tmp/ccJTLzyK.s:426    .text._ZN14PeriodicThreadD2Ev:0000000000000028 .L0 
     /tmp/ccJTLzyK.s:428    .text._ZN14PeriodicThreadD2Ev:000000000000002c .L0 
     /tmp/ccJTLzyK.s:429    .text._ZN14PeriodicThreadD2Ev:000000000000002c .L0 
     /tmp/ccJTLzyK.s:431    .text._ZN14PeriodicThreadD2Ev:0000000000000030 .L0 
     /tmp/ccJTLzyK.s:433    .text._ZN14PeriodicThreadD2Ev:0000000000000034 .L0 
     /tmp/ccJTLzyK.s:405    .text._ZN14PeriodicThreadD2Ev:0000000000000000 _ZN14PeriodicThreadD1Ev
     /tmp/ccJTLzyK.s:442    .text:0000000000000194 _ZN6ThreadD0Ev
     /tmp/ccJTLzyK.s:445    .text:0000000000000194 .L0 
     /tmp/ccJTLzyK.s:447    .text:0000000000000194 .L0 
     /tmp/ccJTLzyK.s:448    .text:0000000000000198 .L0 
     /tmp/ccJTLzyK.s:452    .text:00000000000001a4 .L0 
     /tmp/ccJTLzyK.s:453    .text:00000000000001a4 .L0 
     /tmp/ccJTLzyK.s:454    .text:00000000000001a4 .L0 
     /tmp/ccJTLzyK.s:456    .text:00000000000001a8 .L0 
     /tmp/ccJTLzyK.s:459    .text:00000000000001ac .L0 
     /tmp/ccJTLzyK.s:465    .text:00000000000001c4 .L0 
     /tmp/ccJTLzyK.s:467    .text:00000000000001c8 .L0 
     /tmp/ccJTLzyK.s:468    .text:00000000000001c8 .L0 
     /tmp/ccJTLzyK.s:470    .text:00000000000001cc .L0 
     /tmp/ccJTLzyK.s:473    .text:00000000000001d0 .L0 
     /tmp/ccJTLzyK.s:475    .text:00000000000001d4 .L0 
     /tmp/ccJTLzyK.s:481    .text:00000000000001d4 _ZN9SemaphoreD0Ev
     /tmp/ccJTLzyK.s:484    .text:00000000000001d4 .L0 
     /tmp/ccJTLzyK.s:486    .text:00000000000001d4 .L0 
     /tmp/ccJTLzyK.s:487    .text:00000000000001d8 .L0 
     /tmp/ccJTLzyK.s:491    .text:00000000000001e4 .L0 
     /tmp/ccJTLzyK.s:492    .text:00000000000001e4 .L0 
     /tmp/ccJTLzyK.s:493    .text:00000000000001e4 .L0 
     /tmp/ccJTLzyK.s:495    .text:00000000000001e8 .L0 
     /tmp/ccJTLzyK.s:498    .text:00000000000001ec .L0 
     /tmp/ccJTLzyK.s:504    .text:0000000000000204 .L0 
     /tmp/ccJTLzyK.s:506    .text:0000000000000208 .L0 
     /tmp/ccJTLzyK.s:507    .text:0000000000000208 .L0 
     /tmp/ccJTLzyK.s:509    .text:000000000000020c .L0 
     /tmp/ccJTLzyK.s:512    .text:0000000000000210 .L0 
     /tmp/ccJTLzyK.s:514    .text:0000000000000214 .L0 
     /tmp/ccJTLzyK.s:521    .text._ZN14PeriodicThreadD0Ev:0000000000000000 _ZN14PeriodicThreadD0Ev
     /tmp/ccJTLzyK.s:524    .text._ZN14PeriodicThreadD0Ev:0000000000000000 .L0 
     /tmp/ccJTLzyK.s:526    .text._ZN14PeriodicThreadD0Ev:0000000000000000 .L0 
     /tmp/ccJTLzyK.s:527    .text._ZN14PeriodicThreadD0Ev:0000000000000004 .L0 
     /tmp/ccJTLzyK.s:531    .text._ZN14PeriodicThreadD0Ev:0000000000000010 .L0 
     /tmp/ccJTLzyK.s:532    .text._ZN14PeriodicThreadD0Ev:0000000000000010 .L0 
     /tmp/ccJTLzyK.s:533    .text._ZN14PeriodicThreadD0Ev:0000000000000010 .L0 
     /tmp/ccJTLzyK.s:535    .text._ZN14PeriodicThreadD0Ev:0000000000000014 .L0 
     /tmp/ccJTLzyK.s:541    .text._ZN14PeriodicThreadD0Ev:0000000000000018 .L0 
     /tmp/ccJTLzyK.s:551    .text._ZN14PeriodicThreadD0Ev:000000000000003c .L0 
     /tmp/ccJTLzyK.s:553    .text._ZN14PeriodicThreadD0Ev:0000000000000040 .L0 
     /tmp/ccJTLzyK.s:554    .text._ZN14PeriodicThreadD0Ev:0000000000000040 .L0 
     /tmp/ccJTLzyK.s:556    .text._ZN14PeriodicThreadD0Ev:0000000000000044 .L0 
     /tmp/ccJTLzyK.s:559    .text._ZN14PeriodicThreadD0Ev:0000000000000048 .L0 
     /tmp/ccJTLzyK.s:561    .text._ZN14PeriodicThreadD0Ev:000000000000004c .L0 
GAS LISTING /tmp/ccJTLzyK.s 			page 32


     /tmp/ccJTLzyK.s:568    .text:0000000000000214 _ZdaPv
     /tmp/ccJTLzyK.s:571    .text:0000000000000214 .L0 
     /tmp/ccJTLzyK.s:573    .text:0000000000000214 .L0 
     /tmp/ccJTLzyK.s:574    .text:0000000000000218 .L0 
     /tmp/ccJTLzyK.s:577    .text:0000000000000220 .L0 
     /tmp/ccJTLzyK.s:578    .text:0000000000000220 .L0 
     /tmp/ccJTLzyK.s:580    .text:0000000000000224 .L0 
     /tmp/ccJTLzyK.s:582    .text:0000000000000224 .L0 
     /tmp/ccJTLzyK.s:583    .text:0000000000000224 .L0 
     /tmp/ccJTLzyK.s:586    .text:000000000000022c .L0 
     /tmp/ccJTLzyK.s:587    .text:0000000000000230 .L0 
     /tmp/ccJTLzyK.s:589    .text:0000000000000234 .L0 
     /tmp/ccJTLzyK.s:590    .text:0000000000000234 .L0 
     /tmp/ccJTLzyK.s:592    .text:0000000000000238 .L0 
     /tmp/ccJTLzyK.s:594    .text:000000000000023c .L0 
     /tmp/ccJTLzyK.s:600    .text:000000000000023c _ZN6ThreadC2EPFvPvES0_
     /tmp/ccJTLzyK.s:603    .text:000000000000023c .L0 
     /tmp/ccJTLzyK.s:605    .text:000000000000023c .L0 
     /tmp/ccJTLzyK.s:606    .text:0000000000000240 .L0 
     /tmp/ccJTLzyK.s:608    .text:0000000000000244 .L0 
     /tmp/ccJTLzyK.s:610    .text:0000000000000248 .L0 
     /tmp/ccJTLzyK.s:613    .text:0000000000000248 .L0 
     /tmp/ccJTLzyK.s:616    .text:0000000000000254 .L0 
     /tmp/ccJTLzyK.s:617    .text:0000000000000254 .L0 
     /tmp/ccJTLzyK.s:619    .text:0000000000000258 .L0 
     /tmp/ccJTLzyK.s:620    .text:0000000000000258 .L0 
     /tmp/ccJTLzyK.s:623    .text:000000000000025c .L0 
     /tmp/ccJTLzyK.s:624    .text:0000000000000260 .L0 
     /tmp/ccJTLzyK.s:625    .text:0000000000000260 .L0 
     /tmp/ccJTLzyK.s:627    .text:0000000000000264 .L0 
     /tmp/ccJTLzyK.s:629    .text:0000000000000268 .L0 
     /tmp/ccJTLzyK.s:600    .text:000000000000023c _ZN6ThreadC1EPFvPvES0_
     /tmp/ccJTLzyK.s:637    .text:0000000000000268 _ZN6Thread5startEv
     /tmp/ccJTLzyK.s:640    .text:0000000000000268 .L0 
     /tmp/ccJTLzyK.s:642    .text:0000000000000268 .L0 
     /tmp/ccJTLzyK.s:643    .text:000000000000026c .L0 
     /tmp/ccJTLzyK.s:646    .text:0000000000000274 .L0 
     /tmp/ccJTLzyK.s:647    .text:0000000000000274 .L0 
     /tmp/ccJTLzyK.s:649    .text:0000000000000278 .L0 
     /tmp/ccJTLzyK.s:651    .text:0000000000000278 .L0 
     /tmp/ccJTLzyK.s:652    .text:0000000000000278 .L0 
     /tmp/ccJTLzyK.s:659    .text:0000000000000290 .L0 
     /tmp/ccJTLzyK.s:660    .text:0000000000000294 .L0 
     /tmp/ccJTLzyK.s:662    .text:0000000000000298 .L0 
     /tmp/ccJTLzyK.s:663    .text:0000000000000298 .L0 
     /tmp/ccJTLzyK.s:665    .text:000000000000029c .L0 
     /tmp/ccJTLzyK.s:667    .text:00000000000002a0 .L0 
     /tmp/ccJTLzyK.s:673    .text:00000000000002a0 _ZN6Thread4joinEv
     /tmp/ccJTLzyK.s:676    .text:00000000000002a0 .L0 
     /tmp/ccJTLzyK.s:678    .text:00000000000002a0 .L0 
     /tmp/ccJTLzyK.s:679    .text:00000000000002a4 .L0 
     /tmp/ccJTLzyK.s:682    .text:00000000000002ac .L0 
     /tmp/ccJTLzyK.s:683    .text:00000000000002ac .L0 
     /tmp/ccJTLzyK.s:685    .text:00000000000002b0 .L0 
     /tmp/ccJTLzyK.s:687    .text:00000000000002b0 .L0 
     /tmp/ccJTLzyK.s:688    .text:00000000000002b0 .L0 
     /tmp/ccJTLzyK.s:693    .text:00000000000002bc .L0 
GAS LISTING /tmp/ccJTLzyK.s 			page 33


     /tmp/ccJTLzyK.s:694    .text:00000000000002c0 .L0 
     /tmp/ccJTLzyK.s:696    .text:00000000000002c4 .L0 
     /tmp/ccJTLzyK.s:697    .text:00000000000002c4 .L0 
     /tmp/ccJTLzyK.s:699    .text:00000000000002c8 .L0 
     /tmp/ccJTLzyK.s:701    .text:00000000000002cc .L0 
     /tmp/ccJTLzyK.s:707    .text:00000000000002cc _ZN6Thread4joinEm
     /tmp/ccJTLzyK.s:710    .text:00000000000002cc .L0 
     /tmp/ccJTLzyK.s:712    .text:00000000000002cc .L0 
     /tmp/ccJTLzyK.s:713    .text:00000000000002d0 .L0 
     /tmp/ccJTLzyK.s:716    .text:00000000000002d8 .L0 
     /tmp/ccJTLzyK.s:717    .text:00000000000002d8 .L0 
     /tmp/ccJTLzyK.s:719    .text:00000000000002dc .L0 
     /tmp/ccJTLzyK.s:721    .text:00000000000002dc .L0 
     /tmp/ccJTLzyK.s:722    .text:00000000000002dc .L0 
     /tmp/ccJTLzyK.s:727    .text:00000000000002e8 .L0 
     /tmp/ccJTLzyK.s:728    .text:00000000000002ec .L0 
     /tmp/ccJTLzyK.s:730    .text:00000000000002f0 .L0 
     /tmp/ccJTLzyK.s:731    .text:00000000000002f0 .L0 
     /tmp/ccJTLzyK.s:733    .text:00000000000002f4 .L0 
     /tmp/ccJTLzyK.s:735    .text:00000000000002f8 .L0 
     /tmp/ccJTLzyK.s:741    .text:00000000000002f8 _ZN6Thread4killEPS_
     /tmp/ccJTLzyK.s:744    .text:00000000000002f8 .L0 
     /tmp/ccJTLzyK.s:746    .text:00000000000002f8 .L0 
     /tmp/ccJTLzyK.s:747    .text:00000000000002fc .L0 
     /tmp/ccJTLzyK.s:750    .text:0000000000000304 .L0 
     /tmp/ccJTLzyK.s:751    .text:0000000000000304 .L0 
     /tmp/ccJTLzyK.s:753    .text:0000000000000308 .L0 
     /tmp/ccJTLzyK.s:755    .text:0000000000000308 .L0 
     /tmp/ccJTLzyK.s:756    .text:0000000000000308 .L0 
     /tmp/ccJTLzyK.s:761    .text:0000000000000314 .L0 
     /tmp/ccJTLzyK.s:762    .text:0000000000000318 .L0 
     /tmp/ccJTLzyK.s:764    .text:000000000000031c .L0 
     /tmp/ccJTLzyK.s:765    .text:000000000000031c .L0 
     /tmp/ccJTLzyK.s:767    .text:0000000000000320 .L0 
     /tmp/ccJTLzyK.s:769    .text:0000000000000324 .L0 
     /tmp/ccJTLzyK.s:775    .text:0000000000000324 _ZN6Thread8dispatchEv
     /tmp/ccJTLzyK.s:778    .text:0000000000000324 .L0 
     /tmp/ccJTLzyK.s:779    .text:0000000000000324 .L0 
     /tmp/ccJTLzyK.s:780    .text:0000000000000328 .L0 
     /tmp/ccJTLzyK.s:783    .text:0000000000000330 .L0 
     /tmp/ccJTLzyK.s:784    .text:0000000000000330 .L0 
     /tmp/ccJTLzyK.s:786    .text:0000000000000334 .L0 
     /tmp/ccJTLzyK.s:788    .text:0000000000000334 .L0 
     /tmp/ccJTLzyK.s:789    .text:0000000000000334 .L0 
     /tmp/ccJTLzyK.s:792    .text:000000000000033c .L0 
     /tmp/ccJTLzyK.s:793    .text:0000000000000340 .L0 
     /tmp/ccJTLzyK.s:795    .text:0000000000000344 .L0 
     /tmp/ccJTLzyK.s:796    .text:0000000000000344 .L0 
     /tmp/ccJTLzyK.s:798    .text:0000000000000348 .L0 
     /tmp/ccJTLzyK.s:800    .text:000000000000034c .L0 
     /tmp/ccJTLzyK.s:806    .text:000000000000034c _ZN6Thread5sleepEm
     /tmp/ccJTLzyK.s:809    .text:000000000000034c .L0 
     /tmp/ccJTLzyK.s:811    .text:000000000000034c .L0 
     /tmp/ccJTLzyK.s:812    .text:0000000000000350 .L0 
     /tmp/ccJTLzyK.s:815    .text:0000000000000358 .L0 
     /tmp/ccJTLzyK.s:816    .text:0000000000000358 .L0 
     /tmp/ccJTLzyK.s:818    .text:000000000000035c .L0 
GAS LISTING /tmp/ccJTLzyK.s 			page 34


     /tmp/ccJTLzyK.s:820    .text:000000000000035c .L0 
     /tmp/ccJTLzyK.s:821    .text:000000000000035c .L0 
     /tmp/ccJTLzyK.s:824    .text:0000000000000364 .L0 
     /tmp/ccJTLzyK.s:825    .text:0000000000000368 .L0 
     /tmp/ccJTLzyK.s:827    .text:000000000000036c .L0 
     /tmp/ccJTLzyK.s:828    .text:000000000000036c .L0 
     /tmp/ccJTLzyK.s:830    .text:0000000000000370 .L0 
     /tmp/ccJTLzyK.s:832    .text:0000000000000374 .L0 
     /tmp/ccJTLzyK.s:838    .text:0000000000000374 _ZN14PeriodicThread3runEv
     /tmp/ccJTLzyK.s:841    .text:0000000000000374 .L0 
     /tmp/ccJTLzyK.s:843    .text:0000000000000374 .L0 
     /tmp/ccJTLzyK.s:844    .text:0000000000000378 .L0 
     /tmp/ccJTLzyK.s:848    .text:0000000000000384 .L0 
     /tmp/ccJTLzyK.s:849    .text:0000000000000384 .L0 
     /tmp/ccJTLzyK.s:850    .text:0000000000000384 .L0 
     /tmp/ccJTLzyK.s:852    .text:0000000000000388 .L0 
     /tmp/ccJTLzyK.s:857    .text:000000000000038c .L0 
     /tmp/ccJTLzyK.s:858    .text:000000000000038c .L0 
     /tmp/ccJTLzyK.s:859    .text:000000000000038c .L0 
     /tmp/ccJTLzyK.s:863    .text:0000000000000398 .L0 
     /tmp/ccJTLzyK.s:864    .text:0000000000000398 .L0 
     /tmp/ccJTLzyK.s:867    .text:00000000000003a0 .L0 
     /tmp/ccJTLzyK.s:871    .text:00000000000003a8 .L0 
     /tmp/ccJTLzyK.s:872    .text:00000000000003ac .L0 
     /tmp/ccJTLzyK.s:878    .text:00000000000003ac _ZN6ThreadC2Ev
     /tmp/ccJTLzyK.s:881    .text:00000000000003ac .L0 
     /tmp/ccJTLzyK.s:883    .text:00000000000003ac .L0 
     /tmp/ccJTLzyK.s:884    .text:00000000000003b0 .L0 
     /tmp/ccJTLzyK.s:886    .text:00000000000003b4 .L0 
     /tmp/ccJTLzyK.s:888    .text:00000000000003b8 .L0 
     /tmp/ccJTLzyK.s:891    .text:00000000000003b8 .L0 
     /tmp/ccJTLzyK.s:894    .text:00000000000003c4 .L0 
     /tmp/ccJTLzyK.s:895    .text:00000000000003c4 .L0 
     /tmp/ccJTLzyK.s:897    .text:00000000000003c8 .L0 
     /tmp/ccJTLzyK.s:898    .text:00000000000003c8 .L0 
     /tmp/ccJTLzyK.s:901    .text:00000000000003cc .L0 
     /tmp/ccJTLzyK.s:902    .text:00000000000003d0 .L0 
     /tmp/ccJTLzyK.s:903    .text:00000000000003d0 .L0 
     /tmp/ccJTLzyK.s:905    .text:00000000000003d4 .L0 
     /tmp/ccJTLzyK.s:907    .text:00000000000003d8 .L0 
     /tmp/ccJTLzyK.s:878    .text:00000000000003ac _ZN6ThreadC1Ev
     /tmp/ccJTLzyK.s:915    .text:00000000000003d8 _ZN9SemaphoreC2Ej
     /tmp/ccJTLzyK.s:918    .text:00000000000003d8 .L0 
     /tmp/ccJTLzyK.s:920    .text:00000000000003d8 .L0 
     /tmp/ccJTLzyK.s:921    .text:00000000000003dc .L0 
     /tmp/ccJTLzyK.s:924    .text:00000000000003e4 .L0 
     /tmp/ccJTLzyK.s:925    .text:00000000000003e4 .L0 
     /tmp/ccJTLzyK.s:927    .text:00000000000003e8 .L0 
     /tmp/ccJTLzyK.s:930    .text:00000000000003e8 .L0 
     /tmp/ccJTLzyK.s:933    .text:00000000000003f4 .L0 
     /tmp/ccJTLzyK.s:934    .text:00000000000003f4 .L0 
     /tmp/ccJTLzyK.s:940    .text:0000000000000400 .L0 
     /tmp/ccJTLzyK.s:941    .text:0000000000000404 .L0 
     /tmp/ccJTLzyK.s:943    .text:0000000000000408 .L0 
     /tmp/ccJTLzyK.s:944    .text:0000000000000408 .L0 
     /tmp/ccJTLzyK.s:946    .text:000000000000040c .L0 
     /tmp/ccJTLzyK.s:948    .text:0000000000000410 .L0 
GAS LISTING /tmp/ccJTLzyK.s 			page 35


     /tmp/ccJTLzyK.s:915    .text:00000000000003d8 _ZN9SemaphoreC1Ej
     /tmp/ccJTLzyK.s:956    .text:0000000000000410 _ZN9Semaphore15signal_and_waitERS_S0_
     /tmp/ccJTLzyK.s:959    .text:0000000000000410 .L0 
     /tmp/ccJTLzyK.s:961    .text:0000000000000410 .L0 
     /tmp/ccJTLzyK.s:962    .text:0000000000000414 .L0 
     /tmp/ccJTLzyK.s:965    .text:000000000000041c .L0 
     /tmp/ccJTLzyK.s:966    .text:000000000000041c .L0 
     /tmp/ccJTLzyK.s:968    .text:0000000000000420 .L0 
     /tmp/ccJTLzyK.s:970    .text:0000000000000420 .L0 
     /tmp/ccJTLzyK.s:971    .text:0000000000000420 .L0 
     /tmp/ccJTLzyK.s:978    .text:0000000000000430 .L0 
     /tmp/ccJTLzyK.s:979    .text:0000000000000434 .L0 
     /tmp/ccJTLzyK.s:981    .text:0000000000000438 .L0 
     /tmp/ccJTLzyK.s:982    .text:0000000000000438 .L0 
     /tmp/ccJTLzyK.s:984    .text:000000000000043c .L0 
     /tmp/ccJTLzyK.s:986    .text:0000000000000440 .L0 
     /tmp/ccJTLzyK.s:992    .text:0000000000000440 _ZN14PeriodicThread9terminateEv
     /tmp/ccJTLzyK.s:995    .text:0000000000000440 .L0 
     /tmp/ccJTLzyK.s:997    .text:0000000000000440 .L0 
     /tmp/ccJTLzyK.s:998    .text:0000000000000444 .L0 
     /tmp/ccJTLzyK.s:1001   .text:000000000000044c .L0 
     /tmp/ccJTLzyK.s:1002   .text:000000000000044c .L0 
     /tmp/ccJTLzyK.s:1004   .text:0000000000000450 .L0 
     /tmp/ccJTLzyK.s:1006   .text:0000000000000450 .L0 
     /tmp/ccJTLzyK.s:1007   .text:0000000000000450 .L0 
     /tmp/ccJTLzyK.s:1010   .text:0000000000000458 .L0 
     /tmp/ccJTLzyK.s:1011   .text:000000000000045c .L0 
     /tmp/ccJTLzyK.s:1013   .text:0000000000000460 .L0 
     /tmp/ccJTLzyK.s:1014   .text:0000000000000460 .L0 
     /tmp/ccJTLzyK.s:1016   .text:0000000000000464 .L0 
     /tmp/ccJTLzyK.s:1018   .text:0000000000000468 .L0 
     /tmp/ccJTLzyK.s:1024   .text:0000000000000468 _ZN14PeriodicThreadC2Em
     /tmp/ccJTLzyK.s:1027   .text:0000000000000468 .L0 
     /tmp/ccJTLzyK.s:1029   .text:0000000000000468 .L0 
     /tmp/ccJTLzyK.s:1030   .text:000000000000046c .L0 
     /tmp/ccJTLzyK.s:1035   .text:000000000000047c .L0 
     /tmp/ccJTLzyK.s:1036   .text:000000000000047c .L0 
     /tmp/ccJTLzyK.s:1037   .text:000000000000047c .L0 
     /tmp/ccJTLzyK.s:1038   .text:000000000000047c .L0 
     /tmp/ccJTLzyK.s:1040   .text:0000000000000480 .L0 
     /tmp/ccJTLzyK.s:1045   .text:0000000000000488 .L0 
     /tmp/ccJTLzyK.s:1050   .text:000000000000049c .L0 
     /tmp/ccJTLzyK.s:1051   .text:000000000000049c .L0 
     /tmp/ccJTLzyK.s:1054   .text:00000000000004a0 .L0 
     /tmp/ccJTLzyK.s:1055   .text:00000000000004a4 .L0 
     /tmp/ccJTLzyK.s:1057   .text:00000000000004a8 .L0 
     /tmp/ccJTLzyK.s:1058   .text:00000000000004a8 .L0 
     /tmp/ccJTLzyK.s:1060   .text:00000000000004ac .L0 
     /tmp/ccJTLzyK.s:1063   .text:00000000000004b0 .L0 
     /tmp/ccJTLzyK.s:1066   .text:00000000000004b4 .L0 
     /tmp/ccJTLzyK.s:1068   .text:00000000000004b8 .L0 
     /tmp/ccJTLzyK.s:1024   .text:0000000000000468 _ZN14PeriodicThreadC1Em
     /tmp/ccJTLzyK.s:1076   .text:00000000000004b8 _ZN7Console4getcEv
     /tmp/ccJTLzyK.s:1079   .text:00000000000004b8 .L0 
     /tmp/ccJTLzyK.s:1080   .text:00000000000004b8 .L0 
     /tmp/ccJTLzyK.s:1081   .text:00000000000004bc .L0 
     /tmp/ccJTLzyK.s:1084   .text:00000000000004c4 .L0 
GAS LISTING /tmp/ccJTLzyK.s 			page 36


     /tmp/ccJTLzyK.s:1085   .text:00000000000004c4 .L0 
     /tmp/ccJTLzyK.s:1087   .text:00000000000004c8 .L0 
     /tmp/ccJTLzyK.s:1089   .text:00000000000004c8 .L0 
     /tmp/ccJTLzyK.s:1090   .text:00000000000004c8 .L0 
     /tmp/ccJTLzyK.s:1093   .text:00000000000004d0 .L0 
     /tmp/ccJTLzyK.s:1094   .text:00000000000004d4 .L0 
     /tmp/ccJTLzyK.s:1096   .text:00000000000004d8 .L0 
     /tmp/ccJTLzyK.s:1097   .text:00000000000004d8 .L0 
     /tmp/ccJTLzyK.s:1099   .text:00000000000004dc .L0 
     /tmp/ccJTLzyK.s:1101   .text:00000000000004e0 .L0 
     /tmp/ccJTLzyK.s:1107   .text:00000000000004e0 _ZN7Console4putcEc
     /tmp/ccJTLzyK.s:1110   .text:00000000000004e0 .L0 
     /tmp/ccJTLzyK.s:1112   .text:00000000000004e0 .L0 
     /tmp/ccJTLzyK.s:1113   .text:00000000000004e4 .L0 
     /tmp/ccJTLzyK.s:1116   .text:00000000000004ec .L0 
     /tmp/ccJTLzyK.s:1117   .text:00000000000004ec .L0 
     /tmp/ccJTLzyK.s:1119   .text:00000000000004f0 .L0 
     /tmp/ccJTLzyK.s:1121   .text:00000000000004f0 .L0 
     /tmp/ccJTLzyK.s:1122   .text:00000000000004f0 .L0 
     /tmp/ccJTLzyK.s:1125   .text:00000000000004f8 .L0 
     /tmp/ccJTLzyK.s:1126   .text:00000000000004fc .L0 
     /tmp/ccJTLzyK.s:1128   .text:0000000000000500 .L0 
     /tmp/ccJTLzyK.s:1129   .text:0000000000000500 .L0 
     /tmp/ccJTLzyK.s:1131   .text:0000000000000504 .L0 
     /tmp/ccJTLzyK.s:1133   .text:0000000000000508 .L0 
     /tmp/ccJTLzyK.s:32     .text._ZN6Thread3runEv:0000000000000018 .L0 
     /tmp/ccJTLzyK.s:57     .text._ZN14PeriodicThread18periodicActivationEv:0000000000000018 .L0 
     /tmp/ccJTLzyK.s:1176   .text:0000000000000508 .L0 
     /tmp/ccJTLzyK.s:438    .text._ZN14PeriodicThreadD2Ev:0000000000000034 .L0 
     /tmp/ccJTLzyK.s:564    .text._ZN14PeriodicThreadD0Ev:000000000000004c .L0 
     /tmp/ccJTLzyK.s:134    .text:0000000000000050 .L0 
     /tmp/ccJTLzyK.s:341    .text:0000000000000148 .L0 
     /tmp/ccJTLzyK.s:613    .text:0000000000000248 .L0 
     /tmp/ccJTLzyK.s:653    .text:000000000000027c .L0 
     /tmp/ccJTLzyK.s:891    .text:00000000000003b8 .L0 
     /tmp/ccJTLzyK.s:930    .text:00000000000003e8 .L0 
     /tmp/ccJTLzyK.s:1047   .text:0000000000000490 .L0 
     /tmp/ccJTLzyK.s:100    .text:0000000000000030 .L6
     /tmp/ccJTLzyK.s:88     .text:0000000000000020 .L5
     /tmp/ccJTLzyK.s:361    .text:0000000000000168 .L27
     /tmp/ccJTLzyK.s:359    .text:0000000000000164 .L24
     /tmp/ccJTLzyK.s:855    .text:000000000000038c .L53
     /tmp/ccJTLzyK.s:420    .text._ZN14PeriodicThreadD2Ev:0000000000000010 .L0 
     /tmp/ccJTLzyK.s:541    .text._ZN14PeriodicThreadD0Ev:0000000000000018 .L0 
     /tmp/ccJTLzyK.s:3468   .debug_abbrev:0000000000000000 .Ldebug_abbrev0
     /tmp/ccJTLzyK.s:5667   .debug_str:0000000000000a6d .LASF211
     /tmp/ccJTLzyK.s:5481   .debug_str:0000000000000560 .LASF212
     /tmp/ccJTLzyK.s:5435   .debug_str:00000000000003c4 .LASF213
     /tmp/ccJTLzyK.s:5299   .debug_ranges:0000000000000000 .Ldebug_ranges0
     /tmp/ccJTLzyK.s:5313   .debug_line:0000000000000000 .Ldebug_line0
     /tmp/ccJTLzyK.s:5473   .debug_str:0000000000000519 .LASF0
     /tmp/ccJTLzyK.s:5503   .debug_str:0000000000000605 .LASF1
     /tmp/ccJTLzyK.s:5605   .debug_str:00000000000008d0 .LASF2
     /tmp/ccJTLzyK.s:5609   .debug_str:00000000000008ed .LASF4
     /tmp/ccJTLzyK.s:5483   .debug_str:0000000000000574 .LASF3
     /tmp/ccJTLzyK.s:5337   .debug_str:00000000000000d2 .LASF5
     /tmp/ccJTLzyK.s:5577   .debug_str:000000000000082a .LASF6
GAS LISTING /tmp/ccJTLzyK.s 			page 37


     /tmp/ccJTLzyK.s:5563   .debug_str:00000000000007b7 .LASF7
     /tmp/ccJTLzyK.s:5493   .debug_str:00000000000005da .LASF8
     /tmp/ccJTLzyK.s:5431   .debug_str:0000000000000393 .LASF9
     /tmp/ccJTLzyK.s:5443   .debug_str:000000000000042d .LASF10
     /tmp/ccJTLzyK.s:5375   .debug_str:00000000000001d5 .LASF11
     /tmp/ccJTLzyK.s:5425   .debug_str:0000000000000371 .LASF12
     /tmp/ccJTLzyK.s:5391   .debug_str:0000000000000255 .LASF13
     /tmp/ccJTLzyK.s:5373   .debug_str:00000000000001c5 .LASF14
     /tmp/ccJTLzyK.s:5641   .debug_str:00000000000009d7 .LASF15
     /tmp/ccJTLzyK.s:5411   .debug_str:0000000000000311 .LASF16
     /tmp/ccJTLzyK.s:5631   .debug_str:000000000000098c .LASF17
     /tmp/ccJTLzyK.s:5719   .debug_str:0000000000000cf9 .LASF18
     /tmp/ccJTLzyK.s:5507   .debug_str:000000000000061e .LASF27
     /tmp/ccJTLzyK.s:5331   .debug_str:000000000000008c .LASF29
     /tmp/ccJTLzyK.s:5663   .debug_str:0000000000000a58 .LASF19
     /tmp/ccJTLzyK.s:5519   .debug_str:000000000000066e .LASF21
     /tmp/ccJTLzyK.s:5627   .debug_str:0000000000000968 .LASF20
     /tmp/ccJTLzyK.s:5671   .debug_str:0000000000000b38 .LASF22
     /tmp/ccJTLzyK.s:5701   .debug_str:0000000000000c75 .LASF23
     /tmp/ccJTLzyK.s:5445   .debug_str:000000000000043b .LASF25
     /tmp/ccJTLzyK.s:5597   .debug_str:0000000000000892 .LASF24
     /tmp/ccJTLzyK.s:5571   .debug_str:00000000000007ee .LASF26
     /tmp/ccJTLzyK.s:5359   .debug_str:0000000000000177 .LASF86
     /tmp/ccJTLzyK.s:5543   .debug_str:000000000000073d .LASF88
     /tmp/ccJTLzyK.s:5687   .debug_str:0000000000000c07 .LASF28
     /tmp/ccJTLzyK.s:5717   .debug_str:0000000000000ce7 .LASF30
     /tmp/ccJTLzyK.s:5565   .debug_str:00000000000007ca .LASF31
     /tmp/ccJTLzyK.s:5747   .debug_str:0000000000000dcf .LASF32
     /tmp/ccJTLzyK.s:5515   .debug_str:0000000000000655 .LASF33
     /tmp/ccJTLzyK.s:5395   .debug_str:0000000000000270 .LASF34
     /tmp/ccJTLzyK.s:5505   .debug_str:0000000000000618 .LASF35
     /tmp/ccJTLzyK.s:5673   .debug_str:0000000000000b54 .LASF36
     /tmp/ccJTLzyK.s:5525   .debug_str:000000000000069e .LASF37
     /tmp/ccJTLzyK.s:5683   .debug_str:0000000000000bc5 .LASF38
     /tmp/ccJTLzyK.s:5721   .debug_str:0000000000000d02 .LASF39
     /tmp/ccJTLzyK.s:5401   .debug_str:00000000000002c0 .LASF40
     /tmp/ccJTLzyK.s:5529   .debug_str:00000000000006b2 .LASF41
     /tmp/ccJTLzyK.s:5643   .debug_str:00000000000009e3 .LASF42
     /tmp/ccJTLzyK.s:5689   .debug_str:0000000000000c0d .LASF43
     /tmp/ccJTLzyK.s:5713   .debug_str:0000000000000cc8 .LASF45
     /tmp/ccJTLzyK.s:5729   .debug_str:0000000000000d3d .LASF44
     /tmp/ccJTLzyK.s:5355   .debug_str:0000000000000145 .LASF46
     /tmp/ccJTLzyK.s:5573   .debug_str:000000000000080e .LASF47
     /tmp/ccJTLzyK.s:5399   .debug_str:00000000000002a8 .LASF48
     /tmp/ccJTLzyK.s:5517   .debug_str:0000000000000664 .LASF49
     /tmp/ccJTLzyK.s:5741   .debug_str:0000000000000da4 .LASF50
     /tmp/ccJTLzyK.s:5559   .debug_str:00000000000007a4 .LASF51
     /tmp/ccJTLzyK.s:5537   .debug_str:000000000000070c .LASF52
     /tmp/ccJTLzyK.s:5371   .debug_str:00000000000001b7 .LASF53
     /tmp/ccJTLzyK.s:5471   .debug_str:0000000000000513 .LASF54
     /tmp/ccJTLzyK.s:5339   .debug_str:00000000000000d9 .LASF55
     /tmp/ccJTLzyK.s:5353   .debug_str:000000000000013f .LASF56
     /tmp/ccJTLzyK.s:5615   .debug_str:000000000000091a .LASF57
     /tmp/ccJTLzyK.s:5549   .debug_str:000000000000076c .LASF58
     /tmp/ccJTLzyK.s:5369   .debug_str:00000000000001a6 .LASF59
     /tmp/ccJTLzyK.s:5521   .debug_str:0000000000000686 .LASF60
     /tmp/ccJTLzyK.s:5423   .debug_str:0000000000000360 .LASF61
GAS LISTING /tmp/ccJTLzyK.s 			page 38


     /tmp/ccJTLzyK.s:5637   .debug_str:00000000000009bb .LASF62
     /tmp/ccJTLzyK.s:5477   .debug_str:000000000000052b .LASF63
     /tmp/ccJTLzyK.s:5345   .debug_str:0000000000000110 .LASF64
     /tmp/ccJTLzyK.s:5409   .debug_str:00000000000002f8 .LASF65
     /tmp/ccJTLzyK.s:5449   .debug_str:0000000000000463 .LASF66
     /tmp/ccJTLzyK.s:5357   .debug_str:000000000000015c .LASF67
     /tmp/ccJTLzyK.s:5677   .debug_str:0000000000000b8a .LASF68
     /tmp/ccJTLzyK.s:5479   .debug_str:0000000000000545 .LASF69
     /tmp/ccJTLzyK.s:5485   .debug_str:0000000000000586 .LASF70
     /tmp/ccJTLzyK.s:5727   .debug_str:0000000000000d23 .LASF71
     /tmp/ccJTLzyK.s:5427   .debug_str:0000000000000380 .LASF72
     /tmp/ccJTLzyK.s:5665   .debug_str:0000000000000a65 .LASF73
     /tmp/ccJTLzyK.s:5703   .debug_str:0000000000000c82 .LASF74
     /tmp/ccJTLzyK.s:5459   .debug_str:0000000000000496 .LASF75
     /tmp/ccJTLzyK.s:5743   .debug_str:0000000000000db9 .LASF76
     /tmp/ccJTLzyK.s:5405   .debug_str:00000000000002de .LASF77
     /tmp/ccJTLzyK.s:5691   .debug_str:0000000000000c19 .LASF78
     /tmp/ccJTLzyK.s:5715   .debug_str:0000000000000ce0 .LASF79
     /tmp/ccJTLzyK.s:5593   .debug_str:000000000000087e .LASF80
     /tmp/ccJTLzyK.s:5693   .debug_str:0000000000000c21 .LASF81
     /tmp/ccJTLzyK.s:5511   .debug_str:000000000000063f .LASF82
     /tmp/ccJTLzyK.s:5651   .debug_str:0000000000000a18 .LASF83
     /tmp/ccJTLzyK.s:5731   .debug_str:0000000000000d48 .LASF84
     /tmp/ccJTLzyK.s:5557   .debug_str:000000000000079c .LASF85
     /tmp/ccJTLzyK.s:5475   .debug_str:0000000000000526 .LASF87
     /tmp/ccJTLzyK.s:5397   .debug_str:0000000000000295 .LASF89
     /tmp/ccJTLzyK.s:5527   .debug_str:00000000000006ad .LASF118
     /tmp/ccJTLzyK.s:5407   .debug_str:00000000000002e5 .LASF214
     /tmp/ccJTLzyK.s:5653   .debug_str:0000000000000a1d .LASF90
     /tmp/ccJTLzyK.s:5591   .debug_str:0000000000000879 .LASF91
     /tmp/ccJTLzyK.s:5491   .debug_str:00000000000005d4 .LASF92
     /tmp/ccJTLzyK.s:5649   .debug_str:0000000000000a10 .LASF215
     /tmp/ccJTLzyK.s:5723   .debug_str:0000000000000d0c .LASF93
     /tmp/ccJTLzyK.s:5711   .debug_str:0000000000000cc3 .LASF94
     /tmp/ccJTLzyK.s:5739   .debug_str:0000000000000d9d .LASF216
     /tmp/ccJTLzyK.s:5495   .debug_str:00000000000005ed .LASF95
     /tmp/ccJTLzyK.s:5319   .debug_str:0000000000000046 .LASF96
     /tmp/ccJTLzyK.s:5379   .debug_str:00000000000001f4 .LASF97
     /tmp/ccJTLzyK.s:5669   .debug_str:0000000000000b31 .LASF98
     /tmp/ccJTLzyK.s:5365   .debug_str:000000000000018d .LASF99
     /tmp/ccJTLzyK.s:5323   .debug_str:0000000000000057 .LASF100
     /tmp/ccJTLzyK.s:5583   .debug_str:000000000000084f .LASF101
     /tmp/ccJTLzyK.s:5735   .debug_str:0000000000000d61 .LASF102
     /tmp/ccJTLzyK.s:5489   .debug_str:00000000000005ad .LASF103
     /tmp/ccJTLzyK.s:5463   .debug_str:00000000000004c4 .LASF217
     /tmp/ccJTLzyK.s:5499   .debug_str:00000000000005fb .LASF104
     /tmp/ccJTLzyK.s:5685   .debug_str:0000000000000be1 .LASF105
     /tmp/ccJTLzyK.s:5595   .debug_str:0000000000000889 .LASF106
     /tmp/ccJTLzyK.s:5383   .debug_str:000000000000020c .LASF107
     /tmp/ccJTLzyK.s:5695   .debug_str:0000000000000c2b .LASF108
     /tmp/ccJTLzyK.s:5461   .debug_str:000000000000049b .LASF109
     /tmp/ccJTLzyK.s:5389   .debug_str:000000000000024e .LASF110
     /tmp/ccJTLzyK.s:5699   .debug_str:0000000000000c4d .LASF111
     /tmp/ccJTLzyK.s:5451   .debug_str:0000000000000473 .LASF112
     /tmp/ccJTLzyK.s:5417   .debug_str:0000000000000345 .LASF113
     /tmp/ccJTLzyK.s:5633   .debug_str:00000000000009a2 .LASF114
     /tmp/ccJTLzyK.s:5541   .debug_str:0000000000000738 .LASF115
GAS LISTING /tmp/ccJTLzyK.s 			page 39


     /tmp/ccJTLzyK.s:5501   .debug_str:0000000000000600 .LASF116
     /tmp/ccJTLzyK.s:5321   .debug_str:000000000000004e .LASF117
     /tmp/ccJTLzyK.s:5381   .debug_str:00000000000001fd .LASF119
     /tmp/ccJTLzyK.s:5697   .debug_str:0000000000000c33 .LASF120
     /tmp/ccJTLzyK.s:5705   .debug_str:0000000000000c87 .LASF121
     /tmp/ccJTLzyK.s:5655   .debug_str:0000000000000a22 .LASF122
     /tmp/ccJTLzyK.s:5437   .debug_str:00000000000003e2 .LASF123
     /tmp/ccJTLzyK.s:5645   .debug_str:00000000000009f1 .LASF124
     /tmp/ccJTLzyK.s:5441   .debug_str:000000000000041a .LASF125
     /tmp/ccJTLzyK.s:5317   .debug_str:000000000000001c .LASF218
     /tmp/ccJTLzyK.s:5611   .debug_str:00000000000008f4 .LASF144
     /tmp/ccJTLzyK.s:5361   .debug_str:000000000000017d .LASF126
     /tmp/ccJTLzyK.s:5551   .debug_str:0000000000000773 .LASF127
     /tmp/ccJTLzyK.s:5439   .debug_str:0000000000000402 .LASF219
     /tmp/ccJTLzyK.s:5457   .debug_str:000000000000048f .LASF128
     /tmp/ccJTLzyK.s:5387   .debug_str:000000000000023c .LASF129
     /tmp/ccJTLzyK.s:5599   .debug_str:00000000000008a4 .LASF150
     /tmp/ccJTLzyK.s:5753   .debug_str:0000000000000e03 .LASF130
     /tmp/ccJTLzyK.s:5625   .debug_str:0000000000000960 .LASF153
     /tmp/ccJTLzyK.s:5419   .debug_str:000000000000034b .LASF155
     /tmp/ccJTLzyK.s:5621   .debug_str:0000000000000951 .LASF131
     /tmp/ccJTLzyK.s:5333   .debug_str:00000000000000b5 .LASF132
     /tmp/ccJTLzyK.s:5659   .debug_str:0000000000000a3e .LASF133
     /tmp/ccJTLzyK.s:5579   .debug_str:0000000000000831 .LASF134
     /tmp/ccJTLzyK.s:5569   .debug_str:00000000000007dc .LASF135
     /tmp/ccJTLzyK.s:5385   .debug_str:0000000000000237 .LASF136
     /tmp/ccJTLzyK.s:5539   .debug_str:0000000000000724 .LASF137
     /tmp/ccJTLzyK.s:5363   .debug_str:0000000000000184 .LASF138
     /tmp/ccJTLzyK.s:5737   .debug_str:0000000000000d87 .LASF139
     /tmp/ccJTLzyK.s:5545   .debug_str:000000000000074d .LASF140
     /tmp/ccJTLzyK.s:5581   .debug_str:0000000000000843 .LASF141
     /tmp/ccJTLzyK.s:5535   .debug_str:00000000000006f1 .LASF142
     /tmp/ccJTLzyK.s:5751   .debug_str:0000000000000df4 .LASF143
     /tmp/ccJTLzyK.s:5467   .debug_str:00000000000004f2 .LASF145
     /tmp/ccJTLzyK.s:5413   .debug_str:0000000000000327 .LASF146
     /tmp/ccJTLzyK.s:5327   .debug_str:0000000000000077 .LASF147
     /tmp/ccJTLzyK.s:5709   .debug_str:0000000000000cb9 .LASF148
     /tmp/ccJTLzyK.s:5661   .debug_str:0000000000000a43 .LASF149
     /tmp/ccJTLzyK.s:5745   .debug_str:0000000000000dbf .LASF151
     /tmp/ccJTLzyK.s:5657   .debug_str:0000000000000a2c .LASF152
     /tmp/ccJTLzyK.s:5585   .debug_str:0000000000000854 .LASF154
     /tmp/ccJTLzyK.s:5617   .debug_str:000000000000092a .LASF156
     /tmp/ccJTLzyK.s:5403   .debug_str:00000000000002d9 .LASF157
     /tmp/ccJTLzyK.s:5679   .debug_str:0000000000000b99 .LASF159
     /tmp/ccJTLzyK.s:5647   .debug_str:0000000000000a09 .LASF158
     /tmp/ccJTLzyK.s:5681   .debug_str:0000000000000bae .LASF160
     /tmp/ccJTLzyK.s:5377   .debug_str:00000000000001e4 .LASF161
     /tmp/ccJTLzyK.s:5675   .debug_str:0000000000000b64 .LASF162
     /tmp/ccJTLzyK.s:5469   .debug_str:0000000000000503 .LASF220
     /tmp/ccJTLzyK.s:5429   .debug_str:000000000000038e .LASF163
     /tmp/ccJTLzyK.s:5335   .debug_str:00000000000000c8 .LASF164
     /tmp/ccJTLzyK.s:5755   .debug_str:0000000000000e1a .LASF165
     /tmp/ccJTLzyK.s:522    .text._ZN14PeriodicThreadD0Ev:0000000000000000 .LFB68
     /tmp/ccJTLzyK.s:562    .text._ZN14PeriodicThreadD0Ev:000000000000004c .LFE68
     /tmp/ccJTLzyK.s:4804   .debug_loc:0000000000000000 .LLST13
     /tmp/ccJTLzyK.s:538    .text._ZN14PeriodicThreadD0Ev:0000000000000018 .LBB14
     /tmp/ccJTLzyK.s:546    .text._ZN14PeriodicThreadD0Ev:000000000000002c .LBE14
GAS LISTING /tmp/ccJTLzyK.s 			page 40


     /tmp/ccJTLzyK.s:4822   .debug_loc:000000000000004c .LLST14
     /tmp/ccJTLzyK.s:544    .text._ZN14PeriodicThreadD0Ev:000000000000002c .LVL39
     /tmp/ccJTLzyK.s:549    .text._ZN14PeriodicThreadD0Ev:0000000000000038 .LVL40
     /tmp/ccJTLzyK.s:5603   .debug_str:00000000000008b8 .LASF166
     /tmp/ccJTLzyK.s:406    .text._ZN14PeriodicThreadD2Ev:0000000000000000 .LFB66
     /tmp/ccJTLzyK.s:434    .text._ZN14PeriodicThreadD2Ev:0000000000000034 .LFE66
     /tmp/ccJTLzyK.s:4833   .debug_loc:0000000000000082 .LLST10
     /tmp/ccJTLzyK.s:423    .text._ZN14PeriodicThreadD2Ev:0000000000000024 .LVL28
     /tmp/ccJTLzyK.s:1108   .text:00000000000004e0 .LFB64
     /tmp/ccJTLzyK.s:1134   .text:0000000000000508 .LFE64
     /tmp/ccJTLzyK.s:4847   .debug_loc:00000000000000bb .LLST30
     /tmp/ccJTLzyK.s:1123   .text:00000000000004f8 .LVL80
     /tmp/ccJTLzyK.s:1077   .text:00000000000004b8 .LFB63
     /tmp/ccJTLzyK.s:1102   .text:00000000000004e0 .LFE63
     /tmp/ccJTLzyK.s:1091   .text:00000000000004d0 .LVL78
     /tmp/ccJTLzyK.s:839    .text:0000000000000374 .LFB62
     /tmp/ccJTLzyK.s:873    .text:00000000000003ac .LFE62
     /tmp/ccJTLzyK.s:4861   .debug_loc:00000000000000f4 .LLST22
     /tmp/ccJTLzyK.s:861    .text:0000000000000398 .LVL62
     /tmp/ccJTLzyK.s:869    .text:00000000000003a8 .LVL63
     /tmp/ccJTLzyK.s:5487   .debug_str:0000000000000595 .LASF167
     /tmp/ccJTLzyK.s:1025   .text:0000000000000468 .LFB60
     /tmp/ccJTLzyK.s:1069   .text:00000000000004b8 .LFE60
     /tmp/ccJTLzyK.s:4872   .debug_loc:000000000000012a .LLST28
     /tmp/ccJTLzyK.s:4890   .debug_loc:0000000000000176 .LLST29
     /tmp/ccJTLzyK.s:1046   .text:0000000000000490 .LVL75
     /tmp/ccJTLzyK.s:993    .text:0000000000000440 .LFB58
     /tmp/ccJTLzyK.s:1019   .text:0000000000000468 .LFE58
     /tmp/ccJTLzyK.s:4909   .debug_loc:00000000000001c3 .LLST27
     /tmp/ccJTLzyK.s:1008   .text:0000000000000458 .LVL73
     /tmp/ccJTLzyK.s:957    .text:0000000000000410 .LFB57
     /tmp/ccJTLzyK.s:987    .text:0000000000000440 .LFE57
     /tmp/ccJTLzyK.s:5455   .debug_str:000000000000048a .LASF168
     /tmp/ccJTLzyK.s:4923   .debug_loc:00000000000001fc .LLST25
     /tmp/ccJTLzyK.s:5497   .debug_str:00000000000005f6 .LASF169
     /tmp/ccJTLzyK.s:4937   .debug_loc:0000000000000235 .LLST26
     /tmp/ccJTLzyK.s:976    .text:0000000000000430 .LVL71
     /tmp/ccJTLzyK.s:203    .text:00000000000000a4 .LFB56
     /tmp/ccJTLzyK.s:231    .text:00000000000000d0 .LFE56
     /tmp/ccJTLzyK.s:4951   .debug_loc:000000000000026e .LLST4
     /tmp/ccJTLzyK.s:220    .text:00000000000000c0 .LVL16
     /tmp/ccJTLzyK.s:169    .text:0000000000000078 .LFB55
     /tmp/ccJTLzyK.s:197    .text:00000000000000a4 .LFE55
     /tmp/ccJTLzyK.s:4965   .debug_loc:00000000000002a7 .LLST3
     /tmp/ccJTLzyK.s:186    .text:0000000000000094 .LVL13
     /tmp/ccJTLzyK.s:5509   .debug_str:000000000000062d .LASF170
     /tmp/ccJTLzyK.s:482    .text:00000000000001d4 .LFB54
     /tmp/ccJTLzyK.s:515    .text:0000000000000214 .LFE54
     /tmp/ccJTLzyK.s:4979   .debug_loc:00000000000002e0 .LLST12
     /tmp/ccJTLzyK.s:499    .text:00000000000001f4 .LVL34
     /tmp/ccJTLzyK.s:502    .text:0000000000000200 .LVL35
     /tmp/ccJTLzyK.s:5343   .debug_str:00000000000000fe .LASF171
     /tmp/ccJTLzyK.s:118    .text:0000000000000040 .LFB52
     /tmp/ccJTLzyK.s:153    .text:0000000000000078 .LFE52
     /tmp/ccJTLzyK.s:4997   .debug_loc:000000000000032c .LLST2
     /tmp/ccJTLzyK.s:141    .text:0000000000000068 .LVL10
     /tmp/ccJTLzyK.s:5553   .debug_str:0000000000000783 .LASF172
GAS LISTING /tmp/ccJTLzyK.s 			page 41


     /tmp/ccJTLzyK.s:916    .text:00000000000003d8 .LFB49
     /tmp/ccJTLzyK.s:949    .text:0000000000000410 .LFE49
     /tmp/ccJTLzyK.s:5011   .debug_loc:0000000000000365 .LLST23
     /tmp/ccJTLzyK.s:5031   .debug_loc:00000000000003b3 .LLST24
     /tmp/ccJTLzyK.s:937    .text:0000000000000400 .LVL67
     /tmp/ccJTLzyK.s:62     .text:0000000000000000 .LFB47
     /tmp/ccJTLzyK.s:112    .text:0000000000000040 .LFE47
     /tmp/ccJTLzyK.s:5045   .debug_loc:00000000000003ec .LLST0
     /tmp/ccJTLzyK.s:5601   .debug_str:00000000000008b1 .LASF173
     /tmp/ccJTLzyK.s:5070   .debug_loc:000000000000044e .LLST1
     /tmp/ccJTLzyK.s:108    .text:000000000000003c .LVL7
     /tmp/ccJTLzyK.s:5607   .debug_str:00000000000008de .LASF174
     /tmp/ccJTLzyK.s:879    .text:00000000000003ac .LFB45
     /tmp/ccJTLzyK.s:908    .text:00000000000003d8 .LFE45
     /tmp/ccJTLzyK.s:807    .text:000000000000034c .LFB43
     /tmp/ccJTLzyK.s:833    .text:0000000000000374 .LFE43
     /tmp/ccJTLzyK.s:5095   .debug_loc:00000000000004b0 .LLST21
     /tmp/ccJTLzyK.s:822    .text:0000000000000364 .LVL59
     /tmp/ccJTLzyK.s:776    .text:0000000000000324 .LFB42
     /tmp/ccJTLzyK.s:801    .text:000000000000034c .LFE42
     /tmp/ccJTLzyK.s:790    .text:000000000000033c .LVL57
     /tmp/ccJTLzyK.s:742    .text:00000000000002f8 .LFB41
     /tmp/ccJTLzyK.s:770    .text:0000000000000324 .LFE41
     /tmp/ccJTLzyK.s:5109   .debug_loc:00000000000004e9 .LLST20
     /tmp/ccJTLzyK.s:759    .text:0000000000000314 .LVL56
     /tmp/ccJTLzyK.s:708    .text:00000000000002cc .LFB40
     /tmp/ccJTLzyK.s:736    .text:00000000000002f8 .LFE40
     /tmp/ccJTLzyK.s:5123   .debug_loc:0000000000000522 .LLST18
     /tmp/ccJTLzyK.s:5567   .debug_str:00000000000007d7 .LASF175
     /tmp/ccJTLzyK.s:5137   .debug_loc:000000000000055b .LLST19
     /tmp/ccJTLzyK.s:725    .text:00000000000002e8 .LVL53
     /tmp/ccJTLzyK.s:674    .text:00000000000002a0 .LFB39
     /tmp/ccJTLzyK.s:702    .text:00000000000002cc .LFE39
     /tmp/ccJTLzyK.s:5151   .debug_loc:0000000000000594 .LLST17
     /tmp/ccJTLzyK.s:691    .text:00000000000002bc .LVL50
     /tmp/ccJTLzyK.s:638    .text:0000000000000268 .LFB38
     /tmp/ccJTLzyK.s:668    .text:00000000000002a0 .LFE38
     /tmp/ccJTLzyK.s:5165   .debug_loc:00000000000005cd .LLST16
     /tmp/ccJTLzyK.s:657    .text:0000000000000290 .LVL47
     /tmp/ccJTLzyK.s:5513   .debug_str:0000000000000646 .LASF176
     /tmp/ccJTLzyK.s:443    .text:0000000000000194 .LFB37
     /tmp/ccJTLzyK.s:476    .text:00000000000001d4 .LFE37
     /tmp/ccJTLzyK.s:5183   .debug_loc:0000000000000619 .LLST11
     /tmp/ccJTLzyK.s:460    .text:00000000000001b4 .LVL30
     /tmp/ccJTLzyK.s:463    .text:00000000000001c0 .LVL31
     /tmp/ccJTLzyK.s:5725   .debug_str:0000000000000d14 .LASF177
     /tmp/ccJTLzyK.s:333    .text:0000000000000148 .LFB35
     /tmp/ccJTLzyK.s:390    .text:0000000000000194 .LFE35
     /tmp/ccJTLzyK.s:5201   .debug_loc:0000000000000665 .LLST8
     /tmp/ccJTLzyK.s:347    .text:0000000000000158 .LBB10
     /tmp/ccJTLzyK.s:355    .text:000000000000015c .LBE10
     /tmp/ccJTLzyK.s:5215   .debug_loc:000000000000069e .LLST9
     /tmp/ccJTLzyK.s:378    .text:0000000000000184 .LVL26
     /tmp/ccJTLzyK.s:5707   .debug_str:0000000000000ca2 .LASF178
     /tmp/ccJTLzyK.s:601    .text:000000000000023c .LFB32
     /tmp/ccJTLzyK.s:630    .text:0000000000000268 .LFE32
     /tmp/ccJTLzyK.s:5629   .debug_str:0000000000000979 .LASF179
GAS LISTING /tmp/ccJTLzyK.s 			page 42


     /tmp/ccJTLzyK.s:5555   .debug_str:0000000000000795 .LASF180
     /tmp/ccJTLzyK.s:569    .text:0000000000000214 .LFB30
     /tmp/ccJTLzyK.s:595    .text:000000000000023c .LFE30
     /tmp/ccJTLzyK.s:5222   .debug_loc:00000000000006c1 .LLST15
     /tmp/ccJTLzyK.s:584    .text:000000000000022c .LVL43
     /tmp/ccJTLzyK.s:5329   .debug_str:000000000000007c .LASF181
     /tmp/ccJTLzyK.s:5561   .debug_str:00000000000007b0 .LASF182
     /tmp/ccJTLzyK.s:301    .text:0000000000000120 .LFB29
     /tmp/ccJTLzyK.s:327    .text:0000000000000148 .LFE29
     /tmp/ccJTLzyK.s:5236   .debug_loc:00000000000006fa .LLST7
     /tmp/ccJTLzyK.s:316    .text:0000000000000138 .LVL22
     /tmp/ccJTLzyK.s:5367   .debug_str:0000000000000196 .LASF183
     /tmp/ccJTLzyK.s:5349   .debug_str:0000000000000127 .LASF184
     /tmp/ccJTLzyK.s:269    .text:00000000000000f8 .LFB28
     /tmp/ccJTLzyK.s:295    .text:0000000000000120 .LFE28
     /tmp/ccJTLzyK.s:5250   .debug_loc:0000000000000733 .LLST6
     /tmp/ccJTLzyK.s:284    .text:0000000000000110 .LVL20
     /tmp/ccJTLzyK.s:5749   .debug_str:0000000000000de7 .LASF185
     /tmp/ccJTLzyK.s:5421   .debug_str:000000000000035a .LASF186
     /tmp/ccJTLzyK.s:237    .text:00000000000000d0 .LFB27
     /tmp/ccJTLzyK.s:263    .text:00000000000000f8 .LFE27
     /tmp/ccJTLzyK.s:5264   .debug_loc:000000000000076c .LLST5
     /tmp/ccJTLzyK.s:252    .text:00000000000000e8 .LVL18
     /tmp/ccJTLzyK.s:37     .text._ZN14PeriodicThread18periodicActivationEv:0000000000000000 .LFB4
     /tmp/ccJTLzyK.s:55     .text._ZN14PeriodicThread18periodicActivationEv:0000000000000018 .LFE4
     /tmp/ccJTLzyK.s:11     .text._ZN6Thread3runEv:0000000000000000 .LFB0
     /tmp/ccJTLzyK.s:30     .text._ZN6Thread3runEv:0000000000000018 .LFE0
     /tmp/ccJTLzyK.s:5315   .debug_str:0000000000000000 .LASF187
     /tmp/ccJTLzyK.s:5635   .debug_str:00000000000009a7 .LASF188
     /tmp/ccJTLzyK.s:5325   .debug_str:000000000000006c .LASF189
     /tmp/ccJTLzyK.s:5523   .debug_str:000000000000068d .LASF190
     /tmp/ccJTLzyK.s:5623   .debug_str:0000000000000957 .LASF191
     /tmp/ccJTLzyK.s:5351   .debug_str:000000000000012d .LASF192
     /tmp/ccJTLzyK.s:5587   .debug_str:000000000000085f .LASF193
     /tmp/ccJTLzyK.s:5733   .debug_str:0000000000000d4e .LASF194
     /tmp/ccJTLzyK.s:5347   .debug_str:000000000000011e .LASF195
     /tmp/ccJTLzyK.s:5575   .debug_str:000000000000081a .LASF196
     /tmp/ccJTLzyK.s:5393   .debug_str:0000000000000265 .LASF197
     /tmp/ccJTLzyK.s:5341   .debug_str:00000000000000e9 .LASF198
     /tmp/ccJTLzyK.s:5589   .debug_str:0000000000000869 .LASF199
     /tmp/ccJTLzyK.s:5415   .debug_str:0000000000000330 .LASF200
     /tmp/ccJTLzyK.s:5613   .debug_str:000000000000090e .LASF201
     /tmp/ccJTLzyK.s:5531   .debug_str:00000000000006d1 .LASF202
     /tmp/ccJTLzyK.s:5547   .debug_str:0000000000000760 .LASF203
     /tmp/ccJTLzyK.s:5619   .debug_str:000000000000093c .LASF204
     /tmp/ccJTLzyK.s:5433   .debug_str:00000000000003a3 .LASF205
     /tmp/ccJTLzyK.s:5639   .debug_str:00000000000009c9 .LASF206
     /tmp/ccJTLzyK.s:5447   .debug_str:0000000000000455 .LASF207
     /tmp/ccJTLzyK.s:5465   .debug_str:00000000000004e9 .LASF208
     /tmp/ccJTLzyK.s:5453   .debug_str:000000000000047c .LASF209
     /tmp/ccJTLzyK.s:5533   .debug_str:00000000000006e7 .LASF210
     /tmp/ccJTLzyK.s:525    .text._ZN14PeriodicThreadD0Ev:0000000000000000 .LVL37
     /tmp/ccJTLzyK.s:557    .text._ZN14PeriodicThreadD0Ev:0000000000000044 .LVL41
     /tmp/ccJTLzyK.s:537    .text._ZN14PeriodicThreadD0Ev:0000000000000018 .LVL38
     /tmp/ccJTLzyK.s:409    .text._ZN14PeriodicThreadD2Ev:0000000000000000 .LVL27
     /tmp/ccJTLzyK.s:1111   .text:00000000000004e0 .LVL79
     /tmp/ccJTLzyK.s:842    .text:0000000000000374 .LVL60
GAS LISTING /tmp/ccJTLzyK.s 			page 43


     /tmp/ccJTLzyK.s:854    .text:000000000000038c .LVL61
     /tmp/ccJTLzyK.s:1028   .text:0000000000000468 .LVL74
     /tmp/ccJTLzyK.s:1061   .text:00000000000004ac .LVL76
     /tmp/ccJTLzyK.s:1064   .text:00000000000004b0 .LVL77
     /tmp/ccJTLzyK.s:996    .text:0000000000000440 .LVL72
     /tmp/ccJTLzyK.s:960    .text:0000000000000410 .LVL68
     /tmp/ccJTLzyK.s:974    .text:0000000000000428 .LVL70
     /tmp/ccJTLzyK.s:972    .text:0000000000000424 .LVL69
     /tmp/ccJTLzyK.s:206    .text:00000000000000a4 .LVL14
     /tmp/ccJTLzyK.s:218    .text:00000000000000b8 .LVL15
     /tmp/ccJTLzyK.s:172    .text:0000000000000078 .LVL11
     /tmp/ccJTLzyK.s:184    .text:000000000000008c .LVL12
     /tmp/ccJTLzyK.s:485    .text:00000000000001d4 .LVL33
     /tmp/ccJTLzyK.s:510    .text:000000000000020c .LVL36
     /tmp/ccJTLzyK.s:123    .text:0000000000000040 .LVL8
     /tmp/ccJTLzyK.s:139    .text:0000000000000060 .LVL9
     /tmp/ccJTLzyK.s:919    .text:00000000000003d8 .LVL65
     /tmp/ccJTLzyK.s:935    .text:00000000000003f8 .LVL66
     /tmp/ccJTLzyK.s:66     .text:0000000000000000 .LVL2
     /tmp/ccJTLzyK.s:85     .text:000000000000001c .LVL4
     /tmp/ccJTLzyK.s:99     .text:0000000000000030 .LVL6
     /tmp/ccJTLzyK.s:76     .text:0000000000000010 .LVL3
     /tmp/ccJTLzyK.s:810    .text:000000000000034c .LVL58
     /tmp/ccJTLzyK.s:745    .text:00000000000002f8 .LVL54
     /tmp/ccJTLzyK.s:757    .text:000000000000030c .LVL55
     /tmp/ccJTLzyK.s:711    .text:00000000000002cc .LVL51
     /tmp/ccJTLzyK.s:723    .text:00000000000002e0 .LVL52
     /tmp/ccJTLzyK.s:677    .text:00000000000002a0 .LVL48
     /tmp/ccJTLzyK.s:689    .text:00000000000002b4 .LVL49
     /tmp/ccJTLzyK.s:641    .text:0000000000000268 .LVL45
     /tmp/ccJTLzyK.s:655    .text:0000000000000288 .LVL46
     /tmp/ccJTLzyK.s:446    .text:0000000000000194 .LVL29
     /tmp/ccJTLzyK.s:471    .text:00000000000001cc .LVL32
     /tmp/ccJTLzyK.s:338    .text:0000000000000148 .LVL23
     /tmp/ccJTLzyK.s:346    .text:0000000000000158 .LVL24
     /tmp/ccJTLzyK.s:353    .text:000000000000015c .LVL25
     /tmp/ccJTLzyK.s:572    .text:0000000000000214 .LVL42
     /tmp/ccJTLzyK.s:304    .text:0000000000000120 .LVL21
     /tmp/ccJTLzyK.s:272    .text:00000000000000f8 .LVL19
     /tmp/ccJTLzyK.s:240    .text:00000000000000d0 .LVL17
     /tmp/ccJTLzyK.s:1177   .debug_info:0000000000000000 .Ldebug_info0
     /tmp/ccJTLzyK.s:5      .text:0000000000000000 .Ltext0
     /tmp/ccJTLzyK.s:1172   .text:0000000000000508 .Letext0
     /tmp/ccJTLzyK.s:156    .gcc_except_table:0000000000000000 .LLSDA52
     /tmp/ccJTLzyK.s:392    .gcc_except_table:0000000000000004 .LLSDA35
                           .group:0000000000000000 _ZN14PeriodicThreadD5Ev

UNDEFINED SYMBOLS
_Z9sem_closeP3Sem
__gxx_personality_v0
_Z8sem_waitP3Sem
_Z10sem_signalP3Sem
_Z9mem_allocm
_Z8mem_freePv
_Z13thread_createPP3TCBPFvPvES2_
_Z11thread_joinP3TCB
_Z11thread_joinP3TCBm
GAS LISTING /tmp/ccJTLzyK.s 			page 44


_Z11thread_killP3TCB
_Z15thread_dispatchv
_Z10time_sleepm
_Z8sem_openPP3Semj
_Z15signal_and_waitP3SemS0_
