GAS LISTING /tmp/cck5AKNu.s 			page 1


   1              		.file	"user_main.cpp"
   2              		.option pic
   3              		.option norelax
   4              		.text
   5              	.Ltext0:
   6              		.section	.text._ZN15FibonacciThreadD2Ev,"axG",@progbits,_ZN15FibonacciThreadD5Ev,comdat
   7              		.align	2
   8              		.weak	_ZN15FibonacciThreadD2Ev
  10              	_ZN15FibonacciThreadD2Ev:
  11              	.LFB92:
  12              		.file 1 "src/user_main.cpp"
   1:src/user_main.cpp **** #include "../h/syscall_c.hpp"
   2:src/user_main.cpp **** #include "../h/c_console.hpp"
   3:src/user_main.cpp **** #include "../h/syscall_cpp.hpp"
   4:src/user_main.cpp **** #include "../h/c_thread.hpp"
   5:src/user_main.cpp **** #include "../h/iostream.hpp"
   6:src/user_main.cpp **** #include "../h/string.hpp"
   7:src/user_main.cpp **** 
   8:src/user_main.cpp **** using namespace stm;
   9:src/user_main.cpp **** 
  10:src/user_main.cpp **** class FibonacciThread : public Thread {
  13              		.loc 1 10 7
  14              		.cfi_startproc
  15              	.LVL0:
  16 0000 130101FF 		addi	sp,sp,-16
  17              		.cfi_def_cfa_offset 16
  18 0004 23341100 		sd	ra,8(sp)
  19 0008 23308100 		sd	s0,0(sp)
  20              		.cfi_offset 1, -8
  21              		.cfi_offset 8, -16
  22 000c 13040101 		addi	s0,sp,16
  23              		.cfi_def_cfa 8, 0
  24              	.LBB44:
  25              		.loc 1 10 7 is_stmt 0
  26 0010 97070000 		lla	a5,_ZTV15FibonacciThread+16
  26      93870700 
  27 0018 2330F500 		sd	a5,0(a0)
  28 001c 97000000 		call	_ZN6ThreadD2Ev@plt
  28      E7800000 
  29              	.LVL1:
  30              	.LBE44:
  31 0024 83308100 		ld	ra,8(sp)
  32              		.cfi_restore 1
  33 0028 03340100 		ld	s0,0(sp)
  34              		.cfi_restore 8
  35              		.cfi_def_cfa 2, 16
  36 002c 13010101 		addi	sp,sp,16
  37              		.cfi_def_cfa_offset 0
  38 0030 67800000 		jr	ra
  39              		.cfi_endproc
  40              	.LFE92:
  42              		.weak	_ZN15FibonacciThreadD1Ev
  43              		.set	_ZN15FibonacciThreadD1Ev,_ZN15FibonacciThreadD2Ev
  44              		.section	.text._ZN15FibonacciThreadD0Ev,"axG",@progbits,_ZN15FibonacciThreadD5Ev,comdat
  45              		.align	2
  46              		.weak	_ZN15FibonacciThreadD0Ev
  48              	_ZN15FibonacciThreadD0Ev:
GAS LISTING /tmp/cck5AKNu.s 			page 2


  49              	.LFB94:
  50              		.loc 1 10 7 is_stmt 1
  51              		.cfi_startproc
  52              	.LVL2:
  53 0000 130101FE 		addi	sp,sp,-32
  54              		.cfi_def_cfa_offset 32
  55 0004 233C1100 		sd	ra,24(sp)
  56 0008 23388100 		sd	s0,16(sp)
  57 000c 23349100 		sd	s1,8(sp)
  58              		.cfi_offset 1, -8
  59              		.cfi_offset 8, -16
  60              		.cfi_offset 9, -24
  61 0010 13040102 		addi	s0,sp,32
  62              		.cfi_def_cfa 8, 0
  63 0014 93040500 		mv	s1,a0
  64              	.LVL3:
  65              	.LBB45:
  66              	.LBB46:
  67              		.loc 1 10 7 is_stmt 0
  68 0018 97070000 		lla	a5,_ZTV15FibonacciThread+16
  68      93870700 
  69 0020 2330F500 		sd	a5,0(a0)
  70 0024 97000000 		call	_ZN6ThreadD2Ev@plt
  70      E7800000 
  71              	.LVL4:
  72              	.LBE46:
  73              	.LBE45:
  74 002c 13850400 		mv	a0,s1
  75 0030 97000000 		call	_ZdlPv@plt
  75      E7800000 
  76              	.LVL5:
  77 0038 83308101 		ld	ra,24(sp)
  78              		.cfi_restore 1
  79 003c 03340101 		ld	s0,16(sp)
  80              		.cfi_restore 8
  81              		.cfi_def_cfa 2, 32
  82 0040 83348100 		ld	s1,8(sp)
  83              		.cfi_restore 9
  84              	.LVL6:
  85 0044 13010102 		addi	sp,sp,32
  86              		.cfi_def_cfa_offset 0
  87 0048 67800000 		jr	ra
  88              		.cfi_endproc
  89              	.LFE94:
  91              		.section	.text._ZN13SleeperThreadD2Ev,"axG",@progbits,_ZN13SleeperThreadD5Ev,comdat
  92              		.align	2
  93              		.weak	_ZN13SleeperThreadD2Ev
  95              	_ZN13SleeperThreadD2Ev:
  96              	.LFB88:
  11:src/user_main.cpp **** public:
  12:src/user_main.cpp ****     explicit FibonacciThread(char c) : Thread(), c(c) {}
  13:src/user_main.cpp **** 
  14:src/user_main.cpp ****     void run() override {
  15:src/user_main.cpp ****         for (int i = 0; i < 10; i++) {
  16:src/user_main.cpp ****             for (int i = 0; i < 10000000; i++);
  17:src/user_main.cpp ****             putc(c);
  18:src/user_main.cpp ****         }
GAS LISTING /tmp/cck5AKNu.s 			page 3


  19:src/user_main.cpp ****         for (int i = 0; i < 10000000; i++);
  20:src/user_main.cpp ****         for (int i = 0; i < 10000000; i++);
  21:src/user_main.cpp ****         cout << fibonacci(static_cast<int>(c)) << endl;
  22:src/user_main.cpp ****     }
  23:src/user_main.cpp **** 
  24:src/user_main.cpp ****     int fibonacci(int i) {
  25:src/user_main.cpp ****         if (i < 0) return -1;
  26:src/user_main.cpp ****         return (i == 0 ? 0 : i + fibonacci(i - 1));
  27:src/user_main.cpp ****     }
  28:src/user_main.cpp **** private :
  29:src/user_main.cpp ****     char c;
  30:src/user_main.cpp **** };
  31:src/user_main.cpp **** 
  32:src/user_main.cpp **** class SleeperThread : public Thread {
  97              		.loc 1 32 7 is_stmt 1
  98              		.cfi_startproc
  99              	.LVL7:
 100 0000 130101FF 		addi	sp,sp,-16
 101              		.cfi_def_cfa_offset 16
 102 0004 23341100 		sd	ra,8(sp)
 103 0008 23308100 		sd	s0,0(sp)
 104              		.cfi_offset 1, -8
 105              		.cfi_offset 8, -16
 106 000c 13040101 		addi	s0,sp,16
 107              		.cfi_def_cfa 8, 0
 108              	.LBB47:
 109              		.loc 1 32 7 is_stmt 0
 110 0010 97070000 		lla	a5,_ZTV13SleeperThread+16
 110      93870700 
 111 0018 2330F500 		sd	a5,0(a0)
 112 001c 97000000 		call	_ZN6ThreadD2Ev@plt
 112      E7800000 
 113              	.LVL8:
 114              	.LBE47:
 115 0024 83308100 		ld	ra,8(sp)
 116              		.cfi_restore 1
 117 0028 03340100 		ld	s0,0(sp)
 118              		.cfi_restore 8
 119              		.cfi_def_cfa 2, 16
 120 002c 13010101 		addi	sp,sp,16
 121              		.cfi_def_cfa_offset 0
 122 0030 67800000 		jr	ra
 123              		.cfi_endproc
 124              	.LFE88:
 126              		.weak	_ZN13SleeperThreadD1Ev
 127              		.set	_ZN13SleeperThreadD1Ev,_ZN13SleeperThreadD2Ev
 128              		.section	.text._ZN13SleeperThreadD0Ev,"axG",@progbits,_ZN13SleeperThreadD5Ev,comdat
 129              		.align	2
 130              		.weak	_ZN13SleeperThreadD0Ev
 132              	_ZN13SleeperThreadD0Ev:
 133              	.LFB90:
 134              		.loc 1 32 7 is_stmt 1
 135              		.cfi_startproc
 136              	.LVL9:
 137 0000 130101FE 		addi	sp,sp,-32
 138              		.cfi_def_cfa_offset 32
 139 0004 233C1100 		sd	ra,24(sp)
GAS LISTING /tmp/cck5AKNu.s 			page 4


 140 0008 23388100 		sd	s0,16(sp)
 141 000c 23349100 		sd	s1,8(sp)
 142              		.cfi_offset 1, -8
 143              		.cfi_offset 8, -16
 144              		.cfi_offset 9, -24
 145 0010 13040102 		addi	s0,sp,32
 146              		.cfi_def_cfa 8, 0
 147 0014 93040500 		mv	s1,a0
 148              	.LVL10:
 149              	.LBB48:
 150              	.LBB49:
 151              		.loc 1 32 7 is_stmt 0
 152 0018 97070000 		lla	a5,_ZTV13SleeperThread+16
 152      93870700 
 153 0020 2330F500 		sd	a5,0(a0)
 154 0024 97000000 		call	_ZN6ThreadD2Ev@plt
 154      E7800000 
 155              	.LVL11:
 156              	.LBE49:
 157              	.LBE48:
 158 002c 13850400 		mv	a0,s1
 159 0030 97000000 		call	_ZdlPv@plt
 159      E7800000 
 160              	.LVL12:
 161 0038 83308101 		ld	ra,24(sp)
 162              		.cfi_restore 1
 163 003c 03340101 		ld	s0,16(sp)
 164              		.cfi_restore 8
 165              		.cfi_def_cfa 2, 32
 166 0040 83348100 		ld	s1,8(sp)
 167              		.cfi_restore 9
 168              	.LVL13:
 169 0044 13010102 		addi	sp,sp,32
 170              		.cfi_def_cfa_offset 0
 171 0048 67800000 		jr	ra
 172              		.cfi_endproc
 173              	.LFE90:
 175              		.section	.text._ZN7PthreadD2Ev,"axG",@progbits,_ZN7PthreadD5Ev,comdat
 176              		.align	2
 177              		.weak	_ZN7PthreadD2Ev
 179              	_ZN7PthreadD2Ev:
 180              	.LFB84:
  33:src/user_main.cpp **** public:
  34:src/user_main.cpp ****     explicit SleeperThread(int time) : time(time) {}
  35:src/user_main.cpp ****     void run() override {
  36:src/user_main.cpp ****         for (int i = 0; i < 100 / time; i++) {
  37:src/user_main.cpp ****             Thread::sleep(time);
  38:src/user_main.cpp ****             cout << "Hello thread " << time / 10 << "s!"<< endl;
  39:src/user_main.cpp ****         }
  40:src/user_main.cpp ****     }
  41:src/user_main.cpp **** private:
  42:src/user_main.cpp ****     int time;
  43:src/user_main.cpp **** };
  44:src/user_main.cpp **** 
  45:src/user_main.cpp **** #define THRD 50
  46:src/user_main.cpp **** 
  47:src/user_main.cpp **** class Pthread : public PeriodicThread {
GAS LISTING /tmp/cck5AKNu.s 			page 5


 181              		.loc 1 47 7 is_stmt 1
 182              		.cfi_startproc
 183              	.LVL14:
 184 0000 130101FF 		addi	sp,sp,-16
 185              		.cfi_def_cfa_offset 16
 186 0004 23341100 		sd	ra,8(sp)
 187 0008 23308100 		sd	s0,0(sp)
 188              		.cfi_offset 1, -8
 189              		.cfi_offset 8, -16
 190 000c 13040101 		addi	s0,sp,16
 191              		.cfi_def_cfa 8, 0
 192              	.LVL15:
 193              	.LBB50:
 194              	.LBB51:
 195              		.file 2 "src/../h/syscall_cpp.hpp"
   1:src/../h/syscall_cpp.hpp **** #ifndef _syscall_cpp
   2:src/../h/syscall_cpp.hpp **** #define _syscall_cpp
   3:src/../h/syscall_cpp.hpp **** 
   4:src/../h/syscall_cpp.hpp **** #include "../lib/hw.h"
   5:src/../h/syscall_cpp.hpp **** #include "syscall_c.hpp"
   6:src/../h/syscall_cpp.hpp **** 
   7:src/../h/syscall_cpp.hpp **** void *operator new(size_t);
   8:src/../h/syscall_cpp.hpp **** 
   9:src/../h/syscall_cpp.hpp **** void operator delete(void *);
  10:src/../h/syscall_cpp.hpp **** 
  11:src/../h/syscall_cpp.hpp **** 
  12:src/../h/syscall_cpp.hpp **** class Thread {
  13:src/../h/syscall_cpp.hpp **** public:
  14:src/../h/syscall_cpp.hpp ****     Thread(void (*body)(void *), void *arg);
  15:src/../h/syscall_cpp.hpp **** 
  16:src/../h/syscall_cpp.hpp ****     virtual ~Thread();
  17:src/../h/syscall_cpp.hpp **** 
  18:src/../h/syscall_cpp.hpp ****     int start();
  19:src/../h/syscall_cpp.hpp **** 
  20:src/../h/syscall_cpp.hpp ****     void join();
  21:src/../h/syscall_cpp.hpp **** 
  22:src/../h/syscall_cpp.hpp ****     void join(time_t);
  23:src/../h/syscall_cpp.hpp **** 
  24:src/../h/syscall_cpp.hpp ****     static int kill(Thread *);
  25:src/../h/syscall_cpp.hpp **** 
  26:src/../h/syscall_cpp.hpp ****     static void dispatch();
  27:src/../h/syscall_cpp.hpp **** 
  28:src/../h/syscall_cpp.hpp ****     static int sleep(time_t);
  29:src/../h/syscall_cpp.hpp **** 
  30:src/../h/syscall_cpp.hpp ****     static void threadStart(void *);
  31:src/../h/syscall_cpp.hpp **** 
  32:src/../h/syscall_cpp.hpp **** protected:
  33:src/../h/syscall_cpp.hpp ****     Thread();
  34:src/../h/syscall_cpp.hpp **** 
  35:src/../h/syscall_cpp.hpp ****     virtual void run() {}
  36:src/../h/syscall_cpp.hpp **** 
  37:src/../h/syscall_cpp.hpp **** private:
  38:src/../h/syscall_cpp.hpp ****     thread_t myHandle;
  39:src/../h/syscall_cpp.hpp **** 
  40:src/../h/syscall_cpp.hpp ****     void (*body)(void *);
  41:src/../h/syscall_cpp.hpp **** 
  42:src/../h/syscall_cpp.hpp ****     void *arg;
GAS LISTING /tmp/cck5AKNu.s 			page 6


  43:src/../h/syscall_cpp.hpp **** };
  44:src/../h/syscall_cpp.hpp **** 
  45:src/../h/syscall_cpp.hpp **** 
  46:src/../h/syscall_cpp.hpp **** class Semaphore {
  47:src/../h/syscall_cpp.hpp **** public:
  48:src/../h/syscall_cpp.hpp **** 
  49:src/../h/syscall_cpp.hpp ****     explicit Semaphore(unsigned init);
  50:src/../h/syscall_cpp.hpp **** 
  51:src/../h/syscall_cpp.hpp ****     virtual ~Semaphore();
  52:src/../h/syscall_cpp.hpp **** 
  53:src/../h/syscall_cpp.hpp ****     virtual int wait();
  54:src/../h/syscall_cpp.hpp **** 
  55:src/../h/syscall_cpp.hpp ****     virtual int signal();
  56:src/../h/syscall_cpp.hpp **** 
  57:src/../h/syscall_cpp.hpp ****     static int signal_and_wait(Semaphore &sem1, Semaphore &sem2);
  58:src/../h/syscall_cpp.hpp **** 
  59:src/../h/syscall_cpp.hpp **** protected:
  60:src/../h/syscall_cpp.hpp ****     sem_t myHandle;
  61:src/../h/syscall_cpp.hpp **** 
  62:src/../h/syscall_cpp.hpp **** };
  63:src/../h/syscall_cpp.hpp **** 
  64:src/../h/syscall_cpp.hpp **** class Mutex : public Semaphore {
  65:src/../h/syscall_cpp.hpp **** public:
  66:src/../h/syscall_cpp.hpp ****     Mutex() : Semaphore(1) {}
  67:src/../h/syscall_cpp.hpp **** };
  68:src/../h/syscall_cpp.hpp **** 
  69:src/../h/syscall_cpp.hpp **** 
  70:src/../h/syscall_cpp.hpp **** class PeriodicThread : public Thread {
 196              		.loc 2 70 7 is_stmt 0
 197 0010 97070000 		la	a5,_ZTV14PeriodicThread
 197      83B70700 
 198 0018 93870701 		addi	a5,a5,16
 199 001c 2330F500 		sd	a5,0(a0)
 200 0020 97000000 		call	_ZN6ThreadD2Ev@plt
 200      E7800000 
 201              	.LVL16:
 202              	.LBE51:
 203              	.LBE50:
 204              		.loc 1 47 7
 205 0028 83308100 		ld	ra,8(sp)
 206              		.cfi_restore 1
 207 002c 03340100 		ld	s0,0(sp)
 208              		.cfi_restore 8
 209              		.cfi_def_cfa 2, 16
 210 0030 13010101 		addi	sp,sp,16
 211              		.cfi_def_cfa_offset 0
 212 0034 67800000 		jr	ra
 213              		.cfi_endproc
 214              	.LFE84:
 216              		.weak	_ZN7PthreadD1Ev
 217              		.set	_ZN7PthreadD1Ev,_ZN7PthreadD2Ev
 218              		.section	.text._ZN7PthreadD0Ev,"axG",@progbits,_ZN7PthreadD5Ev,comdat
 219              		.align	2
 220              		.weak	_ZN7PthreadD0Ev
 222              	_ZN7PthreadD0Ev:
 223              	.LFB86:
 224              		.loc 1 47 7 is_stmt 1
GAS LISTING /tmp/cck5AKNu.s 			page 7


 225              		.cfi_startproc
 226              	.LVL17:
 227 0000 130101FE 		addi	sp,sp,-32
 228              		.cfi_def_cfa_offset 32
 229 0004 233C1100 		sd	ra,24(sp)
 230 0008 23388100 		sd	s0,16(sp)
 231 000c 23349100 		sd	s1,8(sp)
 232              		.cfi_offset 1, -8
 233              		.cfi_offset 8, -16
 234              		.cfi_offset 9, -24
 235 0010 13040102 		addi	s0,sp,32
 236              		.cfi_def_cfa 8, 0
 237 0014 93040500 		mv	s1,a0
 238              	.LVL18:
 239              	.LBB52:
 240              	.LBB53:
 241              	.LBB54:
 242              		.loc 2 70 7 is_stmt 0
 243 0018 97070000 		la	a5,_ZTV14PeriodicThread
 243      83B70700 
 244 0020 93870701 		addi	a5,a5,16
 245 0024 2330F500 		sd	a5,0(a0)
 246 0028 97000000 		call	_ZN6ThreadD2Ev@plt
 246      E7800000 
 247              	.LVL19:
 248              	.LBE54:
 249              	.LBE53:
 250              	.LBE52:
 251              		.loc 1 47 7
 252 0030 13850400 		mv	a0,s1
 253 0034 97000000 		call	_ZdlPv@plt
 253      E7800000 
 254              	.LVL20:
 255 003c 83308101 		ld	ra,24(sp)
 256              		.cfi_restore 1
 257 0040 03340101 		ld	s0,16(sp)
 258              		.cfi_restore 8
 259              		.cfi_def_cfa 2, 32
 260 0044 83348100 		ld	s1,8(sp)
 261              		.cfi_restore 9
 262              	.LVL21:
 263 0048 13010102 		addi	sp,sp,32
 264              		.cfi_def_cfa_offset 0
 265 004c 67800000 		jr	ra
 266              		.cfi_endproc
 267              	.LFE86:
 269              		.section	.rodata._ZN13SleeperThread3runEv.str1.8,"aMS",@progbits,1
 270              		.align	3
 271              	.LC0:
 272 0000 48656C6C 		.string	"Hello thread "
 272      6F207468 
 272      72656164 
 272      2000
 273 000e 0000     		.align	3
 274              	.LC1:
 275 0010 732100   		.string	"s!"
 276              		.section	.text._ZN13SleeperThread3runEv,"axG",@progbits,_ZN13SleeperThread3runEv,comdat
GAS LISTING /tmp/cck5AKNu.s 			page 8


 277              		.align	2
 278              		.weak	_ZN13SleeperThread3runEv
 280              	_ZN13SleeperThread3runEv:
 281              	.LFB72:
  35:src/user_main.cpp ****         for (int i = 0; i < 100 / time; i++) {
 282              		.loc 1 35 10 is_stmt 1
 283              		.cfi_startproc
 284              	.LVL22:
 285 0000 130101FE 		addi	sp,sp,-32
 286              		.cfi_def_cfa_offset 32
 287 0004 233C1100 		sd	ra,24(sp)
 288 0008 23388100 		sd	s0,16(sp)
 289 000c 23349100 		sd	s1,8(sp)
 290 0010 23302101 		sd	s2,0(sp)
 291              		.cfi_offset 1, -8
 292              		.cfi_offset 8, -16
 293              		.cfi_offset 9, -24
 294              		.cfi_offset 18, -32
 295 0014 13040102 		addi	s0,sp,32
 296              		.cfi_def_cfa 8, 0
 297 0018 13090500 		mv	s2,a0
  36:src/user_main.cpp ****             Thread::sleep(time);
 298              		.loc 1 36 9
 299              	.LVL23:
 300              	.LBB55:
  36:src/user_main.cpp ****             Thread::sleep(time);
 301              		.loc 1 36 18 is_stmt 0
 302 001c 93040000 		li	s1,0
 303              	.LVL24:
 304              	.L15:
  36:src/user_main.cpp ****             Thread::sleep(time);
 305              		.loc 1 36 27 is_stmt 1 discriminator 3
  36:src/user_main.cpp ****             Thread::sleep(time);
 306              		.loc 1 36 35 is_stmt 0 discriminator 3
 307 0020 03250902 		lw	a0,32(s2)
  36:src/user_main.cpp ****             Thread::sleep(time);
 308              		.loc 1 36 33 discriminator 3
 309 0024 93074006 		li	a5,100
 310 0028 BBC7A702 		divw	a5,a5,a0
  36:src/user_main.cpp ****             Thread::sleep(time);
 311              		.loc 1 36 27 discriminator 3
 312 002c 63D0F406 		ble	a5,s1,.L13
  37:src/user_main.cpp ****             cout << "Hello thread " << time / 10 << "s!"<< endl;
 313              		.loc 1 37 13 is_stmt 1 discriminator 2
  37:src/user_main.cpp ****             cout << "Hello thread " << time / 10 << "s!"<< endl;
 314              		.loc 1 37 26 is_stmt 0 discriminator 2
 315 0030 97000000 		call	_ZN6Thread5sleepEm@plt
 315      E7800000 
 316              	.LVL25:
  38:src/user_main.cpp ****         }
 317              		.loc 1 38 13 is_stmt 1 discriminator 2
  38:src/user_main.cpp ****         }
 318              		.loc 1 38 21 is_stmt 0 discriminator 2
 319 0038 97050000 		lla	a1,.LC0
 319      93850500 
 320 0040 17050000 		la	a0,_ZN3stm4coutE
 320      03350500 
GAS LISTING /tmp/cck5AKNu.s 			page 9


 321 0048 97000000 		call	_ZNK3stm7istreamlsEPKc@plt
 321      E7800000 
 322              	.LVL26:
  38:src/user_main.cpp ****         }
 323              		.loc 1 38 40 discriminator 2
 324 0050 83250902 		lw	a1,32(s2)
  38:src/user_main.cpp ****         }
 325              		.loc 1 38 47 discriminator 2
 326 0054 9307A000 		li	a5,10
 327 0058 BBC5F502 		divw	a1,a1,a5
 328 005c 97000000 		call	_ZNK3stm7istreamlsEi@plt
 328      E7800000 
 329              	.LVL27:
  38:src/user_main.cpp ****         }
 330              		.loc 1 38 53 discriminator 2
 331 0064 97050000 		lla	a1,.LC1
 331      93850500 
 332 006c 97000000 		call	_ZNK3stm7istreamlsEPKc@plt
 332      E7800000 
 333              	.LVL28:
  38:src/user_main.cpp ****         }
 334              		.loc 1 38 60 discriminator 2
 335 0074 97050000 		la	a1,_ZN3stm4endlE
 335      83B50500 
 336 007c 97000000 		call	_ZNK3stm7istreamlsERKNS_7endlineE@plt
 336      E7800000 
 337              	.LVL29:
  36:src/user_main.cpp ****             Thread::sleep(time);
 338              		.loc 1 36 9 is_stmt 1 discriminator 2
 339 0084 9B841400 		addiw	s1,s1,1
 340              	.LVL30:
 341 0088 6FF09FF9 		j	.L15
 342              	.LVL31:
 343              	.L13:
 344              	.LBE55:
  40:src/user_main.cpp **** private:
 345              		.loc 1 40 5 is_stmt 0
 346 008c 83308101 		ld	ra,24(sp)
 347              		.cfi_restore 1
 348 0090 03340101 		ld	s0,16(sp)
 349              		.cfi_restore 8
 350              		.cfi_def_cfa 2, 32
 351 0094 83348100 		ld	s1,8(sp)
 352              		.cfi_restore 9
 353              	.LVL32:
 354 0098 03390100 		ld	s2,0(sp)
 355              		.cfi_restore 18
 356              	.LVL33:
 357 009c 13010102 		addi	sp,sp,32
 358              		.cfi_def_cfa_offset 0
 359 00a0 67800000 		jr	ra
 360              		.cfi_endproc
 361              	.LFE72:
 363              		.section	.rodata._ZN7Pthread18periodicActivationEv.str1.8,"aMS",@progbits,1
 364              		.align	3
 365              	.LC2:
 366 0000 48656C6C 		.string	"Hello from periodic thread!"
GAS LISTING /tmp/cck5AKNu.s 			page 10


 366      6F206672 
 366      6F6D2070 
 366      6572696F 
 366      64696320 
 367              		.section	.text._ZN7Pthread18periodicActivationEv,"axG",@progbits,_ZN7Pthread18periodicActivationEv
 368              		.align	2
 369              		.weak	_ZN7Pthread18periodicActivationEv
 371              	_ZN7Pthread18periodicActivationEv:
 372              	.LFB80:
  48:src/user_main.cpp **** public:
  49:src/user_main.cpp ****     explicit Pthread(int period) : PeriodicThread(period) {}
  50:src/user_main.cpp ****     void periodicActivation() override {
 373              		.loc 1 50 10 is_stmt 1
 374              		.cfi_startproc
 375              	.LVL34:
 376 0000 130101FF 		addi	sp,sp,-16
 377              		.cfi_def_cfa_offset 16
 378 0004 23341100 		sd	ra,8(sp)
 379 0008 23308100 		sd	s0,0(sp)
 380              		.cfi_offset 1, -8
 381              		.cfi_offset 8, -16
 382 000c 13040101 		addi	s0,sp,16
 383              		.cfi_def_cfa 8, 0
  51:src/user_main.cpp ****         cout << "Hello from periodic thread!" << endl;
 384              		.loc 1 51 9
 385              		.loc 1 51 17 is_stmt 0
 386 0010 97050000 		lla	a1,.LC2
 386      93850500 
 387 0018 17050000 		la	a0,_ZN3stm4coutE
 387      03350500 
 388              	.LVL35:
 389 0020 97000000 		call	_ZNK3stm7istreamlsEPKc@plt
 389      E7800000 
 390              	.LVL36:
 391              		.loc 1 51 50
 392 0028 97050000 		la	a1,_ZN3stm4endlE
 392      83B50500 
 393 0030 97000000 		call	_ZNK3stm7istreamlsERKNS_7endlineE@plt
 393      E7800000 
 394              	.LVL37:
  52:src/user_main.cpp ****     }
 395              		.loc 1 52 5
 396 0038 83308100 		ld	ra,8(sp)
 397              		.cfi_restore 1
 398 003c 03340100 		ld	s0,0(sp)
 399              		.cfi_restore 8
 400              		.cfi_def_cfa 2, 16
 401 0040 13010101 		addi	sp,sp,16
 402              		.cfi_def_cfa_offset 0
 403 0044 67800000 		jr	ra
 404              		.cfi_endproc
 405              	.LFE80:
 407              		.section	.text._ZN15FibonacciThread9fibonacciEi,"axG",@progbits,_ZN15FibonacciThread9fibonacciEi,c
 408              		.align	2
 409              		.weak	_ZN15FibonacciThread9fibonacciEi
 411              	_ZN15FibonacciThread9fibonacciEi:
 412              	.LFB68:
GAS LISTING /tmp/cck5AKNu.s 			page 11


  24:src/user_main.cpp ****         if (i < 0) return -1;
 413              		.loc 1 24 9 is_stmt 1
 414              		.cfi_startproc
 415              	.LVL38:
 416 0000 130101FE 		addi	sp,sp,-32
 417              		.cfi_def_cfa_offset 32
 418 0004 233C1100 		sd	ra,24(sp)
 419 0008 23388100 		sd	s0,16(sp)
 420 000c 23349100 		sd	s1,8(sp)
 421              		.cfi_offset 1, -8
 422              		.cfi_offset 8, -16
 423              		.cfi_offset 9, -24
 424 0010 13040102 		addi	s0,sp,32
 425              		.cfi_def_cfa 8, 0
  25:src/user_main.cpp ****         return (i == 0 ? 0 : i + fibonacci(i - 1));
 426              		.loc 1 25 9
 427 0014 63CC0502 		bltz	a1,.L21
 428 0018 93840500 		mv	s1,a1
  26:src/user_main.cpp ****     }
 429              		.loc 1 26 9
  26:src/user_main.cpp ****     }
 430              		.loc 1 26 24 is_stmt 0
 431 001c 639E0500 		bnez	a1,.L23
 432              	.LVL39:
 433              	.L20:
  27:src/user_main.cpp **** private :
 434              		.loc 1 27 5
 435 0020 13850400 		mv	a0,s1
 436 0024 83308101 		ld	ra,24(sp)
 437              		.cfi_remember_state
 438              		.cfi_restore 1
 439 0028 03340101 		ld	s0,16(sp)
 440              		.cfi_restore 8
 441              		.cfi_def_cfa 2, 32
 442 002c 83348100 		ld	s1,8(sp)
 443              		.cfi_restore 9
 444 0030 13010102 		addi	sp,sp,32
 445              		.cfi_def_cfa_offset 0
 446 0034 67800000 		jr	ra
 447              	.LVL40:
 448              	.L23:
 449              		.cfi_restore_state
  26:src/user_main.cpp ****     }
 450              		.loc 1 26 43 discriminator 1
 451 0038 9B85F5FF 		addiw	a1,a1,-1
 452              	.LVL41:
 453 003c 97000000 		call	_ZN15FibonacciThread9fibonacciEi
 453      E7800000 
 454              	.LVL42:
  26:src/user_main.cpp ****     }
 455              		.loc 1 26 24 discriminator 1
 456 0044 BB84A400 		addw	s1,s1,a0
 457 0048 6FF09FFD 		j	.L20
 458              	.LVL43:
 459              	.L21:
  25:src/user_main.cpp ****         return (i == 0 ? 0 : i + fibonacci(i - 1));
 460              		.loc 1 25 28
GAS LISTING /tmp/cck5AKNu.s 			page 12


 461 004c 9304F0FF 		li	s1,-1
 462 0050 6FF01FFD 		j	.L20
 463              		.cfi_endproc
 464              	.LFE68:
 466              		.section	.text._ZN15FibonacciThread3runEv,"axG",@progbits,_ZN15FibonacciThread3runEv,comdat
 467              		.align	2
 468              		.weak	_ZN15FibonacciThread3runEv
 470              	_ZN15FibonacciThread3runEv:
 471              	.LFB67:
  14:src/user_main.cpp ****         for (int i = 0; i < 10; i++) {
 472              		.loc 1 14 10 is_stmt 1
 473              		.cfi_startproc
 474              	.LVL44:
 475 0000 130101FB 		addi	sp,sp,-80
 476              		.cfi_def_cfa_offset 80
 477 0004 23341104 		sd	ra,72(sp)
 478 0008 23308104 		sd	s0,64(sp)
 479 000c 233C9102 		sd	s1,56(sp)
 480 0010 23382103 		sd	s2,48(sp)
 481 0014 23343103 		sd	s3,40(sp)
 482 0018 23304103 		sd	s4,32(sp)
 483 001c 233C5101 		sd	s5,24(sp)
 484 0020 23386101 		sd	s6,16(sp)
 485 0024 23347101 		sd	s7,8(sp)
 486 0028 23308101 		sd	s8,0(sp)
 487              		.cfi_offset 1, -8
 488              		.cfi_offset 8, -16
 489              		.cfi_offset 9, -24
 490              		.cfi_offset 18, -32
 491              		.cfi_offset 19, -40
 492              		.cfi_offset 20, -48
 493              		.cfi_offset 21, -56
 494              		.cfi_offset 22, -64
 495              		.cfi_offset 23, -72
 496              		.cfi_offset 24, -80
 497 002c 13040105 		addi	s0,sp,80
 498              		.cfi_def_cfa 8, 0
 499 0030 93040500 		mv	s1,a0
  15:src/user_main.cpp ****             for (int i = 0; i < 10000000; i++);
 500              		.loc 1 15 9
 501              	.LVL45:
 502              	.LBB75:
  15:src/user_main.cpp ****             for (int i = 0; i < 10000000; i++);
 503              		.loc 1 15 18 is_stmt 0
 504 0034 13090000 		li	s2,0
 505 0038 6F004001 		j	.L28
 506              	.LVL46:
 507              	.L26:
 508              	.LBB76:
  17:src/user_main.cpp ****         }
 509              		.loc 1 17 13 is_stmt 1 discriminator 2
  17:src/user_main.cpp ****         }
 510              		.loc 1 17 17 is_stmt 0 discriminator 2
 511 003c 03C50402 		lbu	a0,32(s1)
 512 0040 97000000 		call	_Z4putcc@plt
 512      E7800000 
 513              	.LVL47:
GAS LISTING /tmp/cck5AKNu.s 			page 13


 514              	.LBE76:
  15:src/user_main.cpp ****             for (int i = 0; i < 10000000; i++);
 515              		.loc 1 15 9 is_stmt 1 discriminator 2
 516 0048 1B091900 		addiw	s2,s2,1
 517              	.LVL48:
 518              	.L28:
  15:src/user_main.cpp ****             for (int i = 0; i < 10000000; i++);
 519              		.loc 1 15 27 discriminator 1
 520 004c 93079000 		li	a5,9
 521 0050 63CE2701 		bgt	s2,a5,.L38
 522              	.LBB78:
 523              	.LBB77:
  16:src/user_main.cpp ****             putc(c);
 524              		.loc 1 16 22 is_stmt 0
 525 0054 13070000 		li	a4,0
 526              	.L27:
 527              	.LVL49:
  16:src/user_main.cpp ****             putc(c);
 528              		.loc 1 16 31 is_stmt 1 discriminator 3
 529 0058 B7979800 		li	a5,9998336
 530 005c 9387F767 		addi	a5,a5,1663
 531 0060 E3CEE7FC 		bgt	a4,a5,.L26
  16:src/user_main.cpp ****             putc(c);
 532              		.loc 1 16 13 discriminator 2
 533 0064 1B071700 		addiw	a4,a4,1
 534              	.LVL50:
 535 0068 6FF01FFF 		j	.L27
 536              	.L38:
 537              	.LBE77:
 538              	.LBE78:
 539              	.LBE75:
 540              	.LBB79:
  19:src/user_main.cpp ****         for (int i = 0; i < 10000000; i++);
 541              		.loc 1 19 18 is_stmt 0
 542 006c 13070000 		li	a4,0
 543              	.L25:
 544              	.LVL51:
  19:src/user_main.cpp ****         for (int i = 0; i < 10000000; i++);
 545              		.loc 1 19 27 is_stmt 1 discriminator 3
 546 0070 B7979800 		li	a5,9998336
 547 0074 9387F767 		addi	a5,a5,1663
 548 0078 63C6E700 		bgt	a4,a5,.L39
  19:src/user_main.cpp ****         for (int i = 0; i < 10000000; i++);
 549              		.loc 1 19 9 discriminator 2
 550 007c 1B071700 		addiw	a4,a4,1
 551              	.LVL52:
 552 0080 6FF01FFF 		j	.L25
 553              	.LVL53:
 554              	.L39:
 555              	.LBE79:
 556              	.LBB80:
  20:src/user_main.cpp ****         cout << fibonacci(static_cast<int>(c)) << endl;
 557              		.loc 1 20 18 is_stmt 0
 558 0084 13070000 		li	a4,0
 559              	.LVL54:
 560              	.L29:
  20:src/user_main.cpp ****         cout << fibonacci(static_cast<int>(c)) << endl;
GAS LISTING /tmp/cck5AKNu.s 			page 14


 561              		.loc 1 20 27 is_stmt 1 discriminator 3
 562 0088 B7979800 		li	a5,9998336
 563 008c 9387F767 		addi	a5,a5,1663
 564 0090 63C6E700 		bgt	a4,a5,.L30
  20:src/user_main.cpp ****         cout << fibonacci(static_cast<int>(c)) << endl;
 565              		.loc 1 20 9 discriminator 2
 566 0094 1B071700 		addiw	a4,a4,1
 567              	.LVL55:
 568 0098 6FF01FFF 		j	.L29
 569              	.LVL56:
 570              	.L30:
 571              	.LBE80:
  21:src/user_main.cpp ****     }
 572              		.loc 1 21 9
  21:src/user_main.cpp ****     }
 573              		.loc 1 21 46 is_stmt 0
 574 009c 03C90402 		lbu	s2,32(s1)
 575              	.LVL57:
 576              	.LBB81:
 577              	.LBB82:
  25:src/user_main.cpp ****         return (i == 0 ? 0 : i + fibonacci(i - 1));
 578              		.loc 1 25 9 is_stmt 1
  26:src/user_main.cpp ****     }
 579              		.loc 1 26 9
  26:src/user_main.cpp ****     }
 580              		.loc 1 26 24 is_stmt 0
 581 00a0 631C0904 		bnez	s2,.L47
 582              	.LVL58:
 583              	.L31:
 584              	.LBE82:
 585              	.LBE81:
  21:src/user_main.cpp ****     }
 586              		.loc 1 21 46
 587 00a4 93050900 		mv	a1,s2
 588 00a8 17050000 		la	a0,_ZN3stm4coutE
 588      03350500 
 589 00b0 97000000 		call	_ZNK3stm7istreamlsEi@plt
 589      E7800000 
 590              	.LVL59:
  21:src/user_main.cpp ****     }
 591              		.loc 1 21 51
 592 00b8 97050000 		la	a1,_ZN3stm4endlE
 592      83B50500 
 593 00c0 97000000 		call	_ZNK3stm7istreamlsERKNS_7endlineE@plt
 593      E7800000 
 594              	.LVL60:
  22:src/user_main.cpp **** 
 595              		.loc 1 22 5
 596 00c8 83308104 		ld	ra,72(sp)
 597              		.cfi_remember_state
 598              		.cfi_restore 1
 599 00cc 03340104 		ld	s0,64(sp)
 600              		.cfi_restore 8
 601              		.cfi_def_cfa 2, 80
 602 00d0 83348103 		ld	s1,56(sp)
 603              		.cfi_restore 9
 604              	.LVL61:
GAS LISTING /tmp/cck5AKNu.s 			page 15


 605 00d4 03390103 		ld	s2,48(sp)
 606              		.cfi_restore 18
 607 00d8 83398102 		ld	s3,40(sp)
 608              		.cfi_restore 19
 609 00dc 033A0102 		ld	s4,32(sp)
 610              		.cfi_restore 20
 611 00e0 833A8101 		ld	s5,24(sp)
 612              		.cfi_restore 21
 613 00e4 033B0101 		ld	s6,16(sp)
 614              		.cfi_restore 22
 615 00e8 833B8100 		ld	s7,8(sp)
 616              		.cfi_restore 23
 617 00ec 033C0100 		ld	s8,0(sp)
 618              		.cfi_restore 24
 619 00f0 13010105 		addi	sp,sp,80
 620              		.cfi_def_cfa_offset 0
 621 00f4 67800000 		jr	ra
 622              	.LVL62:
 623              	.L47:
 624              		.cfi_restore_state
 625              	.LBB108:
 626              	.LBB107:
  26:src/user_main.cpp ****     }
 627              		.loc 1 26 43
 628 00f8 9B09F9FF 		addiw	s3,s2,-1
 629 00fc 9B870900 		sext.w	a5,s3
 630              	.LVL63:
 631              	.LBB83:
 632              	.LBB84:
  25:src/user_main.cpp ****         return (i == 0 ? 0 : i + fibonacci(i - 1));
 633              		.loc 1 25 9 is_stmt 1
 634 0100 13970902 		slli	a4,s3,32
 635              	.LVL64:
 636 0104 634E070C 		bltz	a4,.L40
  26:src/user_main.cpp ****     }
 637              		.loc 1 26 9
  26:src/user_main.cpp ****     }
 638              		.loc 1 26 24 is_stmt 0
 639 0108 63960700 		bnez	a5,.L48
 640              	.L32:
 641              	.LVL65:
 642              	.LBE84:
 643              	.LBE83:
 644 010c 3B09F900 		addw	s2,s2,a5
 645              	.LVL66:
 646 0110 6FF05FF9 		j	.L31
 647              	.LVL67:
 648              	.L48:
 649              	.LBB106:
 650              	.LBB105:
  26:src/user_main.cpp ****     }
 651              		.loc 1 26 43
 652 0114 1B8AF9FF 		addiw	s4,s3,-1
 653 0118 9B070A00 		sext.w	a5,s4
 654              	.LVL68:
 655              	.LBB85:
 656              	.LBB86:
GAS LISTING /tmp/cck5AKNu.s 			page 16


  25:src/user_main.cpp ****         return (i == 0 ? 0 : i + fibonacci(i - 1));
 657              		.loc 1 25 9 is_stmt 1
 658 011c 13170A02 		slli	a4,s4,32
 659 0120 634C070A 		bltz	a4,.L41
  26:src/user_main.cpp ****     }
 660              		.loc 1 26 9
  26:src/user_main.cpp ****     }
 661              		.loc 1 26 24 is_stmt 0
 662 0124 63960700 		bnez	a5,.L49
 663              	.L33:
 664              	.LVL69:
 665              	.LBE86:
 666              	.LBE85:
 667 0128 BB87F900 		addw	a5,s3,a5
 668 012c 6FF01FFE 		j	.L32
 669              	.LVL70:
 670              	.L49:
 671              	.LBB104:
 672              	.LBB103:
  26:src/user_main.cpp ****     }
 673              		.loc 1 26 43
 674 0130 9B0AFAFF 		addiw	s5,s4,-1
 675 0134 9B870A00 		sext.w	a5,s5
 676              	.LVL71:
 677              	.LBB87:
 678              	.LBB88:
  25:src/user_main.cpp ****         return (i == 0 ? 0 : i + fibonacci(i - 1));
 679              		.loc 1 25 9 is_stmt 1
 680 0138 13970A02 		slli	a4,s5,32
 681 013c 634A0708 		bltz	a4,.L42
  26:src/user_main.cpp ****     }
 682              		.loc 1 26 9
  26:src/user_main.cpp ****     }
 683              		.loc 1 26 24 is_stmt 0
 684 0140 63960700 		bnez	a5,.L50
 685              	.L34:
 686              	.LVL72:
 687              	.LBE88:
 688              	.LBE87:
 689 0144 BB07FA00 		addw	a5,s4,a5
 690 0148 6FF01FFE 		j	.L33
 691              	.LVL73:
 692              	.L50:
 693              	.LBB102:
 694              	.LBB101:
  26:src/user_main.cpp ****     }
 695              		.loc 1 26 43
 696 014c 1B8BFAFF 		addiw	s6,s5,-1
 697 0150 9B070B00 		sext.w	a5,s6
 698              	.LVL74:
 699              	.LBB89:
 700              	.LBB90:
  25:src/user_main.cpp ****         return (i == 0 ? 0 : i + fibonacci(i - 1));
 701              		.loc 1 25 9 is_stmt 1
 702 0154 13170B02 		slli	a4,s6,32
 703 0158 63480706 		bltz	a4,.L43
  26:src/user_main.cpp ****     }
GAS LISTING /tmp/cck5AKNu.s 			page 17


 704              		.loc 1 26 9
  26:src/user_main.cpp ****     }
 705              		.loc 1 26 24 is_stmt 0
 706 015c 63960700 		bnez	a5,.L51
 707              	.L35:
 708              	.LVL75:
 709              	.LBE90:
 710              	.LBE89:
 711 0160 BB87FA00 		addw	a5,s5,a5
 712 0164 6FF01FFE 		j	.L34
 713              	.LVL76:
 714              	.L51:
 715              	.LBB100:
 716              	.LBB99:
  26:src/user_main.cpp ****     }
 717              		.loc 1 26 43
 718 0168 9B0BFBFF 		addiw	s7,s6,-1
 719 016c 9B870B00 		sext.w	a5,s7
 720              	.LVL77:
 721              	.LBB91:
 722              	.LBB92:
  25:src/user_main.cpp ****         return (i == 0 ? 0 : i + fibonacci(i - 1));
 723              		.loc 1 25 9 is_stmt 1
 724 0170 13970B02 		slli	a4,s7,32
 725 0174 63460704 		bltz	a4,.L44
  26:src/user_main.cpp ****     }
 726              		.loc 1 26 9
  26:src/user_main.cpp ****     }
 727              		.loc 1 26 24 is_stmt 0
 728 0178 63960700 		bnez	a5,.L52
 729              	.L36:
 730              	.LVL78:
 731              	.LBE92:
 732              	.LBE91:
 733 017c BB07FB00 		addw	a5,s6,a5
 734 0180 6FF01FFE 		j	.L35
 735              	.LVL79:
 736              	.L52:
 737              	.LBB98:
 738              	.LBB97:
  26:src/user_main.cpp ****     }
 739              		.loc 1 26 43
 740 0184 1B8CFBFF 		addiw	s8,s7,-1
 741 0188 9B070C00 		sext.w	a5,s8
 742              	.LVL80:
 743              	.LBB93:
 744              	.LBB94:
  25:src/user_main.cpp ****         return (i == 0 ? 0 : i + fibonacci(i - 1));
 745              		.loc 1 25 9 is_stmt 1
 746 018c 13170C02 		slli	a4,s8,32
 747 0190 63440702 		bltz	a4,.L45
  26:src/user_main.cpp ****     }
 748              		.loc 1 26 9
  26:src/user_main.cpp ****     }
 749              		.loc 1 26 24 is_stmt 0
 750 0194 63960700 		bnez	a5,.L53
 751              	.L37:
GAS LISTING /tmp/cck5AKNu.s 			page 18


 752              	.LVL81:
 753              	.LBE94:
 754              	.LBE93:
 755 0198 BB87FB00 		addw	a5,s7,a5
 756 019c 6FF01FFE 		j	.L36
 757              	.LVL82:
 758              	.L53:
 759              	.LBB96:
 760              	.LBB95:
  26:src/user_main.cpp ****     }
 761              		.loc 1 26 43
 762 01a0 9B05FCFF 		addiw	a1,s8,-1
 763 01a4 13850400 		mv	a0,s1
 764 01a8 97000000 		call	_ZN15FibonacciThread9fibonacciEi
 764      E7800000 
 765              	.LVL83:
  26:src/user_main.cpp ****     }
 766              		.loc 1 26 24
 767 01b0 BB07AC00 		addw	a5,s8,a0
 768 01b4 6FF05FFE 		j	.L37
 769              	.L45:
  25:src/user_main.cpp ****         return (i == 0 ? 0 : i + fibonacci(i - 1));
 770              		.loc 1 25 28
 771 01b8 9307F0FF 		li	a5,-1
 772 01bc 6FF0DFFD 		j	.L37
 773              	.LVL84:
 774              	.L44:
 775              	.LBE95:
 776              	.LBE96:
 777 01c0 9307F0FF 		li	a5,-1
 778 01c4 6FF09FFB 		j	.L36
 779              	.LVL85:
 780              	.L43:
 781              	.LBE97:
 782              	.LBE98:
 783 01c8 9307F0FF 		li	a5,-1
 784 01cc 6FF05FF9 		j	.L35
 785              	.LVL86:
 786              	.L42:
 787              	.LBE99:
 788              	.LBE100:
 789 01d0 9307F0FF 		li	a5,-1
 790 01d4 6FF01FF7 		j	.L34
 791              	.LVL87:
 792              	.L41:
 793              	.LBE101:
 794              	.LBE102:
 795 01d8 9307F0FF 		li	a5,-1
 796 01dc 6FF0DFF4 		j	.L33
 797              	.LVL88:
 798              	.L40:
 799              	.LBE103:
 800              	.LBE104:
 801 01e0 9307F0FF 		li	a5,-1
 802 01e4 6FF09FF2 		j	.L32
 803              	.LBE105:
 804              	.LBE106:
GAS LISTING /tmp/cck5AKNu.s 			page 19


 805              	.LBE107:
 806              	.LBE108:
 807              		.cfi_endproc
 808              	.LFE67:
 810              		.section	.rodata.str1.8,"aMS",@progbits,1
 811              		.align	3
 812              	.LC3:
 813 0000 48656C6C 		.string	"Hello There!! Welcome to my Operating System.\n"
 813      6F205468 
 813      65726521 
 813      21205765 
 813      6C636F6D 
 814              		.text
 815              		.align	2
 816              		.globl	_Z8userMainv
 818              	_Z8userMainv:
 819              	.LFB81:
  53:src/user_main.cpp **** };
  54:src/user_main.cpp **** 
  55:src/user_main.cpp **** int userMain() {
 820              		.loc 1 55 16 is_stmt 1
 821              		.cfi_startproc
 822              		.cfi_personality 0x9b,DW.ref.__gxx_personality_v0
 823              		.cfi_lsda 0x1b,.LLSDA81
 824 0000 130101E4 		addi	sp,sp,-448
 825              		.cfi_def_cfa_offset 448
 826 0004 233C111A 		sd	ra,440(sp)
 827 0008 2338811A 		sd	s0,432(sp)
 828 000c 2334911A 		sd	s1,424(sp)
 829 0010 2330211B 		sd	s2,416(sp)
 830 0014 233C3119 		sd	s3,408(sp)
 831              		.cfi_offset 1, -8
 832              		.cfi_offset 8, -16
 833              		.cfi_offset 9, -24
 834              		.cfi_offset 18, -32
 835              		.cfi_offset 19, -40
 836 0018 1304011C 		addi	s0,sp,448
 837              		.cfi_def_cfa 8, 0
  56:src/user_main.cpp **** 
  57:src/user_main.cpp ****     dramatic_print("Hello There!! Welcome to my Operating System.\n");
 838              		.loc 1 57 5
 839              		.loc 1 57 19 is_stmt 0
 840 001c 17050000 		lla	a0,.LC3
 840      13050500 
 841              	.LEHB0:
 842 0024 97000000 		call	_Z14dramatic_printPKc@plt
 842      E7800000 
 843              	.LVL89:
 844              	.LBB109:
  58:src/user_main.cpp ****     Thread *threads[THRD];
  59:src/user_main.cpp ****     for (int i = 0; i < THRD; i++) {
 845              		.loc 1 59 14
 846 002c 13090000 		li	s2,0
 847 0030 6F004003 		j	.L56
 848              	.LVL90:
 849              	.L72:
 850              	.LBB110:
GAS LISTING /tmp/cck5AKNu.s 			page 20


 851              	.LBB111:
  12:src/user_main.cpp **** 
 852              		.loc 1 12 53
 853 0034 97070000 		lla	a5,_ZTV15FibonacciThread+16
 853      93870700 
 854 003c 23B0F400 		sd	a5,0(s1)
 855 0040 23803403 		sb	s3,32(s1)
 856              	.LVL91:
 857              	.LBE111:
 858              	.LBE110:
  60:src/user_main.cpp ****         threads[i] = new FibonacciThread('A' + i);
 859              		.loc 1 60 20
 860 0044 93173900 		slli	a5,s2,3
 861 0048 130704FD 		addi	a4,s0,-48
 862 004c B307F700 		add	a5,a4,a5
 863 0050 23B897E6 		sd	s1,-400(a5)
  61:src/user_main.cpp ****         threads[i]->start();
 864              		.loc 1 61 9 is_stmt 1
 865              		.loc 1 61 26 is_stmt 0
 866 0054 13850400 		mv	a0,s1
 867 0058 97000000 		call	_ZN6Thread5startEv@plt
 867      E7800000 
 868              	.LVL92:
  59:src/user_main.cpp ****         threads[i] = new FibonacciThread('A' + i);
 869              		.loc 1 59 5 is_stmt 1
 870 0060 1B091900 		addiw	s2,s2,1
 871              	.LVL93:
 872              	.L56:
  59:src/user_main.cpp ****         threads[i] = new FibonacciThread('A' + i);
 873              		.loc 1 59 23 discriminator 1
 874 0064 93071003 		li	a5,49
 875 0068 63C42703 		bgt	s2,a5,.L63
  60:src/user_main.cpp ****         threads[i] = new FibonacciThread('A' + i);
 876              		.loc 1 60 9
  60:src/user_main.cpp ****         threads[i] = new FibonacciThread('A' + i);
 877              		.loc 1 60 49 is_stmt 0
 878 006c 13058002 		li	a0,40
 879 0070 97000000 		call	_Znwm@plt
 879      E7800000 
 880              	.LVL94:
 881              	.LEHE0:
 882 0078 93040500 		mv	s1,a0
 883 007c 9B091904 		addiw	s3,s2,65
 884 0080 93F9F90F 		andi	s3,s3,0xff
 885              	.LVL95:
 886              	.LEHB1:
 887              	.LBB113:
 888              	.LBB112:
  12:src/user_main.cpp **** 
 889              		.loc 1 12 53
 890 0084 97000000 		call	_ZN6ThreadC2Ev@plt
 890      E7800000 
 891              	.LVL96:
 892              	.LEHE1:
 893 008c 6FF09FFA 		j	.L72
 894              	.LVL97:
 895              	.L63:
GAS LISTING /tmp/cck5AKNu.s 			page 21


 896              	.LBE112:
 897              	.LBE113:
 898              	.LBE109:
 899              	.LBB114:
  62:src/user_main.cpp ****     }
  63:src/user_main.cpp ****     for (auto & thread : threads) {
 900              		.loc 1 63 26
 901 0090 930404E4 		addi	s1,s0,-448
 902              	.L55:
 903              	.LVL98:
 904              		.loc 1 63 26 is_stmt 1 discriminator 1
 905 0094 930704FD 		addi	a5,s0,-48
 906 0098 638CF400 		beq	s1,a5,.L57
 907              	.LVL99:
  64:src/user_main.cpp ****         thread->join();
 908              		.loc 1 64 9 discriminator 2
 909              		.loc 1 64 21 is_stmt 0 discriminator 2
 910 009c 03B50400 		ld	a0,0(s1)
 911              	.LEHB2:
 912 00a0 97000000 		call	_ZN6Thread4joinEv@plt
 912      E7800000 
 913              	.LVL100:
  63:src/user_main.cpp ****         thread->join();
 914              		.loc 1 63 5 is_stmt 1 discriminator 2
 915 00a8 93848400 		addi	s1,s1,8
 916              	.LVL101:
 917 00ac 6FF09FFE 		j	.L55
 918              	.LVL102:
 919              	.L57:
 920              	.LBE114:
  65:src/user_main.cpp ****     }
  66:src/user_main.cpp ****     Thread *sleeper1 = new SleeperThread(10), *sleeper2 = new SleeperThread(20), *sleeper4 = new Sl
 921              		.loc 1 66 5
 922              		.loc 1 66 44 is_stmt 0
 923 00b0 13058002 		li	a0,40
 924 00b4 97000000 		call	_Znwm@plt
 924      E7800000 
 925              	.LVL103:
 926              	.LEHE2:
 927 00bc 93090500 		mv	s3,a0
 928              	.LVL104:
 929              	.LEHB3:
 930              	.LBB115:
 931              	.LBB116:
  34:src/user_main.cpp ****     void run() override {
 932              		.loc 1 34 49
 933 00c0 97000000 		call	_ZN6ThreadC2Ev@plt
 933      E7800000 
 934              	.LVL105:
 935              	.LEHE3:
 936 00c8 97070000 		lla	a5,_ZTV13SleeperThread+16
 936      93870700 
 937 00d0 23B0F900 		sd	a5,0(s3)
 938 00d4 9307A000 		li	a5,10
 939 00d8 23A0F902 		sw	a5,32(s3)
 940              	.LVL106:
 941              	.LBE116:
GAS LISTING /tmp/cck5AKNu.s 			page 22


 942              	.LBE115:
 943              		.loc 1 66 79
 944 00dc 13058002 		li	a0,40
 945              	.LEHB4:
 946 00e0 97000000 		call	_Znwm@plt
 946      E7800000 
 947              	.LVL107:
 948              	.LEHE4:
 949 00e8 13090500 		mv	s2,a0
 950              	.LVL108:
 951              	.LEHB5:
 952              	.LBB117:
 953              	.LBB118:
  34:src/user_main.cpp ****     void run() override {
 954              		.loc 1 34 49
 955 00ec 97000000 		call	_ZN6ThreadC2Ev@plt
 955      E7800000 
 956              	.LVL109:
 957              	.LEHE5:
 958 00f4 97070000 		lla	a5,_ZTV13SleeperThread+16
 958      93870700 
 959 00fc 2330F900 		sd	a5,0(s2)
 960 0100 93074001 		li	a5,20
 961 0104 2320F902 		sw	a5,32(s2)
 962              	.LVL110:
 963              	.LBE118:
 964              	.LBE117:
 965              		.loc 1 66 114
 966 0108 13058002 		li	a0,40
 967              	.LEHB6:
 968 010c 97000000 		call	_Znwm@plt
 968      E7800000 
 969              	.LVL111:
 970              	.LEHE6:
 971 0114 93040500 		mv	s1,a0
 972              	.LVL112:
 973              	.LEHB7:
 974              	.LBB119:
 975              	.LBB120:
  34:src/user_main.cpp ****     void run() override {
 976              		.loc 1 34 49
 977 0118 97000000 		call	_ZN6ThreadC2Ev@plt
 977      E7800000 
 978              	.LVL113:
 979              	.LEHE7:
 980 0120 97070000 		lla	a5,_ZTV13SleeperThread+16
 980      93870700 
 981 0128 23B0F400 		sd	a5,0(s1)
 982 012c 93078002 		li	a5,40
 983 0130 23A0F402 		sw	a5,32(s1)
 984              	.LVL114:
 985              	.LBE120:
 986              	.LBE119:
  67:src/user_main.cpp ****     sleeper1->start();
 987              		.loc 1 67 5 is_stmt 1
 988              		.loc 1 67 20 is_stmt 0
 989 0134 13850900 		mv	a0,s3
GAS LISTING /tmp/cck5AKNu.s 			page 23


 990              	.LEHB8:
 991 0138 97000000 		call	_ZN6Thread5startEv@plt
 991      E7800000 
 992              	.LVL115:
  68:src/user_main.cpp ****     sleeper2->start();
 993              		.loc 1 68 5 is_stmt 1
 994              		.loc 1 68 20 is_stmt 0
 995 0140 13050900 		mv	a0,s2
 996 0144 97000000 		call	_ZN6Thread5startEv@plt
 996      E7800000 
 997              	.LVL116:
  69:src/user_main.cpp ****     sleeper4->start();
 998              		.loc 1 69 5 is_stmt 1
 999              		.loc 1 69 20 is_stmt 0
 1000 014c 13850400 		mv	a0,s1
 1001 0150 97000000 		call	_ZN6Thread5startEv@plt
 1001      E7800000 
 1002              	.LVL117:
  70:src/user_main.cpp ****     sleeper1->join();
 1003              		.loc 1 70 5 is_stmt 1
 1004              		.loc 1 70 19 is_stmt 0
 1005 0158 13850900 		mv	a0,s3
 1006 015c 97000000 		call	_ZN6Thread4joinEv@plt
 1006      E7800000 
 1007              	.LVL118:
  71:src/user_main.cpp ****     sleeper2->join();
 1008              		.loc 1 71 5 is_stmt 1
 1009              		.loc 1 71 19 is_stmt 0
 1010 0164 13050900 		mv	a0,s2
 1011 0168 97000000 		call	_ZN6Thread4joinEv@plt
 1011      E7800000 
 1012              	.LVL119:
  72:src/user_main.cpp ****     sleeper4->join();
 1013              		.loc 1 72 5 is_stmt 1
 1014              		.loc 1 72 19 is_stmt 0
 1015 0170 13850400 		mv	a0,s1
 1016 0174 97000000 		call	_ZN6Thread4joinEv@plt
 1016      E7800000 
 1017              	.LVL120:
  73:src/user_main.cpp ****     Pthread *pthread = new Pthread(10);
 1018              		.loc 1 73 5 is_stmt 1
 1019              		.loc 1 73 38 is_stmt 0
 1020 017c 13058002 		li	a0,40
 1021 0180 97000000 		call	_Znwm@plt
 1021      E7800000 
 1022              	.LVL121:
 1023              	.LEHE8:
 1024 0188 93040500 		mv	s1,a0
 1025              	.LVL122:
 1026              	.LBB121:
 1027              	.LBB122:
  49:src/user_main.cpp ****     void periodicActivation() override {
 1028              		.loc 1 49 57
 1029 018c 9305A000 		li	a1,10
 1030              	.LEHB9:
 1031 0190 97000000 		call	_ZN14PeriodicThreadC2Em@plt
 1031      E7800000 
GAS LISTING /tmp/cck5AKNu.s 			page 24


 1032              	.LVL123:
 1033              	.LEHE9:
 1034 0198 6F000009 		j	.L73
 1035              	.LVL124:
 1036              	.L64:
 1037 019c 13090500 		mv	s2,a0
 1038              	.LVL125:
 1039              	.LBE122:
 1040              	.LBE121:
 1041              	.LBB124:
  60:src/user_main.cpp ****         threads[i]->start();
 1042              		.loc 1 60 49
 1043 01a0 13850400 		mv	a0,s1
 1044 01a4 97000000 		call	_ZdlPv@plt
 1044      E7800000 
 1045              	.LVL126:
 1046 01ac 13050900 		mv	a0,s2
 1047              	.LEHB10:
 1048 01b0 97000000 		call	_Unwind_Resume@plt
 1048      E7800000 
 1049              	.LVL127:
 1050              	.LEHE10:
 1051              	.L65:
 1052 01b8 93040500 		mv	s1,a0
 1053              	.LVL128:
 1054              	.LBE124:
  66:src/user_main.cpp ****     sleeper1->start();
 1055              		.loc 1 66 44
 1056 01bc 13850900 		mv	a0,s3
 1057 01c0 97000000 		call	_ZdlPv@plt
 1057      E7800000 
 1058              	.LVL129:
 1059 01c8 13850400 		mv	a0,s1
 1060              	.LEHB11:
 1061 01cc 97000000 		call	_Unwind_Resume@plt
 1061      E7800000 
 1062              	.LVL130:
 1063              	.LEHE11:
 1064              	.L66:
 1065 01d4 93040500 		mv	s1,a0
 1066              	.LVL131:
  66:src/user_main.cpp ****     sleeper1->start();
 1067              		.loc 1 66 79
 1068 01d8 13050900 		mv	a0,s2
 1069 01dc 97000000 		call	_ZdlPv@plt
 1069      E7800000 
 1070              	.LVL132:
 1071 01e4 13850400 		mv	a0,s1
 1072              	.LEHB12:
 1073 01e8 97000000 		call	_Unwind_Resume@plt
 1073      E7800000 
 1074              	.LVL133:
 1075              	.LEHE12:
 1076              	.L67:
 1077 01f0 13090500 		mv	s2,a0
 1078              	.LVL134:
  66:src/user_main.cpp ****     sleeper1->start();
GAS LISTING /tmp/cck5AKNu.s 			page 25


 1079              		.loc 1 66 114
 1080 01f4 13850400 		mv	a0,s1
 1081 01f8 97000000 		call	_ZdlPv@plt
 1081      E7800000 
 1082              	.LVL135:
 1083 0200 13050900 		mv	a0,s2
 1084              	.LEHB13:
 1085 0204 97000000 		call	_Unwind_Resume@plt
 1085      E7800000 
 1086              	.LVL136:
 1087              	.LEHE13:
 1088              	.L68:
 1089 020c 13090500 		mv	s2,a0
 1090              	.LVL137:
 1091              		.loc 1 73 38
 1092 0210 13850400 		mv	a0,s1
 1093 0214 97000000 		call	_ZdlPv@plt
 1093      E7800000 
 1094              	.LVL138:
 1095 021c 13050900 		mv	a0,s2
 1096              	.LEHB14:
 1097 0220 97000000 		call	_Unwind_Resume@plt
 1097      E7800000 
 1098              	.LVL139:
 1099              	.L73:
 1100              	.LBB125:
 1101              	.LBB123:
  49:src/user_main.cpp ****     void periodicActivation() override {
 1102              		.loc 1 49 57
 1103 0228 97070000 		lla	a5,_ZTV7Pthread+16
 1103      93870700 
 1104 0230 23B0F400 		sd	a5,0(s1)
 1105              	.LVL140:
 1106              	.LBE123:
 1107              	.LBE125:
  74:src/user_main.cpp ****     pthread->start();
 1108              		.loc 1 74 5 is_stmt 1
 1109              		.loc 1 74 19 is_stmt 0
 1110 0234 13850400 		mv	a0,s1
 1111 0238 97000000 		call	_ZN6Thread5startEv@plt
 1111      E7800000 
 1112              	.LVL141:
  75:src/user_main.cpp ****     time_sleep(100);
 1113              		.loc 1 75 5 is_stmt 1
 1114              		.loc 1 75 15 is_stmt 0
 1115 0240 13054006 		li	a0,100
 1116 0244 97000000 		call	_Z10time_sleepm@plt
 1116      E7800000 
 1117              	.LVL142:
  76:src/user_main.cpp ****     pthread->terminate();
 1118              		.loc 1 76 5 is_stmt 1
 1119              		.loc 1 76 23 is_stmt 0
 1120 024c 13850400 		mv	a0,s1
 1121 0250 97000000 		call	_ZN14PeriodicThread9terminateEv@plt
 1121      E7800000 
 1122              	.LVL143:
  77:src/user_main.cpp ****     pthread->join();
GAS LISTING /tmp/cck5AKNu.s 			page 26


 1123              		.loc 1 77 5 is_stmt 1
 1124              		.loc 1 77 18 is_stmt 0
 1125 0258 13850400 		mv	a0,s1
 1126 025c 97000000 		call	_ZN6Thread4joinEv@plt
 1126      E7800000 
 1127              	.LVL144:
 1128              	.LEHE14:
  78:src/user_main.cpp ****     return 0;
 1129              		.loc 1 78 5 is_stmt 1
  79:src/user_main.cpp **** }...
 1130              		.loc 1 79 1 is_stmt 0
 1131 0264 13050000 		li	a0,0
 1132 0268 8330811B 		ld	ra,440(sp)
 1133              		.cfi_restore 1
 1134 026c 0334011B 		ld	s0,432(sp)
 1135              		.cfi_restore 8
 1136              		.cfi_def_cfa 2, 448
 1137 0270 8334811A 		ld	s1,424(sp)
 1138              		.cfi_restore 9
 1139              	.LVL145:
 1140 0274 0339011A 		ld	s2,416(sp)
 1141              		.cfi_restore 18
 1142              	.LVL146:
 1143 0278 83398119 		ld	s3,408(sp)
 1144              		.cfi_restore 19
 1145              	.LVL147:
 1146 027c 1301011C 		addi	sp,sp,448
 1147              		.cfi_def_cfa_offset 0
 1148 0280 67800000 		jr	ra
 1149              		.cfi_endproc
 1150              	.LFE81:
 1151              		.globl	__gxx_personality_v0
 1152              		.section	.gcc_except_table,"a",@progbits
 1153              	.LLSDA81:
 1154 0000 FF       		.byte	0xff
 1155 0001 FF       		.byte	0xff
 1156 0002 03       		.byte	0x3
 1157 0003 C301     		.byte	0xc3,0x1
 1158 0005 00000000 		.4byte	.LEHB0-.LFB81
 1159 0009 00000000 		.4byte	.LEHE0-.LEHB0
 1160 000d 00000000 		.4byte	0
 1161 0011 00       		.byte	0
 1162 0012 00000000 		.4byte	.LEHB1-.LFB81
 1163 0016 00000000 		.4byte	.LEHE1-.LEHB1
 1164 001a 00000000 		.4byte	.L64-.LFB81
 1165 001e 00       		.byte	0
 1166 001f 00000000 		.4byte	.LEHB2-.LFB81
 1167 0023 00000000 		.4byte	.LEHE2-.LEHB2
 1168 0027 00000000 		.4byte	0
 1169 002b 00       		.byte	0
 1170 002c 00000000 		.4byte	.LEHB3-.LFB81
 1171 0030 00000000 		.4byte	.LEHE3-.LEHB3
 1172 0034 00000000 		.4byte	.L65-.LFB81
 1173 0038 00       		.byte	0
 1174 0039 00000000 		.4byte	.LEHB4-.LFB81
 1175 003d 00000000 		.4byte	.LEHE4-.LEHB4
 1176 0041 00000000 		.4byte	0
GAS LISTING /tmp/cck5AKNu.s 			page 27


 1177 0045 00       		.byte	0
 1178 0046 00000000 		.4byte	.LEHB5-.LFB81
 1179 004a 00000000 		.4byte	.LEHE5-.LEHB5
 1180 004e 00000000 		.4byte	.L66-.LFB81
 1181 0052 00       		.byte	0
 1182 0053 00000000 		.4byte	.LEHB6-.LFB81
 1183 0057 00000000 		.4byte	.LEHE6-.LEHB6
 1184 005b 00000000 		.4byte	0
 1185 005f 00       		.byte	0
 1186 0060 00000000 		.4byte	.LEHB7-.LFB81
 1187 0064 00000000 		.4byte	.LEHE7-.LEHB7
 1188 0068 00000000 		.4byte	.L67-.LFB81
 1189 006c 00       		.byte	0
 1190 006d 00000000 		.4byte	.LEHB8-.LFB81
 1191 0071 00000000 		.4byte	.LEHE8-.LEHB8
 1192 0075 00000000 		.4byte	0
 1193 0079 00       		.byte	0
 1194 007a 00000000 		.4byte	.LEHB9-.LFB81
 1195 007e 00000000 		.4byte	.LEHE9-.LEHB9
 1196 0082 00000000 		.4byte	.L68-.LFB81
 1197 0086 00       		.byte	0
 1198 0087 00000000 		.4byte	.LEHB10-.LFB81
 1199 008b 00000000 		.4byte	.LEHE10-.LEHB10
 1200 008f 00000000 		.4byte	0
 1201 0093 00       		.byte	0
 1202 0094 00000000 		.4byte	.LEHB11-.LFB81
 1203 0098 00000000 		.4byte	.LEHE11-.LEHB11
 1204 009c 00000000 		.4byte	0
 1205 00a0 00       		.byte	0
 1206 00a1 00000000 		.4byte	.LEHB12-.LFB81
 1207 00a5 00000000 		.4byte	.LEHE12-.LEHB12
 1208 00a9 00000000 		.4byte	0
 1209 00ad 00       		.byte	0
 1210 00ae 00000000 		.4byte	.LEHB13-.LFB81
 1211 00b2 00000000 		.4byte	.LEHE13-.LEHB13
 1212 00b6 00000000 		.4byte	0
 1213 00ba 00       		.byte	0
 1214 00bb 00000000 		.4byte	.LEHB14-.LFB81
 1215 00bf 00000000 		.4byte	.LEHE14-.LEHB14
 1216 00c3 00000000 		.4byte	0
 1217 00c7 00       		.byte	0
 1218              		.text
 1220              		.weak	_ZTV15FibonacciThread
 1221              		.section	.data.rel.ro.local._ZTV15FibonacciThread,"awG",@progbits,_ZTV15FibonacciThread,comdat
 1222              		.align	3
 1225              	_ZTV15FibonacciThread:
 1226 0000 00000000 		.dword	0
 1226      00000000 
 1227 0008 00000000 		.dword	0
 1227      00000000 
 1228 0010 00000000 		.dword	_ZN15FibonacciThreadD1Ev
 1228      00000000 
 1229 0018 00000000 		.dword	_ZN15FibonacciThreadD0Ev
 1229      00000000 
 1230 0020 00000000 		.dword	_ZN15FibonacciThread3runEv
 1230      00000000 
 1231              		.weak	_ZTV13SleeperThread
GAS LISTING /tmp/cck5AKNu.s 			page 28


 1232              		.section	.data.rel.ro.local._ZTV13SleeperThread,"awG",@progbits,_ZTV13SleeperThread,comdat
 1233              		.align	3
 1236              	_ZTV13SleeperThread:
 1237 0000 00000000 		.dword	0
 1237      00000000 
 1238 0008 00000000 		.dword	0
 1238      00000000 
 1239 0010 00000000 		.dword	_ZN13SleeperThreadD1Ev
 1239      00000000 
 1240 0018 00000000 		.dword	_ZN13SleeperThreadD0Ev
 1240      00000000 
 1241 0020 00000000 		.dword	_ZN13SleeperThread3runEv
 1241      00000000 
 1242              		.weak	_ZTV7Pthread
 1243              		.section	.data.rel.ro._ZTV7Pthread,"awG",@progbits,_ZTV7Pthread,comdat
 1244              		.align	3
 1247              	_ZTV7Pthread:
 1248 0000 00000000 		.dword	0
 1248      00000000 
 1249 0008 00000000 		.dword	0
 1249      00000000 
 1250 0010 00000000 		.dword	_ZN7PthreadD1Ev
 1250      00000000 
 1251 0018 00000000 		.dword	_ZN7PthreadD0Ev
 1251      00000000 
 1252 0020 00000000 		.dword	_ZN14PeriodicThread3runEv
 1252      00000000 
 1253 0028 00000000 		.dword	_ZN7Pthread18periodicActivationEv
 1253      00000000 
 1254              		.text
 1255              	.Letext0:
 1256              		.file 3 "src/../h/../lib/hw.h"
 1257              		.file 4 "src/../h/string.hpp"
 1258              		.file 5 "src/../h/iostream.hpp"
 1259              		.file 6 "src/../h/syscall_c.hpp"
 1260              		.file 7 "src/../h/c_console.hpp"
 1261              		.file 8 "src/../h/circular_buffer.hpp"
 5855              		.align	3
 5858              	DW.ref.__gxx_personality_v0:
 5859 0000 00000000 		.dword	__gxx_personality_v0
 5859      00000000 
 5860              		.ident	"GCC: (Ubuntu 9.4.0-1ubuntu1~20.04) 9.4.0"
 5861              		.section	.note.GNU-stack,"",@progbits
GAS LISTING /tmp/cck5AKNu.s 			page 29

